                              1 ;--------------------------------------------------------
                              2 ; File Created by SDCC : free open source ANSI-C Compiler
                              3 ; Version 3.1.1 #7100 (Oct 29 2014) (Linux)
                              4 ; This file was generated Wed Dec  2 18:10:52 2015
                              5 ;--------------------------------------------------------
                              6 	.module contikimac
                              7 	.optsdcc -mmcs51 --model-huge
                              8 	
                              9 ;--------------------------------------------------------
                             10 ; Public variables in this module
                             11 ;--------------------------------------------------------
                             12 	.globl _contikimac_driver
                             13 	.globl _contikimac_debug_print
                             14 	.globl _phase_update
                             15 	.globl _phase_wait
                             16 	.globl _phase_init
                             17 	.globl _printf
                             18 	.globl _list_item_next
                             19 	.globl _queuebuf_to_packetbuf
                             20 	.globl _packetbuf_addr
                             21 	.globl _packetbuf_set_addr
                             22 	.globl _packetbuf_attr
                             23 	.globl _packetbuf_set_attr
                             24 	.globl _packetbuf_hdrreduce
                             25 	.globl _packetbuf_hdralloc
                             26 	.globl _packetbuf_compact
                             27 	.globl _packetbuf_set_datalen
                             28 	.globl _packetbuf_totlen
                             29 	.globl _packetbuf_datalen
                             30 	.globl _packetbuf_hdrptr
                             31 	.globl _packetbuf_dataptr
                             32 	.globl _packetbuf_hdr_remove
                             33 	.globl _ctimer_stop
                             34 	.globl _ctimer_set
                             35 	.globl _rimeaddr_cmp
                             36 	.globl _rimeaddr_copy
                             37 	.globl _rtimer_set
                             38 	.globl _memset
                             39 	.globl _memcpy
                             40 	.globl _watchdog_periodic
                             41 	.globl _ACTIVE
                             42 	.globl _TX_BYTE
                             43 	.globl _RX_BYTE
                             44 	.globl _ERR
                             45 	.globl _FE
                             46 	.globl _SLAVE
                             47 	.globl _RE
                             48 	.globl _MODE
                             49 	.globl _T3OVFIF
                             50 	.globl _T3CH0IF
                             51 	.globl _T3CH1IF
                             52 	.globl _T4OVFIF
                             53 	.globl _T4CH0IF
                             54 	.globl _T4CH1IF
                             55 	.globl _OVFIM
                             56 	.globl _B_0
                             57 	.globl _B_1
                             58 	.globl _B_2
                             59 	.globl _B_3
                             60 	.globl _B_4
                             61 	.globl _B_5
                             62 	.globl _B_6
                             63 	.globl _B_7
                             64 	.globl _P2IF
                             65 	.globl _UTX0IF
                             66 	.globl _UTX1IF
                             67 	.globl _P1IF
                             68 	.globl _WDTIF
                             69 	.globl _ACC_0
                             70 	.globl _ACC_1
                             71 	.globl _ACC_2
                             72 	.globl _ACC_3
                             73 	.globl _ACC_4
                             74 	.globl _ACC_5
                             75 	.globl _ACC_6
                             76 	.globl _ACC_7
                             77 	.globl _P
                             78 	.globl _F1
                             79 	.globl _OV
                             80 	.globl _RS0
                             81 	.globl _RS1
                             82 	.globl _F0
                             83 	.globl _AC
                             84 	.globl _CY
                             85 	.globl _DMAIF
                             86 	.globl _T1IF
                             87 	.globl _T2IF
                             88 	.globl _T3IF
                             89 	.globl _T4IF
                             90 	.globl _P0IF
                             91 	.globl _STIF
                             92 	.globl _DMAIE
                             93 	.globl _T1IE
                             94 	.globl _T2IE
                             95 	.globl _T3IE
                             96 	.globl _T4IE
                             97 	.globl _P0IE
                             98 	.globl _RFERRIE
                             99 	.globl _ADCIE
                            100 	.globl _URX0IE
                            101 	.globl _URX1IE
                            102 	.globl _ENCIE
                            103 	.globl _STIE
                            104 	.globl _EA
                            105 	.globl _P2_0
                            106 	.globl _P2_1
                            107 	.globl _P2_2
                            108 	.globl _P2_3
                            109 	.globl _P2_4
                            110 	.globl _P2_5
                            111 	.globl _P2_6
                            112 	.globl _P2_7
                            113 	.globl _ENCIF_0
                            114 	.globl _ENCIF_1
                            115 	.globl _P1_0
                            116 	.globl _P1_1
                            117 	.globl _P1_2
                            118 	.globl _P1_3
                            119 	.globl _P1_4
                            120 	.globl _P1_5
                            121 	.globl _P1_6
                            122 	.globl _P1_7
                            123 	.globl _IT0
                            124 	.globl _RFERRIF
                            125 	.globl _IT1
                            126 	.globl _URX0IF
                            127 	.globl _ADCIF
                            128 	.globl _URX1IF
                            129 	.globl _P0_0
                            130 	.globl _P0_1
                            131 	.globl _P0_2
                            132 	.globl _P0_3
                            133 	.globl _P0_4
                            134 	.globl _P0_5
                            135 	.globl _P0_6
                            136 	.globl _P0_7
                            137 	.globl _WDCTL
                            138 	.globl _U1GCR
                            139 	.globl _U1UCR
                            140 	.globl _U1BAUD
                            141 	.globl _U1DBUF
                            142 	.globl _U1CSR
                            143 	.globl _U0GCR
                            144 	.globl _U0UCR
                            145 	.globl _U0BAUD
                            146 	.globl _U0DBUF
                            147 	.globl _U0CSR
                            148 	.globl _TIMIF
                            149 	.globl _T4CC1
                            150 	.globl _T4CCTL1
                            151 	.globl _T4CC0
                            152 	.globl _T4CCTL0
                            153 	.globl _T4CTL
                            154 	.globl _T4CNT
                            155 	.globl _T3CC1
                            156 	.globl _T3CCTL1
                            157 	.globl _T3CC0
                            158 	.globl _T3CCTL0
                            159 	.globl _T3CTL
                            160 	.globl _T3CNT
                            161 	.globl _T2MSEL
                            162 	.globl _T2IRQM
                            163 	.globl _T2MOVF2
                            164 	.globl _T2MOVF1
                            165 	.globl _T2MOVF0
                            166 	.globl _T2M1
                            167 	.globl _T2M0
                            168 	.globl _T2IRQF
                            169 	.globl _T2EVTCFG
                            170 	.globl _T2CTRL
                            171 	.globl _T1STAT
                            172 	.globl _T1CCTL2
                            173 	.globl _T1CCTL1
                            174 	.globl _T1CCTL0
                            175 	.globl _T1CTL
                            176 	.globl _T1CNTH
                            177 	.globl _T1CNTL
                            178 	.globl _T1CC2H
                            179 	.globl _T1CC2L
                            180 	.globl _T1CC1H
                            181 	.globl _T1CC1L
                            182 	.globl _T1CC0H
                            183 	.globl _T1CC0L
                            184 	.globl _CLKCONSTA
                            185 	.globl _CLKCONCMD
                            186 	.globl _SLEEPSTA
                            187 	.globl _SLEEPCMD
                            188 	.globl _STLOAD
                            189 	.globl _ST2
                            190 	.globl _ST1
                            191 	.globl _ST0
                            192 	.globl _RFERRF
                            193 	.globl _RFIRQF0
                            194 	.globl _RFST
                            195 	.globl _RFD
                            196 	.globl _RFIRQF1
                            197 	.globl _PSBANK
                            198 	.globl _FMAP
                            199 	.globl _MEMCTR
                            200 	.globl __XPAGE
                            201 	.globl _MPAGE
                            202 	.globl _PMUX
                            203 	.globl _P2DIR
                            204 	.globl _P1DIR
                            205 	.globl _P0DIR
                            206 	.globl _P2INP
                            207 	.globl _P1INP
                            208 	.globl _P2SEL
                            209 	.globl _P1SEL
                            210 	.globl _P0SEL
                            211 	.globl _APCFG
                            212 	.globl _PERCFG
                            213 	.globl _P0INP
                            214 	.globl _P2IEN
                            215 	.globl _P1IEN
                            216 	.globl _P0IEN
                            217 	.globl _PICTL
                            218 	.globl _P2IFG
                            219 	.globl _P1IFG
                            220 	.globl _P0IFG
                            221 	.globl _DMAREQ
                            222 	.globl _DMAARM
                            223 	.globl _DMA0CFGH
                            224 	.globl _DMA0CFGL
                            225 	.globl _DMA1CFGH
                            226 	.globl _DMA1CFGL
                            227 	.globl _DMAIRQ
                            228 	.globl _ENCCS
                            229 	.globl _ENCDO
                            230 	.globl _ENCDI
                            231 	.globl _RNDH
                            232 	.globl _RNDL
                            233 	.globl _ADCH
                            234 	.globl _ADCL
                            235 	.globl _ADCCON3
                            236 	.globl _ADCCON2
                            237 	.globl _ADCCON1
                            238 	.globl _B
                            239 	.globl _IRCON2
                            240 	.globl _ACC
                            241 	.globl _PSW
                            242 	.globl _IRCON
                            243 	.globl _IP1
                            244 	.globl _IEN1
                            245 	.globl _IP0
                            246 	.globl _IEN0
                            247 	.globl _P2
                            248 	.globl _S1CON
                            249 	.globl _IEN2
                            250 	.globl _S0CON
                            251 	.globl _DPS
                            252 	.globl _P1
                            253 	.globl _TCON
                            254 	.globl _PCON
                            255 	.globl _DPH1
                            256 	.globl _DPL1
                            257 	.globl _DPH0
                            258 	.globl _DPL0
                            259 	.globl _SP
                            260 	.globl _P0
                            261 	.globl _phase_list
                            262 	.globl _X_IEEE_ADDR
                            263 	.globl _X_INFOPAGE
                            264 	.globl _X_P2DIR
                            265 	.globl _X_P1DIR
                            266 	.globl _X_P0DIR
                            267 	.globl _X_U1GCR
                            268 	.globl _X_U1UCR
                            269 	.globl _X_U1BAUD
                            270 	.globl _X_U1DBUF
                            271 	.globl _X_U1CSR
                            272 	.globl _X_P2INP
                            273 	.globl _X_P1INP
                            274 	.globl _X_P2SEL
                            275 	.globl _X_P1SEL
                            276 	.globl _X_P0SEL
                            277 	.globl _X_APCFG
                            278 	.globl _X_PERCFG
                            279 	.globl _X_T4CC1
                            280 	.globl _X_T4CCTL1
                            281 	.globl _X_T4CC0
                            282 	.globl _X_T4CCTL0
                            283 	.globl _X_T4CTL
                            284 	.globl _X_T4CNT
                            285 	.globl _X_RFIRQF0
                            286 	.globl _X_T1CCTL2
                            287 	.globl _X_T1CCTL1
                            288 	.globl _X_T1CCTL0
                            289 	.globl _X_T1CTL
                            290 	.globl _X_T1CNTH
                            291 	.globl _X_T1CNTL
                            292 	.globl _X_RFST
                            293 	.globl _X_T1CC2H
                            294 	.globl _X_T1CC2L
                            295 	.globl _X_T1CC1H
                            296 	.globl _X_T1CC1L
                            297 	.globl _X_T1CC0H
                            298 	.globl _X_T1CC0L
                            299 	.globl _X_RFD
                            300 	.globl _X_TIMIF
                            301 	.globl _X_DMAREQ
                            302 	.globl _X_DMAARM
                            303 	.globl _X_DMA0CFGH
                            304 	.globl _X_DMA0CFGL
                            305 	.globl _X_DMA1CFGH
                            306 	.globl _X_DMA1CFGL
                            307 	.globl _X_DMAIRQ
                            308 	.globl _X_T3CC1
                            309 	.globl _X_T3CCTL1
                            310 	.globl _X_T3CC0
                            311 	.globl _X_T3CCTL0
                            312 	.globl _X_T3CTL
                            313 	.globl _X_T3CNT
                            314 	.globl _X_WDCTL
                            315 	.globl _X_MEMCTR
                            316 	.globl _X_CLKCONCMD
                            317 	.globl _X_U0GCR
                            318 	.globl _X_U0UCR
                            319 	.globl _X_T2MSEL
                            320 	.globl _X_U0BAUD
                            321 	.globl _X_U0DBUF
                            322 	.globl _X_RFERRF
                            323 	.globl _X_SLEEPCMD
                            324 	.globl _X_RNDH
                            325 	.globl _X_RNDL
                            326 	.globl _X_ADCH
                            327 	.globl _X_ADCL
                            328 	.globl _X_ADCCON3
                            329 	.globl _X_ADCCON2
                            330 	.globl _X_ADCCON1
                            331 	.globl _X_ENCCS
                            332 	.globl _X_ENCDO
                            333 	.globl _X_ENCDI
                            334 	.globl _X_T1STAT
                            335 	.globl _X_PMUX
                            336 	.globl _X_STLOAD
                            337 	.globl _X_P2IEN
                            338 	.globl _X_P0IEN
                            339 	.globl _X_T2IRQM
                            340 	.globl _X_T2MOVF2
                            341 	.globl _X_T2MOVF1
                            342 	.globl _X_T2MOVF0
                            343 	.globl _X_T2M1
                            344 	.globl _X_T2M0
                            345 	.globl _X_T2IRQF
                            346 	.globl _X_P2
                            347 	.globl _X_PSBANK
                            348 	.globl _X_FMAP
                            349 	.globl _X_CLKCONSTA
                            350 	.globl _X_SLEEPSTA
                            351 	.globl _X_T2EVTCFG
                            352 	.globl _X_ST2
                            353 	.globl _X_ST1
                            354 	.globl _X_ST0
                            355 	.globl _X_T2CTRL
                            356 	.globl _X__XPAGE
                            357 	.globl _X_MPAGE
                            358 	.globl _X_RFIRQF1
                            359 	.globl _X_P1
                            360 	.globl _X_P0INP
                            361 	.globl _X_P1IEN
                            362 	.globl _X_PICTL
                            363 	.globl _X_P2IFG
                            364 	.globl _X_P1IFG
                            365 	.globl _X_P0IFG
                            366 	.globl _X_U0CSR
                            367 	.globl _X_P0
                            368 	.globl _USBF5
                            369 	.globl _USBF4
                            370 	.globl _USBF3
                            371 	.globl _USBF2
                            372 	.globl _USBF1
                            373 	.globl _USBF0
                            374 	.globl _USBCNTH
                            375 	.globl _USBCNTL
                            376 	.globl _USBCNT0
                            377 	.globl _USBCSOH
                            378 	.globl _USBCSOL
                            379 	.globl _USBMAXO
                            380 	.globl _USBCSIH
                            381 	.globl _USBCSIL
                            382 	.globl _USBCS0
                            383 	.globl _USBMAXI
                            384 	.globl _USBCTRL
                            385 	.globl _USBINDEX
                            386 	.globl _USBFRMH
                            387 	.globl _USBFRML
                            388 	.globl _USBCIE
                            389 	.globl _USBOIE
                            390 	.globl _USBIIE
                            391 	.globl _USBCIF
                            392 	.globl _USBOIF
                            393 	.globl _USBIIF
                            394 	.globl _USBPOW
                            395 	.globl _USBADDR
                            396 	.globl _CSPT
                            397 	.globl _CSPZ
                            398 	.globl _CSPY
                            399 	.globl _CSPX
                            400 	.globl _CSPSTAT
                            401 	.globl _CSPCTRL
                            402 	.globl _CSPPROG23
                            403 	.globl _CSPPROG22
                            404 	.globl _CSPPROG21
                            405 	.globl _CSPPROG20
                            406 	.globl _CSPPROG19
                            407 	.globl _CSPPROG18
                            408 	.globl _CSPPROG17
                            409 	.globl _CSPPROG16
                            410 	.globl _CSPPROG15
                            411 	.globl _CSPPROG14
                            412 	.globl _CSPPROG13
                            413 	.globl _CSPPROG12
                            414 	.globl _CSPPROG11
                            415 	.globl _CSPPROG10
                            416 	.globl _CSPPROG9
                            417 	.globl _CSPPROG8
                            418 	.globl _CSPPROG7
                            419 	.globl _CSPPROG6
                            420 	.globl _CSPPROG5
                            421 	.globl _CSPPROG4
                            422 	.globl _CSPPROG3
                            423 	.globl _CSPPROG2
                            424 	.globl _CSPPROG1
                            425 	.globl _CSPPROG0
                            426 	.globl _RFC_OBS_CTRL2
                            427 	.globl _RFC_OBS_CTRL1
                            428 	.globl _RFC_OBS_CTRL0
                            429 	.globl _TXFILTCFG
                            430 	.globl _PTEST1
                            431 	.globl _PTEST0
                            432 	.globl _ATEST
                            433 	.globl _DACTEST2
                            434 	.globl _DACTEST1
                            435 	.globl _DACTEST0
                            436 	.globl _MDMTEST1
                            437 	.globl _MDMTEST0
                            438 	.globl _ADCTEST2
                            439 	.globl _ADCTEST1
                            440 	.globl _ADCTEST0
                            441 	.globl _AGCCTRL3
                            442 	.globl _AGCCTRL2
                            443 	.globl _AGCCTRL1
                            444 	.globl _AGCCTRL0
                            445 	.globl _FSCAL3
                            446 	.globl _FSCAL2
                            447 	.globl _FSCAL1
                            448 	.globl _FSCAL0
                            449 	.globl _FSCTRL
                            450 	.globl _RXCTRL
                            451 	.globl _FREQEST
                            452 	.globl _MDMCTRL1
                            453 	.globl _MDMCTRL0
                            454 	.globl _RFRND
                            455 	.globl _RFERRM
                            456 	.globl _RFIRQM1
                            457 	.globl _RFIRQM0
                            458 	.globl _TXLAST_PTR
                            459 	.globl _TXFIRST_PTR
                            460 	.globl _RXP1_PTR
                            461 	.globl _RXLAST_PTR
                            462 	.globl _RXFIRST_PTR
                            463 	.globl _TXFIFOCNT
                            464 	.globl _RXFIFOCNT
                            465 	.globl _RXFIRST
                            466 	.globl _RSSISTAT
                            467 	.globl _RSSI
                            468 	.globl _CCACTRL1
                            469 	.globl _CCACTRL0
                            470 	.globl _FSMCTRL
                            471 	.globl _FIFOPCTRL
                            472 	.globl _FSMSTAT1
                            473 	.globl _FSMSTAT0
                            474 	.globl _TXCTRL
                            475 	.globl _TXPOWER
                            476 	.globl _FREQCTRL
                            477 	.globl _FREQTUNE
                            478 	.globl _RXMASKCLR
                            479 	.globl _RXMASKSET
                            480 	.globl _RXENABLE
                            481 	.globl _FRMCTRL1
                            482 	.globl _FRMCTRL0
                            483 	.globl _SRCEXTEN2
                            484 	.globl _SRCEXTEN1
                            485 	.globl _SRCEXTEN0
                            486 	.globl _SRCSHORTEN2
                            487 	.globl _SRCSHORTEN1
                            488 	.globl _SRCSHORTEN0
                            489 	.globl _SRCMATCH
                            490 	.globl _FRMFILT1
                            491 	.globl _FRMFILT0
                            492 	.globl _SHORT_ADDR1
                            493 	.globl _SHORT_ADDR0
                            494 	.globl _PAN_ID1
                            495 	.globl _PAN_ID0
                            496 	.globl _EXT_ADDR7
                            497 	.globl _EXT_ADDR6
                            498 	.globl _EXT_ADDR5
                            499 	.globl _EXT_ADDR4
                            500 	.globl _EXT_ADDR3
                            501 	.globl _EXT_ADDR2
                            502 	.globl _EXT_ADDR1
                            503 	.globl _EXT_ADDR0
                            504 	.globl _SRCSHORTPENDEN2
                            505 	.globl _SRCSHORTPENDEN1
                            506 	.globl _SRCSHORTPENDEN0
                            507 	.globl _SRCEXTPENDEN2
                            508 	.globl _SRCEXTPENDEN1
                            509 	.globl _SRCEXTPENDEN0
                            510 	.globl _SRCRESINDEX
                            511 	.globl _SRCRESMASK2
                            512 	.globl _SRCRESMASK1
                            513 	.globl _SRCRESMASK0
                            514 	.globl _SRC_ADDR_TABLE
                            515 	.globl _TXFIFO
                            516 	.globl _RXFIFO
                            517 	.globl _RFCORE_RAM
                            518 	.globl _CMPCTL
                            519 	.globl _OPAMPS
                            520 	.globl _OPAMPC
                            521 	.globl _STCV2
                            522 	.globl _STCV1
                            523 	.globl _STCV0
                            524 	.globl _STCS
                            525 	.globl _STCC
                            526 	.globl _T1CC4H
                            527 	.globl _T1CC4L
                            528 	.globl _T1CC3H
                            529 	.globl _T1CC3L
                            530 	.globl _XX_T1CC2H
                            531 	.globl _XX_T1CC2L
                            532 	.globl _XX_T1CC1H
                            533 	.globl _XX_T1CC1L
                            534 	.globl _XX_T1CC0H
                            535 	.globl _XX_T1CC0L
                            536 	.globl _T1CCTL4
                            537 	.globl _T1CCTL3
                            538 	.globl _XX_T1CCTL2
                            539 	.globl _XX_T1CCTL1
                            540 	.globl _XX_T1CCTL0
                            541 	.globl _CLD
                            542 	.globl _IRCTL
                            543 	.globl _CHIPINFO1
                            544 	.globl _CHIPINFO0
                            545 	.globl _FWDATA
                            546 	.globl _FADDRH
                            547 	.globl _FADDRL
                            548 	.globl _FCTL
                            549 	.globl _IVCTRL
                            550 	.globl _BATTMON
                            551 	.globl _SRCRC
                            552 	.globl _DBGDATA
                            553 	.globl _TESTREG0
                            554 	.globl _CHIPID
                            555 	.globl _CHVER
                            556 	.globl _OBSSEL5
                            557 	.globl _OBSSEL4
                            558 	.globl _OBSSEL3
                            559 	.globl _OBSSEL2
                            560 	.globl _OBSSEL1
                            561 	.globl _OBSSEL0
                            562 	.globl _I2CIO
                            563 	.globl _I2CWC
                            564 	.globl _I2CADDR
                            565 	.globl _I2CDATA
                            566 	.globl _I2CSTAT
                            567 	.globl _I2CCFG
                            568 	.globl _OPAMPMC
                            569 	.globl _MONMUX
                            570 ;--------------------------------------------------------
                            571 ; special function registers
                            572 ;--------------------------------------------------------
                            573 	.area RSEG    (ABS,DATA)
   0000                     574 	.org 0x0000
                    0080    575 _P0	=	0x0080
                    0081    576 _SP	=	0x0081
                    0082    577 _DPL0	=	0x0082
                    0083    578 _DPH0	=	0x0083
                    0084    579 _DPL1	=	0x0084
                    0085    580 _DPH1	=	0x0085
                    0087    581 _PCON	=	0x0087
                    0088    582 _TCON	=	0x0088
                    0090    583 _P1	=	0x0090
                    0092    584 _DPS	=	0x0092
                    0098    585 _S0CON	=	0x0098
                    009A    586 _IEN2	=	0x009a
                    009B    587 _S1CON	=	0x009b
                    00A0    588 _P2	=	0x00a0
                    00A8    589 _IEN0	=	0x00a8
                    00A9    590 _IP0	=	0x00a9
                    00B8    591 _IEN1	=	0x00b8
                    00B9    592 _IP1	=	0x00b9
                    00C0    593 _IRCON	=	0x00c0
                    00D0    594 _PSW	=	0x00d0
                    00E0    595 _ACC	=	0x00e0
                    00E8    596 _IRCON2	=	0x00e8
                    00F0    597 _B	=	0x00f0
                    00B4    598 _ADCCON1	=	0x00b4
                    00B5    599 _ADCCON2	=	0x00b5
                    00B6    600 _ADCCON3	=	0x00b6
                    00BA    601 _ADCL	=	0x00ba
                    00BB    602 _ADCH	=	0x00bb
                    00BC    603 _RNDL	=	0x00bc
                    00BD    604 _RNDH	=	0x00bd
                    00B1    605 _ENCDI	=	0x00b1
                    00B2    606 _ENCDO	=	0x00b2
                    00B3    607 _ENCCS	=	0x00b3
                    00D1    608 _DMAIRQ	=	0x00d1
                    00D2    609 _DMA1CFGL	=	0x00d2
                    00D3    610 _DMA1CFGH	=	0x00d3
                    00D4    611 _DMA0CFGL	=	0x00d4
                    00D5    612 _DMA0CFGH	=	0x00d5
                    00D6    613 _DMAARM	=	0x00d6
                    00D7    614 _DMAREQ	=	0x00d7
                    0089    615 _P0IFG	=	0x0089
                    008A    616 _P1IFG	=	0x008a
                    008B    617 _P2IFG	=	0x008b
                    008C    618 _PICTL	=	0x008c
                    00AB    619 _P0IEN	=	0x00ab
                    008D    620 _P1IEN	=	0x008d
                    00AC    621 _P2IEN	=	0x00ac
                    008F    622 _P0INP	=	0x008f
                    00F1    623 _PERCFG	=	0x00f1
                    00F2    624 _APCFG	=	0x00f2
                    00F3    625 _P0SEL	=	0x00f3
                    00F4    626 _P1SEL	=	0x00f4
                    00F5    627 _P2SEL	=	0x00f5
                    00F6    628 _P1INP	=	0x00f6
                    00F7    629 _P2INP	=	0x00f7
                    00FD    630 _P0DIR	=	0x00fd
                    00FE    631 _P1DIR	=	0x00fe
                    00FF    632 _P2DIR	=	0x00ff
                    00AE    633 _PMUX	=	0x00ae
                    0093    634 _MPAGE	=	0x0093
                    0093    635 __XPAGE	=	0x0093
                    00C7    636 _MEMCTR	=	0x00c7
                    009F    637 _FMAP	=	0x009f
                    009F    638 _PSBANK	=	0x009f
                    0091    639 _RFIRQF1	=	0x0091
                    00D9    640 _RFD	=	0x00d9
                    00E1    641 _RFST	=	0x00e1
                    00E9    642 _RFIRQF0	=	0x00e9
                    00BF    643 _RFERRF	=	0x00bf
                    0095    644 _ST0	=	0x0095
                    0096    645 _ST1	=	0x0096
                    0097    646 _ST2	=	0x0097
                    00AD    647 _STLOAD	=	0x00ad
                    00BE    648 _SLEEPCMD	=	0x00be
                    009D    649 _SLEEPSTA	=	0x009d
                    00C6    650 _CLKCONCMD	=	0x00c6
                    009E    651 _CLKCONSTA	=	0x009e
                    00DA    652 _T1CC0L	=	0x00da
                    00DB    653 _T1CC0H	=	0x00db
                    00DC    654 _T1CC1L	=	0x00dc
                    00DD    655 _T1CC1H	=	0x00dd
                    00DE    656 _T1CC2L	=	0x00de
                    00DF    657 _T1CC2H	=	0x00df
                    00E2    658 _T1CNTL	=	0x00e2
                    00E3    659 _T1CNTH	=	0x00e3
                    00E4    660 _T1CTL	=	0x00e4
                    00E5    661 _T1CCTL0	=	0x00e5
                    00E6    662 _T1CCTL1	=	0x00e6
                    00E7    663 _T1CCTL2	=	0x00e7
                    00AF    664 _T1STAT	=	0x00af
                    0094    665 _T2CTRL	=	0x0094
                    009C    666 _T2EVTCFG	=	0x009c
                    00A1    667 _T2IRQF	=	0x00a1
                    00A2    668 _T2M0	=	0x00a2
                    00A3    669 _T2M1	=	0x00a3
                    00A4    670 _T2MOVF0	=	0x00a4
                    00A5    671 _T2MOVF1	=	0x00a5
                    00A6    672 _T2MOVF2	=	0x00a6
                    00A7    673 _T2IRQM	=	0x00a7
                    00C3    674 _T2MSEL	=	0x00c3
                    00CA    675 _T3CNT	=	0x00ca
                    00CB    676 _T3CTL	=	0x00cb
                    00CC    677 _T3CCTL0	=	0x00cc
                    00CD    678 _T3CC0	=	0x00cd
                    00CE    679 _T3CCTL1	=	0x00ce
                    00CF    680 _T3CC1	=	0x00cf
                    00EA    681 _T4CNT	=	0x00ea
                    00EB    682 _T4CTL	=	0x00eb
                    00EC    683 _T4CCTL0	=	0x00ec
                    00ED    684 _T4CC0	=	0x00ed
                    00EE    685 _T4CCTL1	=	0x00ee
                    00EF    686 _T4CC1	=	0x00ef
                    00D8    687 _TIMIF	=	0x00d8
                    0086    688 _U0CSR	=	0x0086
                    00C1    689 _U0DBUF	=	0x00c1
                    00C2    690 _U0BAUD	=	0x00c2
                    00C4    691 _U0UCR	=	0x00c4
                    00C5    692 _U0GCR	=	0x00c5
                    00F8    693 _U1CSR	=	0x00f8
                    00F9    694 _U1DBUF	=	0x00f9
                    00FA    695 _U1BAUD	=	0x00fa
                    00FB    696 _U1UCR	=	0x00fb
                    00FC    697 _U1GCR	=	0x00fc
                    00C9    698 _WDCTL	=	0x00c9
                            699 ;--------------------------------------------------------
                            700 ; special function bits
                            701 ;--------------------------------------------------------
                            702 	.area RSEG    (ABS,DATA)
   0000                     703 	.org 0x0000
                    0087    704 _P0_7	=	0x0087
                    0086    705 _P0_6	=	0x0086
                    0085    706 _P0_5	=	0x0085
                    0084    707 _P0_4	=	0x0084
                    0083    708 _P0_3	=	0x0083
                    0082    709 _P0_2	=	0x0082
                    0081    710 _P0_1	=	0x0081
                    0080    711 _P0_0	=	0x0080
                    008F    712 _URX1IF	=	0x008f
                    008D    713 _ADCIF	=	0x008d
                    008B    714 _URX0IF	=	0x008b
                    008A    715 _IT1	=	0x008a
                    0089    716 _RFERRIF	=	0x0089
                    0088    717 _IT0	=	0x0088
                    0097    718 _P1_7	=	0x0097
                    0096    719 _P1_6	=	0x0096
                    0095    720 _P1_5	=	0x0095
                    0094    721 _P1_4	=	0x0094
                    0093    722 _P1_3	=	0x0093
                    0092    723 _P1_2	=	0x0092
                    0091    724 _P1_1	=	0x0091
                    0090    725 _P1_0	=	0x0090
                    0099    726 _ENCIF_1	=	0x0099
                    0098    727 _ENCIF_0	=	0x0098
                    00A7    728 _P2_7	=	0x00a7
                    00A6    729 _P2_6	=	0x00a6
                    00A5    730 _P2_5	=	0x00a5
                    00A4    731 _P2_4	=	0x00a4
                    00A3    732 _P2_3	=	0x00a3
                    00A2    733 _P2_2	=	0x00a2
                    00A1    734 _P2_1	=	0x00a1
                    00A0    735 _P2_0	=	0x00a0
                    00AF    736 _EA	=	0x00af
                    00AD    737 _STIE	=	0x00ad
                    00AC    738 _ENCIE	=	0x00ac
                    00AB    739 _URX1IE	=	0x00ab
                    00AA    740 _URX0IE	=	0x00aa
                    00A9    741 _ADCIE	=	0x00a9
                    00A8    742 _RFERRIE	=	0x00a8
                    00BD    743 _P0IE	=	0x00bd
                    00BC    744 _T4IE	=	0x00bc
                    00BB    745 _T3IE	=	0x00bb
                    00BA    746 _T2IE	=	0x00ba
                    00B9    747 _T1IE	=	0x00b9
                    00B8    748 _DMAIE	=	0x00b8
                    00C7    749 _STIF	=	0x00c7
                    00C5    750 _P0IF	=	0x00c5
                    00C4    751 _T4IF	=	0x00c4
                    00C3    752 _T3IF	=	0x00c3
                    00C2    753 _T2IF	=	0x00c2
                    00C1    754 _T1IF	=	0x00c1
                    00C0    755 _DMAIF	=	0x00c0
                    00D7    756 _CY	=	0x00d7
                    00D6    757 _AC	=	0x00d6
                    00D5    758 _F0	=	0x00d5
                    00D4    759 _RS1	=	0x00d4
                    00D3    760 _RS0	=	0x00d3
                    00D2    761 _OV	=	0x00d2
                    00D1    762 _F1	=	0x00d1
                    00D0    763 _P	=	0x00d0
                    00E7    764 _ACC_7	=	0x00e7
                    00E6    765 _ACC_6	=	0x00e6
                    00E5    766 _ACC_5	=	0x00e5
                    00E4    767 _ACC_4	=	0x00e4
                    00E3    768 _ACC_3	=	0x00e3
                    00E2    769 _ACC_2	=	0x00e2
                    00E1    770 _ACC_1	=	0x00e1
                    00E0    771 _ACC_0	=	0x00e0
                    00EC    772 _WDTIF	=	0x00ec
                    00EB    773 _P1IF	=	0x00eb
                    00EA    774 _UTX1IF	=	0x00ea
                    00E9    775 _UTX0IF	=	0x00e9
                    00E8    776 _P2IF	=	0x00e8
                    00F7    777 _B_7	=	0x00f7
                    00F6    778 _B_6	=	0x00f6
                    00F5    779 _B_5	=	0x00f5
                    00F4    780 _B_4	=	0x00f4
                    00F3    781 _B_3	=	0x00f3
                    00F2    782 _B_2	=	0x00f2
                    00F1    783 _B_1	=	0x00f1
                    00F0    784 _B_0	=	0x00f0
                    00DE    785 _OVFIM	=	0x00de
                    00DD    786 _T4CH1IF	=	0x00dd
                    00DC    787 _T4CH0IF	=	0x00dc
                    00DB    788 _T4OVFIF	=	0x00db
                    00DA    789 _T3CH1IF	=	0x00da
                    00D9    790 _T3CH0IF	=	0x00d9
                    00D8    791 _T3OVFIF	=	0x00d8
                    00FF    792 _MODE	=	0x00ff
                    00FE    793 _RE	=	0x00fe
                    00FD    794 _SLAVE	=	0x00fd
                    00FC    795 _FE	=	0x00fc
                    00FB    796 _ERR	=	0x00fb
                    00FA    797 _RX_BYTE	=	0x00fa
                    00F9    798 _TX_BYTE	=	0x00f9
                    00F8    799 _ACTIVE	=	0x00f8
                            800 ;--------------------------------------------------------
                            801 ; overlayable register banks
                            802 ;--------------------------------------------------------
                            803 	.area REG_BANK_0	(REL,OVR,DATA)
   0000                     804 	.ds 8
                            805 ;--------------------------------------------------------
                            806 ; internal ram data
                            807 ;--------------------------------------------------------
                            808 	.area DSEG    (DATA)
                            809 ;--------------------------------------------------------
                            810 ; overlayable items in internal ram 
                            811 ;--------------------------------------------------------
                            812 	.area OSEG    (OVR,DATA)
                            813 ;--------------------------------------------------------
                            814 ; indirectly addressable internal ram data
                            815 ;--------------------------------------------------------
                            816 	.area ISEG    (DATA)
                            817 ;--------------------------------------------------------
                            818 ; absolute internal ram data
                            819 ;--------------------------------------------------------
                            820 	.area IABS    (ABS,DATA)
                            821 	.area IABS    (ABS,DATA)
                            822 ;--------------------------------------------------------
                            823 ; bit data
                            824 ;--------------------------------------------------------
                            825 	.area BSEG    (BIT)
                            826 ;--------------------------------------------------------
                            827 ; paged external ram data
                            828 ;--------------------------------------------------------
                            829 	.area PSEG    (PAG,XDATA)
                            830 ;--------------------------------------------------------
                            831 ; external ram data
                            832 ;--------------------------------------------------------
                            833 	.area XSEG    (XDATA)
                    61A6    834 _MONMUX	=	0x61a6
                    61A6    835 _OPAMPMC	=	0x61a6
                    6230    836 _I2CCFG	=	0x6230
                    6231    837 _I2CSTAT	=	0x6231
                    6232    838 _I2CDATA	=	0x6232
                    6233    839 _I2CADDR	=	0x6233
                    6234    840 _I2CWC	=	0x6234
                    6235    841 _I2CIO	=	0x6235
                    6243    842 _OBSSEL0	=	0x6243
                    6244    843 _OBSSEL1	=	0x6244
                    6245    844 _OBSSEL2	=	0x6245
                    6246    845 _OBSSEL3	=	0x6246
                    6247    846 _OBSSEL4	=	0x6247
                    6248    847 _OBSSEL5	=	0x6248
                    6249    848 _CHVER	=	0x6249
                    624A    849 _CHIPID	=	0x624a
                    624B    850 _TESTREG0	=	0x624b
                    6260    851 _DBGDATA	=	0x6260
                    6262    852 _SRCRC	=	0x6262
                    6264    853 _BATTMON	=	0x6264
                    6265    854 _IVCTRL	=	0x6265
                    6270    855 _FCTL	=	0x6270
                    6271    856 _FADDRL	=	0x6271
                    6272    857 _FADDRH	=	0x6272
                    6273    858 _FWDATA	=	0x6273
                    6276    859 _CHIPINFO0	=	0x6276
                    6277    860 _CHIPINFO1	=	0x6277
                    6281    861 _IRCTL	=	0x6281
                    6290    862 _CLD	=	0x6290
                    62A0    863 _XX_T1CCTL0	=	0x62a0
                    62A1    864 _XX_T1CCTL1	=	0x62a1
                    62A2    865 _XX_T1CCTL2	=	0x62a2
                    62A3    866 _T1CCTL3	=	0x62a3
                    62A4    867 _T1CCTL4	=	0x62a4
                    62A6    868 _XX_T1CC0L	=	0x62a6
                    62A7    869 _XX_T1CC0H	=	0x62a7
                    62A8    870 _XX_T1CC1L	=	0x62a8
                    62A9    871 _XX_T1CC1H	=	0x62a9
                    62AA    872 _XX_T1CC2L	=	0x62aa
                    62AB    873 _XX_T1CC2H	=	0x62ab
                    62AC    874 _T1CC3L	=	0x62ac
                    62AD    875 _T1CC3H	=	0x62ad
                    62AE    876 _T1CC4L	=	0x62ae
                    62AF    877 _T1CC4H	=	0x62af
                    62B0    878 _STCC	=	0x62b0
                    62B1    879 _STCS	=	0x62b1
                    62B2    880 _STCV0	=	0x62b2
                    62B3    881 _STCV1	=	0x62b3
                    62B4    882 _STCV2	=	0x62b4
                    62C0    883 _OPAMPC	=	0x62c0
                    62C1    884 _OPAMPS	=	0x62c1
                    62D0    885 _CMPCTL	=	0x62d0
                    6000    886 _RFCORE_RAM	=	0x6000
                    6000    887 _RXFIFO	=	0x6000
                    6080    888 _TXFIFO	=	0x6080
                    6100    889 _SRC_ADDR_TABLE	=	0x6100
                    6160    890 _SRCRESMASK0	=	0x6160
                    6161    891 _SRCRESMASK1	=	0x6161
                    6162    892 _SRCRESMASK2	=	0x6162
                    6163    893 _SRCRESINDEX	=	0x6163
                    6164    894 _SRCEXTPENDEN0	=	0x6164
                    6165    895 _SRCEXTPENDEN1	=	0x6165
                    6166    896 _SRCEXTPENDEN2	=	0x6166
                    6167    897 _SRCSHORTPENDEN0	=	0x6167
                    6168    898 _SRCSHORTPENDEN1	=	0x6168
                    6169    899 _SRCSHORTPENDEN2	=	0x6169
                    616A    900 _EXT_ADDR0	=	0x616a
                    616B    901 _EXT_ADDR1	=	0x616b
                    616C    902 _EXT_ADDR2	=	0x616c
                    616D    903 _EXT_ADDR3	=	0x616d
                    616E    904 _EXT_ADDR4	=	0x616e
                    616F    905 _EXT_ADDR5	=	0x616f
                    6170    906 _EXT_ADDR6	=	0x6170
                    6171    907 _EXT_ADDR7	=	0x6171
                    6172    908 _PAN_ID0	=	0x6172
                    6173    909 _PAN_ID1	=	0x6173
                    6174    910 _SHORT_ADDR0	=	0x6174
                    6175    911 _SHORT_ADDR1	=	0x6175
                    6180    912 _FRMFILT0	=	0x6180
                    6181    913 _FRMFILT1	=	0x6181
                    6182    914 _SRCMATCH	=	0x6182
                    6183    915 _SRCSHORTEN0	=	0x6183
                    6184    916 _SRCSHORTEN1	=	0x6184
                    6185    917 _SRCSHORTEN2	=	0x6185
                    6186    918 _SRCEXTEN0	=	0x6186
                    6187    919 _SRCEXTEN1	=	0x6187
                    6188    920 _SRCEXTEN2	=	0x6188
                    6189    921 _FRMCTRL0	=	0x6189
                    618A    922 _FRMCTRL1	=	0x618a
                    618B    923 _RXENABLE	=	0x618b
                    618C    924 _RXMASKSET	=	0x618c
                    618D    925 _RXMASKCLR	=	0x618d
                    618E    926 _FREQTUNE	=	0x618e
                    618F    927 _FREQCTRL	=	0x618f
                    6190    928 _TXPOWER	=	0x6190
                    6191    929 _TXCTRL	=	0x6191
                    6192    930 _FSMSTAT0	=	0x6192
                    6193    931 _FSMSTAT1	=	0x6193
                    6194    932 _FIFOPCTRL	=	0x6194
                    6195    933 _FSMCTRL	=	0x6195
                    6196    934 _CCACTRL0	=	0x6196
                    6197    935 _CCACTRL1	=	0x6197
                    6198    936 _RSSI	=	0x6198
                    6199    937 _RSSISTAT	=	0x6199
                    619A    938 _RXFIRST	=	0x619a
                    619B    939 _RXFIFOCNT	=	0x619b
                    619C    940 _TXFIFOCNT	=	0x619c
                    619D    941 _RXFIRST_PTR	=	0x619d
                    619E    942 _RXLAST_PTR	=	0x619e
                    619F    943 _RXP1_PTR	=	0x619f
                    61A1    944 _TXFIRST_PTR	=	0x61a1
                    61A2    945 _TXLAST_PTR	=	0x61a2
                    61A3    946 _RFIRQM0	=	0x61a3
                    61A4    947 _RFIRQM1	=	0x61a4
                    61A5    948 _RFERRM	=	0x61a5
                    61A7    949 _RFRND	=	0x61a7
                    61A8    950 _MDMCTRL0	=	0x61a8
                    61A9    951 _MDMCTRL1	=	0x61a9
                    61AA    952 _FREQEST	=	0x61aa
                    61AB    953 _RXCTRL	=	0x61ab
                    61AC    954 _FSCTRL	=	0x61ac
                    61AD    955 _FSCAL0	=	0x61ad
                    61AE    956 _FSCAL1	=	0x61ae
                    61AF    957 _FSCAL2	=	0x61af
                    61B0    958 _FSCAL3	=	0x61b0
                    61B1    959 _AGCCTRL0	=	0x61b1
                    61B2    960 _AGCCTRL1	=	0x61b2
                    61B3    961 _AGCCTRL2	=	0x61b3
                    61B4    962 _AGCCTRL3	=	0x61b4
                    61B5    963 _ADCTEST0	=	0x61b5
                    61B6    964 _ADCTEST1	=	0x61b6
                    61B7    965 _ADCTEST2	=	0x61b7
                    61B8    966 _MDMTEST0	=	0x61b8
                    61B9    967 _MDMTEST1	=	0x61b9
                    61BA    968 _DACTEST0	=	0x61ba
                    61BB    969 _DACTEST1	=	0x61bb
                    61BC    970 _DACTEST2	=	0x61bc
                    61BD    971 _ATEST	=	0x61bd
                    61BE    972 _PTEST0	=	0x61be
                    61BF    973 _PTEST1	=	0x61bf
                    61FA    974 _TXFILTCFG	=	0x61fa
                    61EB    975 _RFC_OBS_CTRL0	=	0x61eb
                    61EC    976 _RFC_OBS_CTRL1	=	0x61ec
                    61ED    977 _RFC_OBS_CTRL2	=	0x61ed
                    61C0    978 _CSPPROG0	=	0x61c0
                    61C1    979 _CSPPROG1	=	0x61c1
                    61C2    980 _CSPPROG2	=	0x61c2
                    61C3    981 _CSPPROG3	=	0x61c3
                    61C4    982 _CSPPROG4	=	0x61c4
                    61C5    983 _CSPPROG5	=	0x61c5
                    61C6    984 _CSPPROG6	=	0x61c6
                    61C7    985 _CSPPROG7	=	0x61c7
                    61C8    986 _CSPPROG8	=	0x61c8
                    61C9    987 _CSPPROG9	=	0x61c9
                    61CA    988 _CSPPROG10	=	0x61ca
                    61CB    989 _CSPPROG11	=	0x61cb
                    61CC    990 _CSPPROG12	=	0x61cc
                    61CD    991 _CSPPROG13	=	0x61cd
                    61CE    992 _CSPPROG14	=	0x61ce
                    61CF    993 _CSPPROG15	=	0x61cf
                    61D0    994 _CSPPROG16	=	0x61d0
                    61D1    995 _CSPPROG17	=	0x61d1
                    61D2    996 _CSPPROG18	=	0x61d2
                    61D3    997 _CSPPROG19	=	0x61d3
                    61D4    998 _CSPPROG20	=	0x61d4
                    61D5    999 _CSPPROG21	=	0x61d5
                    61D6   1000 _CSPPROG22	=	0x61d6
                    61D7   1001 _CSPPROG23	=	0x61d7
                    61E0   1002 _CSPCTRL	=	0x61e0
                    61E1   1003 _CSPSTAT	=	0x61e1
                    61E2   1004 _CSPX	=	0x61e2
                    61E3   1005 _CSPY	=	0x61e3
                    61E4   1006 _CSPZ	=	0x61e4
                    61E5   1007 _CSPT	=	0x61e5
                    6200   1008 _USBADDR	=	0x6200
                    6201   1009 _USBPOW	=	0x6201
                    6202   1010 _USBIIF	=	0x6202
                    6204   1011 _USBOIF	=	0x6204
                    6206   1012 _USBCIF	=	0x6206
                    6207   1013 _USBIIE	=	0x6207
                    6209   1014 _USBOIE	=	0x6209
                    620B   1015 _USBCIE	=	0x620b
                    620C   1016 _USBFRML	=	0x620c
                    620D   1017 _USBFRMH	=	0x620d
                    620E   1018 _USBINDEX	=	0x620e
                    620F   1019 _USBCTRL	=	0x620f
                    6210   1020 _USBMAXI	=	0x6210
                    6211   1021 _USBCS0	=	0x6211
                    6211   1022 _USBCSIL	=	0x6211
                    6212   1023 _USBCSIH	=	0x6212
                    6213   1024 _USBMAXO	=	0x6213
                    6214   1025 _USBCSOL	=	0x6214
                    6215   1026 _USBCSOH	=	0x6215
                    6216   1027 _USBCNT0	=	0x6216
                    6216   1028 _USBCNTL	=	0x6216
                    6217   1029 _USBCNTH	=	0x6217
                    6220   1030 _USBF0	=	0x6220
                    6222   1031 _USBF1	=	0x6222
                    6224   1032 _USBF2	=	0x6224
                    6226   1033 _USBF3	=	0x6226
                    6228   1034 _USBF4	=	0x6228
                    622A   1035 _USBF5	=	0x622a
                    7080   1036 _X_P0	=	0x7080
                    7086   1037 _X_U0CSR	=	0x7086
                    7089   1038 _X_P0IFG	=	0x7089
                    708A   1039 _X_P1IFG	=	0x708a
                    708B   1040 _X_P2IFG	=	0x708b
                    708C   1041 _X_PICTL	=	0x708c
                    708D   1042 _X_P1IEN	=	0x708d
                    708F   1043 _X_P0INP	=	0x708f
                    7090   1044 _X_P1	=	0x7090
                    7091   1045 _X_RFIRQF1	=	0x7091
                    7093   1046 _X_MPAGE	=	0x7093
                    7093   1047 _X__XPAGE	=	0x7093
                    7094   1048 _X_T2CTRL	=	0x7094
                    7095   1049 _X_ST0	=	0x7095
                    7096   1050 _X_ST1	=	0x7096
                    7097   1051 _X_ST2	=	0x7097
                    709C   1052 _X_T2EVTCFG	=	0x709c
                    709D   1053 _X_SLEEPSTA	=	0x709d
                    709E   1054 _X_CLKCONSTA	=	0x709e
                    709F   1055 _X_FMAP	=	0x709f
                    709F   1056 _X_PSBANK	=	0x709f
                    70A0   1057 _X_P2	=	0x70a0
                    70A1   1058 _X_T2IRQF	=	0x70a1
                    70A2   1059 _X_T2M0	=	0x70a2
                    70A3   1060 _X_T2M1	=	0x70a3
                    70A4   1061 _X_T2MOVF0	=	0x70a4
                    70A5   1062 _X_T2MOVF1	=	0x70a5
                    70A6   1063 _X_T2MOVF2	=	0x70a6
                    70A7   1064 _X_T2IRQM	=	0x70a7
                    70AB   1065 _X_P0IEN	=	0x70ab
                    70AC   1066 _X_P2IEN	=	0x70ac
                    70AD   1067 _X_STLOAD	=	0x70ad
                    70AE   1068 _X_PMUX	=	0x70ae
                    70AF   1069 _X_T1STAT	=	0x70af
                    70B1   1070 _X_ENCDI	=	0x70b1
                    70B2   1071 _X_ENCDO	=	0x70b2
                    70B3   1072 _X_ENCCS	=	0x70b3
                    70B4   1073 _X_ADCCON1	=	0x70b4
                    70B5   1074 _X_ADCCON2	=	0x70b5
                    70B6   1075 _X_ADCCON3	=	0x70b6
                    70BA   1076 _X_ADCL	=	0x70ba
                    70BB   1077 _X_ADCH	=	0x70bb
                    70BC   1078 _X_RNDL	=	0x70bc
                    70BD   1079 _X_RNDH	=	0x70bd
                    70BE   1080 _X_SLEEPCMD	=	0x70be
                    70BF   1081 _X_RFERRF	=	0x70bf
                    70C1   1082 _X_U0DBUF	=	0x70c1
                    70C2   1083 _X_U0BAUD	=	0x70c2
                    70C3   1084 _X_T2MSEL	=	0x70c3
                    70C4   1085 _X_U0UCR	=	0x70c4
                    70C5   1086 _X_U0GCR	=	0x70c5
                    70C6   1087 _X_CLKCONCMD	=	0x70c6
                    70C7   1088 _X_MEMCTR	=	0x70c7
                    70C9   1089 _X_WDCTL	=	0x70c9
                    70CA   1090 _X_T3CNT	=	0x70ca
                    70CB   1091 _X_T3CTL	=	0x70cb
                    70CC   1092 _X_T3CCTL0	=	0x70cc
                    70CD   1093 _X_T3CC0	=	0x70cd
                    70CE   1094 _X_T3CCTL1	=	0x70ce
                    70CF   1095 _X_T3CC1	=	0x70cf
                    70D1   1096 _X_DMAIRQ	=	0x70d1
                    70D2   1097 _X_DMA1CFGL	=	0x70d2
                    70D3   1098 _X_DMA1CFGH	=	0x70d3
                    70D4   1099 _X_DMA0CFGL	=	0x70d4
                    70D5   1100 _X_DMA0CFGH	=	0x70d5
                    70D6   1101 _X_DMAARM	=	0x70d6
                    70D7   1102 _X_DMAREQ	=	0x70d7
                    70D8   1103 _X_TIMIF	=	0x70d8
                    70D9   1104 _X_RFD	=	0x70d9
                    70DA   1105 _X_T1CC0L	=	0x70da
                    70DB   1106 _X_T1CC0H	=	0x70db
                    70DC   1107 _X_T1CC1L	=	0x70dc
                    70DD   1108 _X_T1CC1H	=	0x70dd
                    70DE   1109 _X_T1CC2L	=	0x70de
                    70DF   1110 _X_T1CC2H	=	0x70df
                    70E1   1111 _X_RFST	=	0x70e1
                    70E2   1112 _X_T1CNTL	=	0x70e2
                    70E3   1113 _X_T1CNTH	=	0x70e3
                    70E4   1114 _X_T1CTL	=	0x70e4
                    70E5   1115 _X_T1CCTL0	=	0x70e5
                    70E6   1116 _X_T1CCTL1	=	0x70e6
                    70E7   1117 _X_T1CCTL2	=	0x70e7
                    70E9   1118 _X_RFIRQF0	=	0x70e9
                    70EA   1119 _X_T4CNT	=	0x70ea
                    70EB   1120 _X_T4CTL	=	0x70eb
                    70EC   1121 _X_T4CCTL0	=	0x70ec
                    70ED   1122 _X_T4CC0	=	0x70ed
                    70EE   1123 _X_T4CCTL1	=	0x70ee
                    70EF   1124 _X_T4CC1	=	0x70ef
                    70F1   1125 _X_PERCFG	=	0x70f1
                    70F2   1126 _X_APCFG	=	0x70f2
                    70F3   1127 _X_P0SEL	=	0x70f3
                    70F4   1128 _X_P1SEL	=	0x70f4
                    70F5   1129 _X_P2SEL	=	0x70f5
                    70F6   1130 _X_P1INP	=	0x70f6
                    70F7   1131 _X_P2INP	=	0x70f7
                    70F8   1132 _X_U1CSR	=	0x70f8
                    70F9   1133 _X_U1DBUF	=	0x70f9
                    70FA   1134 _X_U1BAUD	=	0x70fa
                    70FB   1135 _X_U1UCR	=	0x70fb
                    70FC   1136 _X_U1GCR	=	0x70fc
                    70FD   1137 _X_P0DIR	=	0x70fd
                    70FE   1138 _X_P1DIR	=	0x70fe
                    70FF   1139 _X_P2DIR	=	0x70ff
                    7800   1140 _X_INFOPAGE	=	0x7800
                    780C   1141 _X_IEEE_ADDR	=	0x780c
   0000                    1142 _rt:
   0000                    1143 	.ds 8
   0008                    1144 _pt:
   0008                    1145 	.ds 2
   000A                    1146 _phase_list_memb_memb_count:
   000A                    1147 	.ds 30
   0028                    1148 _phase_list_memb_memb_mem:
   0028                    1149 	.ds 540
   0244                    1150 _received_seqnos:
   0244                    1151 	.ds 144
   02D4                    1152 _cycle_start:
   02D4                    1153 	.ds 2
   02D6                    1154 _powercycle_sync_cycle_start_1_1:
   02D6                    1155 	.ds 2
   02D8                    1156 _powercycle_sync_cycle_phase_1_1:
   02D8                    1157 	.ds 1
   02D9                    1158 _powercycle_packet_seen_4_5:
   02D9                    1159 	.ds 1
   02DA                    1160 _powercycle_t0_4_5:
   02DA                    1161 	.ds 2
   02DC                    1162 _powercycle_count_4_5:
   02DC                    1163 	.ds 1
   02DD                    1164 _powercycle_start_5_13:
   02DD                    1165 	.ds 2
   02DF                    1166 _powercycle_silence_periods_5_13:
   02DF                    1167 	.ds 1
   02E0                    1168 _powercycle_periods_5_13:
   02E0                    1169 	.ds 1
   02E1                    1170 _input_packet_ct_1_1:
   02E1                    1171 	.ds 22
                           1172 ;--------------------------------------------------------
                           1173 ; absolute external ram data
                           1174 ;--------------------------------------------------------
                           1175 	.area XABS    (ABS,XDATA)
                           1176 ;--------------------------------------------------------
                           1177 ; external initialized ram data
                           1178 ;--------------------------------------------------------
                           1179 	.area XISEG   (XDATA)
   0000                    1180 _we_are_receiving_burst:
   0000                    1181 	.ds 2
   0002                    1182 _is_receiver_awake:
   0002                    1183 	.ds 2
   0004                    1184 _contikimac_is_on:
   0004                    1185 	.ds 1
   0005                    1186 _contikimac_keep_radio_on:
   0005                    1187 	.ds 1
   0006                    1188 _we_are_sending:
   0006                    1189 	.ds 1
   0007                    1190 _radio_is_on:
   0007                    1191 	.ds 1
   0008                    1192 _phase_list_list_list:
   0008                    1193 	.ds 3
   000B                    1194 _phase_list_list:
   000B                    1195 	.ds 3
   000E                    1196 _phase_list_memb:
   000E                    1197 	.ds 10
   0018                    1198 _phase_list::
   0018                    1199 	.ds 6
                           1200 	.area HOME    (CODE)
                           1201 	.area GSINIT0 (CODE)
                           1202 	.area GSINIT1 (CODE)
                           1203 	.area GSINIT2 (CODE)
                           1204 	.area GSINIT3 (CODE)
                           1205 	.area GSINIT4 (CODE)
                           1206 	.area GSINIT5 (CODE)
                           1207 	.area GSINIT  (CODE)
                           1208 	.area GSFINAL (CODE)
                           1209 	.area CSEG    (CODE)
                           1210 ;--------------------------------------------------------
                           1211 ; global & static initialisations
                           1212 ;--------------------------------------------------------
                           1213 	.area HOME    (CODE)
                           1214 	.area GSINIT  (CODE)
                           1215 	.area GSFINAL (CODE)
                           1216 	.area GSINIT  (CODE)
                           1217 ;--------------------------------------------------------
                           1218 ; Home
                           1219 ;--------------------------------------------------------
                           1220 	.area HOME    (CODE)
                           1221 	.area HOME    (CODE)
                           1222 ;--------------------------------------------------------
                           1223 ; code
                           1224 ;--------------------------------------------------------
                           1225 	.area BANK1   (CODE)
                           1226 ;------------------------------------------------------------
                           1227 ;Allocation info for local variables in function 'on'
                           1228 ;------------------------------------------------------------
                           1229 ;	../../../contiki-sensinode//core/net/mac/contikimac.c:275: on(void)
                           1230 ;	-----------------------------------------
                           1231 ;	 function on
                           1232 ;	-----------------------------------------
   0000                    1233 _on:
                    0007   1234 	ar7 = 0x07
                    0006   1235 	ar6 = 0x06
                    0005   1236 	ar5 = 0x05
                    0004   1237 	ar4 = 0x04
                    0003   1238 	ar3 = 0x03
                    0002   1239 	ar2 = 0x02
                    0001   1240 	ar1 = 0x01
                    0000   1241 	ar0 = 0x00
                           1242 ;	../../../contiki-sensinode//core/net/mac/contikimac.c:277: if(contikimac_is_on && radio_is_on == 0) {
   0000 90s00r04           1243 	mov	dptr,#_contikimac_is_on
   0003 E0                 1244 	movx	a,@dptr
   0004 FF                 1245 	mov	r7,a
   0005 60 36              1246 	jz	00104$
   0007 90s00r07           1247 	mov	dptr,#_radio_is_on
   000A E0                 1248 	movx	a,@dptr
   000B FF                 1249 	mov	r7,a
   000C 70 2F              1250 	jnz	00104$
                           1251 ;	../../../contiki-sensinode//core/net/mac/contikimac.c:278: radio_is_on = 1;
   000E 90s00r07           1252 	mov	dptr,#_radio_is_on
   0011 74 01              1253 	mov	a,#0x01
   0013 F0                 1254 	movx	@dptr,a
                           1255 ;	../../../contiki-sensinode//core/net/mac/contikimac.c:279: NETSTACK_RADIO.on();
   0014 90s00r18           1256 	mov	dptr,#(_cc2530_rf_driver + 0x0018)
   0017 E4                 1257 	clr	a
   0018 93                 1258 	movc	a,@a+dptr
   0019 FD                 1259 	mov	r5,a
   001A A3                 1260 	inc	dptr
   001B E4                 1261 	clr	a
   001C 93                 1262 	movc	a,@a+dptr
   001D FE                 1263 	mov	r6,a
   001E A3                 1264 	inc	dptr
   001F E4                 1265 	clr	a
   0020 93                 1266 	movc	a,@a+dptr
   0021 FF                 1267 	mov	r7,a
   0022 C0 07              1268 	push	ar7
   0024 C0 06              1269 	push	ar6
   0026 C0 05              1270 	push	ar5
   0028 C0 05              1271 	push	ar5
   002A C0 06              1272 	push	ar6
   002C C0 07              1273 	push	ar7
   002E D0 02              1274 	pop	ar2
   0030 D0 01              1275 	pop	ar1
   0032 D0 00              1276 	pop	ar0
   0034 12s00r00           1277 	lcall	__sdcc_banked_call
   0037 D0 05              1278 	pop	ar5
   0039 D0 06              1279 	pop	ar6
   003B D0 07              1280 	pop	ar7
   003D                    1281 00104$:
   003D 02s00r00           1282 	ljmp	__sdcc_banked_ret
                           1283 ;------------------------------------------------------------
                           1284 ;Allocation info for local variables in function 'off'
                           1285 ;------------------------------------------------------------
                           1286 ;	../../../contiki-sensinode//core/net/mac/contikimac.c:284: off(void)
                           1287 ;	-----------------------------------------
                           1288 ;	 function off
                           1289 ;	-----------------------------------------
   0040                    1290 _off:
                           1291 ;	../../../contiki-sensinode//core/net/mac/contikimac.c:286: if(contikimac_is_on && radio_is_on != 0 &&
   0040 90s00r04           1292 	mov	dptr,#_contikimac_is_on
   0043 E0                 1293 	movx	a,@dptr
   0044 FF                 1294 	mov	r7,a
   0045 60 3C              1295 	jz	00105$
   0047 90s00r07           1296 	mov	dptr,#_radio_is_on
   004A E0                 1297 	movx	a,@dptr
   004B FF                 1298 	mov	r7,a
   004C 60 35              1299 	jz	00105$
                           1300 ;	../../../contiki-sensinode//core/net/mac/contikimac.c:287: contikimac_keep_radio_on == 0) {
   004E 90s00r05           1301 	mov	dptr,#_contikimac_keep_radio_on
   0051 E0                 1302 	movx	a,@dptr
   0052 FF                 1303 	mov	r7,a
   0053 70 2E              1304 	jnz	00105$
                           1305 ;	../../../contiki-sensinode//core/net/mac/contikimac.c:288: radio_is_on = 0;
   0055 90s00r07           1306 	mov	dptr,#_radio_is_on
   0058 E4                 1307 	clr	a
   0059 F0                 1308 	movx	@dptr,a
                           1309 ;	../../../contiki-sensinode//core/net/mac/contikimac.c:289: NETSTACK_RADIO.off();
   005A 90s00r1B           1310 	mov	dptr,#(_cc2530_rf_driver + 0x001b)
   005D E4                 1311 	clr	a
   005E 93                 1312 	movc	a,@a+dptr
   005F FD                 1313 	mov	r5,a
   0060 A3                 1314 	inc	dptr
   0061 E4                 1315 	clr	a
   0062 93                 1316 	movc	a,@a+dptr
   0063 FE                 1317 	mov	r6,a
   0064 A3                 1318 	inc	dptr
   0065 E4                 1319 	clr	a
   0066 93                 1320 	movc	a,@a+dptr
   0067 FF                 1321 	mov	r7,a
   0068 C0 07              1322 	push	ar7
   006A C0 06              1323 	push	ar6
   006C C0 05              1324 	push	ar5
   006E C0 05              1325 	push	ar5
   0070 C0 06              1326 	push	ar6
   0072 C0 07              1327 	push	ar7
   0074 D0 02              1328 	pop	ar2
   0076 D0 01              1329 	pop	ar1
   0078 D0 00              1330 	pop	ar0
   007A 12s00r00           1331 	lcall	__sdcc_banked_call
   007D D0 05              1332 	pop	ar5
   007F D0 06              1333 	pop	ar6
   0081 D0 07              1334 	pop	ar7
   0083                    1335 00105$:
   0083 02s00r00           1336 	ljmp	__sdcc_banked_ret
                           1337 ;------------------------------------------------------------
                           1338 ;Allocation info for local variables in function 'schedule_powercycle'
                           1339 ;------------------------------------------------------------
                           1340 ;time                      Allocated to stack - sp -9
                           1341 ;t                         Allocated to stack - sp -4
                           1342 ;r                         Allocated to registers r6 r7 
                           1343 ;sloc0                     Allocated to stack - sp -1
                           1344 ;------------------------------------------------------------
                           1345 ;	../../../contiki-sensinode//core/net/mac/contikimac.c:296: schedule_powercycle(struct rtimer *t, rtimer_clock_t time)
                           1346 ;	-----------------------------------------
                           1347 ;	 function schedule_powercycle
                           1348 ;	-----------------------------------------
   0086                    1349 _schedule_powercycle:
   0086 C0 82              1350 	push	dpl
   0088 C0 83              1351 	push	dph
   008A C0 F0              1352 	push	b
   008C 05 81              1353 	inc	sp
   008E 05 81              1354 	inc	sp
                           1355 ;	../../../contiki-sensinode//core/net/mac/contikimac.c:300: if(contikimac_is_on) {
   0090 90s00r04           1356 	mov	dptr,#_contikimac_is_on
   0093 E0                 1357 	movx	a,@dptr
   0094 FC                 1358 	mov	r4,a
   0095 70 03              1359 	jnz	00115$
   0097 02s01r6F           1360 	ljmp	00107$
   009A                    1361 00115$:
                           1362 ;	../../../contiki-sensinode//core/net/mac/contikimac.c:302: if(RTIMER_CLOCK_LT(RTIMER_TIME(t) + time, RTIMER_NOW() + 2)) {
   009A E5 81              1363 	mov	a,sp
   009C 24 FC              1364 	add	a,#0xfc
   009E F8                 1365 	mov	r0,a
   009F 86 82              1366 	mov	dpl,@r0
   00A1 08                 1367 	inc	r0
   00A2 86 83              1368 	mov	dph,@r0
   00A4 08                 1369 	inc	r0
   00A5 86 F0              1370 	mov	b,@r0
   00A7 12s00r00           1371 	lcall	__gptrget
   00AA FB                 1372 	mov	r3,a
   00AB A3                 1373 	inc	dptr
   00AC 12s00r00           1374 	lcall	__gptrget
   00AF FC                 1375 	mov	r4,a
   00B0 E5 81              1376 	mov	a,sp
   00B2 24 F7              1377 	add	a,#0xf7
   00B4 F8                 1378 	mov	r0,a
   00B5 E6                 1379 	mov	a,@r0
   00B6 2B                 1380 	add	a,r3
   00B7 FA                 1381 	mov	r2,a
   00B8 08                 1382 	inc	r0
   00B9 E6                 1383 	mov	a,@r0
   00BA 3C                 1384 	addc	a,r4
   00BB FF                 1385 	mov	r7,a
   00BC A8 81              1386 	mov	r0,sp
   00BE 18                 1387 	dec	r0
   00BF A6 E2              1388 	mov	@r0,_T1CNTL
   00C1 08                 1389 	inc	r0
   00C2 76 00              1390 	mov	@r0,#0x00
   00C4 AE E3              1391 	mov	r6,_T1CNTH
   00C6 7D 00              1392 	mov	r5,#0x00
   00C8 A8 81              1393 	mov	r0,sp
   00CA 18                 1394 	dec	r0
   00CB ED                 1395 	mov	a,r5
   00CC 26                 1396 	add	a,@r0
   00CD FD                 1397 	mov	r5,a
   00CE EE                 1398 	mov	a,r6
   00CF 08                 1399 	inc	r0
   00D0 36                 1400 	addc	a,@r0
   00D1 FE                 1401 	mov	r6,a
   00D2 74 02              1402 	mov	a,#0x02
   00D4 2D                 1403 	add	a,r5
   00D5 FD                 1404 	mov	r5,a
   00D6 E4                 1405 	clr	a
   00D7 3E                 1406 	addc	a,r6
   00D8 FE                 1407 	mov	r6,a
   00D9 EA                 1408 	mov	a,r2
   00DA C3                 1409 	clr	c
   00DB 9D                 1410 	subb	a,r5
   00DC FA                 1411 	mov	r2,a
   00DD EF                 1412 	mov	a,r7
   00DE 9E                 1413 	subb	a,r6
   00DF FF                 1414 	mov	r7,a
   00E0 30 E7 23           1415 	jnb	acc.7,00102$
                           1416 ;	../../../contiki-sensinode//core/net/mac/contikimac.c:303: time = RTIMER_NOW() - RTIMER_TIME(t) + 2;
   00E3 AA E2              1417 	mov	r2,_T1CNTL
   00E5 7F 00              1418 	mov	r7,#0x00
   00E7 AD E3              1419 	mov	r5,_T1CNTH
   00E9 8D 06              1420 	mov	ar6,r5
   00EB E4                 1421 	clr	a
   00EC FD                 1422 	mov	r5,a
   00ED 2A                 1423 	add	a,r2
   00EE FA                 1424 	mov	r2,a
   00EF EE                 1425 	mov	a,r6
   00F0 3F                 1426 	addc	a,r7
   00F1 FF                 1427 	mov	r7,a
   00F2 EA                 1428 	mov	a,r2
   00F3 C3                 1429 	clr	c
   00F4 9B                 1430 	subb	a,r3
   00F5 FA                 1431 	mov	r2,a
   00F6 EF                 1432 	mov	a,r7
   00F7 9C                 1433 	subb	a,r4
   00F8 FF                 1434 	mov	r7,a
   00F9 E5 81              1435 	mov	a,sp
   00FB 24 F7              1436 	add	a,#0xf7
   00FD F8                 1437 	mov	r0,a
   00FE 74 02              1438 	mov	a,#0x02
   0100 2A                 1439 	add	a,r2
   0101 F6                 1440 	mov	@r0,a
   0102 E4                 1441 	clr	a
   0103 3F                 1442 	addc	a,r7
   0104 08                 1443 	inc	r0
   0105 F6                 1444 	mov	@r0,a
                           1445 ;	../../../contiki-sensinode//core/net/mac/contikimac.c:309: printf("schedule_powercycle: could not set rtimer\n");
                           1446 ;	../../../contiki-sensinode//core/net/mac/contikimac.c:303: time = RTIMER_NOW() - RTIMER_TIME(t) + 2;
   0106                    1447 00102$:
                           1448 ;	../../../contiki-sensinode//core/net/mac/contikimac.c:307: (void (*)(struct rtimer *, void *))powercycle, NULL);
   0106 7Ar7F              1449 	mov	r2,#_powercycle
   0108 7Es02              1450 	mov	r6,#(_powercycle >> 8)
   010A 7Fs00              1451 	mov	r7,#(_powercycle >> 16)
                           1452 ;	../../../contiki-sensinode//core/net/mac/contikimac.c:306: r = rtimer_set(t, RTIMER_TIME(t) + time, 1,
   010C E5 81              1453 	mov	a,sp
   010E 24 F7              1454 	add	a,#0xf7
   0110 F8                 1455 	mov	r0,a
   0111 E6                 1456 	mov	a,@r0
   0112 2B                 1457 	add	a,r3
   0113 FB                 1458 	mov	r3,a
   0114 08                 1459 	inc	r0
   0115 E6                 1460 	mov	a,@r0
   0116 3C                 1461 	addc	a,r4
   0117 FC                 1462 	mov	r4,a
   0118 E4                 1463 	clr	a
   0119 C0 E0              1464 	push	acc
   011B C0 E0              1465 	push	acc
   011D C0 E0              1466 	push	acc
   011F C0 02              1467 	push	ar2
   0121 C0 06              1468 	push	ar6
   0123 C0 07              1469 	push	ar7
   0125 74 01              1470 	mov	a,#0x01
   0127 C0 E0              1471 	push	acc
   0129 E4                 1472 	clr	a
   012A C0 E0              1473 	push	acc
   012C C0 03              1474 	push	ar3
   012E C0 04              1475 	push	ar4
   0130 E5 81              1476 	mov	a,sp
   0132 24 F2              1477 	add	a,#0xf2
   0134 F8                 1478 	mov	r0,a
   0135 86 82              1479 	mov	dpl,@r0
   0137 08                 1480 	inc	r0
   0138 86 83              1481 	mov	dph,@r0
   013A 08                 1482 	inc	r0
   013B 86 F0              1483 	mov	b,@r0
   013D 78r00              1484 	mov	r0,#_rtimer_set
   013F 79s00              1485 	mov	r1,#(_rtimer_set >> 8)
   0141 7As00              1486 	mov	r2,#(_rtimer_set >> 16)
   0143 12s00r00           1487 	lcall	__sdcc_banked_call
   0146 AE 82              1488 	mov	r6,dpl
   0148 AF 83              1489 	mov	r7,dph
   014A E5 81              1490 	mov	a,sp
   014C 24 F6              1491 	add	a,#0xf6
   014E F5 81              1492 	mov	sp,a
                           1493 ;	../../../contiki-sensinode//core/net/mac/contikimac.c:308: if(r != RTIMER_OK) {
   0150 EE                 1494 	mov	a,r6
   0151 4F                 1495 	orl	a,r7
   0152 60 1B              1496 	jz	00107$
                           1497 ;	../../../contiki-sensinode//core/net/mac/contikimac.c:309: printf("schedule_powercycle: could not set rtimer\n");
   0154 74r00              1498 	mov	a,#__str_0
   0156 C0 E0              1499 	push	acc
   0158 74s00              1500 	mov	a,#(__str_0 >> 8)
   015A C0 E0              1501 	push	acc
   015C 74 80              1502 	mov	a,#0x80
   015E C0 E0              1503 	push	acc
   0160 78r00              1504 	mov	r0,#_printf
   0162 79s00              1505 	mov	r1,#(_printf >> 8)
   0164 7As00              1506 	mov	r2,#(_printf >> 16)
   0166 12s00r00           1507 	lcall	__sdcc_banked_call
   0169 15 81              1508 	dec	sp
   016B 15 81              1509 	dec	sp
   016D 15 81              1510 	dec	sp
   016F                    1511 00107$:
   016F E5 81              1512 	mov	a,sp
   0171 24 FB              1513 	add	a,#0xFB
   0173 F5 81              1514 	mov	sp,a
   0175 02s00r00           1515 	ljmp	__sdcc_banked_ret
                           1516 ;------------------------------------------------------------
                           1517 ;Allocation info for local variables in function 'schedule_powercycle_fixed'
                           1518 ;------------------------------------------------------------
                           1519 ;fixed_time                Allocated to stack - sp -4
                           1520 ;t                         Allocated to registers r5 r6 r7 
                           1521 ;r                         Allocated to registers r6 r7 
                           1522 ;------------------------------------------------------------
                           1523 ;	../../../contiki-sensinode//core/net/mac/contikimac.c:315: schedule_powercycle_fixed(struct rtimer *t, rtimer_clock_t fixed_time)
                           1524 ;	-----------------------------------------
                           1525 ;	 function schedule_powercycle_fixed
                           1526 ;	-----------------------------------------
   0178                    1527 _schedule_powercycle_fixed:
   0178 AD 82              1528 	mov	r5,dpl
   017A AE 83              1529 	mov	r6,dph
   017C AF F0              1530 	mov	r7,b
                           1531 ;	../../../contiki-sensinode//core/net/mac/contikimac.c:319: if(contikimac_is_on) {
   017E 90s00r04           1532 	mov	dptr,#_contikimac_is_on
   0181 E0                 1533 	movx	a,@dptr
   0182 FC                 1534 	mov	r4,a
   0183 70 03              1535 	jnz	00115$
   0185 02s02r40           1536 	ljmp	00107$
   0188                    1537 00115$:
                           1538 ;	../../../contiki-sensinode//core/net/mac/contikimac.c:321: if(RTIMER_CLOCK_LT(fixed_time, RTIMER_NOW() + 1)) {
   0188 C0 05              1539 	push	ar5
   018A C0 06              1540 	push	ar6
   018C C0 07              1541 	push	ar7
   018E AB E2              1542 	mov	r3,_T1CNTL
   0190 7C 00              1543 	mov	r4,#0x00
   0192 AA E3              1544 	mov	r2,_T1CNTH
   0194 8A 07              1545 	mov	ar7,r2
   0196 E4                 1546 	clr	a
   0197 FA                 1547 	mov	r2,a
   0198 2B                 1548 	add	a,r3
   0199 FB                 1549 	mov	r3,a
   019A EF                 1550 	mov	a,r7
   019B 3C                 1551 	addc	a,r4
   019C FC                 1552 	mov	r4,a
   019D 0B                 1553 	inc	r3
   019E BB 00 01           1554 	cjne	r3,#0x00,00116$
   01A1 0C                 1555 	inc	r4
   01A2                    1556 00116$:
   01A2 E5 81              1557 	mov	a,sp
   01A4 24 F9              1558 	add	a,#0xf9
   01A6 F8                 1559 	mov	r0,a
   01A7 E6                 1560 	mov	a,@r0
   01A8 C3                 1561 	clr	c
   01A9 9B                 1562 	subb	a,r3
   01AA FB                 1563 	mov	r3,a
   01AB 08                 1564 	inc	r0
   01AC E6                 1565 	mov	a,@r0
   01AD 9C                 1566 	subb	a,r4
   01AE FC                 1567 	mov	r4,a
   01AF D0 07              1568 	pop	ar7
   01B1 D0 06              1569 	pop	ar6
   01B3 D0 05              1570 	pop	ar5
   01B5 30 E7 2A           1571 	jnb	acc.7,00102$
                           1572 ;	../../../contiki-sensinode//core/net/mac/contikimac.c:322: fixed_time = RTIMER_NOW() + 1;
   01B8 C0 05              1573 	push	ar5
   01BA C0 06              1574 	push	ar6
   01BC C0 07              1575 	push	ar7
   01BE AB E2              1576 	mov	r3,_T1CNTL
   01C0 7C 00              1577 	mov	r4,#0x00
   01C2 AA E3              1578 	mov	r2,_T1CNTH
   01C4 8A 07              1579 	mov	ar7,r2
   01C6 E4                 1580 	clr	a
   01C7 FA                 1581 	mov	r2,a
   01C8 2B                 1582 	add	a,r3
   01C9 FB                 1583 	mov	r3,a
   01CA EF                 1584 	mov	a,r7
   01CB 3C                 1585 	addc	a,r4
   01CC FC                 1586 	mov	r4,a
   01CD 0B                 1587 	inc	r3
   01CE BB 00 01           1588 	cjne	r3,#0x00,00118$
   01D1 0C                 1589 	inc	r4
   01D2                    1590 00118$:
   01D2 E5 81              1591 	mov	a,sp
   01D4 24 F9              1592 	add	a,#0xf9
   01D6 F8                 1593 	mov	r0,a
   01D7 A6 03              1594 	mov	@r0,ar3
   01D9 08                 1595 	inc	r0
   01DA A6 04              1596 	mov	@r0,ar4
                           1597 ;	../../../contiki-sensinode//core/net/mac/contikimac.c:328: printf("schedule_powercycle: could not set rtimer\n");
   01DC D0 07              1598 	pop	ar7
   01DE D0 06              1599 	pop	ar6
   01E0 D0 05              1600 	pop	ar5
                           1601 ;	../../../contiki-sensinode//core/net/mac/contikimac.c:322: fixed_time = RTIMER_NOW() + 1;
   01E2                    1602 00102$:
                           1603 ;	../../../contiki-sensinode//core/net/mac/contikimac.c:326: (void (*)(struct rtimer *, void *))powercycle, NULL);
   01E2 7Ar7F              1604 	mov	r2,#_powercycle
   01E4 7Bs02              1605 	mov	r3,#(_powercycle >> 8)
   01E6 7Cs00              1606 	mov	r4,#(_powercycle >> 16)
                           1607 ;	../../../contiki-sensinode//core/net/mac/contikimac.c:325: r = rtimer_set(t, fixed_time, 1,
   01E8 E4                 1608 	clr	a
   01E9 C0 E0              1609 	push	acc
   01EB C0 E0              1610 	push	acc
   01ED C0 E0              1611 	push	acc
   01EF C0 02              1612 	push	ar2
   01F1 C0 03              1613 	push	ar3
   01F3 C0 04              1614 	push	ar4
   01F5 74 01              1615 	mov	a,#0x01
   01F7 C0 E0              1616 	push	acc
   01F9 E4                 1617 	clr	a
   01FA C0 E0              1618 	push	acc
   01FC E5 81              1619 	mov	a,sp
   01FE 24 F4              1620 	add	a,#0xf4
   0200 F8                 1621 	mov	r0,a
   0201 E6                 1622 	mov	a,@r0
   0202 C0 E0              1623 	push	acc
   0204 08                 1624 	inc	r0
   0205 E6                 1625 	mov	a,@r0
   0206 C0 E0              1626 	push	acc
   0208 8D 82              1627 	mov	dpl,r5
   020A 8E 83              1628 	mov	dph,r6
   020C 8F F0              1629 	mov	b,r7
   020E 78r00              1630 	mov	r0,#_rtimer_set
   0210 79s00              1631 	mov	r1,#(_rtimer_set >> 8)
   0212 7As00              1632 	mov	r2,#(_rtimer_set >> 16)
   0214 12s00r00           1633 	lcall	__sdcc_banked_call
   0217 AE 82              1634 	mov	r6,dpl
   0219 AF 83              1635 	mov	r7,dph
   021B E5 81              1636 	mov	a,sp
   021D 24 F6              1637 	add	a,#0xf6
   021F F5 81              1638 	mov	sp,a
                           1639 ;	../../../contiki-sensinode//core/net/mac/contikimac.c:327: if(r != RTIMER_OK) {
   0221 EE                 1640 	mov	a,r6
   0222 4F                 1641 	orl	a,r7
   0223 60 1B              1642 	jz	00107$
                           1643 ;	../../../contiki-sensinode//core/net/mac/contikimac.c:328: printf("schedule_powercycle: could not set rtimer\n");
   0225 74r00              1644 	mov	a,#__str_0
   0227 C0 E0              1645 	push	acc
   0229 74s00              1646 	mov	a,#(__str_0 >> 8)
   022B C0 E0              1647 	push	acc
   022D 74 80              1648 	mov	a,#0x80
   022F C0 E0              1649 	push	acc
   0231 78r00              1650 	mov	r0,#_printf
   0233 79s00              1651 	mov	r1,#(_printf >> 8)
   0235 7As00              1652 	mov	r2,#(_printf >> 16)
   0237 12s00r00           1653 	lcall	__sdcc_banked_call
   023A 15 81              1654 	dec	sp
   023C 15 81              1655 	dec	sp
   023E 15 81              1656 	dec	sp
   0240                    1657 00107$:
   0240 02s00r00           1658 	ljmp	__sdcc_banked_ret
                           1659 ;------------------------------------------------------------
                           1660 ;Allocation info for local variables in function 'powercycle_turn_radio_off'
                           1661 ;------------------------------------------------------------
                           1662 ;	../../../contiki-sensinode//core/net/mac/contikimac.c:334: powercycle_turn_radio_off(void)
                           1663 ;	-----------------------------------------
                           1664 ;	 function powercycle_turn_radio_off
                           1665 ;	-----------------------------------------
   0243                    1666 _powercycle_turn_radio_off:
                           1667 ;	../../../contiki-sensinode//core/net/mac/contikimac.c:340: if(we_are_sending == 0 && we_are_receiving_burst == 0) {
   0243 90s00r06           1668 	mov	dptr,#_we_are_sending
   0246 E0                 1669 	movx	a,@dptr
   0247 FF                 1670 	mov	r7,a
   0248 70 14              1671 	jnz	00104$
   024A 90s00r00           1672 	mov	dptr,#_we_are_receiving_burst
   024D E0                 1673 	movx	a,@dptr
   024E FE                 1674 	mov	r6,a
   024F A3                 1675 	inc	dptr
   0250 E0                 1676 	movx	a,@dptr
   0251 FF                 1677 	mov	r7,a
   0252 4E                 1678 	orl	a,r6
   0253 70 09              1679 	jnz	00104$
                           1680 ;	../../../contiki-sensinode//core/net/mac/contikimac.c:341: off();
   0255 78r40              1681 	mov	r0,#_off
   0257 79s00              1682 	mov	r1,#(_off >> 8)
   0259 7As00              1683 	mov	r2,#(_off >> 16)
   025B 12s00r00           1684 	lcall	__sdcc_banked_call
   025E                    1685 00104$:
   025E 02s00r00           1686 	ljmp	__sdcc_banked_ret
                           1687 ;------------------------------------------------------------
                           1688 ;Allocation info for local variables in function 'powercycle_turn_radio_on'
                           1689 ;------------------------------------------------------------
                           1690 ;	../../../contiki-sensinode//core/net/mac/contikimac.c:351: powercycle_turn_radio_on(void)
                           1691 ;	-----------------------------------------
                           1692 ;	 function powercycle_turn_radio_on
                           1693 ;	-----------------------------------------
   0261                    1694 _powercycle_turn_radio_on:
                           1695 ;	../../../contiki-sensinode//core/net/mac/contikimac.c:353: if(we_are_sending == 0 && we_are_receiving_burst == 0) {
   0261 90s00r06           1696 	mov	dptr,#_we_are_sending
   0264 E0                 1697 	movx	a,@dptr
   0265 FF                 1698 	mov	r7,a
   0266 70 14              1699 	jnz	00104$
   0268 90s00r00           1700 	mov	dptr,#_we_are_receiving_burst
   026B E0                 1701 	movx	a,@dptr
   026C FE                 1702 	mov	r6,a
   026D A3                 1703 	inc	dptr
   026E E0                 1704 	movx	a,@dptr
   026F FF                 1705 	mov	r7,a
   0270 4E                 1706 	orl	a,r6
   0271 70 09              1707 	jnz	00104$
                           1708 ;	../../../contiki-sensinode//core/net/mac/contikimac.c:354: on();
   0273 78r00              1709 	mov	r0,#_on
   0275 79s00              1710 	mov	r1,#(_on >> 8)
   0277 7As00              1711 	mov	r2,#(_on >> 16)
   0279 12s00r00           1712 	lcall	__sdcc_banked_call
   027C                    1713 00104$:
   027C 02s00r00           1714 	ljmp	__sdcc_banked_ret
                           1715 ;------------------------------------------------------------
                           1716 ;Allocation info for local variables in function 'powercycle'
                           1717 ;------------------------------------------------------------
                           1718 ;ptr                       Allocated to stack - sp -12
                           1719 ;t                         Allocated to stack - sp -6
                           1720 ;PT_YIELD_FLAG             Allocated to registers r4 
                           1721 ;sloc0                     Allocated to stack - sp -3
                           1722 ;sync_cycle_start          Allocated with name '_powercycle_sync_cycle_start_1_1'
                           1723 ;sync_cycle_phase          Allocated with name '_powercycle_sync_cycle_phase_1_1'
                           1724 ;packet_seen               Allocated with name '_powercycle_packet_seen_4_5'
                           1725 ;t0                        Allocated with name '_powercycle_t0_4_5'
                           1726 ;count                     Allocated with name '_powercycle_count_4_5'
                           1727 ;start                     Allocated with name '_powercycle_start_5_13'
                           1728 ;silence_periods           Allocated with name '_powercycle_silence_periods_5_13'
                           1729 ;periods                   Allocated with name '_powercycle_periods_5_13'
                           1730 ;------------------------------------------------------------
                           1731 ;	../../../contiki-sensinode//core/net/mac/contikimac.c:359: powercycle(struct rtimer *t, void *ptr)
                           1732 ;	-----------------------------------------
                           1733 ;	 function powercycle
                           1734 ;	-----------------------------------------
   027F                    1735 _powercycle:
   027F C0 82              1736 	push	dpl
   0281 C0 83              1737 	push	dph
   0283 C0 F0              1738 	push	b
   0285 E5 81              1739 	mov	a,sp
   0287 24 04              1740 	add	a,#0x04
   0289 F5 81              1741 	mov	sp,a
                           1742 ;	../../../contiki-sensinode//core/net/mac/contikimac.c:366: PT_BEGIN(&pt);
   028B 7C 01              1743 	mov	r4,#0x01
   028D 90s00r08           1744 	mov	dptr,#_pt
   0290 E0                 1745 	movx	a,@dptr
   0291 FA                 1746 	mov	r2,a
   0292 A3                 1747 	inc	dptr
   0293 E0                 1748 	movx	a,@dptr
   0294 FB                 1749 	mov	r3,a
   0295 BA 00 05           1750 	cjne	r2,#0x00,00225$
   0298 BB 00 02           1751 	cjne	r3,#0x00,00225$
   029B 80 1E              1752 	sjmp	00101$
   029D                    1753 00225$:
   029D BA 9F 06           1754 	cjne	r2,#0x9F,00226$
   02A0 BB 01 03           1755 	cjne	r3,#0x01,00226$
   02A3 02s04r43           1756 	ljmp	00110$
   02A6                    1757 00226$:
   02A6 BA D1 06           1758 	cjne	r2,#0xD1,00227$
   02A9 BB 01 03           1759 	cjne	r3,#0x01,00227$
   02AC 02s05rFB           1760 	ljmp	00134$
   02AF                    1761 00227$:
   02AF BA EC 06           1762 	cjne	r2,#0xEC,00228$
   02B2 BB 01 03           1763 	cjne	r3,#0x01,00228$
   02B5 02s06rF8           1764 	ljmp	00153$
   02B8                    1765 00228$:
   02B8 02s07r03           1766 	ljmp	00164$
   02BB                    1767 00101$:
                           1768 ;	../../../contiki-sensinode//core/net/mac/contikimac.c:369: sync_cycle_start = RTIMER_NOW();
   02BB AA E2              1769 	mov	r2,_T1CNTL
   02BD 7B 00              1770 	mov	r3,#0x00
   02BF AE E3              1771 	mov	r6,_T1CNTH
   02C1 8E 07              1772 	mov	ar7,r6
   02C3 E4                 1773 	clr	a
   02C4 FE                 1774 	mov	r6,a
   02C5 2A                 1775 	add	a,r2
   02C6 FA                 1776 	mov	r2,a
   02C7 EF                 1777 	mov	a,r7
   02C8 3B                 1778 	addc	a,r3
   02C9 FB                 1779 	mov	r3,a
   02CA 90s02rD6           1780 	mov	dptr,#_powercycle_sync_cycle_start_1_1
   02CD EA                 1781 	mov	a,r2
   02CE F0                 1782 	movx	@dptr,a
   02CF A3                 1783 	inc	dptr
   02D0 EB                 1784 	mov	a,r3
   02D1 F0                 1785 	movx	@dptr,a
                           1786 ;	../../../contiki-sensinode//core/net/mac/contikimac.c:497: PT_END(&pt);
                           1787 ;	../../../contiki-sensinode//core/net/mac/contikimac.c:374: while(1) {
   02D2                    1788 00162$:
                           1789 ;	../../../contiki-sensinode//core/net/mac/contikimac.c:381: if (sync_cycle_phase++ == NETSTACK_RDC_CHANNEL_CHECK_RATE) {
   02D2 90s02rD8           1790 	mov	dptr,#_powercycle_sync_cycle_phase_1_1
   02D5 E0                 1791 	movx	a,@dptr
   02D6 FB                 1792 	mov	r3,a
   02D7 90s02rD8           1793 	mov	dptr,#_powercycle_sync_cycle_phase_1_1
   02DA E0                 1794 	movx	a,@dptr
   02DB 24 01              1795 	add	a,#0x01
   02DD F0                 1796 	movx	@dptr,a
   02DE BB 08 2B           1797 	cjne	r3,#0x08,00103$
                           1798 ;	../../../contiki-sensinode//core/net/mac/contikimac.c:382: sync_cycle_phase = 0;
   02E1 90s02rD8           1799 	mov	dptr,#_powercycle_sync_cycle_phase_1_1
   02E4 E4                 1800 	clr	a
   02E5 F0                 1801 	movx	@dptr,a
                           1802 ;	../../../contiki-sensinode//core/net/mac/contikimac.c:383: sync_cycle_start += RTIMER_ARCH_SECOND;
   02E6 90s02rD6           1803 	mov	dptr,#_powercycle_sync_cycle_start_1_1
   02E9 E0                 1804 	movx	a,@dptr
   02EA FA                 1805 	mov	r2,a
   02EB A3                 1806 	inc	dptr
   02EC E0                 1807 	movx	a,@dptr
   02ED FB                 1808 	mov	r3,a
   02EE 90s02rD6           1809 	mov	dptr,#_powercycle_sync_cycle_start_1_1
   02F1 74 09              1810 	mov	a,#0x09
   02F3 2A                 1811 	add	a,r2
   02F4 F0                 1812 	movx	@dptr,a
   02F5 74 3D              1813 	mov	a,#0x3D
   02F7 3B                 1814 	addc	a,r3
   02F8 A3                 1815 	inc	dptr
   02F9 F0                 1816 	movx	@dptr,a
                           1817 ;	../../../contiki-sensinode//core/net/mac/contikimac.c:384: cycle_start = sync_cycle_start;
   02FA 90s02rD6           1818 	mov	dptr,#_powercycle_sync_cycle_start_1_1
   02FD E0                 1819 	movx	a,@dptr
   02FE FA                 1820 	mov	r2,a
   02FF A3                 1821 	inc	dptr
   0300 E0                 1822 	movx	a,@dptr
   0301 FB                 1823 	mov	r3,a
   0302 90s02rD4           1824 	mov	dptr,#_cycle_start
   0305 EA                 1825 	mov	a,r2
   0306 F0                 1826 	movx	@dptr,a
   0307 A3                 1827 	inc	dptr
   0308 EB                 1828 	mov	a,r3
   0309 F0                 1829 	movx	@dptr,a
   030A 80 76              1830 	sjmp	00104$
   030C                    1831 00103$:
                           1832 ;	../../../contiki-sensinode//core/net/mac/contikimac.c:387: cycle_start = sync_cycle_start + ((unsigned long)(sync_cycle_phase*RTIMER_ARCH_SECOND))/NETSTACK_RDC_CHANNEL_CHECK_RATE;
   030C 90s02rD8           1833 	mov	dptr,#_powercycle_sync_cycle_phase_1_1
   030F E0                 1834 	movx	a,@dptr
   0310 FB                 1835 	mov	r3,a
   0311 7A 00              1836 	mov	r2,#0x00
   0313 C0 03              1837 	push	ar3
   0315 C0 02              1838 	push	ar2
   0317 90 3D 09           1839 	mov	dptr,#0x3D09
   031A 12s00r00           1840 	lcall	__mulint
   031D AA 82              1841 	mov	r2,dpl
   031F AB 83              1842 	mov	r3,dph
   0321 15 81              1843 	dec	sp
   0323 15 81              1844 	dec	sp
   0325 E4                 1845 	clr	a
   0326 FE                 1846 	mov	r6,a
   0327 FF                 1847 	mov	r7,a
   0328 E5 81              1848 	mov	a,sp
   032A 24 FD              1849 	add	a,#0xfd
   032C F8                 1850 	mov	r0,a
   032D A6 02              1851 	mov	@r0,ar2
   032F EB                 1852 	mov	a,r3
   0330 C4                 1853 	swap	a
   0331 23                 1854 	rl	a
   0332 C6                 1855 	xch	a,@r0
   0333 C4                 1856 	swap	a
   0334 23                 1857 	rl	a
   0335 54 1F              1858 	anl	a,#0x1F
   0337 66                 1859 	xrl	a,@r0
   0338 C6                 1860 	xch	a,@r0
   0339 54 1F              1861 	anl	a,#0x1F
   033B C6                 1862 	xch	a,@r0
   033C 66                 1863 	xrl	a,@r0
   033D C6                 1864 	xch	a,@r0
   033E 08                 1865 	inc	r0
   033F F6                 1866 	mov	@r0,a
   0340 EE                 1867 	mov	a,r6
   0341 C4                 1868 	swap	a
   0342 23                 1869 	rl	a
   0343 54 E0              1870 	anl	a,#0xE0
   0345 46                 1871 	orl	a,@r0
   0346 F6                 1872 	mov	@r0,a
   0347 08                 1873 	inc	r0
   0348 A6 06              1874 	mov	@r0,ar6
   034A EF                 1875 	mov	a,r7
   034B C4                 1876 	swap	a
   034C 23                 1877 	rl	a
   034D C6                 1878 	xch	a,@r0
   034E C4                 1879 	swap	a
   034F 23                 1880 	rl	a
   0350 54 1F              1881 	anl	a,#0x1F
   0352 66                 1882 	xrl	a,@r0
   0353 C6                 1883 	xch	a,@r0
   0354 54 1F              1884 	anl	a,#0x1F
   0356 C6                 1885 	xch	a,@r0
   0357 66                 1886 	xrl	a,@r0
   0358 C6                 1887 	xch	a,@r0
   0359 08                 1888 	inc	r0
   035A F6                 1889 	mov	@r0,a
   035B 90s02rD6           1890 	mov	dptr,#_powercycle_sync_cycle_start_1_1
   035E E0                 1891 	movx	a,@dptr
   035F FD                 1892 	mov	r5,a
   0360 A3                 1893 	inc	dptr
   0361 E0                 1894 	movx	a,@dptr
   0362 FF                 1895 	mov	r7,a
   0363 E4                 1896 	clr	a
   0364 FE                 1897 	mov	r6,a
   0365 FB                 1898 	mov	r3,a
   0366 E5 81              1899 	mov	a,sp
   0368 24 FD              1900 	add	a,#0xfd
   036A F8                 1901 	mov	r0,a
   036B E6                 1902 	mov	a,@r0
   036C 2D                 1903 	add	a,r5
   036D FD                 1904 	mov	r5,a
   036E 08                 1905 	inc	r0
   036F E6                 1906 	mov	a,@r0
   0370 3F                 1907 	addc	a,r7
   0371 FF                 1908 	mov	r7,a
   0372 08                 1909 	inc	r0
   0373 E6                 1910 	mov	a,@r0
   0374 3E                 1911 	addc	a,r6
   0375 FE                 1912 	mov	r6,a
   0376 08                 1913 	inc	r0
   0377 E6                 1914 	mov	a,@r0
   0378 3B                 1915 	addc	a,r3
   0379 FB                 1916 	mov	r3,a
   037A 90s02rD4           1917 	mov	dptr,#_cycle_start
   037D ED                 1918 	mov	a,r5
   037E F0                 1919 	movx	@dptr,a
   037F A3                 1920 	inc	dptr
   0380 EF                 1921 	mov	a,r7
   0381 F0                 1922 	movx	@dptr,a
                           1923 ;	../../../contiki-sensinode//core/net/mac/contikimac.c:497: PT_END(&pt);
                           1924 ;	../../../contiki-sensinode//core/net/mac/contikimac.c:387: cycle_start = sync_cycle_start + ((unsigned long)(sync_cycle_phase*RTIMER_ARCH_SECOND))/NETSTACK_RDC_CHANNEL_CHECK_RATE;
   0382                    1925 00104$:
                           1926 ;	../../../contiki-sensinode//core/net/mac/contikimac.c:396: packet_seen = 0;
   0382 90s02rD9           1927 	mov	dptr,#_powercycle_packet_seen_4_5
                           1928 ;	../../../contiki-sensinode//core/net/mac/contikimac.c:398: for(count = 0; count < CCA_COUNT_MAX; ++count) {
   0385 E4                 1929 	clr	a
   0386 F0                 1930 	movx	@dptr,a
   0387 90s02rDC           1931 	mov	dptr,#_powercycle_count_4_5
   038A F0                 1932 	movx	@dptr,a
   038B                    1933 00116$:
   038B 90s02rDC           1934 	mov	dptr,#_powercycle_count_4_5
   038E E0                 1935 	movx	a,@dptr
   038F FB                 1936 	mov	r3,a
   0390 BB 02 00           1937 	cjne	r3,#0x02,00231$
   0393                    1938 00231$:
   0393 40 03              1939 	jc	00232$
   0395 02s04r56           1940 	ljmp	00119$
   0398                    1941 00232$:
                           1942 ;	../../../contiki-sensinode//core/net/mac/contikimac.c:399: t0 = RTIMER_NOW();
   0398 AA E2              1943 	mov	r2,_T1CNTL
   039A 7B 00              1944 	mov	r3,#0x00
   039C AE E3              1945 	mov	r6,_T1CNTH
   039E 8E 07              1946 	mov	ar7,r6
   03A0 E4                 1947 	clr	a
   03A1 FE                 1948 	mov	r6,a
   03A2 2A                 1949 	add	a,r2
   03A3 FA                 1950 	mov	r2,a
   03A4 EF                 1951 	mov	a,r7
   03A5 3B                 1952 	addc	a,r3
   03A6 FB                 1953 	mov	r3,a
   03A7 90s02rDA           1954 	mov	dptr,#_powercycle_t0_4_5
   03AA EA                 1955 	mov	a,r2
   03AB F0                 1956 	movx	@dptr,a
   03AC A3                 1957 	inc	dptr
   03AD EB                 1958 	mov	a,r3
   03AE F0                 1959 	movx	@dptr,a
                           1960 ;	../../../contiki-sensinode//core/net/mac/contikimac.c:400: if(we_are_sending == 0 && we_are_receiving_burst == 0) {
   03AF 90s00r06           1961 	mov	dptr,#_we_are_sending
   03B2 E0                 1962 	movx	a,@dptr
   03B3 FF                 1963 	mov	r7,a
   03B4 70 4E              1964 	jnz	00108$
   03B6 90s00r00           1965 	mov	dptr,#_we_are_receiving_burst
   03B9 E0                 1966 	movx	a,@dptr
   03BA FA                 1967 	mov	r2,a
   03BB A3                 1968 	inc	dptr
   03BC E0                 1969 	movx	a,@dptr
   03BD FB                 1970 	mov	r3,a
   03BE 4A                 1971 	orl	a,r2
   03BF 70 43              1972 	jnz	00108$
                           1973 ;	../../../contiki-sensinode//core/net/mac/contikimac.c:401: powercycle_turn_radio_on();
   03C1 78r61              1974 	mov	r0,#_powercycle_turn_radio_on
   03C3 79s02              1975 	mov	r1,#(_powercycle_turn_radio_on >> 8)
   03C5 7As00              1976 	mov	r2,#(_powercycle_turn_radio_on >> 16)
   03C7 12s00r00           1977 	lcall	__sdcc_banked_call
                           1978 ;	../../../contiki-sensinode//core/net/mac/contikimac.c:408: if(NETSTACK_RADIO.channel_clear() == 0) {
   03CA 90s00r0F           1979 	mov	dptr,#(_cc2530_rf_driver + 0x000f)
   03CD E4                 1980 	clr	a
   03CE 93                 1981 	movc	a,@a+dptr
   03CF FA                 1982 	mov	r2,a
   03D0 A3                 1983 	inc	dptr
   03D1 E4                 1984 	clr	a
   03D2 93                 1985 	movc	a,@a+dptr
   03D3 FB                 1986 	mov	r3,a
   03D4 A3                 1987 	inc	dptr
   03D5 E4                 1988 	clr	a
   03D6 93                 1989 	movc	a,@a+dptr
   03D7 FF                 1990 	mov	r7,a
   03D8 C0 07              1991 	push	ar7
   03DA C0 02              1992 	push	ar2
   03DC C0 03              1993 	push	ar3
   03DE C0 07              1994 	push	ar7
   03E0 D0 02              1995 	pop	ar2
   03E2 D0 01              1996 	pop	ar1
   03E4 D0 00              1997 	pop	ar0
   03E6 12s00r00           1998 	lcall	__sdcc_banked_call
   03E9 AA 82              1999 	mov	r2,dpl
   03EB AB 83              2000 	mov	r3,dph
   03ED D0 07              2001 	pop	ar7
   03EF EA                 2002 	mov	a,r2
   03F0 4B                 2003 	orl	a,r3
   03F1 70 08              2004 	jnz	00106$
                           2005 ;	../../../contiki-sensinode//core/net/mac/contikimac.c:409: packet_seen = 1;
   03F3 90s02rD9           2006 	mov	dptr,#_powercycle_packet_seen_4_5
   03F6 74 01              2007 	mov	a,#0x01
   03F8 F0                 2008 	movx	@dptr,a
                           2009 ;	../../../contiki-sensinode//core/net/mac/contikimac.c:410: break;
   03F9 80 5B              2010 	sjmp	00119$
   03FB                    2011 00106$:
                           2012 ;	../../../contiki-sensinode//core/net/mac/contikimac.c:412: powercycle_turn_radio_off();
   03FB 78r43              2013 	mov	r0,#_powercycle_turn_radio_off
   03FD 79s02              2014 	mov	r1,#(_powercycle_turn_radio_off >> 8)
   03FF 7As00              2015 	mov	r2,#(_powercycle_turn_radio_off >> 16)
   0401 12s00r00           2016 	lcall	__sdcc_banked_call
   0404                    2017 00108$:
                           2018 ;	../../../contiki-sensinode//core/net/mac/contikimac.c:414: schedule_powercycle_fixed(t, RTIMER_NOW() + CCA_SLEEP_TIME);
   0404 AA E2              2019 	mov	r2,_T1CNTL
   0406 7B 00              2020 	mov	r3,#0x00
   0408 AE E3              2021 	mov	r6,_T1CNTH
   040A 8E 07              2022 	mov	ar7,r6
   040C E4                 2023 	clr	a
   040D 2A                 2024 	add	a,r2
   040E FA                 2025 	mov	r2,a
   040F EF                 2026 	mov	a,r7
   0410 3B                 2027 	addc	a,r3
   0411 FB                 2028 	mov	r3,a
   0412 74 07              2029 	mov	a,#0x07
   0414 2A                 2030 	add	a,r2
   0415 FA                 2031 	mov	r2,a
   0416 E4                 2032 	clr	a
   0417 3B                 2033 	addc	a,r3
   0418 FB                 2034 	mov	r3,a
   0419 C0 02              2035 	push	ar2
   041B C0 03              2036 	push	ar3
   041D E5 81              2037 	mov	a,sp
   041F 24 F8              2038 	add	a,#0xf8
   0421 F8                 2039 	mov	r0,a
   0422 86 82              2040 	mov	dpl,@r0
   0424 08                 2041 	inc	r0
   0425 86 83              2042 	mov	dph,@r0
   0427 08                 2043 	inc	r0
   0428 86 F0              2044 	mov	b,@r0
   042A 78r78              2045 	mov	r0,#_schedule_powercycle_fixed
   042C 79s01              2046 	mov	r1,#(_schedule_powercycle_fixed >> 8)
   042E 7As00              2047 	mov	r2,#(_schedule_powercycle_fixed >> 16)
   0430 12s00r00           2048 	lcall	__sdcc_banked_call
   0433 15 81              2049 	dec	sp
   0435 15 81              2050 	dec	sp
                           2051 ;	../../../contiki-sensinode//core/net/mac/contikimac.c:415: PT_YIELD(&pt);
   0437 7C 00              2052 	mov	r4,#0x00
   0439 90s00r08           2053 	mov	dptr,#_pt
   043C 74 9F              2054 	mov	a,#0x9F
   043E F0                 2055 	movx	@dptr,a
   043F A3                 2056 	inc	dptr
   0440 74 01              2057 	mov	a,#0x01
   0442 F0                 2058 	movx	@dptr,a
   0443                    2059 00110$:
   0443 EC                 2060 	mov	a,r4
   0444 70 06              2061 	jnz	00114$
   0446 75 82 01           2062 	mov	dpl,#0x01
   0449 02s07r0D           2063 	ljmp	00165$
   044C                    2064 00114$:
                           2065 ;	../../../contiki-sensinode//core/net/mac/contikimac.c:398: for(count = 0; count < CCA_COUNT_MAX; ++count) {
   044C 90s02rDC           2066 	mov	dptr,#_powercycle_count_4_5
   044F E0                 2067 	movx	a,@dptr
   0450 24 01              2068 	add	a,#0x01
   0452 F0                 2069 	movx	@dptr,a
   0453 02s03r8B           2070 	ljmp	00116$
   0456                    2071 00119$:
                           2072 ;	../../../contiki-sensinode//core/net/mac/contikimac.c:418: if(packet_seen) {
   0456 90s02rD9           2073 	mov	dptr,#_powercycle_packet_seen_4_5
   0459 E0                 2074 	movx	a,@dptr
   045A FF                 2075 	mov	r7,a
   045B 70 03              2076 	jnz	00238$
   045D 02s06r93           2077 	ljmp	00152$
   0460                    2078 00238$:
                           2079 ;	../../../contiki-sensinode//core/net/mac/contikimac.c:421: start = RTIMER_NOW();
   0460 AE E2              2080 	mov	r6,_T1CNTL
   0462 7F 00              2081 	mov	r7,#0x00
   0464 AB E3              2082 	mov	r3,_T1CNTH
   0466 8B 05              2083 	mov	ar5,r3
   0468 E4                 2084 	clr	a
   0469 FB                 2085 	mov	r3,a
   046A 2E                 2086 	add	a,r6
   046B FE                 2087 	mov	r6,a
   046C ED                 2088 	mov	a,r5
   046D 3F                 2089 	addc	a,r7
   046E FF                 2090 	mov	r7,a
   046F 90s02rDD           2091 	mov	dptr,#_powercycle_start_5_13
   0472 EE                 2092 	mov	a,r6
   0473 F0                 2093 	movx	@dptr,a
   0474 A3                 2094 	inc	dptr
   0475 EF                 2095 	mov	a,r7
   0476 F0                 2096 	movx	@dptr,a
                           2097 ;	../../../contiki-sensinode//core/net/mac/contikimac.c:423: periods = silence_periods = 0;
   0477 90s02rDF           2098 	mov	dptr,#_powercycle_silence_periods_5_13
   047A E4                 2099 	clr	a
   047B F0                 2100 	movx	@dptr,a
   047C 90s02rE0           2101 	mov	dptr,#_powercycle_periods_5_13
   047F F0                 2102 	movx	@dptr,a
                           2103 ;	../../../contiki-sensinode//core/net/mac/contikimac.c:424: while(we_are_sending == 0 && radio_is_on &&
   0480                    2104 00142$:
   0480 90s00r06           2105 	mov	dptr,#_we_are_sending
   0483 E0                 2106 	movx	a,@dptr
   0484 FF                 2107 	mov	r7,a
   0485 60 03              2108 	jz	00239$
   0487 02s06r07           2109 	ljmp	00144$
   048A                    2110 00239$:
   048A 90s00r07           2111 	mov	dptr,#_radio_is_on
   048D E0                 2112 	movx	a,@dptr
   048E FF                 2113 	mov	r7,a
   048F 70 03              2114 	jnz	00240$
   0491 02s06r07           2115 	ljmp	00144$
   0494                    2116 00240$:
                           2117 ;	../../../contiki-sensinode//core/net/mac/contikimac.c:425: RTIMER_CLOCK_LT(RTIMER_NOW(),
   0494 AE E2              2118 	mov	r6,_T1CNTL
   0496 7F 00              2119 	mov	r7,#0x00
   0498 AB E3              2120 	mov	r3,_T1CNTH
   049A 8B 05              2121 	mov	ar5,r3
   049C E4                 2122 	clr	a
   049D 2E                 2123 	add	a,r6
   049E FE                 2124 	mov	r6,a
   049F ED                 2125 	mov	a,r5
   04A0 3F                 2126 	addc	a,r7
   04A1 FF                 2127 	mov	r7,a
   04A2 90s02rDD           2128 	mov	dptr,#_powercycle_start_5_13
   04A5 E0                 2129 	movx	a,@dptr
   04A6 FB                 2130 	mov	r3,a
   04A7 A3                 2131 	inc	dptr
   04A8 E0                 2132 	movx	a,@dptr
   04A9 FD                 2133 	mov	r5,a
   04AA 74 C3              2134 	mov	a,#0xC3
   04AC 2B                 2135 	add	a,r3
   04AD FB                 2136 	mov	r3,a
   04AE E4                 2137 	clr	a
   04AF 3D                 2138 	addc	a,r5
   04B0 FD                 2139 	mov	r5,a
   04B1 EE                 2140 	mov	a,r6
   04B2 C3                 2141 	clr	c
   04B3 9B                 2142 	subb	a,r3
   04B4 FB                 2143 	mov	r3,a
   04B5 EF                 2144 	mov	a,r7
   04B6 9D                 2145 	subb	a,r5
   04B7 FD                 2146 	mov	r5,a
   04B8 20 E7 03           2147 	jb	acc.7,00241$
   04BB 02s06r07           2148 	ljmp	00144$
   04BE                    2149 00241$:
                           2150 ;	../../../contiki-sensinode//core/net/mac/contikimac.c:437: if(NETSTACK_RADIO.channel_clear()) {
   04BE 90s00r0F           2151 	mov	dptr,#(_cc2530_rf_driver + 0x000f)
   04C1 E4                 2152 	clr	a
   04C2 93                 2153 	movc	a,@a+dptr
   04C3 FD                 2154 	mov	r5,a
   04C4 A3                 2155 	inc	dptr
   04C5 E4                 2156 	clr	a
   04C6 93                 2157 	movc	a,@a+dptr
   04C7 FE                 2158 	mov	r6,a
   04C8 A3                 2159 	inc	dptr
   04C9 E4                 2160 	clr	a
   04CA 93                 2161 	movc	a,@a+dptr
   04CB FF                 2162 	mov	r7,a
   04CC C0 07              2163 	push	ar7
   04CE C0 05              2164 	push	ar5
   04D0 C0 06              2165 	push	ar6
   04D2 C0 07              2166 	push	ar7
   04D4 D0 02              2167 	pop	ar2
   04D6 D0 01              2168 	pop	ar1
   04D8 D0 00              2169 	pop	ar0
   04DA 12s00r00           2170 	lcall	__sdcc_banked_call
   04DD AD 82              2171 	mov	r5,dpl
   04DF AE 83              2172 	mov	r6,dph
   04E1 D0 07              2173 	pop	ar7
   04E3 ED                 2174 	mov	a,r5
   04E4 4E                 2175 	orl	a,r6
   04E5 60 09              2176 	jz	00121$
                           2177 ;	../../../contiki-sensinode//core/net/mac/contikimac.c:438: ++silence_periods;
   04E7 90s02rDF           2178 	mov	dptr,#_powercycle_silence_periods_5_13
   04EA E0                 2179 	movx	a,@dptr
   04EB 24 01              2180 	add	a,#0x01
   04ED F0                 2181 	movx	@dptr,a
   04EE 80 05              2182 	sjmp	00122$
   04F0                    2183 00121$:
                           2184 ;	../../../contiki-sensinode//core/net/mac/contikimac.c:440: silence_periods = 0;
   04F0 90s02rDF           2185 	mov	dptr,#_powercycle_silence_periods_5_13
   04F3 E4                 2186 	clr	a
   04F4 F0                 2187 	movx	@dptr,a
   04F5                    2188 00122$:
                           2189 ;	../../../contiki-sensinode//core/net/mac/contikimac.c:444: ++periods;
   04F5 90s02rE0           2190 	mov	dptr,#_powercycle_periods_5_13
   04F8 E0                 2191 	movx	a,@dptr
   04F9 24 01              2192 	add	a,#0x01
   04FB F0                 2193 	movx	@dptr,a
                           2194 ;	../../../contiki-sensinode//core/net/mac/contikimac.c:446: if(NETSTACK_RADIO.receiving_packet()) {
   04FC 90s00r12           2195 	mov	dptr,#(_cc2530_rf_driver + 0x0012)
   04FF E4                 2196 	clr	a
   0500 93                 2197 	movc	a,@a+dptr
   0501 FD                 2198 	mov	r5,a
   0502 A3                 2199 	inc	dptr
   0503 E4                 2200 	clr	a
   0504 93                 2201 	movc	a,@a+dptr
   0505 FE                 2202 	mov	r6,a
   0506 A3                 2203 	inc	dptr
   0507 E4                 2204 	clr	a
   0508 93                 2205 	movc	a,@a+dptr
   0509 FF                 2206 	mov	r7,a
   050A C0 07              2207 	push	ar7
   050C C0 05              2208 	push	ar5
   050E C0 06              2209 	push	ar6
   0510 C0 07              2210 	push	ar7
   0512 D0 02              2211 	pop	ar2
   0514 D0 01              2212 	pop	ar1
   0516 D0 00              2213 	pop	ar0
   0518 12s00r00           2214 	lcall	__sdcc_banked_call
   051B AD 82              2215 	mov	r5,dpl
   051D AE 83              2216 	mov	r6,dph
   051F D0 07              2217 	pop	ar7
   0521 ED                 2218 	mov	a,r5
   0522 4E                 2219 	orl	a,r6
   0523 60 05              2220 	jz	00124$
                           2221 ;	../../../contiki-sensinode//core/net/mac/contikimac.c:447: silence_periods = 0;
   0525 90s02rDF           2222 	mov	dptr,#_powercycle_silence_periods_5_13
   0528 E4                 2223 	clr	a
   0529 F0                 2224 	movx	@dptr,a
   052A                    2225 00124$:
                           2226 ;	../../../contiki-sensinode//core/net/mac/contikimac.c:449: if(silence_periods > MAX_SILENCE_PERIODS) {
   052A 90s02rDF           2227 	mov	dptr,#_powercycle_silence_periods_5_13
   052D E0                 2228 	movx	a,@dptr
   052E FF                 2229 	mov  r7,a
   052F 24 FA              2230 	add	a,#0xff - 0x05
   0531 50 0C              2231 	jnc	00129$
                           2232 ;	../../../contiki-sensinode//core/net/mac/contikimac.c:450: powercycle_turn_radio_off();
   0533 78r43              2233 	mov	r0,#_powercycle_turn_radio_off
   0535 79s02              2234 	mov	r1,#(_powercycle_turn_radio_off >> 8)
   0537 7As00              2235 	mov	r2,#(_powercycle_turn_radio_off >> 16)
   0539 12s00r00           2236 	lcall	__sdcc_banked_call
                           2237 ;	../../../contiki-sensinode//core/net/mac/contikimac.c:451: break;
   053C 02s06r07           2238 	ljmp	00144$
                           2239 ;	../../../contiki-sensinode//core/net/mac/contikimac.c:453: if(WITH_FAST_SLEEP &&
   053F                    2240 00129$:
                           2241 ;	../../../contiki-sensinode//core/net/mac/contikimac.c:454: periods > MAX_NONACTIVITY_PERIODS &&
   053F 90s02rE0           2242 	mov	dptr,#_powercycle_periods_5_13
   0542 E0                 2243 	movx	a,@dptr
   0543 FF                 2244 	mov  r7,a
   0544 24 F5              2245 	add	a,#0xff - 0x0A
   0546 50 5D              2246 	jnc	00128$
                           2247 ;	../../../contiki-sensinode//core/net/mac/contikimac.c:455: !(NETSTACK_RADIO.receiving_packet() ||
   0548 90s00r12           2248 	mov	dptr,#(_cc2530_rf_driver + 0x0012)
   054B E4                 2249 	clr	a
   054C 93                 2250 	movc	a,@a+dptr
   054D FD                 2251 	mov	r5,a
   054E A3                 2252 	inc	dptr
   054F E4                 2253 	clr	a
   0550 93                 2254 	movc	a,@a+dptr
   0551 FE                 2255 	mov	r6,a
   0552 A3                 2256 	inc	dptr
   0553 E4                 2257 	clr	a
   0554 93                 2258 	movc	a,@a+dptr
   0555 FF                 2259 	mov	r7,a
   0556 C0 07              2260 	push	ar7
   0558 C0 05              2261 	push	ar5
   055A C0 06              2262 	push	ar6
   055C C0 07              2263 	push	ar7
   055E D0 02              2264 	pop	ar2
   0560 D0 01              2265 	pop	ar1
   0562 D0 00              2266 	pop	ar0
   0564 12s00r00           2267 	lcall	__sdcc_banked_call
   0567 AD 82              2268 	mov	r5,dpl
   0569 AE 83              2269 	mov	r6,dph
   056B D0 07              2270 	pop	ar7
   056D ED                 2271 	mov	a,r5
   056E 4E                 2272 	orl	a,r6
   056F 70 34              2273 	jnz	00128$
                           2274 ;	../../../contiki-sensinode//core/net/mac/contikimac.c:456: NETSTACK_RADIO.pending_packet())) {
   0571 90s00r15           2275 	mov	dptr,#(_cc2530_rf_driver + 0x0015)
   0574 E4                 2276 	clr	a
   0575 93                 2277 	movc	a,@a+dptr
   0576 FD                 2278 	mov	r5,a
   0577 A3                 2279 	inc	dptr
   0578 E4                 2280 	clr	a
   0579 93                 2281 	movc	a,@a+dptr
   057A FE                 2282 	mov	r6,a
   057B A3                 2283 	inc	dptr
   057C E4                 2284 	clr	a
   057D 93                 2285 	movc	a,@a+dptr
   057E FF                 2286 	mov	r7,a
   057F C0 07              2287 	push	ar7
   0581 C0 05              2288 	push	ar5
   0583 C0 06              2289 	push	ar6
   0585 C0 07              2290 	push	ar7
   0587 D0 02              2291 	pop	ar2
   0589 D0 01              2292 	pop	ar1
   058B D0 00              2293 	pop	ar0
   058D 12s00r00           2294 	lcall	__sdcc_banked_call
   0590 AD 82              2295 	mov	r5,dpl
   0592 AE 83              2296 	mov	r6,dph
   0594 D0 07              2297 	pop	ar7
   0596 ED                 2298 	mov	a,r5
   0597 4E                 2299 	orl	a,r6
   0598 70 0B              2300 	jnz	00128$
                           2301 ;	../../../contiki-sensinode//core/net/mac/contikimac.c:457: powercycle_turn_radio_off();
   059A 78r43              2302 	mov	r0,#_powercycle_turn_radio_off
   059C 79s02              2303 	mov	r1,#(_powercycle_turn_radio_off >> 8)
   059E 7As00              2304 	mov	r2,#(_powercycle_turn_radio_off >> 16)
   05A0 12s00r00           2305 	lcall	__sdcc_banked_call
                           2306 ;	../../../contiki-sensinode//core/net/mac/contikimac.c:458: break;
   05A3 80 62              2307 	sjmp	00144$
   05A5                    2308 00128$:
                           2309 ;	../../../contiki-sensinode//core/net/mac/contikimac.c:460: if(NETSTACK_RADIO.pending_packet()) {
   05A5 90s00r15           2310 	mov	dptr,#(_cc2530_rf_driver + 0x0015)
   05A8 E4                 2311 	clr	a
   05A9 93                 2312 	movc	a,@a+dptr
   05AA FD                 2313 	mov	r5,a
   05AB A3                 2314 	inc	dptr
   05AC E4                 2315 	clr	a
   05AD 93                 2316 	movc	a,@a+dptr
   05AE FE                 2317 	mov	r6,a
   05AF A3                 2318 	inc	dptr
   05B0 E4                 2319 	clr	a
   05B1 93                 2320 	movc	a,@a+dptr
   05B2 FF                 2321 	mov	r7,a
   05B3 C0 07              2322 	push	ar7
   05B5 C0 05              2323 	push	ar5
   05B7 C0 06              2324 	push	ar6
   05B9 C0 07              2325 	push	ar7
   05BB D0 02              2326 	pop	ar2
   05BD D0 01              2327 	pop	ar1
   05BF D0 00              2328 	pop	ar0
   05C1 12s00r00           2329 	lcall	__sdcc_banked_call
   05C4 AD 82              2330 	mov	r5,dpl
   05C6 AE 83              2331 	mov	r6,dph
   05C8 D0 07              2332 	pop	ar7
   05CA ED                 2333 	mov	a,r5
   05CB 4E                 2334 	orl	a,r6
   05CC 70 39              2335 	jnz	00144$
                           2336 ;	../../../contiki-sensinode//core/net/mac/contikimac.c:464: schedule_powercycle(t, CCA_CHECK_TIME + CCA_SLEEP_TIME);
   05CE 74 08              2337 	mov	a,#0x08
   05D0 C0 E0              2338 	push	acc
   05D2 E4                 2339 	clr	a
   05D3 C0 E0              2340 	push	acc
   05D5 E5 81              2341 	mov	a,sp
   05D7 24 F8              2342 	add	a,#0xf8
   05D9 F8                 2343 	mov	r0,a
   05DA 86 82              2344 	mov	dpl,@r0
   05DC 08                 2345 	inc	r0
   05DD 86 83              2346 	mov	dph,@r0
   05DF 08                 2347 	inc	r0
   05E0 86 F0              2348 	mov	b,@r0
   05E2 78r86              2349 	mov	r0,#_schedule_powercycle
   05E4 79s00              2350 	mov	r1,#(_schedule_powercycle >> 8)
   05E6 7As00              2351 	mov	r2,#(_schedule_powercycle >> 16)
   05E8 12s00r00           2352 	lcall	__sdcc_banked_call
   05EB 15 81              2353 	dec	sp
   05ED 15 81              2354 	dec	sp
                           2355 ;	../../../contiki-sensinode//core/net/mac/contikimac.c:465: PT_YIELD(&pt);
   05EF 7C 00              2356 	mov	r4,#0x00
   05F1 90s00r08           2357 	mov	dptr,#_pt
   05F4 74 D1              2358 	mov	a,#0xD1
   05F6 F0                 2359 	movx	@dptr,a
   05F7 A3                 2360 	inc	dptr
   05F8 74 01              2361 	mov	a,#0x01
   05FA F0                 2362 	movx	@dptr,a
   05FB                    2363 00134$:
   05FB EC                 2364 	mov	a,r4
   05FC 60 03              2365 	jz	00254$
   05FE 02s04r80           2366 	ljmp	00142$
   0601                    2367 00254$:
   0601 75 82 01           2368 	mov	dpl,#0x01
   0604 02s07r0D           2369 	ljmp	00165$
   0607                    2370 00144$:
                           2371 ;	../../../contiki-sensinode//core/net/mac/contikimac.c:467: if(radio_is_on) {
   0607 90s00r07           2372 	mov	dptr,#_radio_is_on
   060A E0                 2373 	movx	a,@dptr
   060B FF                 2374 	mov	r7,a
   060C 70 03              2375 	jnz	00255$
   060E 02s06r93           2376 	ljmp	00152$
   0611                    2377 00255$:
                           2378 ;	../../../contiki-sensinode//core/net/mac/contikimac.c:468: if(!(NETSTACK_RADIO.receiving_packet() ||
   0611 90s00r12           2379 	mov	dptr,#(_cc2530_rf_driver + 0x0012)
   0614 E4                 2380 	clr	a
   0615 93                 2381 	movc	a,@a+dptr
   0616 FD                 2382 	mov	r5,a
   0617 A3                 2383 	inc	dptr
   0618 E4                 2384 	clr	a
   0619 93                 2385 	movc	a,@a+dptr
   061A FE                 2386 	mov	r6,a
   061B A3                 2387 	inc	dptr
   061C E4                 2388 	clr	a
   061D 93                 2389 	movc	a,@a+dptr
   061E FF                 2390 	mov	r7,a
   061F C0 07              2391 	push	ar7
   0621 C0 05              2392 	push	ar5
   0623 C0 06              2393 	push	ar6
   0625 C0 07              2394 	push	ar7
   0627 D0 02              2395 	pop	ar2
   0629 D0 01              2396 	pop	ar1
   062B D0 00              2397 	pop	ar0
   062D 12s00r00           2398 	lcall	__sdcc_banked_call
   0630 AD 82              2399 	mov	r5,dpl
   0632 AE 83              2400 	mov	r6,dph
   0634 D0 07              2401 	pop	ar7
   0636 ED                 2402 	mov	a,r5
   0637 4E                 2403 	orl	a,r6
   0638 70 29              2404 	jnz	00148$
                           2405 ;	../../../contiki-sensinode//core/net/mac/contikimac.c:469: NETSTACK_RADIO.pending_packet()) ||
   063A 90s00r15           2406 	mov	dptr,#(_cc2530_rf_driver + 0x0015)
   063D E4                 2407 	clr	a
   063E 93                 2408 	movc	a,@a+dptr
   063F FD                 2409 	mov	r5,a
   0640 A3                 2410 	inc	dptr
   0641 E4                 2411 	clr	a
   0642 93                 2412 	movc	a,@a+dptr
   0643 FE                 2413 	mov	r6,a
   0644 A3                 2414 	inc	dptr
   0645 E4                 2415 	clr	a
   0646 93                 2416 	movc	a,@a+dptr
   0647 FF                 2417 	mov	r7,a
   0648 C0 07              2418 	push	ar7
   064A C0 05              2419 	push	ar5
   064C C0 06              2420 	push	ar6
   064E C0 07              2421 	push	ar7
   0650 D0 02              2422 	pop	ar2
   0652 D0 01              2423 	pop	ar1
   0654 D0 00              2424 	pop	ar0
   0656 12s00r00           2425 	lcall	__sdcc_banked_call
   0659 AD 82              2426 	mov	r5,dpl
   065B AE 83              2427 	mov	r6,dph
   065D D0 07              2428 	pop	ar7
   065F ED                 2429 	mov	a,r5
   0660 4E                 2430 	orl	a,r6
   0661 60 27              2431 	jz	00145$
   0663                    2432 00148$:
                           2433 ;	../../../contiki-sensinode//core/net/mac/contikimac.c:470: !RTIMER_CLOCK_LT(RTIMER_NOW(),
   0663 AE E2              2434 	mov	r6,_T1CNTL
   0665 7F 00              2435 	mov	r7,#0x00
   0667 AB E3              2436 	mov	r3,_T1CNTH
   0669 8B 05              2437 	mov	ar5,r3
   066B E4                 2438 	clr	a
   066C 2E                 2439 	add	a,r6
   066D FE                 2440 	mov	r6,a
   066E ED                 2441 	mov	a,r5
   066F 3F                 2442 	addc	a,r7
   0670 FF                 2443 	mov	r7,a
   0671 90s02rDD           2444 	mov	dptr,#_powercycle_start_5_13
   0674 E0                 2445 	movx	a,@dptr
   0675 FB                 2446 	mov	r3,a
   0676 A3                 2447 	inc	dptr
   0677 E0                 2448 	movx	a,@dptr
   0678 FD                 2449 	mov	r5,a
   0679 74 C3              2450 	mov	a,#0xC3
   067B 2B                 2451 	add	a,r3
   067C FB                 2452 	mov	r3,a
   067D E4                 2453 	clr	a
   067E 3D                 2454 	addc	a,r5
   067F FD                 2455 	mov	r5,a
   0680 EE                 2456 	mov	a,r6
   0681 C3                 2457 	clr	c
   0682 9B                 2458 	subb	a,r3
   0683 FB                 2459 	mov	r3,a
   0684 EF                 2460 	mov	a,r7
   0685 9D                 2461 	subb	a,r5
   0686 FD                 2462 	mov	r5,a
   0687 20 E7 09           2463 	jb	acc.7,00152$
   068A                    2464 00145$:
                           2465 ;	../../../contiki-sensinode//core/net/mac/contikimac.c:472: powercycle_turn_radio_off();
   068A 78r43              2466 	mov	r0,#_powercycle_turn_radio_off
   068C 79s02              2467 	mov	r1,#(_powercycle_turn_radio_off >> 8)
   068E 7As00              2468 	mov	r2,#(_powercycle_turn_radio_off >> 16)
   0690 12s00r00           2469 	lcall	__sdcc_banked_call
   0693                    2470 00152$:
                           2471 ;	../../../contiki-sensinode//core/net/mac/contikimac.c:477: if(RTIMER_CLOCK_LT(RTIMER_NOW() - cycle_start, CYCLE_TIME - CHECK_TIME * 4)) {
   0693 AE E2              2472 	mov	r6,_T1CNTL
   0695 7F 00              2473 	mov	r7,#0x00
   0697 AB E3              2474 	mov	r3,_T1CNTH
   0699 8B 05              2475 	mov	ar5,r3
   069B E4                 2476 	clr	a
   069C 2E                 2477 	add	a,r6
   069D FE                 2478 	mov	r6,a
   069E ED                 2479 	mov	a,r5
   069F 3F                 2480 	addc	a,r7
   06A0 FF                 2481 	mov	r7,a
   06A1 90s02rD4           2482 	mov	dptr,#_cycle_start
   06A4 E0                 2483 	movx	a,@dptr
   06A5 FB                 2484 	mov	r3,a
   06A6 A3                 2485 	inc	dptr
   06A7 E0                 2486 	movx	a,@dptr
   06A8 FD                 2487 	mov	r5,a
   06A9 EE                 2488 	mov	a,r6
   06AA C3                 2489 	clr	c
   06AB 9B                 2490 	subb	a,r3
   06AC FB                 2491 	mov	r3,a
   06AD EF                 2492 	mov	a,r7
   06AE 9D                 2493 	subb	a,r5
   06AF FD                 2494 	mov	r5,a
   06B0 EB                 2495 	mov	a,r3
   06B1 24 9F              2496 	add	a,#0x9F
   06B3 FB                 2497 	mov	r3,a
   06B4 ED                 2498 	mov	a,r5
   06B5 34 F8              2499 	addc	a,#0xF8
   06B7 FD                 2500 	mov	r5,a
   06B8 20 E7 03           2501 	jb	acc.7,00261$
   06BB 02s02rD2           2502 	ljmp	00162$
   06BE                    2503 00261$:
                           2504 ;	../../../contiki-sensinode//core/net/mac/contikimac.c:491: schedule_powercycle_fixed(t, CYCLE_TIME + cycle_start);
   06BE 90s02rD4           2505 	mov	dptr,#_cycle_start
   06C1 E0                 2506 	movx	a,@dptr
   06C2 FE                 2507 	mov	r6,a
   06C3 A3                 2508 	inc	dptr
   06C4 E0                 2509 	movx	a,@dptr
   06C5 FF                 2510 	mov	r7,a
   06C6 74 A1              2511 	mov	a,#0xA1
   06C8 2E                 2512 	add	a,r6
   06C9 FE                 2513 	mov	r6,a
   06CA 74 07              2514 	mov	a,#0x07
   06CC 3F                 2515 	addc	a,r7
   06CD FF                 2516 	mov	r7,a
   06CE C0 06              2517 	push	ar6
   06D0 C0 07              2518 	push	ar7
   06D2 E5 81              2519 	mov	a,sp
   06D4 24 F8              2520 	add	a,#0xf8
   06D6 F8                 2521 	mov	r0,a
   06D7 86 82              2522 	mov	dpl,@r0
   06D9 08                 2523 	inc	r0
   06DA 86 83              2524 	mov	dph,@r0
   06DC 08                 2525 	inc	r0
   06DD 86 F0              2526 	mov	b,@r0
   06DF 78r78              2527 	mov	r0,#_schedule_powercycle_fixed
   06E1 79s01              2528 	mov	r1,#(_schedule_powercycle_fixed >> 8)
   06E3 7As00              2529 	mov	r2,#(_schedule_powercycle_fixed >> 16)
   06E5 12s00r00           2530 	lcall	__sdcc_banked_call
   06E8 15 81              2531 	dec	sp
   06EA 15 81              2532 	dec	sp
                           2533 ;	../../../contiki-sensinode//core/net/mac/contikimac.c:492: PT_YIELD(&pt);
   06EC 7C 00              2534 	mov	r4,#0x00
   06EE 90s00r08           2535 	mov	dptr,#_pt
   06F1 74 EC              2536 	mov	a,#0xEC
   06F3 F0                 2537 	movx	@dptr,a
   06F4 A3                 2538 	inc	dptr
   06F5 74 01              2539 	mov	a,#0x01
   06F7 F0                 2540 	movx	@dptr,a
   06F8                    2541 00153$:
   06F8 EC                 2542 	mov	a,r4
   06F9 60 03              2543 	jz	00262$
   06FB 02s02rD2           2544 	ljmp	00162$
   06FE                    2545 00262$:
   06FE 75 82 01           2546 	mov	dpl,#0x01
                           2547 ;	../../../contiki-sensinode//core/net/mac/contikimac.c:497: PT_END(&pt);
   0701 80 0A              2548 	sjmp	00165$
   0703                    2549 00164$:
   0703 90s00r08           2550 	mov	dptr,#_pt
   0706 E4                 2551 	clr	a
   0707 F0                 2552 	movx	@dptr,a
   0708 A3                 2553 	inc	dptr
   0709 F0                 2554 	movx	@dptr,a
   070A 75 82 03           2555 	mov	dpl,#0x03
   070D                    2556 00165$:
   070D E5 81              2557 	mov	a,sp
   070F 24 F9              2558 	add	a,#0xF9
   0711 F5 81              2559 	mov	sp,a
   0713 02s00r00           2560 	ljmp	__sdcc_banked_ret
                           2561 ;------------------------------------------------------------
                           2562 ;Allocation info for local variables in function 'broadcast_rate_drop'
                           2563 ;------------------------------------------------------------
                           2564 ;	../../../contiki-sensinode//core/net/mac/contikimac.c:501: broadcast_rate_drop(void)
                           2565 ;	-----------------------------------------
                           2566 ;	 function broadcast_rate_drop
                           2567 ;	-----------------------------------------
   0716                    2568 _broadcast_rate_drop:
                           2569 ;	../../../contiki-sensinode//core/net/mac/contikimac.c:517: return 0;
   0716 90 00 00           2570 	mov	dptr,#0x0000
   0719 02s00r00           2571 	ljmp	__sdcc_banked_ret
                           2572 ;------------------------------------------------------------
                           2573 ;Allocation info for local variables in function 'send_packet'
                           2574 ;------------------------------------------------------------
                           2575 ;mac_callback_ptr          Allocated to stack - sp -40
                           2576 ;buf_list                  Allocated to stack - sp -43
                           2577 ;mac_callback              Allocated to registers r5 r6 r7 
                           2578 ;t0                        Allocated to registers r6 r2 
                           2579 ;encounter_time            Allocated to stack - sp -34
                           2580 ;strobes                   Allocated to stack - sp -32
                           2581 ;got_strobe_ack            Allocated to registers r7 
                           2582 ;hdrlen                    Allocated to stack - sp -30
                           2583 ;len                       Allocated to registers r4 r5 
                           2584 ;is_broadcast              Allocated to stack - sp -28
                           2585 ;is_reliable               Allocated to registers 
                           2586 ;is_known_receiver         Allocated to stack - sp -27
                           2587 ;collisions                Allocated to stack - sp -26
                           2588 ;transmit_len              Allocated to stack - sp -25
                           2589 ;ret                       Allocated to registers r6 r7 
                           2590 ;contikimac_was_on         Allocated to registers r3 
                           2591 ;seqno                     Allocated to stack - sp -23
                           2592 ;chdr                      Allocated to registers r3 r6 r7 
                           2593 ;ptr                       Allocated to stack - sp -22
                           2594 ;i                         Allocated to stack - sp -19
                           2595 ;wt                        Allocated to registers r6 r2 
                           2596 ;txtime                    Allocated to stack - sp -17
                           2597 ;ret                       Allocated to registers 
                           2598 ;ackbuf                    Allocated to stack - sp -15
                           2599 ;sloc0                     Allocated to stack - sp -12
                           2600 ;sloc1                     Allocated to stack - sp -10
                           2601 ;sloc2                     Allocated to stack - sp -9
                           2602 ;sloc3                     Allocated to stack - sp -7
                           2603 ;sloc4                     Allocated to stack - sp -5
                           2604 ;sloc5                     Allocated to stack - sp -4
                           2605 ;sloc6                     Allocated to stack - sp -2
                           2606 ;------------------------------------------------------------
                           2607 ;	../../../contiki-sensinode//core/net/mac/contikimac.c:522: send_packet(mac_callback_t mac_callback, void *mac_callback_ptr, struct rdc_buf_list *buf_list)
                           2608 ;	-----------------------------------------
                           2609 ;	 function send_packet
                           2610 ;	-----------------------------------------
   071C                    2611 _send_packet:
   071C E5 81              2612 	mov	a,sp
   071E 24 23              2613 	add	a,#0x23
   0720 F5 81              2614 	mov	sp,a
   0722 AD 82              2615 	mov	r5,dpl
   0724 AE 83              2616 	mov	r6,dph
   0726 AF F0              2617 	mov	r7,b
                           2618 ;	../../../contiki-sensinode//core/net/mac/contikimac.c:525: rtimer_clock_t encounter_time = 0;
   0728 E5 81              2619 	mov	a,sp
   072A 24 DE              2620 	add	a,#0xde
   072C F8                 2621 	mov	r0,a
   072D E4                 2622 	clr	a
   072E F6                 2623 	mov	@r0,a
   072F 08                 2624 	inc	r0
   0730 F6                 2625 	mov	@r0,a
                           2626 ;	../../../contiki-sensinode//core/net/mac/contikimac.c:529: uint8_t is_broadcast = 0;
   0731 E5 81              2627 	mov	a,sp
   0733 24 E4              2628 	add	a,#0xe4
   0735 F8                 2629 	mov	r0,a
   0736 76 00              2630 	mov	@r0,#0x00
                           2631 ;	../../../contiki-sensinode//core/net/mac/contikimac.c:531: uint8_t is_known_receiver = 0;
   0738 E5 81              2632 	mov	a,sp
   073A 24 E5              2633 	add	a,#0xe5
   073C F8                 2634 	mov	r0,a
   073D 76 00              2635 	mov	@r0,#0x00
                           2636 ;	../../../contiki-sensinode//core/net/mac/contikimac.c:542: if (!contikimac_is_on && !contikimac_keep_radio_on) {
   073F 90s00r04           2637 	mov	dptr,#_contikimac_is_on
   0742 E0                 2638 	movx	a,@dptr
   0743 FB                 2639 	mov	r3,a
   0744 70 0D              2640 	jnz	00102$
   0746 90s00r05           2641 	mov	dptr,#_contikimac_keep_radio_on
   0749 E0                 2642 	movx	a,@dptr
   074A FB                 2643 	mov	r3,a
   074B 70 06              2644 	jnz	00102$
                           2645 ;	../../../contiki-sensinode//core/net/mac/contikimac.c:544: return MAC_TX_ERR_FATAL;
   074D 90 00 05           2646 	mov	dptr,#0x0005
   0750 02s11r65           2647 	ljmp	00181$
   0753                    2648 00102$:
                           2649 ;	../../../contiki-sensinode//core/net/mac/contikimac.c:547: if(packetbuf_totlen() == 0) {
   0753 C0 07              2650 	push	ar7
   0755 C0 06              2651 	push	ar6
   0757 C0 05              2652 	push	ar5
   0759 78r00              2653 	mov	r0,#_packetbuf_totlen
   075B 79s00              2654 	mov	r1,#(_packetbuf_totlen >> 8)
   075D 7As00              2655 	mov	r2,#(_packetbuf_totlen >> 16)
   075F 12s00r00           2656 	lcall	__sdcc_banked_call
   0762 E5 82              2657 	mov	a,dpl
   0764 85 83 F0           2658 	mov	b,dph
   0767 D0 05              2659 	pop	ar5
   0769 D0 06              2660 	pop	ar6
   076B D0 07              2661 	pop	ar7
   076D 45 F0              2662 	orl	a,b
   076F 70 06              2663 	jnz	00105$
                           2664 ;	../../../contiki-sensinode//core/net/mac/contikimac.c:549: return MAC_TX_ERR_FATAL;
   0771 90 00 05           2665 	mov	dptr,#0x0005
   0774 02s11r65           2666 	ljmp	00181$
   0777                    2667 00105$:
                           2668 ;	../../../contiki-sensinode//core/net/mac/contikimac.c:552: packetbuf_set_addr(PACKETBUF_ADDR_SENDER, &rimeaddr_node_addr);
   0777 C0 05              2669 	push	ar5
   0779 C0 06              2670 	push	ar6
   077B C0 07              2671 	push	ar7
   077D C0 07              2672 	push	ar7
   077F C0 06              2673 	push	ar6
   0781 C0 05              2674 	push	ar5
   0783 74r00              2675 	mov	a,#_rimeaddr_node_addr
   0785 C0 E0              2676 	push	acc
   0787 74s00              2677 	mov	a,#(_rimeaddr_node_addr >> 8)
   0789 C0 E0              2678 	push	acc
   078B E4                 2679 	clr	a
   078C C0 E0              2680 	push	acc
   078E 75 82 18           2681 	mov	dpl,#0x18
   0791 78r00              2682 	mov	r0,#_packetbuf_set_addr
   0793 79s00              2683 	mov	r1,#(_packetbuf_set_addr >> 8)
   0795 7As00              2684 	mov	r2,#(_packetbuf_set_addr >> 16)
   0797 12s00r00           2685 	lcall	__sdcc_banked_call
   079A 15 81              2686 	dec	sp
   079C 15 81              2687 	dec	sp
   079E 15 81              2688 	dec	sp
   07A0 D0 05              2689 	pop	ar5
   07A2 D0 06              2690 	pop	ar6
   07A4 D0 07              2691 	pop	ar7
                           2692 ;	../../../contiki-sensinode//core/net/mac/contikimac.c:553: if(rimeaddr_cmp(packetbuf_addr(PACKETBUF_ADDR_RECEIVER), &rimeaddr_null)) {
   07A6 75 82 19           2693 	mov	dpl,#0x19
   07A9 C0 05              2694 	push	ar5
   07AB 78r00              2695 	mov	r0,#_packetbuf_addr
   07AD 79s00              2696 	mov	r1,#(_packetbuf_addr >> 8)
   07AF 7As00              2697 	mov	r2,#(_packetbuf_addr >> 16)
   07B1 12s00r00           2698 	lcall	__sdcc_banked_call
   07B4 AB 82              2699 	mov	r3,dpl
   07B6 AE 83              2700 	mov	r6,dph
   07B8 AF F0              2701 	mov	r7,b
   07BA 74r00              2702 	mov	a,#_rimeaddr_null
   07BC C0 E0              2703 	push	acc
   07BE 74s00              2704 	mov	a,#(_rimeaddr_null >> 8)
   07C0 C0 E0              2705 	push	acc
   07C2 74 80              2706 	mov	a,#0x80
   07C4 C0 E0              2707 	push	acc
   07C6 8B 82              2708 	mov	dpl,r3
   07C8 8E 83              2709 	mov	dph,r6
   07CA 8F F0              2710 	mov	b,r7
   07CC 78r00              2711 	mov	r0,#_rimeaddr_cmp
   07CE 79s00              2712 	mov	r1,#(_rimeaddr_cmp >> 8)
   07D0 7As00              2713 	mov	r2,#(_rimeaddr_cmp >> 16)
   07D2 12s00r00           2714 	lcall	__sdcc_banked_call
   07D5 AE 82              2715 	mov	r6,dpl
   07D7 AF 83              2716 	mov	r7,dph
   07D9 15 81              2717 	dec	sp
   07DB 15 81              2718 	dec	sp
   07DD 15 81              2719 	dec	sp
   07DF D0 05              2720 	pop	ar5
   07E1 EE                 2721 	mov	a,r6
   07E2 4F                 2722 	orl	a,r7
   07E3 D0 07              2723 	pop	ar7
   07E5 D0 06              2724 	pop	ar6
   07E7 D0 05              2725 	pop	ar5
   07E9 60 2B              2726 	jz	00109$
                           2727 ;	../../../contiki-sensinode//core/net/mac/contikimac.c:554: is_broadcast = 1;
   07EB E5 81              2728 	mov	a,sp
   07ED 24 E4              2729 	add	a,#0xe4
   07EF F8                 2730 	mov	r0,a
   07F0 76 01              2731 	mov	@r0,#0x01
                           2732 ;	../../../contiki-sensinode//core/net/mac/contikimac.c:557: if(broadcast_rate_drop()) {
   07F2 C0 07              2733 	push	ar7
   07F4 C0 06              2734 	push	ar6
   07F6 C0 05              2735 	push	ar5
   07F8 78r16              2736 	mov	r0,#_broadcast_rate_drop
   07FA 79s07              2737 	mov	r1,#(_broadcast_rate_drop >> 8)
   07FC 7As00              2738 	mov	r2,#(_broadcast_rate_drop >> 16)
   07FE 12s00r00           2739 	lcall	__sdcc_banked_call
   0801 E5 82              2740 	mov	a,dpl
   0803 85 83 F0           2741 	mov	b,dph
   0806 D0 05              2742 	pop	ar5
   0808 D0 06              2743 	pop	ar6
   080A D0 07              2744 	pop	ar7
   080C 45 F0              2745 	orl	a,b
   080E 60 06              2746 	jz	00109$
                           2747 ;	../../../contiki-sensinode//core/net/mac/contikimac.c:558: return MAC_TX_COLLISION;
   0810 90 00 01           2748 	mov	dptr,#0x0001
   0813 02s11r65           2749 	ljmp	00181$
   0816                    2750 00109$:
                           2751 ;	../../../contiki-sensinode//core/net/mac/contikimac.c:577: is_reliable = packetbuf_attr(PACKETBUF_ATTR_RELIABLE) ||
   0816 75 82 0C           2752 	mov	dpl,#0x0C
   0819 C0 07              2753 	push	ar7
   081B C0 06              2754 	push	ar6
   081D C0 05              2755 	push	ar5
   081F 78r00              2756 	mov	r0,#_packetbuf_attr
   0821 79s00              2757 	mov	r1,#(_packetbuf_attr >> 8)
   0823 7As00              2758 	mov	r2,#(_packetbuf_attr >> 16)
   0825 12s00r00           2759 	lcall	__sdcc_banked_call
   0828 E5 82              2760 	mov	a,dpl
   082A 85 83 F0           2761 	mov	b,dph
   082D D0 05              2762 	pop	ar5
   082F D0 06              2763 	pop	ar6
   0831 D0 07              2764 	pop	ar7
   0833 45 F0              2765 	orl	a,b
   0835 70 18              2766 	jnz	00185$
                           2767 ;	../../../contiki-sensinode//core/net/mac/contikimac.c:578: packetbuf_attr(PACKETBUF_ATTR_ERELIABLE);
   0837 75 82 17           2768 	mov	dpl,#0x17
   083A C0 07              2769 	push	ar7
   083C C0 06              2770 	push	ar6
   083E C0 05              2771 	push	ar5
   0840 78r00              2772 	mov	r0,#_packetbuf_attr
   0842 79s00              2773 	mov	r1,#(_packetbuf_attr >> 8)
   0844 7As00              2774 	mov	r2,#(_packetbuf_attr >> 16)
   0846 12s00r00           2775 	lcall	__sdcc_banked_call
   0849 D0 05              2776 	pop	ar5
   084B D0 06              2777 	pop	ar6
   084D D0 07              2778 	pop	ar7
   084F                    2779 00185$:
                           2780 ;	../../../contiki-sensinode//core/net/mac/contikimac.c:580: packetbuf_set_attr(PACKETBUF_ATTR_MAC_ACK, 1);
   084F C0 05              2781 	push	ar5
   0851 C0 06              2782 	push	ar6
   0853 C0 07              2783 	push	ar7
   0855 C0 07              2784 	push	ar7
   0857 C0 06              2785 	push	ar6
   0859 C0 05              2786 	push	ar5
   085B 74 01              2787 	mov	a,#0x01
   085D C0 E0              2788 	push	acc
   085F E4                 2789 	clr	a
   0860 C0 E0              2790 	push	acc
   0862 75 82 0B           2791 	mov	dpl,#0x0B
   0865 78r00              2792 	mov	r0,#_packetbuf_set_attr
   0867 79s00              2793 	mov	r1,#(_packetbuf_set_attr >> 8)
   0869 7As00              2794 	mov	r2,#(_packetbuf_set_attr >> 16)
   086B 12s00r00           2795 	lcall	__sdcc_banked_call
   086E 15 81              2796 	dec	sp
   0870 15 81              2797 	dec	sp
   0872 D0 05              2798 	pop	ar5
   0874 D0 06              2799 	pop	ar6
   0876 D0 07              2800 	pop	ar7
                           2801 ;	../../../contiki-sensinode//core/net/mac/contikimac.c:583: hdrlen = packetbuf_totlen();
   0878 C0 06              2802 	push	ar6
   087A C0 05              2803 	push	ar5
   087C 78r00              2804 	mov	r0,#_packetbuf_totlen
   087E 79s00              2805 	mov	r1,#(_packetbuf_totlen >> 8)
   0880 7As00              2806 	mov	r2,#(_packetbuf_totlen >> 16)
   0882 12s00r00           2807 	lcall	__sdcc_banked_call
   0885 AB 82              2808 	mov	r3,dpl
   0887 AF 83              2809 	mov	r7,dph
   0889 D0 05              2810 	pop	ar5
   088B D0 06              2811 	pop	ar6
   088D E5 81              2812 	mov	a,sp
   088F 24 DF              2813 	add	a,#0xdf
   0891 F8                 2814 	mov	r0,a
   0892 A6 03              2815 	mov	@r0,ar3
   0894 08                 2816 	inc	r0
   0895 A6 07              2817 	mov	@r0,ar7
                           2818 ;	../../../contiki-sensinode//core/net/mac/contikimac.c:584: if(packetbuf_hdralloc(sizeof(struct hdr)) == 0) {
   0897 90 00 02           2819 	mov	dptr,#0x0002
   089A C0 07              2820 	push	ar7
   089C C0 06              2821 	push	ar6
   089E C0 05              2822 	push	ar5
   08A0 78r00              2823 	mov	r0,#_packetbuf_hdralloc
   08A2 79s00              2824 	mov	r1,#(_packetbuf_hdralloc >> 8)
   08A4 7As00              2825 	mov	r2,#(_packetbuf_hdralloc >> 16)
   08A6 12s00r00           2826 	lcall	__sdcc_banked_call
   08A9 E5 82              2827 	mov	a,dpl
   08AB 85 83 F0           2828 	mov	b,dph
   08AE D0 05              2829 	pop	ar5
   08B0 D0 06              2830 	pop	ar6
   08B2 D0 07              2831 	pop	ar7
   08B4 D0 07              2832 	pop	ar7
   08B6 D0 06              2833 	pop	ar6
   08B8 D0 05              2834 	pop	ar5
   08BA 45 F0              2835 	orl	a,b
   08BC 70 06              2836 	jnz	00111$
                           2837 ;	../../../contiki-sensinode//core/net/mac/contikimac.c:587: return MAC_TX_ERR_FATAL;
   08BE 90 00 05           2838 	mov	dptr,#0x0005
   08C1 02s11r65           2839 	ljmp	00181$
   08C4                    2840 00111$:
                           2841 ;	../../../contiki-sensinode//core/net/mac/contikimac.c:589: chdr = packetbuf_hdrptr();
   08C4 C0 05              2842 	push	ar5
   08C6 C0 06              2843 	push	ar6
   08C8 C0 07              2844 	push	ar7
   08CA C0 05              2845 	push	ar5
   08CC 78r00              2846 	mov	r0,#_packetbuf_hdrptr
   08CE 79s00              2847 	mov	r1,#(_packetbuf_hdrptr >> 8)
   08D0 7As00              2848 	mov	r2,#(_packetbuf_hdrptr >> 16)
   08D2 12s00r00           2849 	lcall	__sdcc_banked_call
   08D5 AB 82              2850 	mov	r3,dpl
   08D7 AE 83              2851 	mov	r6,dph
   08D9 AF F0              2852 	mov	r7,b
   08DB D0 05              2853 	pop	ar5
                           2854 ;	../../../contiki-sensinode//core/net/mac/contikimac.c:590: chdr->id = CONTIKIMAC_ID;
   08DD 8B 82              2855 	mov	dpl,r3
   08DF 8E 83              2856 	mov	dph,r6
   08E1 8F F0              2857 	mov	b,r7
   08E3 E4                 2858 	clr	a
   08E4 12s00r00           2859 	lcall	__gptrput
                           2860 ;	../../../contiki-sensinode//core/net/mac/contikimac.c:591: chdr->len = hdrlen;
   08E7 0B                 2861 	inc	r3
   08E8 BB 00 01           2862 	cjne	r3,#0x00,00285$
   08EB 0E                 2863 	inc	r6
   08EC                    2864 00285$:
   08EC E5 81              2865 	mov	a,sp
   08EE 24 DF              2866 	add	a,#0xdf
   08F0 F8                 2867 	mov	r0,a
   08F1 86 05              2868 	mov	ar5,@r0
   08F3 8B 82              2869 	mov	dpl,r3
   08F5 8E 83              2870 	mov	dph,r6
   08F7 8F F0              2871 	mov	b,r7
   08F9 ED                 2872 	mov	a,r5
   08FA 12s00r00           2873 	lcall	__gptrput
                           2874 ;	../../../contiki-sensinode//core/net/mac/contikimac.c:594: hdrlen = NETSTACK_FRAMER.create();
   08FD 90s00r00           2875 	mov	dptr,#_framer_802154
   0900 E4                 2876 	clr	a
   0901 93                 2877 	movc	a,@a+dptr
   0902 FD                 2878 	mov	r5,a
   0903 A3                 2879 	inc	dptr
   0904 E4                 2880 	clr	a
   0905 93                 2881 	movc	a,@a+dptr
   0906 FE                 2882 	mov	r6,a
   0907 A3                 2883 	inc	dptr
   0908 E4                 2884 	clr	a
   0909 93                 2885 	movc	a,@a+dptr
   090A FF                 2886 	mov	r7,a
   090B C0 07              2887 	push	ar7
   090D C0 05              2888 	push	ar5
   090F C0 06              2889 	push	ar6
   0911 C0 07              2890 	push	ar7
   0913 D0 02              2891 	pop	ar2
   0915 D0 01              2892 	pop	ar1
   0917 D0 00              2893 	pop	ar0
   0919 12s00r00           2894 	lcall	__sdcc_banked_call
   091C AD 82              2895 	mov	r5,dpl
   091E AE 83              2896 	mov	r6,dph
   0920 D0 07              2897 	pop	ar7
   0922 E5 81              2898 	mov	a,sp
   0924 24 DF              2899 	add	a,#0xdf
   0926 F8                 2900 	mov	r0,a
   0927 A6 05              2901 	mov	@r0,ar5
   0929 08                 2902 	inc	r0
   092A A6 06              2903 	mov	@r0,ar6
                           2904 ;	../../../contiki-sensinode//core/net/mac/contikimac.c:595: if(hdrlen < 0) {
   092C E5 81              2905 	mov	a,sp
   092E 24 DF              2906 	add	a,#0xdf
   0930 F8                 2907 	mov	r0,a
   0931 08                 2908 	inc	r0
   0932 E6                 2909 	mov	a,@r0
   0933 D0 07              2910 	pop	ar7
   0935 D0 06              2911 	pop	ar6
   0937 D0 05              2912 	pop	ar5
   0939 30 E7 12           2913 	jnb	acc.7,00113$
                           2914 ;	../../../contiki-sensinode//core/net/mac/contikimac.c:598: packetbuf_hdr_remove(sizeof(struct hdr));
   093C 90 00 02           2915 	mov	dptr,#0x0002
   093F 78r00              2916 	mov	r0,#_packetbuf_hdr_remove
   0941 79s00              2917 	mov	r1,#(_packetbuf_hdr_remove >> 8)
   0943 7As00              2918 	mov	r2,#(_packetbuf_hdr_remove >> 16)
   0945 12s00r00           2919 	lcall	__sdcc_banked_call
                           2920 ;	../../../contiki-sensinode//core/net/mac/contikimac.c:599: return MAC_TX_ERR_FATAL;
   0948 90 00 05           2921 	mov	dptr,#0x0005
   094B 02s11r65           2922 	ljmp	00181$
   094E                    2923 00113$:
                           2924 ;	../../../contiki-sensinode//core/net/mac/contikimac.c:601: hdrlen += sizeof(struct hdr);
   094E C0 05              2925 	push	ar5
   0950 C0 06              2926 	push	ar6
   0952 C0 07              2927 	push	ar7
   0954 E5 81              2928 	mov	a,sp
   0956 24 DF              2929 	add	a,#0xdf
   0958 F8                 2930 	mov	r0,a
   0959 74 02              2931 	mov	a,#0x02
   095B 26                 2932 	add	a,@r0
   095C F6                 2933 	mov	@r0,a
   095D E4                 2934 	clr	a
   095E 08                 2935 	inc	r0
   095F 36                 2936 	addc	a,@r0
   0960 F6                 2937 	mov	@r0,a
                           2938 ;	../../../contiki-sensinode//core/net/mac/contikimac.c:615: transmit_len = packetbuf_totlen();
   0961 C0 06              2939 	push	ar6
   0963 C0 05              2940 	push	ar5
   0965 78r00              2941 	mov	r0,#_packetbuf_totlen
   0967 79s00              2942 	mov	r1,#(_packetbuf_totlen >> 8)
   0969 7As00              2943 	mov	r2,#(_packetbuf_totlen >> 16)
   096B 12s00r00           2944 	lcall	__sdcc_banked_call
   096E AB 82              2945 	mov	r3,dpl
   0970 AF 83              2946 	mov	r7,dph
   0972 D0 05              2947 	pop	ar5
   0974 D0 06              2948 	pop	ar6
   0976 E5 81              2949 	mov	a,sp
   0978 24 E4              2950 	add	a,#0xe4
   097A F8                 2951 	mov	r0,a
   097B A6 03              2952 	mov	@r0,ar3
   097D 08                 2953 	inc	r0
   097E A6 07              2954 	mov	@r0,ar7
                           2955 ;	../../../contiki-sensinode//core/net/mac/contikimac.c:616: if(transmit_len < SHORTEST_PACKET_SIZE) {
   0980 E5 81              2956 	mov	a,sp
   0982 24 E4              2957 	add	a,#0xe4
   0984 F8                 2958 	mov	r0,a
   0985 C3                 2959 	clr	c
   0986 E6                 2960 	mov	a,@r0
   0987 94 2B              2961 	subb	a,#0x2B
   0989 08                 2962 	inc	r0
   098A E6                 2963 	mov	a,@r0
   098B 64 80              2964 	xrl	a,#0x80
   098D 94 80              2965 	subb	a,#0x80
   098F D0 07              2966 	pop	ar7
   0991 D0 06              2967 	pop	ar6
   0993 D0 05              2968 	pop	ar5
   0995 40 03              2969 	jc	00288$
   0997 02s0Ar2B           2970 	ljmp	00115$
   099A                    2971 00288$:
                           2972 ;	../../../contiki-sensinode//core/net/mac/contikimac.c:619: ptr = packetbuf_dataptr();
   099A C0 05              2973 	push	ar5
   099C C0 06              2974 	push	ar6
   099E C0 07              2975 	push	ar7
   09A0 C0 05              2976 	push	ar5
   09A2 78r00              2977 	mov	r0,#_packetbuf_dataptr
   09A4 79s00              2978 	mov	r1,#(_packetbuf_dataptr >> 8)
   09A6 7As00              2979 	mov	r2,#(_packetbuf_dataptr >> 16)
   09A8 12s00r00           2980 	lcall	__sdcc_banked_call
   09AB AB 82              2981 	mov	r3,dpl
   09AD AE 83              2982 	mov	r6,dph
   09AF AF F0              2983 	mov	r7,b
   09B1 D0 05              2984 	pop	ar5
   09B3 E5 81              2985 	mov	a,sp
   09B5 24 E7              2986 	add	a,#0xe7
   09B7 F8                 2987 	mov	r0,a
   09B8 A6 03              2988 	mov	@r0,ar3
   09BA 08                 2989 	inc	r0
   09BB A6 06              2990 	mov	@r0,ar6
   09BD 08                 2991 	inc	r0
   09BE A6 07              2992 	mov	@r0,ar7
                           2993 ;	../../../contiki-sensinode//core/net/mac/contikimac.c:620: memset(ptr + packetbuf_datalen(), 0, SHORTEST_PACKET_SIZE - packetbuf_totlen());
   09C0 C0 06              2994 	push	ar6
   09C2 78r00              2995 	mov	r0,#_packetbuf_totlen
   09C4 79s00              2996 	mov	r1,#(_packetbuf_totlen >> 8)
   09C6 7As00              2997 	mov	r2,#(_packetbuf_totlen >> 16)
   09C8 12s00r00           2998 	lcall	__sdcc_banked_call
   09CB AD 82              2999 	mov	r5,dpl
   09CD AF 83              3000 	mov	r7,dph
   09CF D0 06              3001 	pop	ar6
   09D1 74 2B              3002 	mov	a,#0x2B
   09D3 C3                 3003 	clr	c
   09D4 9D                 3004 	subb	a,r5
   09D5 FD                 3005 	mov	r5,a
   09D6 E4                 3006 	clr	a
   09D7 9F                 3007 	subb	a,r7
   09D8 FF                 3008 	mov	r7,a
   09D9 C0 07              3009 	push	ar7
   09DB C0 05              3010 	push	ar5
   09DD 78r00              3011 	mov	r0,#_packetbuf_datalen
   09DF 79s00              3012 	mov	r1,#(_packetbuf_datalen >> 8)
   09E1 7As00              3013 	mov	r2,#(_packetbuf_datalen >> 16)
   09E3 12s00r00           3014 	lcall	__sdcc_banked_call
   09E6 AB 82              3015 	mov	r3,dpl
   09E8 AE 83              3016 	mov	r6,dph
   09EA D0 05              3017 	pop	ar5
   09EC D0 07              3018 	pop	ar7
   09EE E5 81              3019 	mov	a,sp
   09F0 24 E7              3020 	add	a,#0xe7
   09F2 F8                 3021 	mov	r0,a
   09F3 EB                 3022 	mov	a,r3
   09F4 26                 3023 	add	a,@r0
   09F5 FB                 3024 	mov	r3,a
   09F6 EE                 3025 	mov	a,r6
   09F7 08                 3026 	inc	r0
   09F8 36                 3027 	addc	a,@r0
   09F9 FC                 3028 	mov	r4,a
   09FA 08                 3029 	inc	r0
   09FB 86 06              3030 	mov	ar6,@r0
   09FD C0 07              3031 	push	ar7
   09FF C0 06              3032 	push	ar6
   0A01 C0 05              3033 	push	ar5
   0A03 C0 05              3034 	push	ar5
   0A05 C0 07              3035 	push	ar7
   0A07 E4                 3036 	clr	a
   0A08 C0 E0              3037 	push	acc
   0A0A 8B 82              3038 	mov	dpl,r3
   0A0C 8C 83              3039 	mov	dph,r4
   0A0E 8E F0              3040 	mov	b,r6
   0A10 78r00              3041 	mov	r0,#_memset
   0A12 79s00              3042 	mov	r1,#(_memset >> 8)
   0A14 7As00              3043 	mov	r2,#(_memset >> 16)
   0A16 12s00r00           3044 	lcall	__sdcc_banked_call
   0A19 15 81              3045 	dec	sp
   0A1B 15 81              3046 	dec	sp
   0A1D 15 81              3047 	dec	sp
   0A1F D0 05              3048 	pop	ar5
   0A21 D0 06              3049 	pop	ar6
   0A23 D0 07              3050 	pop	ar7
                           3051 ;	../../../contiki-sensinode//core/net/mac/contikimac.c:846: return ret;
   0A25 D0 07              3052 	pop	ar7
   0A27 D0 06              3053 	pop	ar6
   0A29 D0 05              3054 	pop	ar5
                           3055 ;	../../../contiki-sensinode//core/net/mac/contikimac.c:623: transmit_len = SHORTEST_PACKET_SIZE;
   0A2B                    3056 00115$:
                           3057 ;	../../../contiki-sensinode//core/net/mac/contikimac.c:627: packetbuf_compact();
   0A2B C0 05              3058 	push	ar5
   0A2D C0 06              3059 	push	ar6
   0A2F C0 07              3060 	push	ar7
   0A31 C0 07              3061 	push	ar7
   0A33 C0 06              3062 	push	ar6
   0A35 C0 05              3063 	push	ar5
   0A37 78r00              3064 	mov	r0,#_packetbuf_compact
   0A39 79s00              3065 	mov	r1,#(_packetbuf_compact >> 8)
   0A3B 7As00              3066 	mov	r2,#(_packetbuf_compact >> 16)
   0A3D 12s00r00           3067 	lcall	__sdcc_banked_call
                           3068 ;	../../../contiki-sensinode//core/net/mac/contikimac.c:633: transmit_len = packetbuf_totlen();
   0A40 78r00              3069 	mov	r0,#_packetbuf_totlen
   0A42 79s00              3070 	mov	r1,#(_packetbuf_totlen >> 8)
   0A44 7As00              3071 	mov	r2,#(_packetbuf_totlen >> 16)
   0A46 12s00r00           3072 	lcall	__sdcc_banked_call
   0A49 AB 82              3073 	mov	r3,dpl
   0A4B AC 83              3074 	mov	r4,dph
   0A4D D0 05              3075 	pop	ar5
   0A4F D0 06              3076 	pop	ar6
   0A51 D0 07              3077 	pop	ar7
   0A53 E5 81              3078 	mov	a,sp
   0A55 24 E4              3079 	add	a,#0xe4
   0A57 F8                 3080 	mov	r0,a
   0A58 A6 03              3081 	mov	@r0,ar3
   0A5A 08                 3082 	inc	r0
   0A5B A6 04              3083 	mov	@r0,ar4
                           3084 ;	../../../contiki-sensinode//core/net/mac/contikimac.c:635: NETSTACK_RADIO.prepare(packetbuf_hdrptr(), transmit_len);
   0A5D 90s00r03           3085 	mov	dptr,#(_cc2530_rf_driver + 0x0003)
   0A60 E4                 3086 	clr	a
   0A61 93                 3087 	movc	a,@a+dptr
   0A62 FB                 3088 	mov	r3,a
   0A63 A3                 3089 	inc	dptr
   0A64 E4                 3090 	clr	a
   0A65 93                 3091 	movc	a,@a+dptr
   0A66 FC                 3092 	mov	r4,a
   0A67 A3                 3093 	inc	dptr
   0A68 E4                 3094 	clr	a
   0A69 93                 3095 	movc	a,@a+dptr
   0A6A FF                 3096 	mov	r7,a
   0A6B E5 81              3097 	mov	a,sp
   0A6D 24 E4              3098 	add	a,#0xe4
   0A6F F8                 3099 	mov	r0,a
   0A70 E5 81              3100 	mov	a,sp
   0A72 24 F1              3101 	add	a,#0xf1
   0A74 F9                 3102 	mov	r1,a
   0A75 E6                 3103 	mov	a,@r0
   0A76 F7                 3104 	mov	@r1,a
   0A77 08                 3105 	inc	r0
   0A78 09                 3106 	inc	r1
   0A79 E6                 3107 	mov	a,@r0
   0A7A F7                 3108 	mov	@r1,a
   0A7B C0 07              3109 	push	ar7
   0A7D C0 04              3110 	push	ar4
   0A7F C0 03              3111 	push	ar3
   0A81 78r00              3112 	mov	r0,#_packetbuf_hdrptr
   0A83 79s00              3113 	mov	r1,#(_packetbuf_hdrptr >> 8)
   0A85 7As00              3114 	mov	r2,#(_packetbuf_hdrptr >> 16)
   0A87 12s00r00           3115 	lcall	__sdcc_banked_call
   0A8A AA 82              3116 	mov	r2,dpl
   0A8C AD 83              3117 	mov	r5,dph
   0A8E AE F0              3118 	mov	r6,b
   0A90 D0 03              3119 	pop	ar3
   0A92 D0 04              3120 	pop	ar4
   0A94 D0 07              3121 	pop	ar7
   0A96 C0 07              3122 	push	ar7
   0A98 C0 06              3123 	push	ar6
   0A9A C0 05              3124 	push	ar5
   0A9C C0 04              3125 	push	ar4
   0A9E C0 03              3126 	push	ar3
   0AA0 E5 81              3127 	mov	a,sp
   0AA2 24 EC              3128 	add	a,#0xec
   0AA4 F8                 3129 	mov	r0,a
   0AA5 E6                 3130 	mov	a,@r0
   0AA6 C0 E0              3131 	push	acc
   0AA8 08                 3132 	inc	r0
   0AA9 E6                 3133 	mov	a,@r0
   0AAA C0 E0              3134 	push	acc
   0AAC C0 03              3135 	push	ar3
   0AAE C0 04              3136 	push	ar4
   0AB0 C0 07              3137 	push	ar7
   0AB2 8A 82              3138 	mov	dpl,r2
   0AB4 8D 83              3139 	mov	dph,r5
   0AB6 8E F0              3140 	mov	b,r6
   0AB8 D0 02              3141 	pop	ar2
   0ABA D0 01              3142 	pop	ar1
   0ABC D0 00              3143 	pop	ar0
   0ABE 12s00r00           3144 	lcall	__sdcc_banked_call
   0AC1 15 81              3145 	dec	sp
   0AC3 15 81              3146 	dec	sp
   0AC5 D0 03              3147 	pop	ar3
   0AC7 D0 04              3148 	pop	ar4
   0AC9 D0 05              3149 	pop	ar5
   0ACB D0 06              3150 	pop	ar6
   0ACD D0 07              3151 	pop	ar7
                           3152 ;	../../../contiki-sensinode//core/net/mac/contikimac.c:638: packetbuf_hdr_remove(hdrlen);
   0ACF E5 81              3153 	mov	a,sp
   0AD1 24 DF              3154 	add	a,#0xdf
   0AD3 F8                 3155 	mov	r0,a
   0AD4 86 82              3156 	mov	dpl,@r0
   0AD6 08                 3157 	inc	r0
   0AD7 86 83              3158 	mov	dph,@r0
   0AD9 C0 07              3159 	push	ar7
   0ADB C0 06              3160 	push	ar6
   0ADD C0 05              3161 	push	ar5
   0ADF 78r00              3162 	mov	r0,#_packetbuf_hdr_remove
   0AE1 79s00              3163 	mov	r1,#(_packetbuf_hdr_remove >> 8)
   0AE3 7As00              3164 	mov	r2,#(_packetbuf_hdr_remove >> 16)
   0AE5 12s00r00           3165 	lcall	__sdcc_banked_call
   0AE8 D0 05              3166 	pop	ar5
   0AEA D0 06              3167 	pop	ar6
   0AEC D0 07              3168 	pop	ar7
                           3169 ;	../../../contiki-sensinode//core/net/mac/contikimac.c:640: if(!is_broadcast && !is_receiver_awake) {
   0AEE D0 07              3170 	pop	ar7
   0AF0 D0 06              3171 	pop	ar6
   0AF2 D0 05              3172 	pop	ar5
   0AF4 E5 81              3173 	mov	a,sp
   0AF6 24 E4              3174 	add	a,#0xe4
   0AF8 F8                 3175 	mov	r0,a
   0AF9 E6                 3176 	mov	a,@r0
   0AFA 60 03              3177 	jz	00290$
   0AFC 02s0Br98           3178 	ljmp	00121$
   0AFF                    3179 00290$:
   0AFF 90s00r02           3180 	mov	dptr,#_is_receiver_awake
   0B02 E0                 3181 	movx	a,@dptr
   0B03 FB                 3182 	mov	r3,a
   0B04 A3                 3183 	inc	dptr
   0B05 E0                 3184 	movx	a,@dptr
   0B06 FC                 3185 	mov	r4,a
   0B07 4B                 3186 	orl	a,r3
   0B08 60 03              3187 	jz	00291$
   0B0A 02s0Br98           3188 	ljmp	00121$
   0B0D                    3189 00291$:
                           3190 ;	../../../contiki-sensinode//core/net/mac/contikimac.c:642: ret = phase_wait(&phase_list, packetbuf_addr(PACKETBUF_ADDR_RECEIVER),
   0B0D 75 82 19           3191 	mov	dpl,#0x19
   0B10 C0 07              3192 	push	ar7
   0B12 C0 06              3193 	push	ar6
   0B14 C0 05              3194 	push	ar5
   0B16 78r00              3195 	mov	r0,#_packetbuf_addr
   0B18 79s00              3196 	mov	r1,#(_packetbuf_addr >> 8)
   0B1A 7As00              3197 	mov	r2,#(_packetbuf_addr >> 16)
   0B1C 12s00r00           3198 	lcall	__sdcc_banked_call
   0B1F AA 82              3199 	mov	r2,dpl
   0B21 AB 83              3200 	mov	r3,dph
   0B23 AC F0              3201 	mov	r4,b
   0B25 D0 05              3202 	pop	ar5
   0B27 D0 06              3203 	pop	ar6
   0B29 D0 07              3204 	pop	ar7
   0B2B E5 81              3205 	mov	a,sp
   0B2D 24 D5              3206 	add	a,#0xd5
   0B2F F8                 3207 	mov	r0,a
   0B30 E6                 3208 	mov	a,@r0
   0B31 C0 E0              3209 	push	acc
   0B33 08                 3210 	inc	r0
   0B34 E6                 3211 	mov	a,@r0
   0B35 C0 E0              3212 	push	acc
   0B37 08                 3213 	inc	r0
   0B38 E6                 3214 	mov	a,@r0
   0B39 C0 E0              3215 	push	acc
   0B3B E5 81              3216 	mov	a,sp
   0B3D 24 D5              3217 	add	a,#0xd5
   0B3F F8                 3218 	mov	r0,a
   0B40 E6                 3219 	mov	a,@r0
   0B41 C0 E0              3220 	push	acc
   0B43 08                 3221 	inc	r0
   0B44 E6                 3222 	mov	a,@r0
   0B45 C0 E0              3223 	push	acc
   0B47 08                 3224 	inc	r0
   0B48 E6                 3225 	mov	a,@r0
   0B49 C0 E0              3226 	push	acc
   0B4B C0 05              3227 	push	ar5
   0B4D C0 06              3228 	push	ar6
   0B4F C0 07              3229 	push	ar7
   0B51 74 D0              3230 	mov	a,#0xD0
   0B53 C0 E0              3231 	push	acc
   0B55 E4                 3232 	clr	a
   0B56 C0 E0              3233 	push	acc
   0B58 74 A1              3234 	mov	a,#0xA1
   0B5A C0 E0              3235 	push	acc
   0B5C 74 07              3236 	mov	a,#0x07
   0B5E C0 E0              3237 	push	acc
   0B60 C0 02              3238 	push	ar2
   0B62 C0 03              3239 	push	ar3
   0B64 C0 04              3240 	push	ar4
   0B66 90s00r18           3241 	mov	dptr,#_phase_list
   0B69 75 F0 00           3242 	mov	b,#0x00
   0B6C 78r00              3243 	mov	r0,#_phase_wait
   0B6E 79s00              3244 	mov	r1,#(_phase_wait >> 8)
   0B70 7As00              3245 	mov	r2,#(_phase_wait >> 16)
   0B72 12s00r00           3246 	lcall	__sdcc_banked_call
   0B75 AF 82              3247 	mov	r7,dpl
   0B77 E5 81              3248 	mov	a,sp
   0B79 24 F0              3249 	add	a,#0xf0
   0B7B F5 81              3250 	mov	sp,a
   0B7D 8F 06              3251 	mov	ar6,r7
   0B7F 7F 00              3252 	mov	r7,#0x00
                           3253 ;	../../../contiki-sensinode//core/net/mac/contikimac.c:645: if(ret == PHASE_DEFERRED) {
   0B81 BE 02 09           3254 	cjne	r6,#0x02,00117$
   0B84 BF 00 06           3255 	cjne	r7,#0x00,00117$
                           3256 ;	../../../contiki-sensinode//core/net/mac/contikimac.c:646: return MAC_TX_DEFERRED;
   0B87 90 00 03           3257 	mov	dptr,#0x0003
   0B8A 02s11r65           3258 	ljmp	00181$
   0B8D                    3259 00117$:
                           3260 ;	../../../contiki-sensinode//core/net/mac/contikimac.c:648: if(ret != PHASE_UNKNOWN) {
   0B8D EE                 3261 	mov	a,r6
   0B8E 4F                 3262 	orl	a,r7
   0B8F 60 07              3263 	jz	00121$
                           3264 ;	../../../contiki-sensinode//core/net/mac/contikimac.c:649: is_known_receiver = 1;
   0B91 E5 81              3265 	mov	a,sp
   0B93 24 E5              3266 	add	a,#0xe5
   0B95 F8                 3267 	mov	r0,a
   0B96 76 01              3268 	mov	@r0,#0x01
   0B98                    3269 00121$:
                           3270 ;	../../../contiki-sensinode//core/net/mac/contikimac.c:658: we_are_sending = 1;
   0B98 90s00r06           3271 	mov	dptr,#_we_are_sending
   0B9B 74 01              3272 	mov	a,#0x01
   0B9D F0                 3273 	movx	@dptr,a
                           3274 ;	../../../contiki-sensinode//core/net/mac/contikimac.c:665: if(NETSTACK_RADIO.receiving_packet() || NETSTACK_RADIO.pending_packet()) {
   0B9E 90s00r12           3275 	mov	dptr,#(_cc2530_rf_driver + 0x0012)
   0BA1 E4                 3276 	clr	a
   0BA2 93                 3277 	movc	a,@a+dptr
   0BA3 FB                 3278 	mov	r3,a
   0BA4 A3                 3279 	inc	dptr
   0BA5 E4                 3280 	clr	a
   0BA6 93                 3281 	movc	a,@a+dptr
   0BA7 FC                 3282 	mov	r4,a
   0BA8 A3                 3283 	inc	dptr
   0BA9 E4                 3284 	clr	a
   0BAA 93                 3285 	movc	a,@a+dptr
   0BAB FD                 3286 	mov	r5,a
   0BAC C0 05              3287 	push	ar5
   0BAE C0 03              3288 	push	ar3
   0BB0 C0 04              3289 	push	ar4
   0BB2 C0 05              3290 	push	ar5
   0BB4 D0 02              3291 	pop	ar2
   0BB6 D0 01              3292 	pop	ar1
   0BB8 D0 00              3293 	pop	ar0
   0BBA 12s00r00           3294 	lcall	__sdcc_banked_call
   0BBD AB 82              3295 	mov	r3,dpl
   0BBF AC 83              3296 	mov	r4,dph
   0BC1 D0 05              3297 	pop	ar5
   0BC3 EB                 3298 	mov	a,r3
   0BC4 4C                 3299 	orl	a,r4
   0BC5 70 29              3300 	jnz	00123$
   0BC7 90s00r15           3301 	mov	dptr,#(_cc2530_rf_driver + 0x0015)
   0BCA E4                 3302 	clr	a
   0BCB 93                 3303 	movc	a,@a+dptr
   0BCC FB                 3304 	mov	r3,a
   0BCD A3                 3305 	inc	dptr
   0BCE E4                 3306 	clr	a
   0BCF 93                 3307 	movc	a,@a+dptr
   0BD0 FC                 3308 	mov	r4,a
   0BD1 A3                 3309 	inc	dptr
   0BD2 E4                 3310 	clr	a
   0BD3 93                 3311 	movc	a,@a+dptr
   0BD4 FD                 3312 	mov	r5,a
   0BD5 C0 05              3313 	push	ar5
   0BD7 C0 03              3314 	push	ar3
   0BD9 C0 04              3315 	push	ar4
   0BDB C0 05              3316 	push	ar5
   0BDD D0 02              3317 	pop	ar2
   0BDF D0 01              3318 	pop	ar1
   0BE1 D0 00              3319 	pop	ar0
   0BE3 12s00r00           3320 	lcall	__sdcc_banked_call
   0BE6 AB 82              3321 	mov	r3,dpl
   0BE8 AC 83              3322 	mov	r4,dph
   0BEA D0 05              3323 	pop	ar5
   0BEC EB                 3324 	mov	a,r3
   0BED 4C                 3325 	orl	a,r4
   0BEE 60 0B              3326 	jz	00124$
   0BF0                    3327 00123$:
                           3328 ;	../../../contiki-sensinode//core/net/mac/contikimac.c:666: we_are_sending = 0;
   0BF0 90s00r06           3329 	mov	dptr,#_we_are_sending
   0BF3 E4                 3330 	clr	a
   0BF4 F0                 3331 	movx	@dptr,a
                           3332 ;	../../../contiki-sensinode//core/net/mac/contikimac.c:669: return MAC_TX_COLLISION;
   0BF5 90 00 01           3333 	mov	dptr,#0x0001
   0BF8 02s11r65           3334 	ljmp	00181$
   0BFB                    3335 00124$:
                           3336 ;	../../../contiki-sensinode//core/net/mac/contikimac.c:674: off();
   0BFB 78r40              3337 	mov	r0,#_off
   0BFD 79s00              3338 	mov	r1,#(_off >> 8)
   0BFF 7As00              3339 	mov	r2,#(_off >> 16)
   0C01 12s00r00           3340 	lcall	__sdcc_banked_call
                           3341 ;	../../../contiki-sensinode//core/net/mac/contikimac.c:680: collisions = 0;
   0C04 E5 81              3342 	mov	a,sp
   0C06 24 F6              3343 	add	a,#0xf6
   0C08 F8                 3344 	mov	r0,a
   0C09 76 00              3345 	mov	@r0,#0x00
                           3346 ;	../../../contiki-sensinode//core/net/mac/contikimac.c:682: got_strobe_ack = 0;
   0C0B 7F 00              3347 	mov	r7,#0x00
                           3348 ;	../../../contiki-sensinode//core/net/mac/contikimac.c:687: contikimac_was_on = contikimac_is_on;
   0C0D 90s00r04           3349 	mov	dptr,#_contikimac_is_on
   0C10 E0                 3350 	movx	a,@dptr
   0C11 FB                 3351 	mov	r3,a
                           3352 ;	../../../contiki-sensinode//core/net/mac/contikimac.c:688: contikimac_is_on = 1;
   0C12 90s00r04           3353 	mov	dptr,#_contikimac_is_on
   0C15 74 01              3354 	mov	a,#0x01
   0C17 F0                 3355 	movx	@dptr,a
                           3356 ;	../../../contiki-sensinode//core/net/mac/contikimac.c:693: if(is_receiver_awake == 0) {
   0C18 90s00r02           3357 	mov	dptr,#_is_receiver_awake
   0C1B E0                 3358 	movx	a,@dptr
   0C1C FA                 3359 	mov	r2,a
   0C1D A3                 3360 	inc	dptr
   0C1E E0                 3361 	movx	a,@dptr
   0C1F FC                 3362 	mov	r4,a
   0C20 4A                 3363 	orl	a,r2
   0C21 60 03              3364 	jz	00299$
   0C23 02s0Dr52           3365 	ljmp	00139$
   0C26                    3366 00299$:
                           3367 ;	../../../contiki-sensinode//core/net/mac/contikimac.c:695: for(i = 0; i < CCA_COUNT_MAX_TX; ++i) {
   0C26 E5 81              3368 	mov	a,sp
   0C28 24 ED              3369 	add	a,#0xed
   0C2A F8                 3370 	mov	r0,a
   0C2B E4                 3371 	clr	a
   0C2C F6                 3372 	mov	@r0,a
   0C2D 08                 3373 	inc	r0
   0C2E F6                 3374 	mov	@r0,a
   0C2F                    3375 00134$:
   0C2F E5 81              3376 	mov	a,sp
   0C31 24 ED              3377 	add	a,#0xed
   0C33 F8                 3378 	mov	r0,a
   0C34 C3                 3379 	clr	c
   0C35 E6                 3380 	mov	a,@r0
   0C36 94 06              3381 	subb	a,#0x06
   0C38 08                 3382 	inc	r0
   0C39 E6                 3383 	mov	a,@r0
   0C3A 64 80              3384 	xrl	a,#0x80
   0C3C 94 80              3385 	subb	a,#0x80
   0C3E 40 03              3386 	jc	00300$
   0C40 02s0Dr52           3387 	ljmp	00139$
   0C43                    3388 00300$:
                           3389 ;	../../../contiki-sensinode//core/net/mac/contikimac.c:696: t0 = RTIMER_NOW();
   0C43 C0 03              3390 	push	ar3
   0C45 AB E2              3391 	mov	r3,_T1CNTL
   0C47 7C 00              3392 	mov	r4,#0x00
   0C49 AA E3              3393 	mov	r2,_T1CNTH
   0C4B 8A 05              3394 	mov	ar5,r2
   0C4D E4                 3395 	clr	a
   0C4E 2B                 3396 	add	a,r3
   0C4F FB                 3397 	mov	r3,a
   0C50 ED                 3398 	mov	a,r5
   0C51 3C                 3399 	addc	a,r4
   0C52 FC                 3400 	mov	r4,a
   0C53 8B 06              3401 	mov	ar6,r3
   0C55 8C 02              3402 	mov	ar2,r4
                           3403 ;	../../../contiki-sensinode//core/net/mac/contikimac.c:697: on();
   0C57 C0 07              3404 	push	ar7
   0C59 C0 06              3405 	push	ar6
   0C5B C0 03              3406 	push	ar3
   0C5D C0 02              3407 	push	ar2
   0C5F 78r00              3408 	mov	r0,#_on
   0C61 79s00              3409 	mov	r1,#(_on >> 8)
   0C63 7As00              3410 	mov	r2,#(_on >> 16)
   0C65 12s00r00           3411 	lcall	__sdcc_banked_call
   0C68 D0 02              3412 	pop	ar2
   0C6A D0 03              3413 	pop	ar3
   0C6C D0 06              3414 	pop	ar6
   0C6E D0 07              3415 	pop	ar7
                           3416 ;	../../../contiki-sensinode//core/net/mac/contikimac.c:699: while(RTIMER_CLOCK_LT(RTIMER_NOW(), t0 + CCA_CHECK_TIME)) { }
   0C70 E5 81              3417 	mov	a,sp
   0C72 24 F6              3418 	add	a,#0xf6
   0C74 F8                 3419 	mov	r0,a
   0C75 74 01              3420 	mov	a,#0x01
   0C77 2E                 3421 	add	a,r6
   0C78 F6                 3422 	mov	@r0,a
   0C79 E4                 3423 	clr	a
   0C7A 3A                 3424 	addc	a,r2
   0C7B 08                 3425 	inc	r0
   0C7C F6                 3426 	mov	@r0,a
                           3427 ;	../../../contiki-sensinode//core/net/mac/contikimac.c:846: return ret;
   0C7D D0 03              3428 	pop	ar3
                           3429 ;	../../../contiki-sensinode//core/net/mac/contikimac.c:699: while(RTIMER_CLOCK_LT(RTIMER_NOW(), t0 + CCA_CHECK_TIME)) { }
   0C7F                    3430 00126$:
   0C7F C0 03              3431 	push	ar3
   0C81 AC E2              3432 	mov	r4,_T1CNTL
   0C83 7D 00              3433 	mov	r5,#0x00
   0C85 AA E3              3434 	mov	r2,_T1CNTH
   0C87 8A 03              3435 	mov	ar3,r2
   0C89 E4                 3436 	clr	a
   0C8A FA                 3437 	mov	r2,a
   0C8B 2C                 3438 	add	a,r4
   0C8C FC                 3439 	mov	r4,a
   0C8D EB                 3440 	mov	a,r3
   0C8E 3D                 3441 	addc	a,r5
   0C8F FD                 3442 	mov	r5,a
   0C90 E5 81              3443 	mov	a,sp
   0C92 24 F6              3444 	add	a,#0xf6
   0C94 F8                 3445 	mov	r0,a
   0C95 EC                 3446 	mov	a,r4
   0C96 C3                 3447 	clr	c
   0C97 96                 3448 	subb	a,@r0
   0C98 FC                 3449 	mov	r4,a
   0C99 ED                 3450 	mov	a,r5
   0C9A 08                 3451 	inc	r0
   0C9B 96                 3452 	subb	a,@r0
   0C9C FD                 3453 	mov	r5,a
   0C9D D0 03              3454 	pop	ar3
   0C9F 20 E7 DD           3455 	jb	acc.7,00126$
                           3456 ;	../../../contiki-sensinode//core/net/mac/contikimac.c:701: if(NETSTACK_RADIO.channel_clear() == 0) {
   0CA2 90s00r0F           3457 	mov	dptr,#(_cc2530_rf_driver + 0x000f)
   0CA5 E4                 3458 	clr	a
   0CA6 93                 3459 	movc	a,@a+dptr
   0CA7 FA                 3460 	mov	r2,a
   0CA8 A3                 3461 	inc	dptr
   0CA9 E4                 3462 	clr	a
   0CAA 93                 3463 	movc	a,@a+dptr
   0CAB FC                 3464 	mov	r4,a
   0CAC A3                 3465 	inc	dptr
   0CAD E4                 3466 	clr	a
   0CAE 93                 3467 	movc	a,@a+dptr
   0CAF FD                 3468 	mov	r5,a
   0CB0 C0 07              3469 	push	ar7
   0CB2 C0 05              3470 	push	ar5
   0CB4 C0 03              3471 	push	ar3
   0CB6 C0 02              3472 	push	ar2
   0CB8 C0 04              3473 	push	ar4
   0CBA C0 05              3474 	push	ar5
   0CBC D0 02              3475 	pop	ar2
   0CBE D0 01              3476 	pop	ar1
   0CC0 D0 00              3477 	pop	ar0
   0CC2 12s00r00           3478 	lcall	__sdcc_banked_call
   0CC5 AA 82              3479 	mov	r2,dpl
   0CC7 AC 83              3480 	mov	r4,dph
   0CC9 D0 03              3481 	pop	ar3
   0CCB D0 05              3482 	pop	ar5
   0CCD D0 07              3483 	pop	ar7
   0CCF EA                 3484 	mov	a,r2
   0CD0 4C                 3485 	orl	a,r4
   0CD1 70 1A              3486 	jnz	00130$
                           3487 ;	../../../contiki-sensinode//core/net/mac/contikimac.c:702: collisions++;
   0CD3 E5 81              3488 	mov	a,sp
   0CD5 24 F6              3489 	add	a,#0xf6
   0CD7 F8                 3490 	mov	r0,a
   0CD8 76 01              3491 	mov	@r0,#0x01
                           3492 ;	../../../contiki-sensinode//core/net/mac/contikimac.c:703: off();
   0CDA C0 07              3493 	push	ar7
   0CDC C0 03              3494 	push	ar3
   0CDE 78r40              3495 	mov	r0,#_off
   0CE0 79s00              3496 	mov	r1,#(_off >> 8)
   0CE2 7As00              3497 	mov	r2,#(_off >> 16)
   0CE4 12s00r00           3498 	lcall	__sdcc_banked_call
   0CE7 D0 03              3499 	pop	ar3
   0CE9 D0 07              3500 	pop	ar7
                           3501 ;	../../../contiki-sensinode//core/net/mac/contikimac.c:704: break;
   0CEB 80 65              3502 	sjmp	00139$
   0CED                    3503 00130$:
                           3504 ;	../../../contiki-sensinode//core/net/mac/contikimac.c:706: off();
   0CED C0 03              3505 	push	ar3
   0CEF C0 07              3506 	push	ar7
   0CF1 C0 03              3507 	push	ar3
   0CF3 78r40              3508 	mov	r0,#_off
   0CF5 79s00              3509 	mov	r1,#(_off >> 8)
   0CF7 7As00              3510 	mov	r2,#(_off >> 16)
   0CF9 12s00r00           3511 	lcall	__sdcc_banked_call
   0CFC D0 03              3512 	pop	ar3
   0CFE D0 07              3513 	pop	ar7
                           3514 ;	../../../contiki-sensinode//core/net/mac/contikimac.c:707: t0 = RTIMER_NOW();
   0D00 AC E2              3515 	mov	r4,_T1CNTL
   0D02 7D 00              3516 	mov	r5,#0x00
   0D04 AA E3              3517 	mov	r2,_T1CNTH
   0D06 8A 03              3518 	mov	ar3,r2
   0D08 E4                 3519 	clr	a
   0D09 2C                 3520 	add	a,r4
   0D0A FC                 3521 	mov	r4,a
   0D0B EB                 3522 	mov	a,r3
   0D0C 3D                 3523 	addc	a,r5
   0D0D FD                 3524 	mov	r5,a
   0D0E 8C 06              3525 	mov	ar6,r4
   0D10 8D 02              3526 	mov	ar2,r5
                           3527 ;	../../../contiki-sensinode//core/net/mac/contikimac.c:708: while(RTIMER_CLOCK_LT(RTIMER_NOW(), t0 + CCA_SLEEP_TIME)) { }
   0D12 E5 81              3528 	mov	a,sp
   0D14 24 F6              3529 	add	a,#0xf6
   0D16 F8                 3530 	mov	r0,a
   0D17 74 07              3531 	mov	a,#0x07
   0D19 2E                 3532 	add	a,r6
   0D1A F6                 3533 	mov	@r0,a
   0D1B E4                 3534 	clr	a
   0D1C 3A                 3535 	addc	a,r2
   0D1D 08                 3536 	inc	r0
   0D1E F6                 3537 	mov	@r0,a
                           3538 ;	../../../contiki-sensinode//core/net/mac/contikimac.c:846: return ret;
   0D1F D0 03              3539 	pop	ar3
                           3540 ;	../../../contiki-sensinode//core/net/mac/contikimac.c:708: while(RTIMER_CLOCK_LT(RTIMER_NOW(), t0 + CCA_SLEEP_TIME)) { }
   0D21                    3541 00131$:
   0D21 C0 03              3542 	push	ar3
   0D23 AC E2              3543 	mov	r4,_T1CNTL
   0D25 7D 00              3544 	mov	r5,#0x00
   0D27 AA E3              3545 	mov	r2,_T1CNTH
   0D29 8A 03              3546 	mov	ar3,r2
   0D2B E4                 3547 	clr	a
   0D2C FA                 3548 	mov	r2,a
   0D2D 2C                 3549 	add	a,r4
   0D2E FC                 3550 	mov	r4,a
   0D2F EB                 3551 	mov	a,r3
   0D30 3D                 3552 	addc	a,r5
   0D31 FD                 3553 	mov	r5,a
   0D32 E5 81              3554 	mov	a,sp
   0D34 24 F6              3555 	add	a,#0xf6
   0D36 F8                 3556 	mov	r0,a
   0D37 EC                 3557 	mov	a,r4
   0D38 C3                 3558 	clr	c
   0D39 96                 3559 	subb	a,@r0
   0D3A FC                 3560 	mov	r4,a
   0D3B ED                 3561 	mov	a,r5
   0D3C 08                 3562 	inc	r0
   0D3D 96                 3563 	subb	a,@r0
   0D3E FD                 3564 	mov	r5,a
   0D3F D0 03              3565 	pop	ar3
   0D41 20 E7 DD           3566 	jb	acc.7,00131$
                           3567 ;	../../../contiki-sensinode//core/net/mac/contikimac.c:695: for(i = 0; i < CCA_COUNT_MAX_TX; ++i) {
   0D44 E5 81              3568 	mov	a,sp
   0D46 24 ED              3569 	add	a,#0xed
   0D48 F8                 3570 	mov	r0,a
   0D49 06                 3571 	inc	@r0
   0D4A B6 00 02           3572 	cjne	@r0,#0x00,00305$
   0D4D 08                 3573 	inc	r0
   0D4E 06                 3574 	inc	@r0
   0D4F                    3575 00305$:
   0D4F 02s0Cr2F           3576 	ljmp	00134$
   0D52                    3577 00139$:
                           3578 ;	../../../contiki-sensinode//core/net/mac/contikimac.c:712: if(collisions > 0) {
   0D52 E5 81              3579 	mov	a,sp
   0D54 24 F6              3580 	add	a,#0xf6
   0D56 F8                 3581 	mov	r0,a
   0D57 E6                 3582 	mov	a,@r0
   0D58 60 1D              3583 	jz	00141$
                           3584 ;	../../../contiki-sensinode//core/net/mac/contikimac.c:713: we_are_sending = 0;
   0D5A 90s00r06           3585 	mov	dptr,#_we_are_sending
   0D5D E4                 3586 	clr	a
   0D5E F0                 3587 	movx	@dptr,a
                           3588 ;	../../../contiki-sensinode//core/net/mac/contikimac.c:714: off();
   0D5F C0 03              3589 	push	ar3
   0D61 78r40              3590 	mov	r0,#_off
   0D63 79s00              3591 	mov	r1,#(_off >> 8)
   0D65 7As00              3592 	mov	r2,#(_off >> 16)
   0D67 12s00r00           3593 	lcall	__sdcc_banked_call
   0D6A D0 03              3594 	pop	ar3
                           3595 ;	../../../contiki-sensinode//core/net/mac/contikimac.c:716: contikimac_is_on = contikimac_was_on;
   0D6C 90s00r04           3596 	mov	dptr,#_contikimac_is_on
   0D6F EB                 3597 	mov	a,r3
   0D70 F0                 3598 	movx	@dptr,a
                           3599 ;	../../../contiki-sensinode//core/net/mac/contikimac.c:717: return MAC_TX_COLLISION;
   0D71 90 00 01           3600 	mov	dptr,#0x0001
   0D74 02s11r65           3601 	ljmp	00181$
   0D77                    3602 00141$:
                           3603 ;	../../../contiki-sensinode//core/net/mac/contikimac.c:722: if(!is_broadcast) {
   0D77 E5 81              3604 	mov	a,sp
   0D79 24 E4              3605 	add	a,#0xe4
   0D7B F8                 3606 	mov	r0,a
   0D7C E6                 3607 	mov	a,@r0
   0D7D 70 11              3608 	jnz	00143$
                           3609 ;	../../../contiki-sensinode//core/net/mac/contikimac.c:725: on();
   0D7F C0 07              3610 	push	ar7
   0D81 C0 03              3611 	push	ar3
   0D83 78r00              3612 	mov	r0,#_on
   0D85 79s00              3613 	mov	r1,#(_on >> 8)
   0D87 7As00              3614 	mov	r2,#(_on >> 16)
   0D89 12s00r00           3615 	lcall	__sdcc_banked_call
   0D8C D0 03              3616 	pop	ar3
   0D8E D0 07              3617 	pop	ar7
   0D90                    3618 00143$:
                           3619 ;	../../../contiki-sensinode//core/net/mac/contikimac.c:729: watchdog_periodic();
   0D90 C0 03              3620 	push	ar3
   0D92 C0 07              3621 	push	ar7
   0D94 C0 03              3622 	push	ar3
   0D96 78r00              3623 	mov	r0,#_watchdog_periodic
   0D98 79s00              3624 	mov	r1,#(_watchdog_periodic >> 8)
   0D9A 7As00              3625 	mov	r2,#(_watchdog_periodic >> 16)
   0D9C 12s00r00           3626 	lcall	__sdcc_banked_call
   0D9F D0 03              3627 	pop	ar3
                           3628 ;	../../../contiki-sensinode//core/net/mac/contikimac.c:730: t0 = RTIMER_NOW();
   0DA1 AC E2              3629 	mov	r4,_T1CNTL
   0DA3 7D 00              3630 	mov	r5,#0x00
   0DA5 AA E3              3631 	mov	r2,_T1CNTH
   0DA7 8A 03              3632 	mov	ar3,r2
   0DA9 E4                 3633 	clr	a
   0DAA 2C                 3634 	add	a,r4
   0DAB FC                 3635 	mov	r4,a
   0DAC EB                 3636 	mov	a,r3
   0DAD 3D                 3637 	addc	a,r5
   0DAE FD                 3638 	mov	r5,a
   0DAF 8C 06              3639 	mov	ar6,r4
   0DB1 8D 02              3640 	mov	ar2,r5
                           3641 ;	../../../contiki-sensinode//core/net/mac/contikimac.c:731: seqno = packetbuf_attr(PACKETBUF_ATTR_MAC_SEQNO);
   0DB3 75 82 0A           3642 	mov	dpl,#0x0A
   0DB6 C0 06              3643 	push	ar6
   0DB8 C0 03              3644 	push	ar3
   0DBA C0 02              3645 	push	ar2
   0DBC 78r00              3646 	mov	r0,#_packetbuf_attr
   0DBE 79s00              3647 	mov	r1,#(_packetbuf_attr >> 8)
   0DC0 7As00              3648 	mov	r2,#(_packetbuf_attr >> 16)
   0DC2 12s00r00           3649 	lcall	__sdcc_banked_call
   0DC5 AC 82              3650 	mov	r4,dpl
   0DC7 AD 83              3651 	mov	r5,dph
   0DC9 D0 02              3652 	pop	ar2
   0DCB D0 03              3653 	pop	ar3
   0DCD D0 06              3654 	pop	ar6
   0DCF D0 07              3655 	pop	ar7
   0DD1 E5 81              3656 	mov	a,sp
   0DD3 24 E8              3657 	add	a,#0xe8
   0DD5 F8                 3658 	mov	r0,a
   0DD6 A6 04              3659 	mov	@r0,ar4
                           3660 ;	../../../contiki-sensinode//core/net/mac/contikimac.c:732: for(strobes = 0, collisions = 0;
   0DD8 E5 81              3661 	mov	a,sp
   0DDA 24 F5              3662 	add	a,#0xf5
   0DDC F8                 3663 	mov	r0,a
   0DDD 76 00              3664 	mov	@r0,#0x00
   0DDF E5 81              3665 	mov	a,sp
   0DE1 24 F6              3666 	add	a,#0xf6
   0DE3 F8                 3667 	mov	r0,a
   0DE4 74 C1              3668 	mov	a,#0xC1
   0DE6 2E                 3669 	add	a,r6
   0DE7 F6                 3670 	mov	@r0,a
   0DE8 74 07              3671 	mov	a,#0x07
   0DEA 3A                 3672 	addc	a,r2
   0DEB 08                 3673 	inc	r0
   0DEC F6                 3674 	mov	@r0,a
   0DED E5 81              3675 	mov	a,sp
   0DEF 24 F8              3676 	add	a,#0xf8
   0DF1 F8                 3677 	mov	r0,a
   0DF2 74 04              3678 	mov	a,#0x04
   0DF4 2E                 3679 	add	a,r6
   0DF5 F6                 3680 	mov	@r0,a
   0DF6 74 01              3681 	mov	a,#0x01
   0DF8 3A                 3682 	addc	a,r2
   0DF9 08                 3683 	inc	r0
   0DFA F6                 3684 	mov	@r0,a
   0DFB E5 81              3685 	mov	a,sp
   0DFD 24 FA              3686 	add	a,#0xfa
   0DFF F8                 3687 	mov	r0,a
   0E00 E5 81              3688 	mov	a,sp
   0E02 24 F0              3689 	add	a,#0xF0
   0E04 F6                 3690 	mov	@r0,a
   0E05 E5 81              3691 	mov	a,sp
   0E07 24 E5              3692 	add	a,#0xe5
   0E09 F8                 3693 	mov	r0,a
   0E0A 76 00              3694 	mov	@r0,#0x00
   0E0C E5 81              3695 	mov	a,sp
   0E0E 24 DF              3696 	add	a,#0xdf
   0E10 F8                 3697 	mov	r0,a
   0E11 E4                 3698 	clr	a
   0E12 F6                 3699 	mov	@r0,a
   0E13 08                 3700 	inc	r0
   0E14 F6                 3701 	mov	@r0,a
                           3702 ;	../../../contiki-sensinode//core/net/mac/contikimac.c:846: return ret;
   0E15 D0 03              3703 	pop	ar3
                           3704 ;	../../../contiki-sensinode//core/net/mac/contikimac.c:732: for(strobes = 0, collisions = 0;
   0E17                    3705 00165$:
                           3706 ;	../../../contiki-sensinode//core/net/mac/contikimac.c:733: got_strobe_ack == 0 && collisions == 0 &&
   0E17 E5 81              3707 	mov	a,sp
   0E19 24 E6              3708 	add	a,#0xe6
   0E1B F8                 3709 	mov	r0,a
   0E1C E6                 3710 	mov	a,@r0
   0E1D 60 03              3711 	jz	00308$
   0E1F 02s10rBC           3712 	ljmp	00168$
   0E22                    3713 00308$:
                           3714 ;	../../../contiki-sensinode//core/net/mac/contikimac.c:734: RTIMER_CLOCK_LT(RTIMER_NOW(), t0 + STROBE_TIME); strobes++) {
   0E22 C0 03              3715 	push	ar3
   0E24 AC E2              3716 	mov	r4,_T1CNTL
   0E26 7D 00              3717 	mov	r5,#0x00
   0E28 AA E3              3718 	mov	r2,_T1CNTH
   0E2A 8A 03              3719 	mov	ar3,r2
   0E2C E4                 3720 	clr	a
   0E2D FA                 3721 	mov	r2,a
   0E2E 2C                 3722 	add	a,r4
   0E2F FC                 3723 	mov	r4,a
   0E30 EB                 3724 	mov	a,r3
   0E31 3D                 3725 	addc	a,r5
   0E32 FD                 3726 	mov	r5,a
   0E33 E5 81              3727 	mov	a,sp
   0E35 24 F6              3728 	add	a,#0xf6
   0E37 F8                 3729 	mov	r0,a
   0E38 EC                 3730 	mov	a,r4
   0E39 C3                 3731 	clr	c
   0E3A 96                 3732 	subb	a,@r0
   0E3B FC                 3733 	mov	r4,a
   0E3C ED                 3734 	mov	a,r5
   0E3D 08                 3735 	inc	r0
   0E3E 96                 3736 	subb	a,@r0
   0E3F FD                 3737 	mov	r5,a
   0E40 D0 03              3738 	pop	ar3
   0E42 20 E7 03           3739 	jb	acc.7,00309$
   0E45 02s10rBC           3740 	ljmp	00168$
   0E48                    3741 00309$:
                           3742 ;	../../../contiki-sensinode//core/net/mac/contikimac.c:736: watchdog_periodic();
   0E48 C0 07              3743 	push	ar7
   0E4A C0 03              3744 	push	ar3
   0E4C 78r00              3745 	mov	r0,#_watchdog_periodic
   0E4E 79s00              3746 	mov	r1,#(_watchdog_periodic >> 8)
   0E50 7As00              3747 	mov	r2,#(_watchdog_periodic >> 16)
   0E52 12s00r00           3748 	lcall	__sdcc_banked_call
   0E55 D0 03              3749 	pop	ar3
   0E57 D0 07              3750 	pop	ar7
                           3751 ;	../../../contiki-sensinode//core/net/mac/contikimac.c:738: if((is_receiver_awake || is_known_receiver) && !RTIMER_CLOCK_LT(RTIMER_NOW(), t0 + MAX_PHASE_STROBE_TIME)) {
   0E59 90s00r02           3752 	mov	dptr,#_is_receiver_awake
   0E5C E0                 3753 	movx	a,@dptr
   0E5D FC                 3754 	mov	r4,a
   0E5E A3                 3755 	inc	dptr
   0E5F E0                 3756 	movx	a,@dptr
   0E60 FD                 3757 	mov	r5,a
   0E61 4C                 3758 	orl	a,r4
   0E62 70 08              3759 	jnz	00147$
   0E64 E5 81              3760 	mov	a,sp
   0E66 24 E5              3761 	add	a,#0xe5
   0E68 F8                 3762 	mov	r0,a
   0E69 E6                 3763 	mov	a,@r0
   0E6A 60 26              3764 	jz	00145$
   0E6C                    3765 00147$:
   0E6C C0 03              3766 	push	ar3
   0E6E AC E2              3767 	mov	r4,_T1CNTL
   0E70 7D 00              3768 	mov	r5,#0x00
   0E72 AA E3              3769 	mov	r2,_T1CNTH
   0E74 8A 03              3770 	mov	ar3,r2
   0E76 E4                 3771 	clr	a
   0E77 FA                 3772 	mov	r2,a
   0E78 2C                 3773 	add	a,r4
   0E79 FC                 3774 	mov	r4,a
   0E7A EB                 3775 	mov	a,r3
   0E7B 3D                 3776 	addc	a,r5
   0E7C FD                 3777 	mov	r5,a
   0E7D E5 81              3778 	mov	a,sp
   0E7F 24 F8              3779 	add	a,#0xf8
   0E81 F8                 3780 	mov	r0,a
   0E82 EC                 3781 	mov	a,r4
   0E83 C3                 3782 	clr	c
   0E84 96                 3783 	subb	a,@r0
   0E85 FC                 3784 	mov	r4,a
   0E86 ED                 3785 	mov	a,r5
   0E87 08                 3786 	inc	r0
   0E88 96                 3787 	subb	a,@r0
   0E89 FD                 3788 	mov	r5,a
   0E8A D0 03              3789 	pop	ar3
   0E8C 20 E7 03           3790 	jb	acc.7,00312$
   0E8F 02s10rBC           3791 	ljmp	00168$
   0E92                    3792 00312$:
                           3793 ;	../../../contiki-sensinode//core/net/mac/contikimac.c:740: break;
   0E92                    3794 00145$:
                           3795 ;	../../../contiki-sensinode//core/net/mac/contikimac.c:751: txtime = RTIMER_NOW();
   0E92 C0 03              3796 	push	ar3
   0E94 AC E2              3797 	mov	r4,_T1CNTL
   0E96 7D 00              3798 	mov	r5,#0x00
   0E98 AA E3              3799 	mov	r2,_T1CNTH
   0E9A 8A 03              3800 	mov	ar3,r2
   0E9C E4                 3801 	clr	a
   0E9D 2C                 3802 	add	a,r4
   0E9E FC                 3803 	mov	r4,a
   0E9F EB                 3804 	mov	a,r3
   0EA0 3D                 3805 	addc	a,r5
   0EA1 FD                 3806 	mov	r5,a
   0EA2 E5 81              3807 	mov	a,sp
   0EA4 24 EE              3808 	add	a,#0xee
   0EA6 F8                 3809 	mov	r0,a
   0EA7 A6 04              3810 	mov	@r0,ar4
   0EA9 08                 3811 	inc	r0
   0EAA A6 05              3812 	mov	@r0,ar5
                           3813 ;	../../../contiki-sensinode//core/net/mac/contikimac.c:752: ret = NETSTACK_RADIO.transmit(transmit_len);
   0EAC 90s00r06           3814 	mov	dptr,#(_cc2530_rf_driver + 0x0006)
   0EAF E4                 3815 	clr	a
   0EB0 93                 3816 	movc	a,@a+dptr
   0EB1 FB                 3817 	mov	r3,a
   0EB2 A3                 3818 	inc	dptr
   0EB3 E4                 3819 	clr	a
   0EB4 93                 3820 	movc	a,@a+dptr
   0EB5 FC                 3821 	mov	r4,a
   0EB6 A3                 3822 	inc	dptr
   0EB7 E4                 3823 	clr	a
   0EB8 93                 3824 	movc	a,@a+dptr
   0EB9 FD                 3825 	mov	r5,a
   0EBA C0 07              3826 	push	ar7
   0EBC C0 05              3827 	push	ar5
   0EBE C0 04              3828 	push	ar4
   0EC0 C0 03              3829 	push	ar3
   0EC2 C0 03              3830 	push	ar3
   0EC4 C0 04              3831 	push	ar4
   0EC6 C0 05              3832 	push	ar5
   0EC8 E5 81              3833 	mov	a,sp
   0ECA 24 EC              3834 	add	a,#0xec
   0ECC F8                 3835 	mov	r0,a
   0ECD 86 82              3836 	mov	dpl,@r0
   0ECF 08                 3837 	inc	r0
   0ED0 86 83              3838 	mov	dph,@r0
   0ED2 D0 02              3839 	pop	ar2
   0ED4 D0 01              3840 	pop	ar1
   0ED6 D0 00              3841 	pop	ar0
   0ED8 12s00r00           3842 	lcall	__sdcc_banked_call
   0EDB D0 03              3843 	pop	ar3
   0EDD D0 04              3844 	pop	ar4
   0EDF D0 05              3845 	pop	ar5
   0EE1 D0 07              3846 	pop	ar7
                           3847 ;	../../../contiki-sensinode//core/net/mac/contikimac.c:771: wt = RTIMER_NOW();
   0EE3 AC E2              3848 	mov	r4,_T1CNTL
   0EE5 7D 00              3849 	mov	r5,#0x00
   0EE7 AA E3              3850 	mov	r2,_T1CNTH
   0EE9 8A 03              3851 	mov	ar3,r2
   0EEB E4                 3852 	clr	a
   0EEC 2C                 3853 	add	a,r4
   0EED FC                 3854 	mov	r4,a
   0EEE EB                 3855 	mov	a,r3
   0EEF 3D                 3856 	addc	a,r5
   0EF0 FD                 3857 	mov	r5,a
   0EF1 8C 06              3858 	mov	ar6,r4
   0EF3 8D 02              3859 	mov	ar2,r5
                           3860 ;	../../../contiki-sensinode//core/net/mac/contikimac.c:772: while(RTIMER_CLOCK_LT(RTIMER_NOW(), wt + INTER_PACKET_INTERVAL)) { }
   0EF5 E5 81              3861 	mov	a,sp
   0EF7 24 FB              3862 	add	a,#0xfb
   0EF9 F8                 3863 	mov	r0,a
   0EFA 74 03              3864 	mov	a,#0x03
   0EFC 2E                 3865 	add	a,r6
   0EFD F6                 3866 	mov	@r0,a
   0EFE E4                 3867 	clr	a
   0EFF 3A                 3868 	addc	a,r2
   0F00 08                 3869 	inc	r0
   0F01 F6                 3870 	mov	@r0,a
                           3871 ;	../../../contiki-sensinode//core/net/mac/contikimac.c:846: return ret;
   0F02 D0 03              3872 	pop	ar3
                           3873 ;	../../../contiki-sensinode//core/net/mac/contikimac.c:772: while(RTIMER_CLOCK_LT(RTIMER_NOW(), wt + INTER_PACKET_INTERVAL)) { }
   0F04                    3874 00148$:
   0F04 C0 03              3875 	push	ar3
   0F06 AC E2              3876 	mov	r4,_T1CNTL
   0F08 7D 00              3877 	mov	r5,#0x00
   0F0A AA E3              3878 	mov	r2,_T1CNTH
   0F0C 8A 03              3879 	mov	ar3,r2
   0F0E E4                 3880 	clr	a
   0F0F FA                 3881 	mov	r2,a
   0F10 2C                 3882 	add	a,r4
   0F11 FC                 3883 	mov	r4,a
   0F12 EB                 3884 	mov	a,r3
   0F13 3D                 3885 	addc	a,r5
   0F14 FD                 3886 	mov	r5,a
   0F15 E5 81              3887 	mov	a,sp
   0F17 24 FB              3888 	add	a,#0xfb
   0F19 F8                 3889 	mov	r0,a
   0F1A EC                 3890 	mov	a,r4
   0F1B C3                 3891 	clr	c
   0F1C 96                 3892 	subb	a,@r0
   0F1D FC                 3893 	mov	r4,a
   0F1E ED                 3894 	mov	a,r5
   0F1F 08                 3895 	inc	r0
   0F20 96                 3896 	subb	a,@r0
   0F21 FD                 3897 	mov	r5,a
   0F22 D0 03              3898 	pop	ar3
   0F24 20 E7 DD           3899 	jb	acc.7,00148$
                           3900 ;	../../../contiki-sensinode//core/net/mac/contikimac.c:774: if(!is_broadcast && (NETSTACK_RADIO.receiving_packet() ||
   0F27 E5 81              3901 	mov	a,sp
   0F29 24 E4              3902 	add	a,#0xe4
   0F2B F8                 3903 	mov	r0,a
   0F2C E6                 3904 	mov	a,@r0
   0F2D 60 03              3905 	jz	00315$
   0F2F 02s10rAE           3906 	ljmp	00167$
   0F32                    3907 00315$:
   0F32 90s00r12           3908 	mov	dptr,#(_cc2530_rf_driver + 0x0012)
   0F35 E4                 3909 	clr	a
   0F36 93                 3910 	movc	a,@a+dptr
   0F37 FA                 3911 	mov	r2,a
   0F38 A3                 3912 	inc	dptr
   0F39 E4                 3913 	clr	a
   0F3A 93                 3914 	movc	a,@a+dptr
   0F3B FC                 3915 	mov	r4,a
   0F3C A3                 3916 	inc	dptr
   0F3D E4                 3917 	clr	a
   0F3E 93                 3918 	movc	a,@a+dptr
   0F3F FD                 3919 	mov	r5,a
   0F40 C0 07              3920 	push	ar7
   0F42 C0 05              3921 	push	ar5
   0F44 C0 03              3922 	push	ar3
   0F46 C0 02              3923 	push	ar2
   0F48 C0 04              3924 	push	ar4
   0F4A C0 05              3925 	push	ar5
   0F4C D0 02              3926 	pop	ar2
   0F4E D0 01              3927 	pop	ar1
   0F50 D0 00              3928 	pop	ar0
   0F52 12s00r00           3929 	lcall	__sdcc_banked_call
   0F55 AA 82              3930 	mov	r2,dpl
   0F57 AC 83              3931 	mov	r4,dph
   0F59 D0 03              3932 	pop	ar3
   0F5B D0 05              3933 	pop	ar5
   0F5D D0 07              3934 	pop	ar7
   0F5F EA                 3935 	mov	a,r2
   0F60 4C                 3936 	orl	a,r4
   0F61 70 65              3937 	jnz	00158$
                           3938 ;	../../../contiki-sensinode//core/net/mac/contikimac.c:775: NETSTACK_RADIO.pending_packet() ||
   0F63 90s00r15           3939 	mov	dptr,#(_cc2530_rf_driver + 0x0015)
   0F66 E4                 3940 	clr	a
   0F67 93                 3941 	movc	a,@a+dptr
   0F68 FA                 3942 	mov	r2,a
   0F69 A3                 3943 	inc	dptr
   0F6A E4                 3944 	clr	a
   0F6B 93                 3945 	movc	a,@a+dptr
   0F6C FC                 3946 	mov	r4,a
   0F6D A3                 3947 	inc	dptr
   0F6E E4                 3948 	clr	a
   0F6F 93                 3949 	movc	a,@a+dptr
   0F70 FD                 3950 	mov	r5,a
   0F71 C0 07              3951 	push	ar7
   0F73 C0 05              3952 	push	ar5
   0F75 C0 03              3953 	push	ar3
   0F77 C0 02              3954 	push	ar2
   0F79 C0 04              3955 	push	ar4
   0F7B C0 05              3956 	push	ar5
   0F7D D0 02              3957 	pop	ar2
   0F7F D0 01              3958 	pop	ar1
   0F81 D0 00              3959 	pop	ar0
   0F83 12s00r00           3960 	lcall	__sdcc_banked_call
   0F86 AA 82              3961 	mov	r2,dpl
   0F88 AC 83              3962 	mov	r4,dph
   0F8A D0 03              3963 	pop	ar3
   0F8C D0 05              3964 	pop	ar5
   0F8E D0 07              3965 	pop	ar7
   0F90 EA                 3966 	mov	a,r2
   0F91 4C                 3967 	orl	a,r4
   0F92 70 34              3968 	jnz	00158$
                           3969 ;	../../../contiki-sensinode//core/net/mac/contikimac.c:776: NETSTACK_RADIO.channel_clear() == 0)) {
   0F94 90s00r0F           3970 	mov	dptr,#(_cc2530_rf_driver + 0x000f)
   0F97 E4                 3971 	clr	a
   0F98 93                 3972 	movc	a,@a+dptr
   0F99 FA                 3973 	mov	r2,a
   0F9A A3                 3974 	inc	dptr
   0F9B E4                 3975 	clr	a
   0F9C 93                 3976 	movc	a,@a+dptr
   0F9D FC                 3977 	mov	r4,a
   0F9E A3                 3978 	inc	dptr
   0F9F E4                 3979 	clr	a
   0FA0 93                 3980 	movc	a,@a+dptr
   0FA1 FD                 3981 	mov	r5,a
   0FA2 C0 07              3982 	push	ar7
   0FA4 C0 05              3983 	push	ar5
   0FA6 C0 03              3984 	push	ar3
   0FA8 C0 02              3985 	push	ar2
   0FAA C0 04              3986 	push	ar4
   0FAC C0 05              3987 	push	ar5
   0FAE D0 02              3988 	pop	ar2
   0FB0 D0 01              3989 	pop	ar1
   0FB2 D0 00              3990 	pop	ar0
   0FB4 12s00r00           3991 	lcall	__sdcc_banked_call
   0FB7 AA 82              3992 	mov	r2,dpl
   0FB9 AC 83              3993 	mov	r4,dph
   0FBB D0 03              3994 	pop	ar3
   0FBD D0 05              3995 	pop	ar5
   0FBF D0 07              3996 	pop	ar7
   0FC1 EA                 3997 	mov	a,r2
   0FC2 4C                 3998 	orl	a,r4
   0FC3 60 03              3999 	jz	00321$
   0FC5 02s10rAE           4000 	ljmp	00167$
   0FC8                    4001 00321$:
   0FC8                    4002 00158$:
                           4003 ;	../../../contiki-sensinode//core/net/mac/contikimac.c:778: wt = RTIMER_NOW();
   0FC8 C0 03              4004 	push	ar3
   0FCA AC E2              4005 	mov	r4,_T1CNTL
   0FCC 7D 00              4006 	mov	r5,#0x00
   0FCE AA E3              4007 	mov	r2,_T1CNTH
   0FD0 8A 03              4008 	mov	ar3,r2
   0FD2 E4                 4009 	clr	a
   0FD3 2C                 4010 	add	a,r4
   0FD4 FC                 4011 	mov	r4,a
   0FD5 EB                 4012 	mov	a,r3
   0FD6 3D                 4013 	addc	a,r5
   0FD7 FD                 4014 	mov	r5,a
   0FD8 8C 06              4015 	mov	ar6,r4
   0FDA 8D 02              4016 	mov	ar2,r5
                           4017 ;	../../../contiki-sensinode//core/net/mac/contikimac.c:779: while(RTIMER_CLOCK_LT(RTIMER_NOW(), wt + AFTER_ACK_DETECTECT_WAIT_TIME)) { }
   0FDC E5 81              4018 	mov	a,sp
   0FDE 24 FB              4019 	add	a,#0xfb
   0FE0 F8                 4020 	mov	r0,a
   0FE1 74 0A              4021 	mov	a,#0x0A
   0FE3 2E                 4022 	add	a,r6
   0FE4 F6                 4023 	mov	@r0,a
   0FE5 E4                 4024 	clr	a
   0FE6 3A                 4025 	addc	a,r2
   0FE7 08                 4026 	inc	r0
   0FE8 F6                 4027 	mov	@r0,a
                           4028 ;	../../../contiki-sensinode//core/net/mac/contikimac.c:846: return ret;
   0FE9 D0 03              4029 	pop	ar3
                           4030 ;	../../../contiki-sensinode//core/net/mac/contikimac.c:779: while(RTIMER_CLOCK_LT(RTIMER_NOW(), wt + AFTER_ACK_DETECTECT_WAIT_TIME)) { }
   0FEB                    4031 00151$:
   0FEB C0 03              4032 	push	ar3
   0FED AC E2              4033 	mov	r4,_T1CNTL
   0FEF 7D 00              4034 	mov	r5,#0x00
   0FF1 AA E3              4035 	mov	r2,_T1CNTH
   0FF3 8A 03              4036 	mov	ar3,r2
   0FF5 E4                 4037 	clr	a
   0FF6 FA                 4038 	mov	r2,a
   0FF7 2C                 4039 	add	a,r4
   0FF8 FC                 4040 	mov	r4,a
   0FF9 EB                 4041 	mov	a,r3
   0FFA 3D                 4042 	addc	a,r5
   0FFB FD                 4043 	mov	r5,a
   0FFC E5 81              4044 	mov	a,sp
   0FFE 24 FB              4045 	add	a,#0xfb
   1000 F8                 4046 	mov	r0,a
   1001 EC                 4047 	mov	a,r4
   1002 C3                 4048 	clr	c
   1003 96                 4049 	subb	a,@r0
   1004 FC                 4050 	mov	r4,a
   1005 ED                 4051 	mov	a,r5
   1006 08                 4052 	inc	r0
   1007 96                 4053 	subb	a,@r0
   1008 FD                 4054 	mov	r5,a
   1009 D0 03              4055 	pop	ar3
   100B 20 E7 DD           4056 	jb	acc.7,00151$
                           4057 ;	../../../contiki-sensinode//core/net/mac/contikimac.c:781: len = NETSTACK_RADIO.read(ackbuf, ACK_LEN);
   100E C0 03              4058 	push	ar3
   1010 90s00r0C           4059 	mov	dptr,#(_cc2530_rf_driver + 0x000c)
   1013 E5 81              4060 	mov	a,sp
   1015 24 FD              4061 	add	a,#0xfd
   1017 F8                 4062 	mov	r0,a
   1018 E4                 4063 	clr	a
   1019 93                 4064 	movc	a,@a+dptr
   101A F6                 4065 	mov	@r0,a
   101B A3                 4066 	inc	dptr
   101C E4                 4067 	clr	a
   101D 93                 4068 	movc	a,@a+dptr
   101E 08                 4069 	inc	r0
   101F F6                 4070 	mov	@r0,a
   1020 A3                 4071 	inc	dptr
   1021 E4                 4072 	clr	a
   1022 93                 4073 	movc	a,@a+dptr
   1023 08                 4074 	inc	r0
   1024 F6                 4075 	mov	@r0,a
   1025 E5 81              4076 	mov	a,sp
   1027 24 FA              4077 	add	a,#0xfa
   1029 F8                 4078 	mov	r0,a
   102A 86 03              4079 	mov	ar3,@r0
   102C 7C 00              4080 	mov	r4,#0x00
   102E 7D 40              4081 	mov	r5,#0x40
   1030 C0 07              4082 	push	ar7
   1032 C0 03              4083 	push	ar3
   1034 74 03              4084 	mov	a,#0x03
   1036 C0 E0              4085 	push	acc
   1038 E4                 4086 	clr	a
   1039 C0 E0              4087 	push	acc
   103B E5 81              4088 	mov	a,sp
   103D 24 F9              4089 	add	a,#0xf9
   103F F8                 4090 	mov	r0,a
   1040 E6                 4091 	mov	a,@r0
   1041 C0 E0              4092 	push	acc
   1043 08                 4093 	inc	r0
   1044 E6                 4094 	mov	a,@r0
   1045 C0 E0              4095 	push	acc
   1047 08                 4096 	inc	r0
   1048 E6                 4097 	mov	a,@r0
   1049 C0 E0              4098 	push	acc
   104B 8B 82              4099 	mov	dpl,r3
   104D 8C 83              4100 	mov	dph,r4
   104F 8D F0              4101 	mov	b,r5
   1051 D0 02              4102 	pop	ar2
   1053 D0 01              4103 	pop	ar1
   1055 D0 00              4104 	pop	ar0
   1057 12s00r00           4105 	lcall	__sdcc_banked_call
   105A AC 82              4106 	mov	r4,dpl
   105C AD 83              4107 	mov	r5,dph
   105E 15 81              4108 	dec	sp
   1060 15 81              4109 	dec	sp
   1062 D0 03              4110 	pop	ar3
   1064 D0 07              4111 	pop	ar7
                           4112 ;	../../../contiki-sensinode//core/net/mac/contikimac.c:782: if(len == ACK_LEN && seqno == ackbuf[ACK_LEN-1]) {
   1066 BC 03 05           4113 	cjne	r4,#0x03,00324$
   1069 BD 00 02           4114 	cjne	r5,#0x00,00324$
   106C 80 04              4115 	sjmp	00325$
   106E                    4116 00324$:
   106E D0 03              4117 	pop	ar3
   1070 80 2A              4118 	sjmp	00155$
   1072                    4119 00325$:
   1072 D0 03              4120 	pop	ar3
   1074 E5 81              4121 	mov	a,sp
   1076 24 FB              4122 	add	a,#0xfb
   1078 F8                 4123 	mov	r0,a
   1079 74 02              4124 	mov	a,#0x02
   107B 26                 4125 	add	a,@r0
   107C F9                 4126 	mov	r1,a
   107D 87 05              4127 	mov	ar5,@r1
   107F E5 81              4128 	mov	a,sp
   1081 24 E9              4129 	add	a,#0xe9
   1083 F8                 4130 	mov	r0,a
   1084 E6                 4131 	mov	a,@r0
   1085 B5 05 14           4132 	cjne	a,ar5,00155$
                           4133 ;	../../../contiki-sensinode//core/net/mac/contikimac.c:783: got_strobe_ack = 1;
   1088 7F 01              4134 	mov	r7,#0x01
                           4135 ;	../../../contiki-sensinode//core/net/mac/contikimac.c:784: encounter_time = txtime;
   108A E5 81              4136 	mov	a,sp
   108C 24 EF              4137 	add	a,#0xef
   108E F8                 4138 	mov	r0,a
   108F E5 81              4139 	mov	a,sp
   1091 24 DE              4140 	add	a,#0xde
   1093 F9                 4141 	mov	r1,a
   1094 E6                 4142 	mov	a,@r0
   1095 F7                 4143 	mov	@r1,a
   1096 08                 4144 	inc	r0
   1097 09                 4145 	inc	r1
   1098 E6                 4146 	mov	a,@r0
   1099 F7                 4147 	mov	@r1,a
                           4148 ;	../../../contiki-sensinode//core/net/mac/contikimac.c:785: break;
   109A 80 20              4149 	sjmp	00168$
   109C                    4150 00155$:
                           4151 ;	../../../contiki-sensinode//core/net/mac/contikimac.c:788: collisions++;
   109C E5 81              4152 	mov	a,sp
   109E 24 E6              4153 	add	a,#0xe6
   10A0 F8                 4154 	mov	r0,a
   10A1 06                 4155 	inc	@r0
   10A2 E5 81              4156 	mov	a,sp
   10A4 24 E6              4157 	add	a,#0xe6
   10A6 F8                 4158 	mov	r0,a
   10A7 E5 81              4159 	mov	a,sp
   10A9 24 F6              4160 	add	a,#0xf6
   10AB F9                 4161 	mov	r1,a
   10AC E6                 4162 	mov	a,@r0
   10AD F7                 4163 	mov	@r1,a
   10AE                    4164 00167$:
                           4165 ;	../../../contiki-sensinode//core/net/mac/contikimac.c:734: RTIMER_CLOCK_LT(RTIMER_NOW(), t0 + STROBE_TIME); strobes++) {
   10AE E5 81              4166 	mov	a,sp
   10B0 24 E0              4167 	add	a,#0xe0
   10B2 F8                 4168 	mov	r0,a
   10B3 06                 4169 	inc	@r0
   10B4 B6 00 02           4170 	cjne	@r0,#0x00,00328$
   10B7 08                 4171 	inc	r0
   10B8 06                 4172 	inc	@r0
   10B9                    4173 00328$:
   10B9 02s0Er17           4174 	ljmp	00165$
   10BC                    4175 00168$:
                           4176 ;	../../../contiki-sensinode//core/net/mac/contikimac.c:795: off();
   10BC C0 07              4177 	push	ar7
   10BE C0 03              4178 	push	ar3
   10C0 78r40              4179 	mov	r0,#_off
   10C2 79s00              4180 	mov	r1,#(_off >> 8)
   10C4 7As00              4181 	mov	r2,#(_off >> 16)
   10C6 12s00r00           4182 	lcall	__sdcc_banked_call
   10C9 D0 03              4183 	pop	ar3
   10CB D0 07              4184 	pop	ar7
                           4185 ;	../../../contiki-sensinode//core/net/mac/contikimac.c:817: contikimac_is_on = contikimac_was_on;
   10CD 90s00r04           4186 	mov	dptr,#_contikimac_is_on
   10D0 EB                 4187 	mov	a,r3
   10D1 F0                 4188 	movx	@dptr,a
                           4189 ;	../../../contiki-sensinode//core/net/mac/contikimac.c:818: we_are_sending = 0;
   10D2 90s00r06           4190 	mov	dptr,#_we_are_sending
   10D5 E4                 4191 	clr	a
   10D6 F0                 4192 	movx	@dptr,a
                           4193 ;	../../../contiki-sensinode//core/net/mac/contikimac.c:823: if(collisions > 0) {
   10D7 E5 81              4194 	mov	a,sp
   10D9 24 F6              4195 	add	a,#0xf6
   10DB F8                 4196 	mov	r0,a
   10DC E6                 4197 	mov	a,@r0
   10DD 60 06              4198 	jz	00174$
                           4199 ;	../../../contiki-sensinode//core/net/mac/contikimac.c:824: ret = MAC_TX_COLLISION;
   10DF 7E 01              4200 	mov	r6,#0x01
   10E1 7F 00              4201 	mov	r7,#0x00
   10E3 80 14              4202 	sjmp	00188$
   10E5                    4203 00174$:
                           4204 ;	../../../contiki-sensinode//core/net/mac/contikimac.c:825: } else if(!is_broadcast && !got_strobe_ack) {
   10E5 E5 81              4205 	mov	a,sp
   10E7 24 E4              4206 	add	a,#0xe4
   10E9 F8                 4207 	mov	r0,a
   10EA E6                 4208 	mov	a,@r0
   10EB 70 08              4209 	jnz	00170$
   10ED EF                 4210 	mov	a,r7
                           4211 ;	../../../contiki-sensinode//core/net/mac/contikimac.c:826: ret = MAC_TX_NOACK;
   10EE 70 05              4212 	jnz	00170$
   10F0 7E 02              4213 	mov	r6,#0x02
   10F2 FF                 4214 	mov	r7,a
   10F3 80 04              4215 	sjmp	00188$
   10F5                    4216 00170$:
                           4217 ;	../../../contiki-sensinode//core/net/mac/contikimac.c:828: ret = MAC_TX_OK;
   10F5 7E 00              4218 	mov	r6,#0x00
   10F7 7F 00              4219 	mov	r7,#0x00
                           4220 ;	../../../contiki-sensinode//core/net/mac/contikimac.c:833: if(is_known_receiver && got_strobe_ack) {
   10F9                    4221 00188$:
                           4222 ;	../../../contiki-sensinode//core/net/mac/contikimac.c:838: if(!is_broadcast) {
   10F9 E5 81              4223 	mov	a,sp
   10FB 24 E4              4224 	add	a,#0xe4
   10FD F8                 4225 	mov	r0,a
   10FE E6                 4226 	mov	a,@r0
   10FF 70 60              4227 	jnz	00180$
                           4228 ;	../../../contiki-sensinode//core/net/mac/contikimac.c:839: if(collisions == 0 && is_receiver_awake == 0) {
   1101 E5 81              4229 	mov	a,sp
   1103 24 F6              4230 	add	a,#0xf6
   1105 F8                 4231 	mov	r0,a
   1106 E6                 4232 	mov	a,@r0
   1107 70 58              4233 	jnz	00180$
   1109 90s00r02           4234 	mov	dptr,#_is_receiver_awake
   110C E0                 4235 	movx	a,@dptr
   110D FC                 4236 	mov	r4,a
   110E A3                 4237 	inc	dptr
   110F E0                 4238 	movx	a,@dptr
   1110 FD                 4239 	mov	r5,a
   1111 4C                 4240 	orl	a,r4
   1112 70 4D              4241 	jnz	00180$
                           4242 ;	../../../contiki-sensinode//core/net/mac/contikimac.c:840: phase_update(&phase_list, packetbuf_addr(PACKETBUF_ADDR_RECEIVER), encounter_time,
   1114 75 82 19           4243 	mov	dpl,#0x19
   1117 C0 07              4244 	push	ar7
   1119 C0 06              4245 	push	ar6
   111B 78r00              4246 	mov	r0,#_packetbuf_addr
   111D 79s00              4247 	mov	r1,#(_packetbuf_addr >> 8)
   111F 7As00              4248 	mov	r2,#(_packetbuf_addr >> 16)
   1121 12s00r00           4249 	lcall	__sdcc_banked_call
   1124 AB 82              4250 	mov	r3,dpl
   1126 AC 83              4251 	mov	r4,dph
   1128 AD F0              4252 	mov	r5,b
   112A D0 06              4253 	pop	ar6
   112C D0 07              4254 	pop	ar7
   112E C0 07              4255 	push	ar7
   1130 C0 06              4256 	push	ar6
   1132 C0 06              4257 	push	ar6
   1134 C0 07              4258 	push	ar7
   1136 E5 81              4259 	mov	a,sp
   1138 24 DA              4260 	add	a,#0xda
   113A F8                 4261 	mov	r0,a
   113B E6                 4262 	mov	a,@r0
   113C C0 E0              4263 	push	acc
   113E 08                 4264 	inc	r0
   113F E6                 4265 	mov	a,@r0
   1140 C0 E0              4266 	push	acc
   1142 C0 03              4267 	push	ar3
   1144 C0 04              4268 	push	ar4
   1146 C0 05              4269 	push	ar5
   1148 90s00r18           4270 	mov	dptr,#_phase_list
   114B 75 F0 00           4271 	mov	b,#0x00
   114E 78r00              4272 	mov	r0,#_phase_update
   1150 79s00              4273 	mov	r1,#(_phase_update >> 8)
   1152 7As00              4274 	mov	r2,#(_phase_update >> 16)
   1154 12s00r00           4275 	lcall	__sdcc_banked_call
   1157 E5 81              4276 	mov	a,sp
   1159 24 F9              4277 	add	a,#0xf9
   115B F5 81              4278 	mov	sp,a
   115D D0 06              4279 	pop	ar6
   115F D0 07              4280 	pop	ar7
   1161                    4281 00180$:
                           4282 ;	../../../contiki-sensinode//core/net/mac/contikimac.c:846: return ret;
   1161 8E 82              4283 	mov	dpl,r6
   1163 8F 83              4284 	mov	dph,r7
   1165                    4285 00181$:
   1165 E5 81              4286 	mov	a,sp
   1167 24 DD              4287 	add	a,#0xDD
   1169 F5 81              4288 	mov	sp,a
   116B 02s00r00           4289 	ljmp	__sdcc_banked_ret
                           4290 ;------------------------------------------------------------
                           4291 ;Allocation info for local variables in function 'qsend_packet'
                           4292 ;------------------------------------------------------------
                           4293 ;ptr                       Allocated to stack - sp -5
                           4294 ;sent                      Allocated to registers r5 r6 r7 
                           4295 ;ret                       Allocated to registers r3 r4 
                           4296 ;------------------------------------------------------------
                           4297 ;	../../../contiki-sensinode//core/net/mac/contikimac.c:850: qsend_packet(mac_callback_t sent, void *ptr)
                           4298 ;	-----------------------------------------
                           4299 ;	 function qsend_packet
                           4300 ;	-----------------------------------------
   116E                    4301 _qsend_packet:
   116E AD 82              4302 	mov	r5,dpl
   1170 AE 83              4303 	mov	r6,dph
   1172 AF F0              4304 	mov	r7,b
                           4305 ;	../../../contiki-sensinode//core/net/mac/contikimac.c:852: int ret = send_packet(sent, ptr, NULL);
   1174 C0 07              4306 	push	ar7
   1176 C0 06              4307 	push	ar6
   1178 C0 05              4308 	push	ar5
   117A E4                 4309 	clr	a
   117B C0 E0              4310 	push	acc
   117D C0 E0              4311 	push	acc
   117F C0 E0              4312 	push	acc
   1181 E5 81              4313 	mov	a,sp
   1183 24 F5              4314 	add	a,#0xf5
   1185 F8                 4315 	mov	r0,a
   1186 E6                 4316 	mov	a,@r0
   1187 C0 E0              4317 	push	acc
   1189 08                 4318 	inc	r0
   118A E6                 4319 	mov	a,@r0
   118B C0 E0              4320 	push	acc
   118D 08                 4321 	inc	r0
   118E E6                 4322 	mov	a,@r0
   118F C0 E0              4323 	push	acc
   1191 8D 82              4324 	mov	dpl,r5
   1193 8E 83              4325 	mov	dph,r6
   1195 8F F0              4326 	mov	b,r7
   1197 78r1C              4327 	mov	r0,#_send_packet
   1199 79s07              4328 	mov	r1,#(_send_packet >> 8)
   119B 7As00              4329 	mov	r2,#(_send_packet >> 16)
   119D 12s00r00           4330 	lcall	__sdcc_banked_call
   11A0 AB 82              4331 	mov	r3,dpl
   11A2 AC 83              4332 	mov	r4,dph
   11A4 E5 81              4333 	mov	a,sp
   11A6 24 FA              4334 	add	a,#0xfa
   11A8 F5 81              4335 	mov	sp,a
   11AA D0 05              4336 	pop	ar5
   11AC D0 06              4337 	pop	ar6
   11AE D0 07              4338 	pop	ar7
                           4339 ;	../../../contiki-sensinode//core/net/mac/contikimac.c:853: if(ret != MAC_TX_DEFERRED) {
   11B0 BB 03 05           4340 	cjne	r3,#0x03,00114$
   11B3 BC 00 02           4341 	cjne	r4,#0x00,00114$
   11B6 80 3D              4342 	sjmp	00108$
   11B8                    4343 00114$:
                           4344 ;	../../../contiki-sensinode//core/net/mac/contikimac.c:854: mac_call_sent_callback(sent, ptr, ret, 1);
   11B8 ED                 4345 	mov	a,r5
   11B9 4E                 4346 	orl	a,r6
   11BA 60 39              4347 	jz	00108$
   11BC C0 07              4348 	push	ar7
   11BE C0 06              4349 	push	ar6
   11C0 C0 05              4350 	push	ar5
   11C2 74 01              4351 	mov	a,#0x01
   11C4 C0 E0              4352 	push	acc
   11C6 E4                 4353 	clr	a
   11C7 C0 E0              4354 	push	acc
   11C9 C0 03              4355 	push	ar3
   11CB C0 04              4356 	push	ar4
   11CD C0 05              4357 	push	ar5
   11CF C0 06              4358 	push	ar6
   11D1 C0 07              4359 	push	ar7
   11D3 E5 81              4360 	mov	a,sp
   11D5 24 F1              4361 	add	a,#0xf1
   11D7 F8                 4362 	mov	r0,a
   11D8 86 82              4363 	mov	dpl,@r0
   11DA 08                 4364 	inc	r0
   11DB 86 83              4365 	mov	dph,@r0
   11DD 08                 4366 	inc	r0
   11DE 86 F0              4367 	mov	b,@r0
   11E0 D0 02              4368 	pop	ar2
   11E2 D0 01              4369 	pop	ar1
   11E4 D0 00              4370 	pop	ar0
   11E6 12s00r00           4371 	lcall	__sdcc_banked_call
   11E9 E5 81              4372 	mov	a,sp
   11EB 24 FC              4373 	add	a,#0xfc
   11ED F5 81              4374 	mov	sp,a
   11EF D0 05              4375 	pop	ar5
   11F1 D0 06              4376 	pop	ar6
   11F3 D0 07              4377 	pop	ar7
   11F5                    4378 00108$:
   11F5 02s00r00           4379 	ljmp	__sdcc_banked_ret
                           4380 ;------------------------------------------------------------
                           4381 ;Allocation info for local variables in function 'qsend_list'
                           4382 ;------------------------------------------------------------
                           4383 ;ptr                       Allocated to stack - sp -10
                           4384 ;buf_list                  Allocated to stack - sp -13
                           4385 ;sent                      Allocated to registers r5 r6 r7 
                           4386 ;curr                      Allocated to stack - sp -4
                           4387 ;next                      Allocated to registers r2 r3 r4 
                           4388 ;ret                       Allocated to stack - sp -1
                           4389 ;------------------------------------------------------------
                           4390 ;	../../../contiki-sensinode//core/net/mac/contikimac.c:859: qsend_list(mac_callback_t sent, void *ptr, struct rdc_buf_list *buf_list)
                           4391 ;	-----------------------------------------
                           4392 ;	 function qsend_list
                           4393 ;	-----------------------------------------
   11F8                    4394 _qsend_list:
   11F8 E5 81              4395 	mov	a,sp
   11FA 24 05              4396 	add	a,#0x05
   11FC F5 81              4397 	mov	sp,a
   11FE AD 82              4398 	mov	r5,dpl
   1200 AE 83              4399 	mov	r6,dph
   1202 AF F0              4400 	mov	r7,b
                           4401 ;	../../../contiki-sensinode//core/net/mac/contikimac.c:861: struct rdc_buf_list *curr = buf_list;
   1204 E5 81              4402 	mov	a,sp
   1206 24 F3              4403 	add	a,#0xf3
   1208 F8                 4404 	mov	r0,a
   1209 E5 81              4405 	mov	a,sp
   120B 24 FC              4406 	add	a,#0xfc
   120D F9                 4407 	mov	r1,a
   120E E6                 4408 	mov	a,@r0
   120F F7                 4409 	mov	@r1,a
   1210 08                 4410 	inc	r0
   1211 09                 4411 	inc	r1
   1212 E6                 4412 	mov	a,@r0
   1213 F7                 4413 	mov	@r1,a
   1214 08                 4414 	inc	r0
   1215 09                 4415 	inc	r1
   1216 E6                 4416 	mov	a,@r0
   1217 F7                 4417 	mov	@r1,a
                           4418 ;	../../../contiki-sensinode//core/net/mac/contikimac.c:864: if(curr == NULL) {
   1218 E5 81              4419 	mov	a,sp
   121A 24 FC              4420 	add	a,#0xfc
   121C F8                 4421 	mov	r0,a
   121D E6                 4422 	mov	a,@r0
   121E 08                 4423 	inc	r0
   121F 46                 4424 	orl	a,@r0
   1220 70 03              4425 	jnz	00102$
                           4426 ;	../../../contiki-sensinode//core/net/mac/contikimac.c:865: return;
   1222 02s14r64           4427 	ljmp	00127$
   1225                    4428 00102$:
                           4429 ;	../../../contiki-sensinode//core/net/mac/contikimac.c:868: if(we_are_receiving_burst) {
   1225 90s00r00           4430 	mov	dptr,#_we_are_receiving_burst
   1228 E0                 4431 	movx	a,@dptr
   1229 FB                 4432 	mov	r3,a
   122A A3                 4433 	inc	dptr
   122B E0                 4434 	movx	a,@dptr
   122C FC                 4435 	mov	r4,a
   122D 4B                 4436 	orl	a,r3
   122E 70 03              4437 	jnz	00150$
   1230 02s12rB5           4438 	ljmp	00109$
   1233                    4439 00150$:
                           4440 ;	../../../contiki-sensinode//core/net/mac/contikimac.c:870: queuebuf_to_packetbuf(curr->buf);
   1233 E5 81              4441 	mov	a,sp
   1235 24 FC              4442 	add	a,#0xfc
   1237 F8                 4443 	mov	r0,a
   1238 74 03              4444 	mov	a,#0x03
   123A 26                 4445 	add	a,@r0
   123B FA                 4446 	mov	r2,a
   123C E4                 4447 	clr	a
   123D 08                 4448 	inc	r0
   123E 36                 4449 	addc	a,@r0
   123F FB                 4450 	mov	r3,a
   1240 08                 4451 	inc	r0
   1241 86 04              4452 	mov	ar4,@r0
   1243 8A 82              4453 	mov	dpl,r2
   1245 8B 83              4454 	mov	dph,r3
   1247 8C F0              4455 	mov	b,r4
   1249 12s00r00           4456 	lcall	__gptrget
   124C FA                 4457 	mov	r2,a
   124D A3                 4458 	inc	dptr
   124E 12s00r00           4459 	lcall	__gptrget
   1251 FB                 4460 	mov	r3,a
   1252 A3                 4461 	inc	dptr
   1253 12s00r00           4462 	lcall	__gptrget
   1256 FC                 4463 	mov	r4,a
   1257 8A 82              4464 	mov	dpl,r2
   1259 8B 83              4465 	mov	dph,r3
   125B 8C F0              4466 	mov	b,r4
   125D C0 07              4467 	push	ar7
   125F C0 06              4468 	push	ar6
   1261 C0 05              4469 	push	ar5
   1263 78r00              4470 	mov	r0,#_queuebuf_to_packetbuf
   1265 79s00              4471 	mov	r1,#(_queuebuf_to_packetbuf >> 8)
   1267 7As00              4472 	mov	r2,#(_queuebuf_to_packetbuf >> 16)
   1269 12s00r00           4473 	lcall	__sdcc_banked_call
   126C D0 05              4474 	pop	ar5
   126E D0 06              4475 	pop	ar6
   1270 D0 07              4476 	pop	ar7
                           4477 ;	../../../contiki-sensinode//core/net/mac/contikimac.c:872: mac_call_sent_callback(sent, ptr, MAC_TX_COLLISION, 1);
   1272 ED                 4478 	mov	a,r5
   1273 4E                 4479 	orl	a,r6
   1274 60 3C              4480 	jz	00106$
   1276 C0 07              4481 	push	ar7
   1278 C0 06              4482 	push	ar6
   127A C0 05              4483 	push	ar5
   127C 74 01              4484 	mov	a,#0x01
   127E C0 E0              4485 	push	acc
   1280 E4                 4486 	clr	a
   1281 C0 E0              4487 	push	acc
   1283 74 01              4488 	mov	a,#0x01
   1285 C0 E0              4489 	push	acc
   1287 E4                 4490 	clr	a
   1288 C0 E0              4491 	push	acc
   128A C0 05              4492 	push	ar5
   128C C0 06              4493 	push	ar6
   128E C0 07              4494 	push	ar7
   1290 E5 81              4495 	mov	a,sp
   1292 24 EC              4496 	add	a,#0xec
   1294 F8                 4497 	mov	r0,a
   1295 86 82              4498 	mov	dpl,@r0
   1297 08                 4499 	inc	r0
   1298 86 83              4500 	mov	dph,@r0
   129A 08                 4501 	inc	r0
   129B 86 F0              4502 	mov	b,@r0
   129D D0 02              4503 	pop	ar2
   129F D0 01              4504 	pop	ar1
   12A1 D0 00              4505 	pop	ar0
   12A3 12s00r00           4506 	lcall	__sdcc_banked_call
   12A6 E5 81              4507 	mov	a,sp
   12A8 24 FC              4508 	add	a,#0xfc
   12AA F5 81              4509 	mov	sp,a
   12AC D0 05              4510 	pop	ar5
   12AE D0 06              4511 	pop	ar6
   12B0 D0 07              4512 	pop	ar7
   12B2                    4513 00106$:
                           4514 ;	../../../contiki-sensinode//core/net/mac/contikimac.c:873: return;
   12B2 02s14r64           4515 	ljmp	00127$
   12B5                    4516 00109$:
                           4517 ;	../../../contiki-sensinode//core/net/mac/contikimac.c:876: is_receiver_awake = 0;
   12B5 90s00r02           4518 	mov	dptr,#_is_receiver_awake
   12B8 E4                 4519 	clr	a
   12B9 F0                 4520 	movx	@dptr,a
   12BA A3                 4521 	inc	dptr
   12BB F0                 4522 	movx	@dptr,a
                           4523 ;	../../../contiki-sensinode//core/net/mac/contikimac.c:877: do { /* A loop sending a burst of packets from buf_list */
   12BC                    4524 00124$:
                           4525 ;	../../../contiki-sensinode//core/net/mac/contikimac.c:878: next = list_item_next(curr);
   12BC C0 05              4526 	push	ar5
   12BE C0 06              4527 	push	ar6
   12C0 C0 07              4528 	push	ar7
   12C2 E5 81              4529 	mov	a,sp
   12C4 24 F9              4530 	add	a,#0xf9
   12C6 F8                 4531 	mov	r0,a
   12C7 86 02              4532 	mov	ar2,@r0
   12C9 08                 4533 	inc	r0
   12CA 86 03              4534 	mov	ar3,@r0
   12CC 08                 4535 	inc	r0
   12CD 86 04              4536 	mov	ar4,@r0
   12CF 8A 82              4537 	mov	dpl,r2
   12D1 8B 83              4538 	mov	dph,r3
   12D3 8C F0              4539 	mov	b,r4
   12D5 C0 07              4540 	push	ar7
   12D7 C0 06              4541 	push	ar6
   12D9 C0 05              4542 	push	ar5
   12DB 78r00              4543 	mov	r0,#_list_item_next
   12DD 79s00              4544 	mov	r1,#(_list_item_next >> 8)
   12DF 7As00              4545 	mov	r2,#(_list_item_next >> 16)
   12E1 12s00r00           4546 	lcall	__sdcc_banked_call
   12E4 AA 82              4547 	mov	r2,dpl
   12E6 AB 83              4548 	mov	r3,dph
   12E8 AC F0              4549 	mov	r4,b
   12EA D0 05              4550 	pop	ar5
   12EC D0 06              4551 	pop	ar6
   12EE D0 07              4552 	pop	ar7
                           4553 ;	../../../contiki-sensinode//core/net/mac/contikimac.c:881: queuebuf_to_packetbuf(curr->buf);
   12F0 E5 81              4554 	mov	a,sp
   12F2 24 F9              4555 	add	a,#0xf9
   12F4 F8                 4556 	mov	r0,a
   12F5 74 03              4557 	mov	a,#0x03
   12F7 26                 4558 	add	a,@r0
   12F8 FD                 4559 	mov	r5,a
   12F9 E4                 4560 	clr	a
   12FA 08                 4561 	inc	r0
   12FB 36                 4562 	addc	a,@r0
   12FC FE                 4563 	mov	r6,a
   12FD 08                 4564 	inc	r0
   12FE 86 07              4565 	mov	ar7,@r0
   1300 8D 82              4566 	mov	dpl,r5
   1302 8E 83              4567 	mov	dph,r6
   1304 8F F0              4568 	mov	b,r7
   1306 12s00r00           4569 	lcall	__gptrget
   1309 FD                 4570 	mov	r5,a
   130A A3                 4571 	inc	dptr
   130B 12s00r00           4572 	lcall	__gptrget
   130E FE                 4573 	mov	r6,a
   130F A3                 4574 	inc	dptr
   1310 12s00r00           4575 	lcall	__gptrget
   1313 FF                 4576 	mov	r7,a
   1314 8D 82              4577 	mov	dpl,r5
   1316 8E 83              4578 	mov	dph,r6
   1318 8F F0              4579 	mov	b,r7
   131A C0 07              4580 	push	ar7
   131C C0 06              4581 	push	ar6
   131E C0 05              4582 	push	ar5
   1320 C0 04              4583 	push	ar4
   1322 C0 03              4584 	push	ar3
   1324 C0 02              4585 	push	ar2
   1326 78r00              4586 	mov	r0,#_queuebuf_to_packetbuf
   1328 79s00              4587 	mov	r1,#(_queuebuf_to_packetbuf >> 8)
   132A 7As00              4588 	mov	r2,#(_queuebuf_to_packetbuf >> 16)
   132C 12s00r00           4589 	lcall	__sdcc_banked_call
   132F D0 02              4590 	pop	ar2
   1331 D0 03              4591 	pop	ar3
   1333 D0 04              4592 	pop	ar4
   1335 D0 05              4593 	pop	ar5
   1337 D0 06              4594 	pop	ar6
   1339 D0 07              4595 	pop	ar7
                           4596 ;	../../../contiki-sensinode//core/net/mac/contikimac.c:882: if(next != NULL) {
   133B D0 07              4597 	pop	ar7
   133D D0 06              4598 	pop	ar6
   133F D0 05              4599 	pop	ar5
   1341 EA                 4600 	mov	a,r2
   1342 4B                 4601 	orl	a,r3
   1343 60 2F              4602 	jz	00111$
                           4603 ;	../../../contiki-sensinode//core/net/mac/contikimac.c:883: packetbuf_set_attr(PACKETBUF_ATTR_PENDING, 1);
   1345 C0 07              4604 	push	ar7
   1347 C0 06              4605 	push	ar6
   1349 C0 05              4606 	push	ar5
   134B C0 04              4607 	push	ar4
   134D C0 03              4608 	push	ar3
   134F C0 02              4609 	push	ar2
   1351 74 01              4610 	mov	a,#0x01
   1353 C0 E0              4611 	push	acc
   1355 E4                 4612 	clr	a
   1356 C0 E0              4613 	push	acc
   1358 75 82 12           4614 	mov	dpl,#0x12
   135B 78r00              4615 	mov	r0,#_packetbuf_set_attr
   135D 79s00              4616 	mov	r1,#(_packetbuf_set_attr >> 8)
   135F 7As00              4617 	mov	r2,#(_packetbuf_set_attr >> 16)
   1361 12s00r00           4618 	lcall	__sdcc_banked_call
   1364 15 81              4619 	dec	sp
   1366 15 81              4620 	dec	sp
   1368 D0 02              4621 	pop	ar2
   136A D0 03              4622 	pop	ar3
   136C D0 04              4623 	pop	ar4
   136E D0 05              4624 	pop	ar5
   1370 D0 06              4625 	pop	ar6
   1372 D0 07              4626 	pop	ar7
   1374                    4627 00111$:
                           4628 ;	../../../contiki-sensinode//core/net/mac/contikimac.c:887: ret = send_packet(sent, ptr, curr);
   1374 C0 07              4629 	push	ar7
   1376 C0 06              4630 	push	ar6
   1378 C0 05              4631 	push	ar5
   137A C0 04              4632 	push	ar4
   137C C0 03              4633 	push	ar3
   137E C0 02              4634 	push	ar2
   1380 E5 81              4635 	mov	a,sp
   1382 24 F6              4636 	add	a,#0xf6
   1384 F8                 4637 	mov	r0,a
   1385 E6                 4638 	mov	a,@r0
   1386 C0 E0              4639 	push	acc
   1388 08                 4640 	inc	r0
   1389 E6                 4641 	mov	a,@r0
   138A C0 E0              4642 	push	acc
   138C 08                 4643 	inc	r0
   138D E6                 4644 	mov	a,@r0
   138E C0 E0              4645 	push	acc
   1390 E5 81              4646 	mov	a,sp
   1392 24 ED              4647 	add	a,#0xed
   1394 F8                 4648 	mov	r0,a
   1395 E6                 4649 	mov	a,@r0
   1396 C0 E0              4650 	push	acc
   1398 08                 4651 	inc	r0
   1399 E6                 4652 	mov	a,@r0
   139A C0 E0              4653 	push	acc
   139C 08                 4654 	inc	r0
   139D E6                 4655 	mov	a,@r0
   139E C0 E0              4656 	push	acc
   13A0 8D 82              4657 	mov	dpl,r5
   13A2 8E 83              4658 	mov	dph,r6
   13A4 8F F0              4659 	mov	b,r7
   13A6 78r1C              4660 	mov	r0,#_send_packet
   13A8 79s07              4661 	mov	r1,#(_send_packet >> 8)
   13AA 7As00              4662 	mov	r2,#(_send_packet >> 16)
   13AC 12s00r00           4663 	lcall	__sdcc_banked_call
   13AF C8                 4664 	xch	a,r0
   13B0 E5 81              4665 	mov	a,sp
   13B2 24 F3              4666 	add	a,#0xf3
   13B4 C8                 4667 	xch	a,r0
   13B5 A6 82              4668 	mov	@r0,dpl
   13B7 08                 4669 	inc	r0
   13B8 A6 83              4670 	mov	@r0,dph
   13BA E5 81              4671 	mov	a,sp
   13BC 24 FA              4672 	add	a,#0xfa
   13BE F5 81              4673 	mov	sp,a
   13C0 D0 02              4674 	pop	ar2
   13C2 D0 03              4675 	pop	ar3
   13C4 D0 04              4676 	pop	ar4
   13C6 D0 05              4677 	pop	ar5
   13C8 D0 06              4678 	pop	ar6
   13CA D0 07              4679 	pop	ar7
   13CC A8 81              4680 	mov	r0,sp
   13CE 18                 4681 	dec	r0
                           4682 ;	../../../contiki-sensinode//core/net/mac/contikimac.c:888: if(ret != MAC_TX_DEFERRED) {
   13CF A8 81              4683 	mov	r0,sp
   13D1 18                 4684 	dec	r0
   13D2 B6 03 06           4685 	cjne	@r0,#0x03,00154$
   13D5 08                 4686 	inc	r0
   13D6 B6 00 02           4687 	cjne	@r0,#0x00,00154$
   13D9 80 51              4688 	sjmp	00118$
   13DB                    4689 00154$:
                           4690 ;	../../../contiki-sensinode//core/net/mac/contikimac.c:889: mac_call_sent_callback(sent, ptr, ret, 1);
   13DB ED                 4691 	mov	a,r5
   13DC 4E                 4692 	orl	a,r6
   13DD 60 4D              4693 	jz	00118$
   13DF C0 07              4694 	push	ar7
   13E1 C0 06              4695 	push	ar6
   13E3 C0 05              4696 	push	ar5
   13E5 C0 04              4697 	push	ar4
   13E7 C0 03              4698 	push	ar3
   13E9 C0 02              4699 	push	ar2
   13EB 74 01              4700 	mov	a,#0x01
   13ED C0 E0              4701 	push	acc
   13EF E4                 4702 	clr	a
   13F0 C0 E0              4703 	push	acc
   13F2 E5 81              4704 	mov	a,sp
   13F4 24 F7              4705 	add	a,#0xf7
   13F6 F8                 4706 	mov	r0,a
   13F7 E6                 4707 	mov	a,@r0
   13F8 C0 E0              4708 	push	acc
   13FA 08                 4709 	inc	r0
   13FB E6                 4710 	mov	a,@r0
   13FC C0 E0              4711 	push	acc
   13FE C0 05              4712 	push	ar5
   1400 C0 06              4713 	push	ar6
   1402 C0 07              4714 	push	ar7
   1404 E5 81              4715 	mov	a,sp
   1406 24 E9              4716 	add	a,#0xe9
   1408 F8                 4717 	mov	r0,a
   1409 86 82              4718 	mov	dpl,@r0
   140B 08                 4719 	inc	r0
   140C 86 83              4720 	mov	dph,@r0
   140E 08                 4721 	inc	r0
   140F 86 F0              4722 	mov	b,@r0
   1411 D0 02              4723 	pop	ar2
   1413 D0 01              4724 	pop	ar1
   1415 D0 00              4725 	pop	ar0
   1417 12s00r00           4726 	lcall	__sdcc_banked_call
   141A E5 81              4727 	mov	a,sp
   141C 24 FC              4728 	add	a,#0xfc
   141E F5 81              4729 	mov	sp,a
   1420 D0 02              4730 	pop	ar2
   1422 D0 03              4731 	pop	ar3
   1424 D0 04              4732 	pop	ar4
   1426 D0 05              4733 	pop	ar5
   1428 D0 06              4734 	pop	ar6
   142A D0 07              4735 	pop	ar7
   142C                    4736 00118$:
                           4737 ;	../../../contiki-sensinode//core/net/mac/contikimac.c:892: if(ret == MAC_TX_OK) {
   142C A8 81              4738 	mov	r0,sp
   142E 18                 4739 	dec	r0
   142F E6                 4740 	mov	a,@r0
   1430 08                 4741 	inc	r0
   1431 46                 4742 	orl	a,@r0
   1432 70 1C              4743 	jnz	00122$
                           4744 ;	../../../contiki-sensinode//core/net/mac/contikimac.c:893: if(next != NULL) {
   1434 EA                 4745 	mov	a,r2
   1435 4B                 4746 	orl	a,r3
   1436 60 1E              4747 	jz	00125$
                           4748 ;	../../../contiki-sensinode//core/net/mac/contikimac.c:895: is_receiver_awake = 1;
   1438 90s00r02           4749 	mov	dptr,#_is_receiver_awake
   143B 74 01              4750 	mov	a,#0x01
   143D F0                 4751 	movx	@dptr,a
   143E A3                 4752 	inc	dptr
   143F E4                 4753 	clr	a
   1440 F0                 4754 	movx	@dptr,a
                           4755 ;	../../../contiki-sensinode//core/net/mac/contikimac.c:896: curr = next;
   1441 E5 81              4756 	mov	a,sp
   1443 24 FC              4757 	add	a,#0xfc
   1445 F8                 4758 	mov	r0,a
   1446 A6 02              4759 	mov	@r0,ar2
   1448 08                 4760 	inc	r0
   1449 A6 03              4761 	mov	@r0,ar3
   144B 08                 4762 	inc	r0
   144C A6 04              4763 	mov	@r0,ar4
   144E 80 06              4764 	sjmp	00125$
   1450                    4765 00122$:
                           4766 ;	../../../contiki-sensinode//core/net/mac/contikimac.c:900: next = NULL;
   1450 7A 00              4767 	mov	r2,#0x00
   1452 7B 00              4768 	mov	r3,#0x00
   1454 7C 00              4769 	mov	r4,#0x00
   1456                    4770 00125$:
                           4771 ;	../../../contiki-sensinode//core/net/mac/contikimac.c:902: } while(next != NULL);
   1456 EA                 4772 	mov	a,r2
   1457 4B                 4773 	orl	a,r3
   1458 60 03              4774 	jz	00159$
   145A 02s12rBC           4775 	ljmp	00124$
   145D                    4776 00159$:
                           4777 ;	../../../contiki-sensinode//core/net/mac/contikimac.c:903: is_receiver_awake = 0;
   145D 90s00r02           4778 	mov	dptr,#_is_receiver_awake
   1460 E4                 4779 	clr	a
   1461 F0                 4780 	movx	@dptr,a
   1462 A3                 4781 	inc	dptr
   1463 F0                 4782 	movx	@dptr,a
   1464                    4783 00127$:
   1464 E5 81              4784 	mov	a,sp
   1466 24 FB              4785 	add	a,#0xFB
   1468 F5 81              4786 	mov	sp,a
   146A 02s00r00           4787 	ljmp	__sdcc_banked_ret
                           4788 ;------------------------------------------------------------
                           4789 ;Allocation info for local variables in function 'recv_burst_off'
                           4790 ;------------------------------------------------------------
                           4791 ;ptr                       Allocated to registers 
                           4792 ;------------------------------------------------------------
                           4793 ;	../../../contiki-sensinode//core/net/mac/contikimac.c:909: recv_burst_off(void *ptr)
                           4794 ;	-----------------------------------------
                           4795 ;	 function recv_burst_off
                           4796 ;	-----------------------------------------
   146D                    4797 _recv_burst_off:
                           4798 ;	../../../contiki-sensinode//core/net/mac/contikimac.c:911: off();
   146D 78r40              4799 	mov	r0,#_off
   146F 79s00              4800 	mov	r1,#(_off >> 8)
   1471 7As00              4801 	mov	r2,#(_off >> 16)
   1473 12s00r00           4802 	lcall	__sdcc_banked_call
                           4803 ;	../../../contiki-sensinode//core/net/mac/contikimac.c:912: we_are_receiving_burst = 0;
   1476 90s00r00           4804 	mov	dptr,#_we_are_receiving_burst
   1479 E4                 4805 	clr	a
   147A F0                 4806 	movx	@dptr,a
   147B A3                 4807 	inc	dptr
   147C F0                 4808 	movx	@dptr,a
   147D 02s00r00           4809 	ljmp	__sdcc_banked_ret
                           4810 ;------------------------------------------------------------
                           4811 ;Allocation info for local variables in function 'input_packet'
                           4812 ;------------------------------------------------------------
                           4813 ;chdr                      Allocated to registers r5 r6 r7 
                           4814 ;i                         Allocated to stack - sp -6
                           4815 ;sloc0                     Allocated to stack - sp -4
                           4816 ;sloc1                     Allocated to stack - sp -2
                           4817 ;ct                        Allocated with name '_input_packet_ct_1_1'
                           4818 ;------------------------------------------------------------
                           4819 ;	../../../contiki-sensinode//core/net/mac/contikimac.c:916: input_packet(void)
                           4820 ;	-----------------------------------------
                           4821 ;	 function input_packet
                           4822 ;	-----------------------------------------
   1480                    4823 _input_packet:
   1480 E5 81              4824 	mov	a,sp
   1482 24 07              4825 	add	a,#0x07
   1484 F5 81              4826 	mov	sp,a
                           4827 ;	../../../contiki-sensinode//core/net/mac/contikimac.c:919: if(!we_are_receiving_burst) {
   1486 90s00r00           4828 	mov	dptr,#_we_are_receiving_burst
   1489 E0                 4829 	movx	a,@dptr
   148A FE                 4830 	mov	r6,a
   148B A3                 4831 	inc	dptr
   148C E0                 4832 	movx	a,@dptr
   148D FF                 4833 	mov	r7,a
   148E 4E                 4834 	orl	a,r6
   148F 70 09              4835 	jnz	00102$
                           4836 ;	../../../contiki-sensinode//core/net/mac/contikimac.c:920: off();
   1491 78r40              4837 	mov	r0,#_off
   1493 79s00              4838 	mov	r1,#(_off >> 8)
   1495 7As00              4839 	mov	r2,#(_off >> 16)
   1497 12s00r00           4840 	lcall	__sdcc_banked_call
   149A                    4841 00102$:
                           4842 ;	../../../contiki-sensinode//core/net/mac/contikimac.c:929: if(packetbuf_totlen() > 0 && NETSTACK_FRAMER.parse() >= 0) {
   149A 78r00              4843 	mov	r0,#_packetbuf_totlen
   149C 79s00              4844 	mov	r1,#(_packetbuf_totlen >> 8)
   149E 7As00              4845 	mov	r2,#(_packetbuf_totlen >> 16)
   14A0 12s00r00           4846 	lcall	__sdcc_banked_call
   14A3 E5 82              4847 	mov	a,dpl
   14A5 85 83 F0           4848 	mov	b,dph
   14A8 45 F0              4849 	orl	a,b
   14AA 70 03              4850 	jnz	00159$
   14AC 02s18r15           4851 	ljmp	00127$
   14AF                    4852 00159$:
   14AF 90s00r03           4853 	mov	dptr,#(_framer_802154 + 0x0003)
   14B2 E4                 4854 	clr	a
   14B3 93                 4855 	movc	a,@a+dptr
   14B4 FD                 4856 	mov	r5,a
   14B5 A3                 4857 	inc	dptr
   14B6 E4                 4858 	clr	a
   14B7 93                 4859 	movc	a,@a+dptr
   14B8 FE                 4860 	mov	r6,a
   14B9 A3                 4861 	inc	dptr
   14BA E4                 4862 	clr	a
   14BB 93                 4863 	movc	a,@a+dptr
   14BC FF                 4864 	mov	r7,a
   14BD C0 07              4865 	push	ar7
   14BF C0 05              4866 	push	ar5
   14C1 C0 06              4867 	push	ar6
   14C3 C0 07              4868 	push	ar7
   14C5 D0 02              4869 	pop	ar2
   14C7 D0 01              4870 	pop	ar1
   14C9 D0 00              4871 	pop	ar0
   14CB 12s00r00           4872 	lcall	__sdcc_banked_call
   14CE AD 82              4873 	mov	r5,dpl
   14D0 AE 83              4874 	mov	r6,dph
   14D2 D0 07              4875 	pop	ar7
   14D4 EE                 4876 	mov	a,r6
   14D5 30 E7 03           4877 	jnb	acc.7,00161$
   14D8 02s18r15           4878 	ljmp	00127$
   14DB                    4879 00161$:
                           4880 ;	../../../contiki-sensinode//core/net/mac/contikimac.c:933: chdr = packetbuf_dataptr();
   14DB 78r00              4881 	mov	r0,#_packetbuf_dataptr
   14DD 79s00              4882 	mov	r1,#(_packetbuf_dataptr >> 8)
   14DF 7As00              4883 	mov	r2,#(_packetbuf_dataptr >> 16)
   14E1 12s00r00           4884 	lcall	__sdcc_banked_call
                           4885 ;	../../../contiki-sensinode//core/net/mac/contikimac.c:934: if(chdr->id != CONTIKIMAC_ID) {
   14E4 AD 82              4886 	mov	r5,dpl
   14E6 AE 83              4887 	mov	r6,dph
   14E8 AF F0              4888 	mov	r7,b
   14EA 12s00r00           4889 	lcall	__gptrget
   14ED 60 03              4890 	jz	00104$
                           4891 ;	../../../contiki-sensinode//core/net/mac/contikimac.c:936: return;
   14EF 02s18r15           4892 	ljmp	00127$
   14F2                    4893 00104$:
                           4894 ;	../../../contiki-sensinode//core/net/mac/contikimac.c:938: packetbuf_hdrreduce(sizeof(struct hdr));
   14F2 90 00 02           4895 	mov	dptr,#0x0002
   14F5 C0 07              4896 	push	ar7
   14F7 C0 06              4897 	push	ar6
   14F9 C0 05              4898 	push	ar5
   14FB 78r00              4899 	mov	r0,#_packetbuf_hdrreduce
   14FD 79s00              4900 	mov	r1,#(_packetbuf_hdrreduce >> 8)
   14FF 7As00              4901 	mov	r2,#(_packetbuf_hdrreduce >> 16)
   1501 12s00r00           4902 	lcall	__sdcc_banked_call
   1504 D0 05              4903 	pop	ar5
   1506 D0 06              4904 	pop	ar6
   1508 D0 07              4905 	pop	ar7
                           4906 ;	../../../contiki-sensinode//core/net/mac/contikimac.c:939: packetbuf_set_datalen(chdr->len);
   150A 0D                 4907 	inc	r5
   150B BD 00 01           4908 	cjne	r5,#0x00,00163$
   150E 0E                 4909 	inc	r6
   150F                    4910 00163$:
   150F 8D 82              4911 	mov	dpl,r5
   1511 8E 83              4912 	mov	dph,r6
   1513 8F F0              4913 	mov	b,r7
   1515 12s00r00           4914 	lcall	__gptrget
   1518 FD                 4915 	mov	r5,a
   1519 7F 00              4916 	mov	r7,#0x00
   151B 8D 82              4917 	mov	dpl,r5
   151D 8F 83              4918 	mov	dph,r7
   151F 78r00              4919 	mov	r0,#_packetbuf_set_datalen
   1521 79s00              4920 	mov	r1,#(_packetbuf_set_datalen >> 8)
   1523 7As00              4921 	mov	r2,#(_packetbuf_set_datalen >> 16)
   1525 12s00r00           4922 	lcall	__sdcc_banked_call
                           4923 ;	../../../contiki-sensinode//core/net/mac/contikimac.c:942: if(packetbuf_datalen() > 0 &&
   1528 78r00              4924 	mov	r0,#_packetbuf_datalen
   152A 79s00              4925 	mov	r1,#(_packetbuf_datalen >> 8)
   152C 7As00              4926 	mov	r2,#(_packetbuf_datalen >> 16)
   152E 12s00r00           4927 	lcall	__sdcc_banked_call
   1531 E5 82              4928 	mov	a,dpl
   1533 85 83 F0           4929 	mov	b,dph
   1536 45 F0              4930 	orl	a,b
   1538 70 03              4931 	jnz	00164$
   153A 02s18r15           4932 	ljmp	00127$
   153D                    4933 00164$:
                           4934 ;	../../../contiki-sensinode//core/net/mac/contikimac.c:943: packetbuf_totlen() > 0 &&
   153D 78r00              4935 	mov	r0,#_packetbuf_totlen
   153F 79s00              4936 	mov	r1,#(_packetbuf_totlen >> 8)
   1541 7As00              4937 	mov	r2,#(_packetbuf_totlen >> 16)
   1543 12s00r00           4938 	lcall	__sdcc_banked_call
   1546 E5 82              4939 	mov	a,dpl
   1548 85 83 F0           4940 	mov	b,dph
   154B 45 F0              4941 	orl	a,b
   154D 70 03              4942 	jnz	00165$
   154F 02s18r15           4943 	ljmp	00127$
   1552                    4944 00165$:
                           4945 ;	../../../contiki-sensinode//core/net/mac/contikimac.c:945: &rimeaddr_node_addr) ||
                           4946 ;	../../../contiki-sensinode//core/net/mac/contikimac.c:944: (rimeaddr_cmp(packetbuf_addr(PACKETBUF_ADDR_RECEIVER),
   1552 75 82 19           4947 	mov	dpl,#0x19
   1555 78r00              4948 	mov	r0,#_packetbuf_addr
   1557 79s00              4949 	mov	r1,#(_packetbuf_addr >> 8)
   1559 7As00              4950 	mov	r2,#(_packetbuf_addr >> 16)
   155B 12s00r00           4951 	lcall	__sdcc_banked_call
   155E AD 82              4952 	mov	r5,dpl
   1560 AE 83              4953 	mov	r6,dph
   1562 AF F0              4954 	mov	r7,b
   1564 74r00              4955 	mov	a,#_rimeaddr_node_addr
   1566 C0 E0              4956 	push	acc
   1568 74s00              4957 	mov	a,#(_rimeaddr_node_addr >> 8)
   156A C0 E0              4958 	push	acc
   156C E4                 4959 	clr	a
   156D C0 E0              4960 	push	acc
   156F 8D 82              4961 	mov	dpl,r5
   1571 8E 83              4962 	mov	dph,r6
   1573 8F F0              4963 	mov	b,r7
   1575 78r00              4964 	mov	r0,#_rimeaddr_cmp
   1577 79s00              4965 	mov	r1,#(_rimeaddr_cmp >> 8)
   1579 7As00              4966 	mov	r2,#(_rimeaddr_cmp >> 16)
   157B 12s00r00           4967 	lcall	__sdcc_banked_call
   157E AE 82              4968 	mov	r6,dpl
   1580 AF 83              4969 	mov	r7,dph
   1582 15 81              4970 	dec	sp
   1584 15 81              4971 	dec	sp
   1586 15 81              4972 	dec	sp
   1588 EE                 4973 	mov	a,r6
   1589 4F                 4974 	orl	a,r7
   158A 70 3E              4975 	jnz	00111$
                           4976 ;	../../../contiki-sensinode//core/net/mac/contikimac.c:947: &rimeaddr_null))) {
                           4977 ;	../../../contiki-sensinode//core/net/mac/contikimac.c:946: rimeaddr_cmp(packetbuf_addr(PACKETBUF_ADDR_RECEIVER),
   158C 75 82 19           4978 	mov	dpl,#0x19
   158F 78r00              4979 	mov	r0,#_packetbuf_addr
   1591 79s00              4980 	mov	r1,#(_packetbuf_addr >> 8)
   1593 7As00              4981 	mov	r2,#(_packetbuf_addr >> 16)
   1595 12s00r00           4982 	lcall	__sdcc_banked_call
   1598 AD 82              4983 	mov	r5,dpl
   159A AE 83              4984 	mov	r6,dph
   159C AF F0              4985 	mov	r7,b
   159E 74r00              4986 	mov	a,#_rimeaddr_null
   15A0 C0 E0              4987 	push	acc
   15A2 74s00              4988 	mov	a,#(_rimeaddr_null >> 8)
   15A4 C0 E0              4989 	push	acc
   15A6 74 80              4990 	mov	a,#0x80
   15A8 C0 E0              4991 	push	acc
   15AA 8D 82              4992 	mov	dpl,r5
   15AC 8E 83              4993 	mov	dph,r6
   15AE 8F F0              4994 	mov	b,r7
   15B0 78r00              4995 	mov	r0,#_rimeaddr_cmp
   15B2 79s00              4996 	mov	r1,#(_rimeaddr_cmp >> 8)
   15B4 7As00              4997 	mov	r2,#(_rimeaddr_cmp >> 16)
   15B6 12s00r00           4998 	lcall	__sdcc_banked_call
   15B9 AE 82              4999 	mov	r6,dpl
   15BB AF 83              5000 	mov	r7,dph
   15BD 15 81              5001 	dec	sp
   15BF 15 81              5002 	dec	sp
   15C1 15 81              5003 	dec	sp
   15C3 EE                 5004 	mov	a,r6
   15C4 4F                 5005 	orl	a,r7
   15C5 70 03              5006 	jnz	00167$
   15C7 02s18r15           5007 	ljmp	00127$
   15CA                    5008 00167$:
   15CA                    5009 00111$:
                           5010 ;	../../../contiki-sensinode//core/net/mac/contikimac.c:952: we_are_receiving_burst = packetbuf_attr(PACKETBUF_ATTR_PENDING);
   15CA 75 82 12           5011 	mov	dpl,#0x12
   15CD 78r00              5012 	mov	r0,#_packetbuf_attr
   15CF 79s00              5013 	mov	r1,#(_packetbuf_attr >> 8)
   15D1 7As00              5014 	mov	r2,#(_packetbuf_attr >> 16)
   15D3 12s00r00           5015 	lcall	__sdcc_banked_call
   15D6 AE 82              5016 	mov	r6,dpl
   15D8 AF 83              5017 	mov	r7,dph
   15DA 90s00r00           5018 	mov	dptr,#_we_are_receiving_burst
   15DD EE                 5019 	mov	a,r6
   15DE F0                 5020 	movx	@dptr,a
   15DF A3                 5021 	inc	dptr
   15E0 EF                 5022 	mov	a,r7
   15E1 F0                 5023 	movx	@dptr,a
                           5024 ;	../../../contiki-sensinode//core/net/mac/contikimac.c:953: if(we_are_receiving_burst) {
   15E2 EE                 5025 	mov	a,r6
   15E3 4F                 5026 	orl	a,r7
   15E4 60 3A              5027 	jz	00106$
                           5028 ;	../../../contiki-sensinode//core/net/mac/contikimac.c:954: on();
   15E6 78r00              5029 	mov	r0,#_on
   15E8 79s00              5030 	mov	r1,#(_on >> 8)
   15EA 7As00              5031 	mov	r2,#(_on >> 16)
   15EC 12s00r00           5032 	lcall	__sdcc_banked_call
                           5033 ;	../../../contiki-sensinode//core/net/mac/contikimac.c:956: ctimer_set(&ct, INTER_PACKET_DEADLINE, recv_burst_off, NULL);
   15EF E4                 5034 	clr	a
   15F0 C0 E0              5035 	push	acc
   15F2 C0 E0              5036 	push	acc
   15F4 C0 E0              5037 	push	acc
   15F6 74r6D              5038 	mov	a,#_recv_burst_off
   15F8 C0 E0              5039 	push	acc
   15FA 74s14              5040 	mov	a,#(_recv_burst_off >> 8)
   15FC C0 E0              5041 	push	acc
   15FE 74s00              5042 	mov	a,#(_recv_burst_off >> 16)
   1600 C0 E0              5043 	push	acc
   1602 74 04              5044 	mov	a,#0x04
   1604 C0 E0              5045 	push	acc
   1606 E4                 5046 	clr	a
   1607 C0 E0              5047 	push	acc
   1609 90s02rE1           5048 	mov	dptr,#_input_packet_ct_1_1
   160C 75 F0 00           5049 	mov	b,#0x00
   160F 78r00              5050 	mov	r0,#_ctimer_set
   1611 79s00              5051 	mov	r1,#(_ctimer_set >> 8)
   1613 7As00              5052 	mov	r2,#(_ctimer_set >> 16)
   1615 12s00r00           5053 	lcall	__sdcc_banked_call
   1618 E5 81              5054 	mov	a,sp
   161A 24 F8              5055 	add	a,#0xf8
   161C F5 81              5056 	mov	sp,a
   161E 80 18              5057 	sjmp	00140$
   1620                    5058 00106$:
                           5059 ;	../../../contiki-sensinode//core/net/mac/contikimac.c:958: off();
   1620 78r40              5060 	mov	r0,#_off
   1622 79s00              5061 	mov	r1,#(_off >> 8)
   1624 7As00              5062 	mov	r2,#(_off >> 16)
   1626 12s00r00           5063 	lcall	__sdcc_banked_call
                           5064 ;	../../../contiki-sensinode//core/net/mac/contikimac.c:959: ctimer_stop(&ct);
   1629 90s02rE1           5065 	mov	dptr,#_input_packet_ct_1_1
   162C 75 F0 00           5066 	mov	b,#0x00
   162F 78r00              5067 	mov	r0,#_ctimer_stop
   1631 79s00              5068 	mov	r1,#(_ctimer_stop >> 8)
   1633 7As00              5069 	mov	r2,#(_ctimer_stop >> 16)
   1635 12s00r00           5070 	lcall	__sdcc_banked_call
                           5071 ;	../../../contiki-sensinode//core/net/mac/contikimac.c:966: for(i = 0; i < MAX_SEQNOS; ++i) {
   1638                    5072 00140$:
   1638 7E 00              5073 	mov	r6,#0x00
   163A 7F 00              5074 	mov	r7,#0x00
   163C 7C 00              5075 	mov	r4,#0x00
   163E 7D 00              5076 	mov	r5,#0x00
   1640                    5077 00119$:
   1640 C3                 5078 	clr	c
   1641 EE                 5079 	mov	a,r6
   1642 94 10              5080 	subb	a,#0x10
   1644 EF                 5081 	mov	a,r7
   1645 64 80              5082 	xrl	a,#0x80
   1647 94 80              5083 	subb	a,#0x80
   1649 40 03              5084 	jc	00169$
   164B 02s17r17           5085 	ljmp	00142$
   164E                    5086 00169$:
                           5087 ;	../../../contiki-sensinode//core/net/mac/contikimac.c:967: if(packetbuf_attr(PACKETBUF_ATTR_PACKET_ID) == received_seqnos[i].seqno &&
   164E C0 06              5088 	push	ar6
   1650 C0 07              5089 	push	ar7
   1652 75 82 0D           5090 	mov	dpl,#0x0D
   1655 C0 07              5091 	push	ar7
   1657 C0 06              5092 	push	ar6
   1659 C0 05              5093 	push	ar5
   165B C0 04              5094 	push	ar4
   165D 78r00              5095 	mov	r0,#_packetbuf_attr
   165F 79s00              5096 	mov	r1,#(_packetbuf_attr >> 8)
   1661 7As00              5097 	mov	r2,#(_packetbuf_attr >> 16)
   1663 12s00r00           5098 	lcall	__sdcc_banked_call
   1666 AA 82              5099 	mov	r2,dpl
   1668 AB 83              5100 	mov	r3,dph
   166A D0 04              5101 	pop	ar4
   166C D0 05              5102 	pop	ar5
   166E D0 06              5103 	pop	ar6
   1670 D0 07              5104 	pop	ar7
   1672 E5 81              5105 	mov	a,sp
   1674 24 FA              5106 	add	a,#0xfa
   1676 F8                 5107 	mov	r0,a
   1677 EC                 5108 	mov	a,r4
   1678 24r44              5109 	add	a,#_received_seqnos
   167A F6                 5110 	mov	@r0,a
   167B ED                 5111 	mov	a,r5
   167C 34s02              5112 	addc	a,#(_received_seqnos >> 8)
   167E 08                 5113 	inc	r0
   167F F6                 5114 	mov	@r0,a
   1680 E5 81              5115 	mov	a,sp
   1682 24 FA              5116 	add	a,#0xfa
   1684 F8                 5117 	mov	r0,a
   1685 74 08              5118 	mov	a,#0x08
   1687 26                 5119 	add	a,@r0
   1688 F5 82              5120 	mov	dpl,a
   168A E4                 5121 	clr	a
   168B 08                 5122 	inc	r0
   168C 36                 5123 	addc	a,@r0
   168D F5 83              5124 	mov	dph,a
   168F E0                 5125 	movx	a,@dptr
   1690 FF                 5126 	mov	r7,a
   1691 7E 00              5127 	mov	r6,#0x00
   1693 EA                 5128 	mov	a,r2
   1694 B5 07 06           5129 	cjne	a,ar7,00170$
   1697 EB                 5130 	mov	a,r3
   1698 B5 06 02           5131 	cjne	a,ar6,00170$
   169B 80 06              5132 	sjmp	00171$
   169D                    5133 00170$:
   169D D0 07              5134 	pop	ar7
   169F D0 06              5135 	pop	ar6
   16A1 80 65              5136 	sjmp	00121$
   16A3                    5137 00171$:
                           5138 ;	../../../contiki-sensinode//core/net/mac/contikimac.c:969: &received_seqnos[i].sender)) {
   16A3 E5 81              5139 	mov	a,sp
   16A5 24 FA              5140 	add	a,#0xfa
   16A7 F8                 5141 	mov	r0,a
   16A8 86 02              5142 	mov	ar2,@r0
   16AA 08                 5143 	inc	r0
   16AB 86 03              5144 	mov	ar3,@r0
   16AD E5 81              5145 	mov	a,sp
   16AF 24 FC              5146 	add	a,#0xfc
   16B1 F8                 5147 	mov	r0,a
   16B2 A6 02              5148 	mov	@r0,ar2
   16B4 08                 5149 	inc	r0
   16B5 A6 03              5150 	mov	@r0,ar3
   16B7 08                 5151 	inc	r0
   16B8 76 00              5152 	mov	@r0,#0x00
                           5153 ;	../../../contiki-sensinode//core/net/mac/contikimac.c:968: rimeaddr_cmp(packetbuf_addr(PACKETBUF_ADDR_SENDER),
   16BA 75 82 18           5154 	mov	dpl,#0x18
   16BD C0 05              5155 	push	ar5
   16BF C0 04              5156 	push	ar4
   16C1 78r00              5157 	mov	r0,#_packetbuf_addr
   16C3 79s00              5158 	mov	r1,#(_packetbuf_addr >> 8)
   16C5 7As00              5159 	mov	r2,#(_packetbuf_addr >> 16)
   16C7 12s00r00           5160 	lcall	__sdcc_banked_call
   16CA AB 82              5161 	mov	r3,dpl
   16CC AE 83              5162 	mov	r6,dph
   16CE AF F0              5163 	mov	r7,b
   16D0 E5 81              5164 	mov	a,sp
   16D2 24 FA              5165 	add	a,#0xfa
   16D4 F8                 5166 	mov	r0,a
   16D5 E6                 5167 	mov	a,@r0
   16D6 C0 E0              5168 	push	acc
   16D8 08                 5169 	inc	r0
   16D9 E6                 5170 	mov	a,@r0
   16DA C0 E0              5171 	push	acc
   16DC 08                 5172 	inc	r0
   16DD E6                 5173 	mov	a,@r0
   16DE C0 E0              5174 	push	acc
   16E0 8B 82              5175 	mov	dpl,r3
   16E2 8E 83              5176 	mov	dph,r6
   16E4 8F F0              5177 	mov	b,r7
   16E6 78r00              5178 	mov	r0,#_rimeaddr_cmp
   16E8 79s00              5179 	mov	r1,#(_rimeaddr_cmp >> 8)
   16EA 7As00              5180 	mov	r2,#(_rimeaddr_cmp >> 16)
   16EC 12s00r00           5181 	lcall	__sdcc_banked_call
   16EF AE 82              5182 	mov	r6,dpl
   16F1 AF 83              5183 	mov	r7,dph
   16F3 15 81              5184 	dec	sp
   16F5 15 81              5185 	dec	sp
   16F7 15 81              5186 	dec	sp
   16F9 D0 04              5187 	pop	ar4
   16FB D0 05              5188 	pop	ar5
   16FD EE                 5189 	mov	a,r6
   16FE 4F                 5190 	orl	a,r7
   16FF D0 07              5191 	pop	ar7
   1701 D0 06              5192 	pop	ar6
   1703 60 03              5193 	jz	00121$
                           5194 ;	../../../contiki-sensinode//core/net/mac/contikimac.c:972: return;
   1705 02s18r15           5195 	ljmp	00127$
   1708                    5196 00121$:
                           5197 ;	../../../contiki-sensinode//core/net/mac/contikimac.c:966: for(i = 0; i < MAX_SEQNOS; ++i) {
   1708 74 09              5198 	mov	a,#0x09
   170A 2C                 5199 	add	a,r4
   170B FC                 5200 	mov	r4,a
   170C E4                 5201 	clr	a
   170D 3D                 5202 	addc	a,r5
   170E FD                 5203 	mov	r5,a
   170F 0E                 5204 	inc	r6
   1710 BE 00 01           5205 	cjne	r6,#0x00,00173$
   1713 0F                 5206 	inc	r7
   1714                    5207 00173$:
   1714 02s16r40           5208 	ljmp	00119$
                           5209 ;	../../../contiki-sensinode//core/net/mac/contikimac.c:975: for(i = MAX_SEQNOS - 1; i > 0; --i) {
   1717                    5210 00142$:
   1717 E5 81              5211 	mov	a,sp
   1719 24 FA              5212 	add	a,#0xfa
   171B F8                 5213 	mov	r0,a
   171C 76 0F              5214 	mov	@r0,#0x0F
   171E 08                 5215 	inc	r0
   171F 76 00              5216 	mov	@r0,#0x00
   1721 7C 87              5217 	mov	r4,#0x87
   1723 7D 00              5218 	mov	r5,#0x00
   1725                    5219 00123$:
   1725 E5 81              5220 	mov	a,sp
   1727 24 FA              5221 	add	a,#0xfa
   1729 F8                 5222 	mov	r0,a
   172A C3                 5223 	clr	c
   172B E4                 5224 	clr	a
   172C 96                 5225 	subb	a,@r0
   172D E4                 5226 	clr	a
   172E 64 80              5227 	xrl	a,#0x80
   1730 08                 5228 	inc	r0
   1731 86 F0              5229 	mov	b,@r0
   1733 63 F0 80           5230 	xrl	b,#0x80
   1736 95 F0              5231 	subb	a,b
   1738 50 72              5232 	jnc	00126$
                           5233 ;	../../../contiki-sensinode//core/net/mac/contikimac.c:976: memcpy(&received_seqnos[i], &received_seqnos[i - 1],
   173A E5 81              5234 	mov	a,sp
   173C 24 FA              5235 	add	a,#0xfa
   173E F8                 5236 	mov	r0,a
   173F E6                 5237 	mov	a,@r0
   1740 14                 5238 	dec	a
   1741 75 F0 09           5239 	mov	b,#0x09
   1744 A4                 5240 	mul	ab
   1745 24r44              5241 	add	a,#_received_seqnos
   1747 FA                 5242 	mov	r2,a
   1748 E4                 5243 	clr	a
   1749 34s02              5244 	addc	a,#(_received_seqnos >> 8)
   174B FB                 5245 	mov	r3,a
   174C A8 81              5246 	mov	r0,sp
   174E 18                 5247 	dec	r0
   174F 18                 5248 	dec	r0
   1750 A6 02              5249 	mov	@r0,ar2
   1752 08                 5250 	inc	r0
   1753 A6 03              5251 	mov	@r0,ar3
   1755 08                 5252 	inc	r0
   1756 76 00              5253 	mov	@r0,#0x00
   1758 EC                 5254 	mov	a,r4
   1759 24r44              5255 	add	a,#_received_seqnos
   175B FE                 5256 	mov	r6,a
   175C ED                 5257 	mov	a,r5
   175D 34s02              5258 	addc	a,#(_received_seqnos >> 8)
   175F FF                 5259 	mov	r7,a
   1760 7B 00              5260 	mov	r3,#0x00
   1762 C0 05              5261 	push	ar5
   1764 C0 04              5262 	push	ar4
   1766 74 09              5263 	mov	a,#0x09
   1768 C0 E0              5264 	push	acc
   176A E4                 5265 	clr	a
   176B C0 E0              5266 	push	acc
   176D E5 81              5267 	mov	a,sp
   176F 24 FA              5268 	add	a,#0xfa
   1771 F8                 5269 	mov	r0,a
   1772 E6                 5270 	mov	a,@r0
   1773 C0 E0              5271 	push	acc
   1775 08                 5272 	inc	r0
   1776 E6                 5273 	mov	a,@r0
   1777 C0 E0              5274 	push	acc
   1779 08                 5275 	inc	r0
   177A E6                 5276 	mov	a,@r0
   177B C0 E0              5277 	push	acc
   177D 8E 82              5278 	mov	dpl,r6
   177F 8F 83              5279 	mov	dph,r7
   1781 8B F0              5280 	mov	b,r3
   1783 78r00              5281 	mov	r0,#_memcpy
   1785 79s00              5282 	mov	r1,#(_memcpy >> 8)
   1787 7As00              5283 	mov	r2,#(_memcpy >> 16)
   1789 12s00r00           5284 	lcall	__sdcc_banked_call
   178C E5 81              5285 	mov	a,sp
   178E 24 FB              5286 	add	a,#0xfb
   1790 F5 81              5287 	mov	sp,a
   1792 D0 04              5288 	pop	ar4
   1794 D0 05              5289 	pop	ar5
                           5290 ;	../../../contiki-sensinode//core/net/mac/contikimac.c:975: for(i = MAX_SEQNOS - 1; i > 0; --i) {
   1796 EC                 5291 	mov	a,r4
   1797 24 F7              5292 	add	a,#0xF7
   1799 FC                 5293 	mov	r4,a
   179A ED                 5294 	mov	a,r5
   179B 34 FF              5295 	addc	a,#0xFF
   179D FD                 5296 	mov	r5,a
   179E E5 81              5297 	mov	a,sp
   17A0 24 FA              5298 	add	a,#0xfa
   17A2 F8                 5299 	mov	r0,a
   17A3 16                 5300 	dec	@r0
   17A4 B6 FF 02           5301 	cjne	@r0,#0xFF,00175$
   17A7 08                 5302 	inc	r0
   17A8 16                 5303 	dec	@r0
   17A9                    5304 00175$:
   17A9 02s17r25           5305 	ljmp	00123$
   17AC                    5306 00126$:
                           5307 ;	../../../contiki-sensinode//core/net/mac/contikimac.c:979: received_seqnos[0].seqno = packetbuf_attr(PACKETBUF_ATTR_PACKET_ID);
   17AC 75 82 0D           5308 	mov	dpl,#0x0D
   17AF 78r00              5309 	mov	r0,#_packetbuf_attr
   17B1 79s00              5310 	mov	r1,#(_packetbuf_attr >> 8)
   17B3 7As00              5311 	mov	r2,#(_packetbuf_attr >> 16)
   17B5 12s00r00           5312 	lcall	__sdcc_banked_call
   17B8 AE 82              5313 	mov	r6,dpl
   17BA 90s02r4C           5314 	mov	dptr,#(_received_seqnos + 0x0008)
   17BD EE                 5315 	mov	a,r6
   17BE F0                 5316 	movx	@dptr,a
                           5317 ;	../../../contiki-sensinode//core/net/mac/contikimac.c:981: packetbuf_addr(PACKETBUF_ADDR_SENDER));
   17BF 75 82 18           5318 	mov	dpl,#0x18
   17C2 78r00              5319 	mov	r0,#_packetbuf_addr
   17C4 79s00              5320 	mov	r1,#(_packetbuf_addr >> 8)
   17C6 7As00              5321 	mov	r2,#(_packetbuf_addr >> 16)
   17C8 12s00r00           5322 	lcall	__sdcc_banked_call
   17CB AD 82              5323 	mov	r5,dpl
   17CD AE 83              5324 	mov	r6,dph
   17CF AF F0              5325 	mov	r7,b
                           5326 ;	../../../contiki-sensinode//core/net/mac/contikimac.c:980: rimeaddr_copy(&received_seqnos[0].sender,
   17D1 C0 05              5327 	push	ar5
   17D3 C0 06              5328 	push	ar6
   17D5 C0 07              5329 	push	ar7
   17D7 90s02r44           5330 	mov	dptr,#_received_seqnos
   17DA 75 F0 00           5331 	mov	b,#0x00
   17DD 78r00              5332 	mov	r0,#_rimeaddr_copy
   17DF 79s00              5333 	mov	r1,#(_rimeaddr_copy >> 8)
   17E1 7As00              5334 	mov	r2,#(_rimeaddr_copy >> 16)
   17E3 12s00r00           5335 	lcall	__sdcc_banked_call
   17E6 15 81              5336 	dec	sp
   17E8 15 81              5337 	dec	sp
   17EA 15 81              5338 	dec	sp
                           5339 ;	../../../contiki-sensinode//core/net/mac/contikimac.c:999: NETSTACK_MAC.input();
   17EC 90s00r09           5340 	mov	dptr,#(_csma_driver + 0x0009)
   17EF E4                 5341 	clr	a
   17F0 93                 5342 	movc	a,@a+dptr
   17F1 FD                 5343 	mov	r5,a
   17F2 A3                 5344 	inc	dptr
   17F3 E4                 5345 	clr	a
   17F4 93                 5346 	movc	a,@a+dptr
   17F5 FE                 5347 	mov	r6,a
   17F6 A3                 5348 	inc	dptr
   17F7 E4                 5349 	clr	a
   17F8 93                 5350 	movc	a,@a+dptr
   17F9 FF                 5351 	mov	r7,a
   17FA C0 07              5352 	push	ar7
   17FC C0 06              5353 	push	ar6
   17FE C0 05              5354 	push	ar5
   1800 C0 05              5355 	push	ar5
   1802 C0 06              5356 	push	ar6
   1804 C0 07              5357 	push	ar7
   1806 D0 02              5358 	pop	ar2
   1808 D0 01              5359 	pop	ar1
   180A D0 00              5360 	pop	ar0
   180C 12s00r00           5361 	lcall	__sdcc_banked_call
   180F D0 05              5362 	pop	ar5
   1811 D0 06              5363 	pop	ar6
   1813 D0 07              5364 	pop	ar7
                           5365 ;	../../../contiki-sensinode//core/net/mac/contikimac.c:1000: return;
   1815                    5366 00127$:
   1815 E5 81              5367 	mov	a,sp
   1817 24 F9              5368 	add	a,#0xF9
   1819 F5 81              5369 	mov	sp,a
   181B 02s00r00           5370 	ljmp	__sdcc_banked_ret
                           5371 ;------------------------------------------------------------
                           5372 ;Allocation info for local variables in function 'init'
                           5373 ;------------------------------------------------------------
                           5374 ;	../../../contiki-sensinode//core/net/mac/contikimac.c:1010: init(void)
                           5375 ;	-----------------------------------------
                           5376 ;	 function init
                           5377 ;	-----------------------------------------
   181E                    5378 _init:
                           5379 ;	../../../contiki-sensinode//core/net/mac/contikimac.c:1012: radio_is_on = 0;
   181E 90s00r07           5380 	mov	dptr,#_radio_is_on
                           5381 ;	../../../contiki-sensinode//core/net/mac/contikimac.c:1013: PT_INIT(&pt);
   1821 E4                 5382 	clr	a
   1822 F0                 5383 	movx	@dptr,a
   1823 90s00r08           5384 	mov	dptr,#_pt
   1826 F0                 5385 	movx	@dptr,a
   1827 A3                 5386 	inc	dptr
   1828 E4                 5387 	clr	a
   1829 F0                 5388 	movx	@dptr,a
                           5389 ;	../../../contiki-sensinode//core/net/mac/contikimac.c:1016: (void (*)(struct rtimer *, void *))powercycle, NULL);
   182A 7Dr7F              5390 	mov	r5,#_powercycle
   182C 7Es02              5391 	mov	r6,#(_powercycle >> 8)
   182E 7Fs00              5392 	mov	r7,#(_powercycle >> 16)
                           5393 ;	../../../contiki-sensinode//core/net/mac/contikimac.c:1015: rtimer_set(&rt, RTIMER_NOW() + CYCLE_TIME, 1,
   1830 AB E2              5394 	mov	r3,_T1CNTL
   1832 7C 00              5395 	mov	r4,#0x00
   1834 A9 E3              5396 	mov	r1,_T1CNTH
   1836 89 02              5397 	mov	ar2,r1
   1838 E4                 5398 	clr	a
   1839 2B                 5399 	add	a,r3
   183A FB                 5400 	mov	r3,a
   183B EA                 5401 	mov	a,r2
   183C 3C                 5402 	addc	a,r4
   183D FC                 5403 	mov	r4,a
   183E 74 A1              5404 	mov	a,#0xA1
   1840 2B                 5405 	add	a,r3
   1841 FB                 5406 	mov	r3,a
   1842 74 07              5407 	mov	a,#0x07
   1844 3C                 5408 	addc	a,r4
   1845 FC                 5409 	mov	r4,a
   1846 E4                 5410 	clr	a
   1847 C0 E0              5411 	push	acc
   1849 C0 E0              5412 	push	acc
   184B C0 E0              5413 	push	acc
   184D C0 05              5414 	push	ar5
   184F C0 06              5415 	push	ar6
   1851 C0 07              5416 	push	ar7
   1853 74 01              5417 	mov	a,#0x01
   1855 C0 E0              5418 	push	acc
   1857 E4                 5419 	clr	a
   1858 C0 E0              5420 	push	acc
   185A C0 03              5421 	push	ar3
   185C C0 04              5422 	push	ar4
   185E 90s00r00           5423 	mov	dptr,#_rt
   1861 75 F0 00           5424 	mov	b,#0x00
   1864 78r00              5425 	mov	r0,#_rtimer_set
   1866 79s00              5426 	mov	r1,#(_rtimer_set >> 8)
   1868 7As00              5427 	mov	r2,#(_rtimer_set >> 16)
   186A 12s00r00           5428 	lcall	__sdcc_banked_call
   186D E5 81              5429 	mov	a,sp
   186F 24 F6              5430 	add	a,#0xf6
   1871 F5 81              5431 	mov	sp,a
                           5432 ;	../../../contiki-sensinode//core/net/mac/contikimac.c:1018: contikimac_is_on = 1;
   1873 90s00r04           5433 	mov	dptr,#_contikimac_is_on
   1876 74 01              5434 	mov	a,#0x01
   1878 F0                 5435 	movx	@dptr,a
                           5436 ;	../../../contiki-sensinode//core/net/mac/contikimac.c:1021: phase_init(&phase_list);
   1879 90s00r18           5437 	mov	dptr,#_phase_list
   187C 75 F0 00           5438 	mov	b,#0x00
   187F 78r00              5439 	mov	r0,#_phase_init
   1881 79s00              5440 	mov	r1,#(_phase_init >> 8)
   1883 7As00              5441 	mov	r2,#(_phase_init >> 16)
   1885 12s00r00           5442 	lcall	__sdcc_banked_call
   1888 02s00r00           5443 	ljmp	__sdcc_banked_ret
                           5444 ;------------------------------------------------------------
                           5445 ;Allocation info for local variables in function 'turn_on'
                           5446 ;------------------------------------------------------------
                           5447 ;	../../../contiki-sensinode//core/net/mac/contikimac.c:1027: turn_on(void)
                           5448 ;	-----------------------------------------
                           5449 ;	 function turn_on
                           5450 ;	-----------------------------------------
   188B                    5451 _turn_on:
                           5452 ;	../../../contiki-sensinode//core/net/mac/contikimac.c:1029: if(contikimac_is_on == 0) {
   188B 90s00r04           5453 	mov	dptr,#_contikimac_is_on
   188E E0                 5454 	movx	a,@dptr
   188F FF                 5455 	mov	r7,a
   1890 70 54              5456 	jnz	00102$
                           5457 ;	../../../contiki-sensinode//core/net/mac/contikimac.c:1030: contikimac_is_on = 1;
   1892 90s00r04           5458 	mov	dptr,#_contikimac_is_on
   1895 74 01              5459 	mov	a,#0x01
   1897 F0                 5460 	movx	@dptr,a
                           5461 ;	../../../contiki-sensinode//core/net/mac/contikimac.c:1031: contikimac_keep_radio_on = 0;
   1898 90s00r05           5462 	mov	dptr,#_contikimac_keep_radio_on
   189B E4                 5463 	clr	a
   189C F0                 5464 	movx	@dptr,a
                           5465 ;	../../../contiki-sensinode//core/net/mac/contikimac.c:1033: (void (*)(struct rtimer *, void *))powercycle, NULL);
   189D 7Dr7F              5466 	mov	r5,#_powercycle
   189F 7Es02              5467 	mov	r6,#(_powercycle >> 8)
   18A1 7Fs00              5468 	mov	r7,#(_powercycle >> 16)
                           5469 ;	../../../contiki-sensinode//core/net/mac/contikimac.c:1032: rtimer_set(&rt, RTIMER_NOW() + CYCLE_TIME, 1,
   18A3 AB E2              5470 	mov	r3,_T1CNTL
   18A5 7C 00              5471 	mov	r4,#0x00
   18A7 A9 E3              5472 	mov	r1,_T1CNTH
   18A9 89 02              5473 	mov	ar2,r1
   18AB E4                 5474 	clr	a
   18AC 2B                 5475 	add	a,r3
   18AD FB                 5476 	mov	r3,a
   18AE EA                 5477 	mov	a,r2
   18AF 3C                 5478 	addc	a,r4
   18B0 FC                 5479 	mov	r4,a
   18B1 74 A1              5480 	mov	a,#0xA1
   18B3 2B                 5481 	add	a,r3
   18B4 FB                 5482 	mov	r3,a
   18B5 74 07              5483 	mov	a,#0x07
   18B7 3C                 5484 	addc	a,r4
   18B8 FC                 5485 	mov	r4,a
   18B9 E4                 5486 	clr	a
   18BA C0 E0              5487 	push	acc
   18BC C0 E0              5488 	push	acc
   18BE C0 E0              5489 	push	acc
   18C0 C0 05              5490 	push	ar5
   18C2 C0 06              5491 	push	ar6
   18C4 C0 07              5492 	push	ar7
   18C6 74 01              5493 	mov	a,#0x01
   18C8 C0 E0              5494 	push	acc
   18CA E4                 5495 	clr	a
   18CB C0 E0              5496 	push	acc
   18CD C0 03              5497 	push	ar3
   18CF C0 04              5498 	push	ar4
   18D1 90s00r00           5499 	mov	dptr,#_rt
   18D4 75 F0 00           5500 	mov	b,#0x00
   18D7 78r00              5501 	mov	r0,#_rtimer_set
   18D9 79s00              5502 	mov	r1,#(_rtimer_set >> 8)
   18DB 7As00              5503 	mov	r2,#(_rtimer_set >> 16)
   18DD 12s00r00           5504 	lcall	__sdcc_banked_call
   18E0 E5 81              5505 	mov	a,sp
   18E2 24 F6              5506 	add	a,#0xf6
   18E4 F5 81              5507 	mov	sp,a
   18E6                    5508 00102$:
                           5509 ;	../../../contiki-sensinode//core/net/mac/contikimac.c:1035: return 1;
   18E6 90 00 01           5510 	mov	dptr,#0x0001
   18E9 02s00r00           5511 	ljmp	__sdcc_banked_ret
                           5512 ;------------------------------------------------------------
                           5513 ;Allocation info for local variables in function 'turn_off'
                           5514 ;------------------------------------------------------------
                           5515 ;keep_radio_on             Allocated to registers r6 r7 
                           5516 ;------------------------------------------------------------
                           5517 ;	../../../contiki-sensinode//core/net/mac/contikimac.c:1039: turn_off(int keep_radio_on)
                           5518 ;	-----------------------------------------
                           5519 ;	 function turn_off
                           5520 ;	-----------------------------------------
   18EC                    5521 _turn_off:
   18EC AE 82              5522 	mov	r6,dpl
   18EE AF 83              5523 	mov	r7,dph
                           5524 ;	../../../contiki-sensinode//core/net/mac/contikimac.c:1041: contikimac_is_on = 0;
   18F0 90s00r04           5525 	mov	dptr,#_contikimac_is_on
   18F3 E4                 5526 	clr	a
   18F4 F0                 5527 	movx	@dptr,a
                           5528 ;	../../../contiki-sensinode//core/net/mac/contikimac.c:1042: contikimac_keep_radio_on = keep_radio_on;
   18F5 90s00r05           5529 	mov	dptr,#_contikimac_keep_radio_on
   18F8 EE                 5530 	mov	a,r6
   18F9 F0                 5531 	movx	@dptr,a
                           5532 ;	../../../contiki-sensinode//core/net/mac/contikimac.c:1043: if(keep_radio_on) {
   18FA EE                 5533 	mov	a,r6
   18FB 4F                 5534 	orl	a,r7
   18FC 60 31              5535 	jz	00102$
                           5536 ;	../../../contiki-sensinode//core/net/mac/contikimac.c:1044: radio_is_on = 1;
   18FE 90s00r07           5537 	mov	dptr,#_radio_is_on
   1901 74 01              5538 	mov	a,#0x01
   1903 F0                 5539 	movx	@dptr,a
                           5540 ;	../../../contiki-sensinode//core/net/mac/contikimac.c:1045: return NETSTACK_RADIO.on();
   1904 90s00r18           5541 	mov	dptr,#(_cc2530_rf_driver + 0x0018)
   1907 E4                 5542 	clr	a
   1908 93                 5543 	movc	a,@a+dptr
   1909 FD                 5544 	mov	r5,a
   190A A3                 5545 	inc	dptr
   190B E4                 5546 	clr	a
   190C 93                 5547 	movc	a,@a+dptr
   190D FE                 5548 	mov	r6,a
   190E A3                 5549 	inc	dptr
   190F E4                 5550 	clr	a
   1910 93                 5551 	movc	a,@a+dptr
   1911 FF                 5552 	mov	r7,a
   1912 C0 07              5553 	push	ar7
   1914 C0 05              5554 	push	ar5
   1916 C0 06              5555 	push	ar6
   1918 C0 07              5556 	push	ar7
   191A D0 02              5557 	pop	ar2
   191C D0 01              5558 	pop	ar1
   191E D0 00              5559 	pop	ar0
   1920 12s00r00           5560 	lcall	__sdcc_banked_call
   1923 AD 82              5561 	mov	r5,dpl
   1925 AE 83              5562 	mov	r6,dph
   1927 D0 07              5563 	pop	ar7
   1929 8D 82              5564 	mov	dpl,r5
   192B 8E 83              5565 	mov	dph,r6
   192D 80 2E              5566 	sjmp	00104$
   192F                    5567 00102$:
                           5568 ;	../../../contiki-sensinode//core/net/mac/contikimac.c:1047: radio_is_on = 0;
   192F 90s00r07           5569 	mov	dptr,#_radio_is_on
   1932 E4                 5570 	clr	a
   1933 F0                 5571 	movx	@dptr,a
                           5572 ;	../../../contiki-sensinode//core/net/mac/contikimac.c:1048: return NETSTACK_RADIO.off();
   1934 90s00r1B           5573 	mov	dptr,#(_cc2530_rf_driver + 0x001b)
   1937 E4                 5574 	clr	a
   1938 93                 5575 	movc	a,@a+dptr
   1939 FD                 5576 	mov	r5,a
   193A A3                 5577 	inc	dptr
   193B E4                 5578 	clr	a
   193C 93                 5579 	movc	a,@a+dptr
   193D FE                 5580 	mov	r6,a
   193E A3                 5581 	inc	dptr
   193F E4                 5582 	clr	a
   1940 93                 5583 	movc	a,@a+dptr
   1941 FF                 5584 	mov	r7,a
   1942 C0 07              5585 	push	ar7
   1944 C0 05              5586 	push	ar5
   1946 C0 06              5587 	push	ar6
   1948 C0 07              5588 	push	ar7
   194A D0 02              5589 	pop	ar2
   194C D0 01              5590 	pop	ar1
   194E D0 00              5591 	pop	ar0
   1950 12s00r00           5592 	lcall	__sdcc_banked_call
   1953 AD 82              5593 	mov	r5,dpl
   1955 AE 83              5594 	mov	r6,dph
   1957 D0 07              5595 	pop	ar7
   1959 8D 82              5596 	mov	dpl,r5
   195B 8E 83              5597 	mov	dph,r6
   195D                    5598 00104$:
   195D 02s00r00           5599 	ljmp	__sdcc_banked_ret
                           5600 ;------------------------------------------------------------
                           5601 ;Allocation info for local variables in function 'duty_cycle'
                           5602 ;------------------------------------------------------------
                           5603 ;	../../../contiki-sensinode//core/net/mac/contikimac.c:1053: duty_cycle(void)
                           5604 ;	-----------------------------------------
                           5605 ;	 function duty_cycle
                           5606 ;	-----------------------------------------
   1960                    5607 _duty_cycle:
                           5608 ;	../../../contiki-sensinode//core/net/mac/contikimac.c:1055: return (1ul * CLOCK_SECOND * CYCLE_TIME) / RTIMER_ARCH_SECOND;
   1960 90 00 0F           5609 	mov	dptr,#0x000F
   1963 02s00r00           5610 	ljmp	__sdcc_banked_ret
                           5611 ;------------------------------------------------------------
                           5612 ;Allocation info for local variables in function 'contikimac_debug_print'
                           5613 ;------------------------------------------------------------
                           5614 ;	../../../contiki-sensinode//core/net/mac/contikimac.c:1070: contikimac_debug_print(void)
                           5615 ;	-----------------------------------------
                           5616 ;	 function contikimac_debug_print
                           5617 ;	-----------------------------------------
   1966                    5618 _contikimac_debug_print:
                           5619 ;	../../../contiki-sensinode//core/net/mac/contikimac.c:1072: return 0;
   1966 90 00 00           5620 	mov	dptr,#0x0000
   1969 02s00r00           5621 	ljmp	__sdcc_banked_ret
                           5622 	.area CSEG    (CODE)
                           5623 	.area CONST   (CODE)
   0000                    5624 __str_0:
   0000 73 63 68 65 64 75  5625 	.ascii "schedule_powercycle: could not set rtimer"
        6C 65 5F 70 6F 77
        65 72 63 79 63 6C
        65 3A 20 63 6F 75
        6C 64 20 6E 6F 74
        20 73 65 74 20 72
        74 69 6D 65 72
   0029 0A                 5626 	.db 0x0A
   002A 00                 5627 	.db 0x00
   002B                    5628 _contikimac_driver:
   002Br43s00 80           5629 	.byte _str_1,(_str_1 >> 8),#0x80
   002Er1Es18s00           5630 	.byte _init,(_init >> 8),(_init >> 16)
   0031r6Es11s00           5631 	.byte _qsend_packet,(_qsend_packet >> 8),(_qsend_packet >> 16)
   0034rF8s11s00           5632 	.byte _qsend_list,(_qsend_list >> 8),(_qsend_list >> 16)
   0037r80s14s00           5633 	.byte _input_packet,(_input_packet >> 8),(_input_packet >> 16)
   003Ar8Bs18s00           5634 	.byte _turn_on,(_turn_on >> 8),(_turn_on >> 16)
   003DrECs18s00           5635 	.byte _turn_off,(_turn_off >> 8),(_turn_off >> 16)
   0040r60s19s00           5636 	.byte _duty_cycle,(_duty_cycle >> 8),(_duty_cycle >> 16)
   0043                    5637 _str_1:
   0043 43 6F 6E 74 69 6B  5638 	.ascii "ContikiMAC"
        69 4D 41 43
   004D 00                 5639 	.db 0x00
                           5640 	.area XINIT   (CODE)
   0000                    5641 __xinit__we_are_receiving_burst:
   0000 00 00              5642 	.byte #0x00,#0x00	;  0
   0002                    5643 __xinit__is_receiver_awake:
   0002 00 00              5644 	.byte #0x00,#0x00	;  0
   0004                    5645 __xinit__contikimac_is_on:
   0004 00                 5646 	.db #0x00	; 0
   0005                    5647 __xinit__contikimac_keep_radio_on:
   0005 00                 5648 	.db #0x00	; 0
   0006                    5649 __xinit__we_are_sending:
   0006 00                 5650 	.db #0x00	; 0
   0007                    5651 __xinit__radio_is_on:
   0007 00                 5652 	.db #0x00	; 0
   0008                    5653 __xinit__phase_list_list_list:
                           5654 ; generic printIvalPtr
   0008 00 00 00           5655 	.byte #0x00,#0x00,#0x00
   000B                    5656 __xinit__phase_list_list:
   000Br08s00 00           5657 	.byte _phase_list_list_list,(_phase_list_list_list >> 8),#0x00
   000E                    5658 __xinit__phase_list_memb:
   000E 12 00              5659 	.byte #0x12,#0x00	; 18
   0010 1E 00              5660 	.byte #0x1E,#0x00	; 30
   0012r0As00 00           5661 	.byte _phase_list_memb_memb_count,(_phase_list_memb_memb_count >> 8),#0x00
   0015r28s00 00           5662 	.byte _phase_list_memb_memb_mem,(_phase_list_memb_memb_mem >> 8),#0x00
   0018                    5663 __xinit__phase_list:
   0018r0Bs00 00           5664 	.byte _phase_list_list,(_phase_list_list >> 8),#0x00
   001Br0Es00 00           5665 	.byte _phase_list_memb,(_phase_list_memb >> 8),#0x00
                           5666 	.area CABS    (ABS,CODE)
