                              1 ;--------------------------------------------------------
                              2 ; File Created by SDCC : free open source ANSI-C Compiler
                              3 ; Version 3.1.1 #7100 (Oct 29 2014) (Linux)
                              4 ; This file was generated Wed Dec  2 18:10:49 2015
                              5 ;--------------------------------------------------------
                              6 	.module cxmac
                              7 	.optsdcc -mmcs51 --model-huge
                              8 	
                              9 ;--------------------------------------------------------
                             10 ; Public variables in this module
                             11 ;--------------------------------------------------------
                             12 	.globl _cxmac_driver
                             13 	.globl _cxmac_init
                             14 	.globl _cxmac_set_announcement_radio_txpower
                             15 	.globl _memb_alloc
                             16 	.globl _memb_init
                             17 	.globl _list_item_next
                             18 	.globl _list_add
                             19 	.globl _list_head
                             20 	.globl _list_init
                             21 	.globl _queuebuf_free
                             22 	.globl _queuebuf_to_packetbuf
                             23 	.globl _queuebuf_new_from_packetbuf
                             24 	.globl _packetbuf_addr
                             25 	.globl _packetbuf_set_addr
                             26 	.globl _packetbuf_attr
                             27 	.globl _packetbuf_compact
                             28 	.globl _packetbuf_set_datalen
                             29 	.globl _packetbuf_totlen
                             30 	.globl _packetbuf_hdrptr
                             31 	.globl _packetbuf_dataptr
                             32 	.globl _packetbuf_clear
                             33 	.globl _ctimer_set
                             34 	.globl _rimeaddr_cmp
                             35 	.globl _rimeaddr_copy
                             36 	.globl _memcpy
                             37 	.globl _watchdog_periodic
                             38 	.globl _watchdog_start
                             39 	.globl _ACTIVE
                             40 	.globl _TX_BYTE
                             41 	.globl _RX_BYTE
                             42 	.globl _ERR
                             43 	.globl _FE
                             44 	.globl _SLAVE
                             45 	.globl _RE
                             46 	.globl _MODE
                             47 	.globl _T3OVFIF
                             48 	.globl _T3CH0IF
                             49 	.globl _T3CH1IF
                             50 	.globl _T4OVFIF
                             51 	.globl _T4CH0IF
                             52 	.globl _T4CH1IF
                             53 	.globl _OVFIM
                             54 	.globl _B_0
                             55 	.globl _B_1
                             56 	.globl _B_2
                             57 	.globl _B_3
                             58 	.globl _B_4
                             59 	.globl _B_5
                             60 	.globl _B_6
                             61 	.globl _B_7
                             62 	.globl _P2IF
                             63 	.globl _UTX0IF
                             64 	.globl _UTX1IF
                             65 	.globl _P1IF
                             66 	.globl _WDTIF
                             67 	.globl _ACC_0
                             68 	.globl _ACC_1
                             69 	.globl _ACC_2
                             70 	.globl _ACC_3
                             71 	.globl _ACC_4
                             72 	.globl _ACC_5
                             73 	.globl _ACC_6
                             74 	.globl _ACC_7
                             75 	.globl _P
                             76 	.globl _F1
                             77 	.globl _OV
                             78 	.globl _RS0
                             79 	.globl _RS1
                             80 	.globl _F0
                             81 	.globl _AC
                             82 	.globl _CY
                             83 	.globl _DMAIF
                             84 	.globl _T1IF
                             85 	.globl _T2IF
                             86 	.globl _T3IF
                             87 	.globl _T4IF
                             88 	.globl _P0IF
                             89 	.globl _STIF
                             90 	.globl _DMAIE
                             91 	.globl _T1IE
                             92 	.globl _T2IE
                             93 	.globl _T3IE
                             94 	.globl _T4IE
                             95 	.globl _P0IE
                             96 	.globl _RFERRIE
                             97 	.globl _ADCIE
                             98 	.globl _URX0IE
                             99 	.globl _URX1IE
                            100 	.globl _ENCIE
                            101 	.globl _STIE
                            102 	.globl _EA
                            103 	.globl _P2_0
                            104 	.globl _P2_1
                            105 	.globl _P2_2
                            106 	.globl _P2_3
                            107 	.globl _P2_4
                            108 	.globl _P2_5
                            109 	.globl _P2_6
                            110 	.globl _P2_7
                            111 	.globl _ENCIF_0
                            112 	.globl _ENCIF_1
                            113 	.globl _P1_0
                            114 	.globl _P1_1
                            115 	.globl _P1_2
                            116 	.globl _P1_3
                            117 	.globl _P1_4
                            118 	.globl _P1_5
                            119 	.globl _P1_6
                            120 	.globl _P1_7
                            121 	.globl _IT0
                            122 	.globl _RFERRIF
                            123 	.globl _IT1
                            124 	.globl _URX0IF
                            125 	.globl _ADCIF
                            126 	.globl _URX1IF
                            127 	.globl _P0_0
                            128 	.globl _P0_1
                            129 	.globl _P0_2
                            130 	.globl _P0_3
                            131 	.globl _P0_4
                            132 	.globl _P0_5
                            133 	.globl _P0_6
                            134 	.globl _P0_7
                            135 	.globl _WDCTL
                            136 	.globl _U1GCR
                            137 	.globl _U1UCR
                            138 	.globl _U1BAUD
                            139 	.globl _U1DBUF
                            140 	.globl _U1CSR
                            141 	.globl _U0GCR
                            142 	.globl _U0UCR
                            143 	.globl _U0BAUD
                            144 	.globl _U0DBUF
                            145 	.globl _U0CSR
                            146 	.globl _TIMIF
                            147 	.globl _T4CC1
                            148 	.globl _T4CCTL1
                            149 	.globl _T4CC0
                            150 	.globl _T4CCTL0
                            151 	.globl _T4CTL
                            152 	.globl _T4CNT
                            153 	.globl _T3CC1
                            154 	.globl _T3CCTL1
                            155 	.globl _T3CC0
                            156 	.globl _T3CCTL0
                            157 	.globl _T3CTL
                            158 	.globl _T3CNT
                            159 	.globl _T2MSEL
                            160 	.globl _T2IRQM
                            161 	.globl _T2MOVF2
                            162 	.globl _T2MOVF1
                            163 	.globl _T2MOVF0
                            164 	.globl _T2M1
                            165 	.globl _T2M0
                            166 	.globl _T2IRQF
                            167 	.globl _T2EVTCFG
                            168 	.globl _T2CTRL
                            169 	.globl _T1STAT
                            170 	.globl _T1CCTL2
                            171 	.globl _T1CCTL1
                            172 	.globl _T1CCTL0
                            173 	.globl _T1CTL
                            174 	.globl _T1CNTH
                            175 	.globl _T1CNTL
                            176 	.globl _T1CC2H
                            177 	.globl _T1CC2L
                            178 	.globl _T1CC1H
                            179 	.globl _T1CC1L
                            180 	.globl _T1CC0H
                            181 	.globl _T1CC0L
                            182 	.globl _CLKCONSTA
                            183 	.globl _CLKCONCMD
                            184 	.globl _SLEEPSTA
                            185 	.globl _SLEEPCMD
                            186 	.globl _STLOAD
                            187 	.globl _ST2
                            188 	.globl _ST1
                            189 	.globl _ST0
                            190 	.globl _RFERRF
                            191 	.globl _RFIRQF0
                            192 	.globl _RFST
                            193 	.globl _RFD
                            194 	.globl _RFIRQF1
                            195 	.globl _PSBANK
                            196 	.globl _FMAP
                            197 	.globl _MEMCTR
                            198 	.globl __XPAGE
                            199 	.globl _MPAGE
                            200 	.globl _PMUX
                            201 	.globl _P2DIR
                            202 	.globl _P1DIR
                            203 	.globl _P0DIR
                            204 	.globl _P2INP
                            205 	.globl _P1INP
                            206 	.globl _P2SEL
                            207 	.globl _P1SEL
                            208 	.globl _P0SEL
                            209 	.globl _APCFG
                            210 	.globl _PERCFG
                            211 	.globl _P0INP
                            212 	.globl _P2IEN
                            213 	.globl _P1IEN
                            214 	.globl _P0IEN
                            215 	.globl _PICTL
                            216 	.globl _P2IFG
                            217 	.globl _P1IFG
                            218 	.globl _P0IFG
                            219 	.globl _DMAREQ
                            220 	.globl _DMAARM
                            221 	.globl _DMA0CFGH
                            222 	.globl _DMA0CFGL
                            223 	.globl _DMA1CFGH
                            224 	.globl _DMA1CFGL
                            225 	.globl _DMAIRQ
                            226 	.globl _ENCCS
                            227 	.globl _ENCDO
                            228 	.globl _ENCDI
                            229 	.globl _RNDH
                            230 	.globl _RNDL
                            231 	.globl _ADCH
                            232 	.globl _ADCL
                            233 	.globl _ADCCON3
                            234 	.globl _ADCCON2
                            235 	.globl _ADCCON1
                            236 	.globl _B
                            237 	.globl _IRCON2
                            238 	.globl _ACC
                            239 	.globl _PSW
                            240 	.globl _IRCON
                            241 	.globl _IP1
                            242 	.globl _IEN1
                            243 	.globl _IP0
                            244 	.globl _IEN0
                            245 	.globl _P2
                            246 	.globl _S1CON
                            247 	.globl _IEN2
                            248 	.globl _S0CON
                            249 	.globl _DPS
                            250 	.globl _P1
                            251 	.globl _TCON
                            252 	.globl _PCON
                            253 	.globl _DPH1
                            254 	.globl _DPL1
                            255 	.globl _DPH0
                            256 	.globl _DPL0
                            257 	.globl _SP
                            258 	.globl _P0
                            259 	.globl _cxmac_config
                            260 	.globl _X_IEEE_ADDR
                            261 	.globl _X_INFOPAGE
                            262 	.globl _X_P2DIR
                            263 	.globl _X_P1DIR
                            264 	.globl _X_P0DIR
                            265 	.globl _X_U1GCR
                            266 	.globl _X_U1UCR
                            267 	.globl _X_U1BAUD
                            268 	.globl _X_U1DBUF
                            269 	.globl _X_U1CSR
                            270 	.globl _X_P2INP
                            271 	.globl _X_P1INP
                            272 	.globl _X_P2SEL
                            273 	.globl _X_P1SEL
                            274 	.globl _X_P0SEL
                            275 	.globl _X_APCFG
                            276 	.globl _X_PERCFG
                            277 	.globl _X_T4CC1
                            278 	.globl _X_T4CCTL1
                            279 	.globl _X_T4CC0
                            280 	.globl _X_T4CCTL0
                            281 	.globl _X_T4CTL
                            282 	.globl _X_T4CNT
                            283 	.globl _X_RFIRQF0
                            284 	.globl _X_T1CCTL2
                            285 	.globl _X_T1CCTL1
                            286 	.globl _X_T1CCTL0
                            287 	.globl _X_T1CTL
                            288 	.globl _X_T1CNTH
                            289 	.globl _X_T1CNTL
                            290 	.globl _X_RFST
                            291 	.globl _X_T1CC2H
                            292 	.globl _X_T1CC2L
                            293 	.globl _X_T1CC1H
                            294 	.globl _X_T1CC1L
                            295 	.globl _X_T1CC0H
                            296 	.globl _X_T1CC0L
                            297 	.globl _X_RFD
                            298 	.globl _X_TIMIF
                            299 	.globl _X_DMAREQ
                            300 	.globl _X_DMAARM
                            301 	.globl _X_DMA0CFGH
                            302 	.globl _X_DMA0CFGL
                            303 	.globl _X_DMA1CFGH
                            304 	.globl _X_DMA1CFGL
                            305 	.globl _X_DMAIRQ
                            306 	.globl _X_T3CC1
                            307 	.globl _X_T3CCTL1
                            308 	.globl _X_T3CC0
                            309 	.globl _X_T3CCTL0
                            310 	.globl _X_T3CTL
                            311 	.globl _X_T3CNT
                            312 	.globl _X_WDCTL
                            313 	.globl _X_MEMCTR
                            314 	.globl _X_CLKCONCMD
                            315 	.globl _X_U0GCR
                            316 	.globl _X_U0UCR
                            317 	.globl _X_T2MSEL
                            318 	.globl _X_U0BAUD
                            319 	.globl _X_U0DBUF
                            320 	.globl _X_RFERRF
                            321 	.globl _X_SLEEPCMD
                            322 	.globl _X_RNDH
                            323 	.globl _X_RNDL
                            324 	.globl _X_ADCH
                            325 	.globl _X_ADCL
                            326 	.globl _X_ADCCON3
                            327 	.globl _X_ADCCON2
                            328 	.globl _X_ADCCON1
                            329 	.globl _X_ENCCS
                            330 	.globl _X_ENCDO
                            331 	.globl _X_ENCDI
                            332 	.globl _X_T1STAT
                            333 	.globl _X_PMUX
                            334 	.globl _X_STLOAD
                            335 	.globl _X_P2IEN
                            336 	.globl _X_P0IEN
                            337 	.globl _X_T2IRQM
                            338 	.globl _X_T2MOVF2
                            339 	.globl _X_T2MOVF1
                            340 	.globl _X_T2MOVF0
                            341 	.globl _X_T2M1
                            342 	.globl _X_T2M0
                            343 	.globl _X_T2IRQF
                            344 	.globl _X_P2
                            345 	.globl _X_PSBANK
                            346 	.globl _X_FMAP
                            347 	.globl _X_CLKCONSTA
                            348 	.globl _X_SLEEPSTA
                            349 	.globl _X_T2EVTCFG
                            350 	.globl _X_ST2
                            351 	.globl _X_ST1
                            352 	.globl _X_ST0
                            353 	.globl _X_T2CTRL
                            354 	.globl _X__XPAGE
                            355 	.globl _X_MPAGE
                            356 	.globl _X_RFIRQF1
                            357 	.globl _X_P1
                            358 	.globl _X_P0INP
                            359 	.globl _X_P1IEN
                            360 	.globl _X_PICTL
                            361 	.globl _X_P2IFG
                            362 	.globl _X_P1IFG
                            363 	.globl _X_P0IFG
                            364 	.globl _X_U0CSR
                            365 	.globl _X_P0
                            366 	.globl _USBF5
                            367 	.globl _USBF4
                            368 	.globl _USBF3
                            369 	.globl _USBF2
                            370 	.globl _USBF1
                            371 	.globl _USBF0
                            372 	.globl _USBCNTH
                            373 	.globl _USBCNTL
                            374 	.globl _USBCNT0
                            375 	.globl _USBCSOH
                            376 	.globl _USBCSOL
                            377 	.globl _USBMAXO
                            378 	.globl _USBCSIH
                            379 	.globl _USBCSIL
                            380 	.globl _USBCS0
                            381 	.globl _USBMAXI
                            382 	.globl _USBCTRL
                            383 	.globl _USBINDEX
                            384 	.globl _USBFRMH
                            385 	.globl _USBFRML
                            386 	.globl _USBCIE
                            387 	.globl _USBOIE
                            388 	.globl _USBIIE
                            389 	.globl _USBCIF
                            390 	.globl _USBOIF
                            391 	.globl _USBIIF
                            392 	.globl _USBPOW
                            393 	.globl _USBADDR
                            394 	.globl _CSPT
                            395 	.globl _CSPZ
                            396 	.globl _CSPY
                            397 	.globl _CSPX
                            398 	.globl _CSPSTAT
                            399 	.globl _CSPCTRL
                            400 	.globl _CSPPROG23
                            401 	.globl _CSPPROG22
                            402 	.globl _CSPPROG21
                            403 	.globl _CSPPROG20
                            404 	.globl _CSPPROG19
                            405 	.globl _CSPPROG18
                            406 	.globl _CSPPROG17
                            407 	.globl _CSPPROG16
                            408 	.globl _CSPPROG15
                            409 	.globl _CSPPROG14
                            410 	.globl _CSPPROG13
                            411 	.globl _CSPPROG12
                            412 	.globl _CSPPROG11
                            413 	.globl _CSPPROG10
                            414 	.globl _CSPPROG9
                            415 	.globl _CSPPROG8
                            416 	.globl _CSPPROG7
                            417 	.globl _CSPPROG6
                            418 	.globl _CSPPROG5
                            419 	.globl _CSPPROG4
                            420 	.globl _CSPPROG3
                            421 	.globl _CSPPROG2
                            422 	.globl _CSPPROG1
                            423 	.globl _CSPPROG0
                            424 	.globl _RFC_OBS_CTRL2
                            425 	.globl _RFC_OBS_CTRL1
                            426 	.globl _RFC_OBS_CTRL0
                            427 	.globl _TXFILTCFG
                            428 	.globl _PTEST1
                            429 	.globl _PTEST0
                            430 	.globl _ATEST
                            431 	.globl _DACTEST2
                            432 	.globl _DACTEST1
                            433 	.globl _DACTEST0
                            434 	.globl _MDMTEST1
                            435 	.globl _MDMTEST0
                            436 	.globl _ADCTEST2
                            437 	.globl _ADCTEST1
                            438 	.globl _ADCTEST0
                            439 	.globl _AGCCTRL3
                            440 	.globl _AGCCTRL2
                            441 	.globl _AGCCTRL1
                            442 	.globl _AGCCTRL0
                            443 	.globl _FSCAL3
                            444 	.globl _FSCAL2
                            445 	.globl _FSCAL1
                            446 	.globl _FSCAL0
                            447 	.globl _FSCTRL
                            448 	.globl _RXCTRL
                            449 	.globl _FREQEST
                            450 	.globl _MDMCTRL1
                            451 	.globl _MDMCTRL0
                            452 	.globl _RFRND
                            453 	.globl _RFERRM
                            454 	.globl _RFIRQM1
                            455 	.globl _RFIRQM0
                            456 	.globl _TXLAST_PTR
                            457 	.globl _TXFIRST_PTR
                            458 	.globl _RXP1_PTR
                            459 	.globl _RXLAST_PTR
                            460 	.globl _RXFIRST_PTR
                            461 	.globl _TXFIFOCNT
                            462 	.globl _RXFIFOCNT
                            463 	.globl _RXFIRST
                            464 	.globl _RSSISTAT
                            465 	.globl _RSSI
                            466 	.globl _CCACTRL1
                            467 	.globl _CCACTRL0
                            468 	.globl _FSMCTRL
                            469 	.globl _FIFOPCTRL
                            470 	.globl _FSMSTAT1
                            471 	.globl _FSMSTAT0
                            472 	.globl _TXCTRL
                            473 	.globl _TXPOWER
                            474 	.globl _FREQCTRL
                            475 	.globl _FREQTUNE
                            476 	.globl _RXMASKCLR
                            477 	.globl _RXMASKSET
                            478 	.globl _RXENABLE
                            479 	.globl _FRMCTRL1
                            480 	.globl _FRMCTRL0
                            481 	.globl _SRCEXTEN2
                            482 	.globl _SRCEXTEN1
                            483 	.globl _SRCEXTEN0
                            484 	.globl _SRCSHORTEN2
                            485 	.globl _SRCSHORTEN1
                            486 	.globl _SRCSHORTEN0
                            487 	.globl _SRCMATCH
                            488 	.globl _FRMFILT1
                            489 	.globl _FRMFILT0
                            490 	.globl _SHORT_ADDR1
                            491 	.globl _SHORT_ADDR0
                            492 	.globl _PAN_ID1
                            493 	.globl _PAN_ID0
                            494 	.globl _EXT_ADDR7
                            495 	.globl _EXT_ADDR6
                            496 	.globl _EXT_ADDR5
                            497 	.globl _EXT_ADDR4
                            498 	.globl _EXT_ADDR3
                            499 	.globl _EXT_ADDR2
                            500 	.globl _EXT_ADDR1
                            501 	.globl _EXT_ADDR0
                            502 	.globl _SRCSHORTPENDEN2
                            503 	.globl _SRCSHORTPENDEN1
                            504 	.globl _SRCSHORTPENDEN0
                            505 	.globl _SRCEXTPENDEN2
                            506 	.globl _SRCEXTPENDEN1
                            507 	.globl _SRCEXTPENDEN0
                            508 	.globl _SRCRESINDEX
                            509 	.globl _SRCRESMASK2
                            510 	.globl _SRCRESMASK1
                            511 	.globl _SRCRESMASK0
                            512 	.globl _SRC_ADDR_TABLE
                            513 	.globl _TXFIFO
                            514 	.globl _RXFIFO
                            515 	.globl _RFCORE_RAM
                            516 	.globl _CMPCTL
                            517 	.globl _OPAMPS
                            518 	.globl _OPAMPC
                            519 	.globl _STCV2
                            520 	.globl _STCV1
                            521 	.globl _STCV0
                            522 	.globl _STCS
                            523 	.globl _STCC
                            524 	.globl _T1CC4H
                            525 	.globl _T1CC4L
                            526 	.globl _T1CC3H
                            527 	.globl _T1CC3L
                            528 	.globl _XX_T1CC2H
                            529 	.globl _XX_T1CC2L
                            530 	.globl _XX_T1CC1H
                            531 	.globl _XX_T1CC1L
                            532 	.globl _XX_T1CC0H
                            533 	.globl _XX_T1CC0L
                            534 	.globl _T1CCTL4
                            535 	.globl _T1CCTL3
                            536 	.globl _XX_T1CCTL2
                            537 	.globl _XX_T1CCTL1
                            538 	.globl _XX_T1CCTL0
                            539 	.globl _CLD
                            540 	.globl _IRCTL
                            541 	.globl _CHIPINFO1
                            542 	.globl _CHIPINFO0
                            543 	.globl _FWDATA
                            544 	.globl _FADDRH
                            545 	.globl _FADDRL
                            546 	.globl _FCTL
                            547 	.globl _IVCTRL
                            548 	.globl _BATTMON
                            549 	.globl _SRCRC
                            550 	.globl _DBGDATA
                            551 	.globl _TESTREG0
                            552 	.globl _CHIPID
                            553 	.globl _CHVER
                            554 	.globl _OBSSEL5
                            555 	.globl _OBSSEL4
                            556 	.globl _OBSSEL3
                            557 	.globl _OBSSEL2
                            558 	.globl _OBSSEL1
                            559 	.globl _OBSSEL0
                            560 	.globl _I2CIO
                            561 	.globl _I2CWC
                            562 	.globl _I2CADDR
                            563 	.globl _I2CDATA
                            564 	.globl _I2CSTAT
                            565 	.globl _I2CCFG
                            566 	.globl _OPAMPMC
                            567 	.globl _MONMUX
                            568 ;--------------------------------------------------------
                            569 ; special function registers
                            570 ;--------------------------------------------------------
                            571 	.area RSEG    (ABS,DATA)
   0000                     572 	.org 0x0000
                    0080    573 _P0	=	0x0080
                    0081    574 _SP	=	0x0081
                    0082    575 _DPL0	=	0x0082
                    0083    576 _DPH0	=	0x0083
                    0084    577 _DPL1	=	0x0084
                    0085    578 _DPH1	=	0x0085
                    0087    579 _PCON	=	0x0087
                    0088    580 _TCON	=	0x0088
                    0090    581 _P1	=	0x0090
                    0092    582 _DPS	=	0x0092
                    0098    583 _S0CON	=	0x0098
                    009A    584 _IEN2	=	0x009a
                    009B    585 _S1CON	=	0x009b
                    00A0    586 _P2	=	0x00a0
                    00A8    587 _IEN0	=	0x00a8
                    00A9    588 _IP0	=	0x00a9
                    00B8    589 _IEN1	=	0x00b8
                    00B9    590 _IP1	=	0x00b9
                    00C0    591 _IRCON	=	0x00c0
                    00D0    592 _PSW	=	0x00d0
                    00E0    593 _ACC	=	0x00e0
                    00E8    594 _IRCON2	=	0x00e8
                    00F0    595 _B	=	0x00f0
                    00B4    596 _ADCCON1	=	0x00b4
                    00B5    597 _ADCCON2	=	0x00b5
                    00B6    598 _ADCCON3	=	0x00b6
                    00BA    599 _ADCL	=	0x00ba
                    00BB    600 _ADCH	=	0x00bb
                    00BC    601 _RNDL	=	0x00bc
                    00BD    602 _RNDH	=	0x00bd
                    00B1    603 _ENCDI	=	0x00b1
                    00B2    604 _ENCDO	=	0x00b2
                    00B3    605 _ENCCS	=	0x00b3
                    00D1    606 _DMAIRQ	=	0x00d1
                    00D2    607 _DMA1CFGL	=	0x00d2
                    00D3    608 _DMA1CFGH	=	0x00d3
                    00D4    609 _DMA0CFGL	=	0x00d4
                    00D5    610 _DMA0CFGH	=	0x00d5
                    00D6    611 _DMAARM	=	0x00d6
                    00D7    612 _DMAREQ	=	0x00d7
                    0089    613 _P0IFG	=	0x0089
                    008A    614 _P1IFG	=	0x008a
                    008B    615 _P2IFG	=	0x008b
                    008C    616 _PICTL	=	0x008c
                    00AB    617 _P0IEN	=	0x00ab
                    008D    618 _P1IEN	=	0x008d
                    00AC    619 _P2IEN	=	0x00ac
                    008F    620 _P0INP	=	0x008f
                    00F1    621 _PERCFG	=	0x00f1
                    00F2    622 _APCFG	=	0x00f2
                    00F3    623 _P0SEL	=	0x00f3
                    00F4    624 _P1SEL	=	0x00f4
                    00F5    625 _P2SEL	=	0x00f5
                    00F6    626 _P1INP	=	0x00f6
                    00F7    627 _P2INP	=	0x00f7
                    00FD    628 _P0DIR	=	0x00fd
                    00FE    629 _P1DIR	=	0x00fe
                    00FF    630 _P2DIR	=	0x00ff
                    00AE    631 _PMUX	=	0x00ae
                    0093    632 _MPAGE	=	0x0093
                    0093    633 __XPAGE	=	0x0093
                    00C7    634 _MEMCTR	=	0x00c7
                    009F    635 _FMAP	=	0x009f
                    009F    636 _PSBANK	=	0x009f
                    0091    637 _RFIRQF1	=	0x0091
                    00D9    638 _RFD	=	0x00d9
                    00E1    639 _RFST	=	0x00e1
                    00E9    640 _RFIRQF0	=	0x00e9
                    00BF    641 _RFERRF	=	0x00bf
                    0095    642 _ST0	=	0x0095
                    0096    643 _ST1	=	0x0096
                    0097    644 _ST2	=	0x0097
                    00AD    645 _STLOAD	=	0x00ad
                    00BE    646 _SLEEPCMD	=	0x00be
                    009D    647 _SLEEPSTA	=	0x009d
                    00C6    648 _CLKCONCMD	=	0x00c6
                    009E    649 _CLKCONSTA	=	0x009e
                    00DA    650 _T1CC0L	=	0x00da
                    00DB    651 _T1CC0H	=	0x00db
                    00DC    652 _T1CC1L	=	0x00dc
                    00DD    653 _T1CC1H	=	0x00dd
                    00DE    654 _T1CC2L	=	0x00de
                    00DF    655 _T1CC2H	=	0x00df
                    00E2    656 _T1CNTL	=	0x00e2
                    00E3    657 _T1CNTH	=	0x00e3
                    00E4    658 _T1CTL	=	0x00e4
                    00E5    659 _T1CCTL0	=	0x00e5
                    00E6    660 _T1CCTL1	=	0x00e6
                    00E7    661 _T1CCTL2	=	0x00e7
                    00AF    662 _T1STAT	=	0x00af
                    0094    663 _T2CTRL	=	0x0094
                    009C    664 _T2EVTCFG	=	0x009c
                    00A1    665 _T2IRQF	=	0x00a1
                    00A2    666 _T2M0	=	0x00a2
                    00A3    667 _T2M1	=	0x00a3
                    00A4    668 _T2MOVF0	=	0x00a4
                    00A5    669 _T2MOVF1	=	0x00a5
                    00A6    670 _T2MOVF2	=	0x00a6
                    00A7    671 _T2IRQM	=	0x00a7
                    00C3    672 _T2MSEL	=	0x00c3
                    00CA    673 _T3CNT	=	0x00ca
                    00CB    674 _T3CTL	=	0x00cb
                    00CC    675 _T3CCTL0	=	0x00cc
                    00CD    676 _T3CC0	=	0x00cd
                    00CE    677 _T3CCTL1	=	0x00ce
                    00CF    678 _T3CC1	=	0x00cf
                    00EA    679 _T4CNT	=	0x00ea
                    00EB    680 _T4CTL	=	0x00eb
                    00EC    681 _T4CCTL0	=	0x00ec
                    00ED    682 _T4CC0	=	0x00ed
                    00EE    683 _T4CCTL1	=	0x00ee
                    00EF    684 _T4CC1	=	0x00ef
                    00D8    685 _TIMIF	=	0x00d8
                    0086    686 _U0CSR	=	0x0086
                    00C1    687 _U0DBUF	=	0x00c1
                    00C2    688 _U0BAUD	=	0x00c2
                    00C4    689 _U0UCR	=	0x00c4
                    00C5    690 _U0GCR	=	0x00c5
                    00F8    691 _U1CSR	=	0x00f8
                    00F9    692 _U1DBUF	=	0x00f9
                    00FA    693 _U1BAUD	=	0x00fa
                    00FB    694 _U1UCR	=	0x00fb
                    00FC    695 _U1GCR	=	0x00fc
                    00C9    696 _WDCTL	=	0x00c9
                            697 ;--------------------------------------------------------
                            698 ; special function bits
                            699 ;--------------------------------------------------------
                            700 	.area RSEG    (ABS,DATA)
   0000                     701 	.org 0x0000
                    0087    702 _P0_7	=	0x0087
                    0086    703 _P0_6	=	0x0086
                    0085    704 _P0_5	=	0x0085
                    0084    705 _P0_4	=	0x0084
                    0083    706 _P0_3	=	0x0083
                    0082    707 _P0_2	=	0x0082
                    0081    708 _P0_1	=	0x0081
                    0080    709 _P0_0	=	0x0080
                    008F    710 _URX1IF	=	0x008f
                    008D    711 _ADCIF	=	0x008d
                    008B    712 _URX0IF	=	0x008b
                    008A    713 _IT1	=	0x008a
                    0089    714 _RFERRIF	=	0x0089
                    0088    715 _IT0	=	0x0088
                    0097    716 _P1_7	=	0x0097
                    0096    717 _P1_6	=	0x0096
                    0095    718 _P1_5	=	0x0095
                    0094    719 _P1_4	=	0x0094
                    0093    720 _P1_3	=	0x0093
                    0092    721 _P1_2	=	0x0092
                    0091    722 _P1_1	=	0x0091
                    0090    723 _P1_0	=	0x0090
                    0099    724 _ENCIF_1	=	0x0099
                    0098    725 _ENCIF_0	=	0x0098
                    00A7    726 _P2_7	=	0x00a7
                    00A6    727 _P2_6	=	0x00a6
                    00A5    728 _P2_5	=	0x00a5
                    00A4    729 _P2_4	=	0x00a4
                    00A3    730 _P2_3	=	0x00a3
                    00A2    731 _P2_2	=	0x00a2
                    00A1    732 _P2_1	=	0x00a1
                    00A0    733 _P2_0	=	0x00a0
                    00AF    734 _EA	=	0x00af
                    00AD    735 _STIE	=	0x00ad
                    00AC    736 _ENCIE	=	0x00ac
                    00AB    737 _URX1IE	=	0x00ab
                    00AA    738 _URX0IE	=	0x00aa
                    00A9    739 _ADCIE	=	0x00a9
                    00A8    740 _RFERRIE	=	0x00a8
                    00BD    741 _P0IE	=	0x00bd
                    00BC    742 _T4IE	=	0x00bc
                    00BB    743 _T3IE	=	0x00bb
                    00BA    744 _T2IE	=	0x00ba
                    00B9    745 _T1IE	=	0x00b9
                    00B8    746 _DMAIE	=	0x00b8
                    00C7    747 _STIF	=	0x00c7
                    00C5    748 _P0IF	=	0x00c5
                    00C4    749 _T4IF	=	0x00c4
                    00C3    750 _T3IF	=	0x00c3
                    00C2    751 _T2IF	=	0x00c2
                    00C1    752 _T1IF	=	0x00c1
                    00C0    753 _DMAIF	=	0x00c0
                    00D7    754 _CY	=	0x00d7
                    00D6    755 _AC	=	0x00d6
                    00D5    756 _F0	=	0x00d5
                    00D4    757 _RS1	=	0x00d4
                    00D3    758 _RS0	=	0x00d3
                    00D2    759 _OV	=	0x00d2
                    00D1    760 _F1	=	0x00d1
                    00D0    761 _P	=	0x00d0
                    00E7    762 _ACC_7	=	0x00e7
                    00E6    763 _ACC_6	=	0x00e6
                    00E5    764 _ACC_5	=	0x00e5
                    00E4    765 _ACC_4	=	0x00e4
                    00E3    766 _ACC_3	=	0x00e3
                    00E2    767 _ACC_2	=	0x00e2
                    00E1    768 _ACC_1	=	0x00e1
                    00E0    769 _ACC_0	=	0x00e0
                    00EC    770 _WDTIF	=	0x00ec
                    00EB    771 _P1IF	=	0x00eb
                    00EA    772 _UTX1IF	=	0x00ea
                    00E9    773 _UTX0IF	=	0x00e9
                    00E8    774 _P2IF	=	0x00e8
                    00F7    775 _B_7	=	0x00f7
                    00F6    776 _B_6	=	0x00f6
                    00F5    777 _B_5	=	0x00f5
                    00F4    778 _B_4	=	0x00f4
                    00F3    779 _B_3	=	0x00f3
                    00F2    780 _B_2	=	0x00f2
                    00F1    781 _B_1	=	0x00f1
                    00F0    782 _B_0	=	0x00f0
                    00DE    783 _OVFIM	=	0x00de
                    00DD    784 _T4CH1IF	=	0x00dd
                    00DC    785 _T4CH0IF	=	0x00dc
                    00DB    786 _T4OVFIF	=	0x00db
                    00DA    787 _T3CH1IF	=	0x00da
                    00D9    788 _T3CH0IF	=	0x00d9
                    00D8    789 _T3OVFIF	=	0x00d8
                    00FF    790 _MODE	=	0x00ff
                    00FE    791 _RE	=	0x00fe
                    00FD    792 _SLAVE	=	0x00fd
                    00FC    793 _FE	=	0x00fc
                    00FB    794 _ERR	=	0x00fb
                    00FA    795 _RX_BYTE	=	0x00fa
                    00F9    796 _TX_BYTE	=	0x00f9
                    00F8    797 _ACTIVE	=	0x00f8
                            798 ;--------------------------------------------------------
                            799 ; overlayable register banks
                            800 ;--------------------------------------------------------
                            801 	.area REG_BANK_0	(REL,OVR,DATA)
   0000                     802 	.ds 8
                            803 ;--------------------------------------------------------
                            804 ; internal ram data
                            805 ;--------------------------------------------------------
                            806 	.area DSEG    (DATA)
                            807 ;--------------------------------------------------------
                            808 ; overlayable items in internal ram 
                            809 ;--------------------------------------------------------
                            810 	.area OSEG    (OVR,DATA)
                            811 ;--------------------------------------------------------
                            812 ; indirectly addressable internal ram data
                            813 ;--------------------------------------------------------
                            814 	.area ISEG    (DATA)
                            815 ;--------------------------------------------------------
                            816 ; absolute internal ram data
                            817 ;--------------------------------------------------------
                            818 	.area IABS    (ABS,DATA)
                            819 	.area IABS    (ABS,DATA)
                            820 ;--------------------------------------------------------
                            821 ; bit data
                            822 ;--------------------------------------------------------
                            823 	.area BSEG    (BIT)
                            824 ;--------------------------------------------------------
                            825 ; paged external ram data
                            826 ;--------------------------------------------------------
                            827 	.area PSEG    (PAG,XDATA)
                            828 ;--------------------------------------------------------
                            829 ; external ram data
                            830 ;--------------------------------------------------------
                            831 	.area XSEG    (XDATA)
                    61A6    832 _MONMUX	=	0x61a6
                    61A6    833 _OPAMPMC	=	0x61a6
                    6230    834 _I2CCFG	=	0x6230
                    6231    835 _I2CSTAT	=	0x6231
                    6232    836 _I2CDATA	=	0x6232
                    6233    837 _I2CADDR	=	0x6233
                    6234    838 _I2CWC	=	0x6234
                    6235    839 _I2CIO	=	0x6235
                    6243    840 _OBSSEL0	=	0x6243
                    6244    841 _OBSSEL1	=	0x6244
                    6245    842 _OBSSEL2	=	0x6245
                    6246    843 _OBSSEL3	=	0x6246
                    6247    844 _OBSSEL4	=	0x6247
                    6248    845 _OBSSEL5	=	0x6248
                    6249    846 _CHVER	=	0x6249
                    624A    847 _CHIPID	=	0x624a
                    624B    848 _TESTREG0	=	0x624b
                    6260    849 _DBGDATA	=	0x6260
                    6262    850 _SRCRC	=	0x6262
                    6264    851 _BATTMON	=	0x6264
                    6265    852 _IVCTRL	=	0x6265
                    6270    853 _FCTL	=	0x6270
                    6271    854 _FADDRL	=	0x6271
                    6272    855 _FADDRH	=	0x6272
                    6273    856 _FWDATA	=	0x6273
                    6276    857 _CHIPINFO0	=	0x6276
                    6277    858 _CHIPINFO1	=	0x6277
                    6281    859 _IRCTL	=	0x6281
                    6290    860 _CLD	=	0x6290
                    62A0    861 _XX_T1CCTL0	=	0x62a0
                    62A1    862 _XX_T1CCTL1	=	0x62a1
                    62A2    863 _XX_T1CCTL2	=	0x62a2
                    62A3    864 _T1CCTL3	=	0x62a3
                    62A4    865 _T1CCTL4	=	0x62a4
                    62A6    866 _XX_T1CC0L	=	0x62a6
                    62A7    867 _XX_T1CC0H	=	0x62a7
                    62A8    868 _XX_T1CC1L	=	0x62a8
                    62A9    869 _XX_T1CC1H	=	0x62a9
                    62AA    870 _XX_T1CC2L	=	0x62aa
                    62AB    871 _XX_T1CC2H	=	0x62ab
                    62AC    872 _T1CC3L	=	0x62ac
                    62AD    873 _T1CC3H	=	0x62ad
                    62AE    874 _T1CC4L	=	0x62ae
                    62AF    875 _T1CC4H	=	0x62af
                    62B0    876 _STCC	=	0x62b0
                    62B1    877 _STCS	=	0x62b1
                    62B2    878 _STCV0	=	0x62b2
                    62B3    879 _STCV1	=	0x62b3
                    62B4    880 _STCV2	=	0x62b4
                    62C0    881 _OPAMPC	=	0x62c0
                    62C1    882 _OPAMPS	=	0x62c1
                    62D0    883 _CMPCTL	=	0x62d0
                    6000    884 _RFCORE_RAM	=	0x6000
                    6000    885 _RXFIFO	=	0x6000
                    6080    886 _TXFIFO	=	0x6080
                    6100    887 _SRC_ADDR_TABLE	=	0x6100
                    6160    888 _SRCRESMASK0	=	0x6160
                    6161    889 _SRCRESMASK1	=	0x6161
                    6162    890 _SRCRESMASK2	=	0x6162
                    6163    891 _SRCRESINDEX	=	0x6163
                    6164    892 _SRCEXTPENDEN0	=	0x6164
                    6165    893 _SRCEXTPENDEN1	=	0x6165
                    6166    894 _SRCEXTPENDEN2	=	0x6166
                    6167    895 _SRCSHORTPENDEN0	=	0x6167
                    6168    896 _SRCSHORTPENDEN1	=	0x6168
                    6169    897 _SRCSHORTPENDEN2	=	0x6169
                    616A    898 _EXT_ADDR0	=	0x616a
                    616B    899 _EXT_ADDR1	=	0x616b
                    616C    900 _EXT_ADDR2	=	0x616c
                    616D    901 _EXT_ADDR3	=	0x616d
                    616E    902 _EXT_ADDR4	=	0x616e
                    616F    903 _EXT_ADDR5	=	0x616f
                    6170    904 _EXT_ADDR6	=	0x6170
                    6171    905 _EXT_ADDR7	=	0x6171
                    6172    906 _PAN_ID0	=	0x6172
                    6173    907 _PAN_ID1	=	0x6173
                    6174    908 _SHORT_ADDR0	=	0x6174
                    6175    909 _SHORT_ADDR1	=	0x6175
                    6180    910 _FRMFILT0	=	0x6180
                    6181    911 _FRMFILT1	=	0x6181
                    6182    912 _SRCMATCH	=	0x6182
                    6183    913 _SRCSHORTEN0	=	0x6183
                    6184    914 _SRCSHORTEN1	=	0x6184
                    6185    915 _SRCSHORTEN2	=	0x6185
                    6186    916 _SRCEXTEN0	=	0x6186
                    6187    917 _SRCEXTEN1	=	0x6187
                    6188    918 _SRCEXTEN2	=	0x6188
                    6189    919 _FRMCTRL0	=	0x6189
                    618A    920 _FRMCTRL1	=	0x618a
                    618B    921 _RXENABLE	=	0x618b
                    618C    922 _RXMASKSET	=	0x618c
                    618D    923 _RXMASKCLR	=	0x618d
                    618E    924 _FREQTUNE	=	0x618e
                    618F    925 _FREQCTRL	=	0x618f
                    6190    926 _TXPOWER	=	0x6190
                    6191    927 _TXCTRL	=	0x6191
                    6192    928 _FSMSTAT0	=	0x6192
                    6193    929 _FSMSTAT1	=	0x6193
                    6194    930 _FIFOPCTRL	=	0x6194
                    6195    931 _FSMCTRL	=	0x6195
                    6196    932 _CCACTRL0	=	0x6196
                    6197    933 _CCACTRL1	=	0x6197
                    6198    934 _RSSI	=	0x6198
                    6199    935 _RSSISTAT	=	0x6199
                    619A    936 _RXFIRST	=	0x619a
                    619B    937 _RXFIFOCNT	=	0x619b
                    619C    938 _TXFIFOCNT	=	0x619c
                    619D    939 _RXFIRST_PTR	=	0x619d
                    619E    940 _RXLAST_PTR	=	0x619e
                    619F    941 _RXP1_PTR	=	0x619f
                    61A1    942 _TXFIRST_PTR	=	0x61a1
                    61A2    943 _TXLAST_PTR	=	0x61a2
                    61A3    944 _RFIRQM0	=	0x61a3
                    61A4    945 _RFIRQM1	=	0x61a4
                    61A5    946 _RFERRM	=	0x61a5
                    61A7    947 _RFRND	=	0x61a7
                    61A8    948 _MDMCTRL0	=	0x61a8
                    61A9    949 _MDMCTRL1	=	0x61a9
                    61AA    950 _FREQEST	=	0x61aa
                    61AB    951 _RXCTRL	=	0x61ab
                    61AC    952 _FSCTRL	=	0x61ac
                    61AD    953 _FSCAL0	=	0x61ad
                    61AE    954 _FSCAL1	=	0x61ae
                    61AF    955 _FSCAL2	=	0x61af
                    61B0    956 _FSCAL3	=	0x61b0
                    61B1    957 _AGCCTRL0	=	0x61b1
                    61B2    958 _AGCCTRL1	=	0x61b2
                    61B3    959 _AGCCTRL2	=	0x61b3
                    61B4    960 _AGCCTRL3	=	0x61b4
                    61B5    961 _ADCTEST0	=	0x61b5
                    61B6    962 _ADCTEST1	=	0x61b6
                    61B7    963 _ADCTEST2	=	0x61b7
                    61B8    964 _MDMTEST0	=	0x61b8
                    61B9    965 _MDMTEST1	=	0x61b9
                    61BA    966 _DACTEST0	=	0x61ba
                    61BB    967 _DACTEST1	=	0x61bb
                    61BC    968 _DACTEST2	=	0x61bc
                    61BD    969 _ATEST	=	0x61bd
                    61BE    970 _PTEST0	=	0x61be
                    61BF    971 _PTEST1	=	0x61bf
                    61FA    972 _TXFILTCFG	=	0x61fa
                    61EB    973 _RFC_OBS_CTRL0	=	0x61eb
                    61EC    974 _RFC_OBS_CTRL1	=	0x61ec
                    61ED    975 _RFC_OBS_CTRL2	=	0x61ed
                    61C0    976 _CSPPROG0	=	0x61c0
                    61C1    977 _CSPPROG1	=	0x61c1
                    61C2    978 _CSPPROG2	=	0x61c2
                    61C3    979 _CSPPROG3	=	0x61c3
                    61C4    980 _CSPPROG4	=	0x61c4
                    61C5    981 _CSPPROG5	=	0x61c5
                    61C6    982 _CSPPROG6	=	0x61c6
                    61C7    983 _CSPPROG7	=	0x61c7
                    61C8    984 _CSPPROG8	=	0x61c8
                    61C9    985 _CSPPROG9	=	0x61c9
                    61CA    986 _CSPPROG10	=	0x61ca
                    61CB    987 _CSPPROG11	=	0x61cb
                    61CC    988 _CSPPROG12	=	0x61cc
                    61CD    989 _CSPPROG13	=	0x61cd
                    61CE    990 _CSPPROG14	=	0x61ce
                    61CF    991 _CSPPROG15	=	0x61cf
                    61D0    992 _CSPPROG16	=	0x61d0
                    61D1    993 _CSPPROG17	=	0x61d1
                    61D2    994 _CSPPROG18	=	0x61d2
                    61D3    995 _CSPPROG19	=	0x61d3
                    61D4    996 _CSPPROG20	=	0x61d4
                    61D5    997 _CSPPROG21	=	0x61d5
                    61D6    998 _CSPPROG22	=	0x61d6
                    61D7    999 _CSPPROG23	=	0x61d7
                    61E0   1000 _CSPCTRL	=	0x61e0
                    61E1   1001 _CSPSTAT	=	0x61e1
                    61E2   1002 _CSPX	=	0x61e2
                    61E3   1003 _CSPY	=	0x61e3
                    61E4   1004 _CSPZ	=	0x61e4
                    61E5   1005 _CSPT	=	0x61e5
                    6200   1006 _USBADDR	=	0x6200
                    6201   1007 _USBPOW	=	0x6201
                    6202   1008 _USBIIF	=	0x6202
                    6204   1009 _USBOIF	=	0x6204
                    6206   1010 _USBCIF	=	0x6206
                    6207   1011 _USBIIE	=	0x6207
                    6209   1012 _USBOIE	=	0x6209
                    620B   1013 _USBCIE	=	0x620b
                    620C   1014 _USBFRML	=	0x620c
                    620D   1015 _USBFRMH	=	0x620d
                    620E   1016 _USBINDEX	=	0x620e
                    620F   1017 _USBCTRL	=	0x620f
                    6210   1018 _USBMAXI	=	0x6210
                    6211   1019 _USBCS0	=	0x6211
                    6211   1020 _USBCSIL	=	0x6211
                    6212   1021 _USBCSIH	=	0x6212
                    6213   1022 _USBMAXO	=	0x6213
                    6214   1023 _USBCSOL	=	0x6214
                    6215   1024 _USBCSOH	=	0x6215
                    6216   1025 _USBCNT0	=	0x6216
                    6216   1026 _USBCNTL	=	0x6216
                    6217   1027 _USBCNTH	=	0x6217
                    6220   1028 _USBF0	=	0x6220
                    6222   1029 _USBF1	=	0x6222
                    6224   1030 _USBF2	=	0x6224
                    6226   1031 _USBF3	=	0x6226
                    6228   1032 _USBF4	=	0x6228
                    622A   1033 _USBF5	=	0x622a
                    7080   1034 _X_P0	=	0x7080
                    7086   1035 _X_U0CSR	=	0x7086
                    7089   1036 _X_P0IFG	=	0x7089
                    708A   1037 _X_P1IFG	=	0x708a
                    708B   1038 _X_P2IFG	=	0x708b
                    708C   1039 _X_PICTL	=	0x708c
                    708D   1040 _X_P1IEN	=	0x708d
                    708F   1041 _X_P0INP	=	0x708f
                    7090   1042 _X_P1	=	0x7090
                    7091   1043 _X_RFIRQF1	=	0x7091
                    7093   1044 _X_MPAGE	=	0x7093
                    7093   1045 _X__XPAGE	=	0x7093
                    7094   1046 _X_T2CTRL	=	0x7094
                    7095   1047 _X_ST0	=	0x7095
                    7096   1048 _X_ST1	=	0x7096
                    7097   1049 _X_ST2	=	0x7097
                    709C   1050 _X_T2EVTCFG	=	0x709c
                    709D   1051 _X_SLEEPSTA	=	0x709d
                    709E   1052 _X_CLKCONSTA	=	0x709e
                    709F   1053 _X_FMAP	=	0x709f
                    709F   1054 _X_PSBANK	=	0x709f
                    70A0   1055 _X_P2	=	0x70a0
                    70A1   1056 _X_T2IRQF	=	0x70a1
                    70A2   1057 _X_T2M0	=	0x70a2
                    70A3   1058 _X_T2M1	=	0x70a3
                    70A4   1059 _X_T2MOVF0	=	0x70a4
                    70A5   1060 _X_T2MOVF1	=	0x70a5
                    70A6   1061 _X_T2MOVF2	=	0x70a6
                    70A7   1062 _X_T2IRQM	=	0x70a7
                    70AB   1063 _X_P0IEN	=	0x70ab
                    70AC   1064 _X_P2IEN	=	0x70ac
                    70AD   1065 _X_STLOAD	=	0x70ad
                    70AE   1066 _X_PMUX	=	0x70ae
                    70AF   1067 _X_T1STAT	=	0x70af
                    70B1   1068 _X_ENCDI	=	0x70b1
                    70B2   1069 _X_ENCDO	=	0x70b2
                    70B3   1070 _X_ENCCS	=	0x70b3
                    70B4   1071 _X_ADCCON1	=	0x70b4
                    70B5   1072 _X_ADCCON2	=	0x70b5
                    70B6   1073 _X_ADCCON3	=	0x70b6
                    70BA   1074 _X_ADCL	=	0x70ba
                    70BB   1075 _X_ADCH	=	0x70bb
                    70BC   1076 _X_RNDL	=	0x70bc
                    70BD   1077 _X_RNDH	=	0x70bd
                    70BE   1078 _X_SLEEPCMD	=	0x70be
                    70BF   1079 _X_RFERRF	=	0x70bf
                    70C1   1080 _X_U0DBUF	=	0x70c1
                    70C2   1081 _X_U0BAUD	=	0x70c2
                    70C3   1082 _X_T2MSEL	=	0x70c3
                    70C4   1083 _X_U0UCR	=	0x70c4
                    70C5   1084 _X_U0GCR	=	0x70c5
                    70C6   1085 _X_CLKCONCMD	=	0x70c6
                    70C7   1086 _X_MEMCTR	=	0x70c7
                    70C9   1087 _X_WDCTL	=	0x70c9
                    70CA   1088 _X_T3CNT	=	0x70ca
                    70CB   1089 _X_T3CTL	=	0x70cb
                    70CC   1090 _X_T3CCTL0	=	0x70cc
                    70CD   1091 _X_T3CC0	=	0x70cd
                    70CE   1092 _X_T3CCTL1	=	0x70ce
                    70CF   1093 _X_T3CC1	=	0x70cf
                    70D1   1094 _X_DMAIRQ	=	0x70d1
                    70D2   1095 _X_DMA1CFGL	=	0x70d2
                    70D3   1096 _X_DMA1CFGH	=	0x70d3
                    70D4   1097 _X_DMA0CFGL	=	0x70d4
                    70D5   1098 _X_DMA0CFGH	=	0x70d5
                    70D6   1099 _X_DMAARM	=	0x70d6
                    70D7   1100 _X_DMAREQ	=	0x70d7
                    70D8   1101 _X_TIMIF	=	0x70d8
                    70D9   1102 _X_RFD	=	0x70d9
                    70DA   1103 _X_T1CC0L	=	0x70da
                    70DB   1104 _X_T1CC0H	=	0x70db
                    70DC   1105 _X_T1CC1L	=	0x70dc
                    70DD   1106 _X_T1CC1H	=	0x70dd
                    70DE   1107 _X_T1CC2L	=	0x70de
                    70DF   1108 _X_T1CC2H	=	0x70df
                    70E1   1109 _X_RFST	=	0x70e1
                    70E2   1110 _X_T1CNTL	=	0x70e2
                    70E3   1111 _X_T1CNTH	=	0x70e3
                    70E4   1112 _X_T1CTL	=	0x70e4
                    70E5   1113 _X_T1CCTL0	=	0x70e5
                    70E6   1114 _X_T1CCTL1	=	0x70e6
                    70E7   1115 _X_T1CCTL2	=	0x70e7
                    70E9   1116 _X_RFIRQF0	=	0x70e9
                    70EA   1117 _X_T4CNT	=	0x70ea
                    70EB   1118 _X_T4CTL	=	0x70eb
                    70EC   1119 _X_T4CCTL0	=	0x70ec
                    70ED   1120 _X_T4CC0	=	0x70ed
                    70EE   1121 _X_T4CCTL1	=	0x70ee
                    70EF   1122 _X_T4CC1	=	0x70ef
                    70F1   1123 _X_PERCFG	=	0x70f1
                    70F2   1124 _X_APCFG	=	0x70f2
                    70F3   1125 _X_P0SEL	=	0x70f3
                    70F4   1126 _X_P1SEL	=	0x70f4
                    70F5   1127 _X_P2SEL	=	0x70f5
                    70F6   1128 _X_P1INP	=	0x70f6
                    70F7   1129 _X_P2INP	=	0x70f7
                    70F8   1130 _X_U1CSR	=	0x70f8
                    70F9   1131 _X_U1DBUF	=	0x70f9
                    70FA   1132 _X_U1BAUD	=	0x70fa
                    70FB   1133 _X_U1UCR	=	0x70fb
                    70FC   1134 _X_U1GCR	=	0x70fc
                    70FD   1135 _X_P0DIR	=	0x70fd
                    70FE   1136 _X_P1DIR	=	0x70fe
                    70FF   1137 _X_P2DIR	=	0x70ff
                    7800   1138 _X_INFOPAGE	=	0x7800
                    780C   1139 _X_IEEE_ADDR	=	0x780c
   0000                    1140 _pt:
   0000                    1141 	.ds 2
   0002                    1142 _is_listening:
   0002                    1143 	.ds 1
   0003                    1144 _encounter_memb_memb_count:
   0003                    1145 	.ds 4
   0007                    1146 _encounter_memb_memb_mem:
   0007                    1147 	.ds 52
   003B                    1148 _is_streaming:
   003B                    1149 	.ds 1
   003C                    1150 _is_streaming_to:
   003C                    1151 	.ds 8
   0044                    1152 _is_streaming_to_too:
   0044                    1153 	.ds 8
   004C                    1154 _stream_until:
   004C                    1155 	.ds 2
   004E                    1156 _cpowercycle_ctimer:
   004E                    1157 	.ds 22
                           1158 ;--------------------------------------------------------
                           1159 ; absolute external ram data
                           1160 ;--------------------------------------------------------
                           1161 	.area XABS    (ABS,XDATA)
                           1162 ;--------------------------------------------------------
                           1163 ; external initialized ram data
                           1164 ;--------------------------------------------------------
                           1165 	.area XISEG   (XDATA)
   0000                    1166 _cxmac_config::
   0000                    1167 	.ds 8
   0008                    1168 _cxmac_is_on:
   0008                    1169 	.ds 1
   0009                    1170 _waiting_for_packet:
   0009                    1171 	.ds 1
   000A                    1172 _someone_is_sending:
   000A                    1173 	.ds 1
   000B                    1174 _we_are_sending:
   000B                    1175 	.ds 1
   000C                    1176 _radio_is_on:
   000C                    1177 	.ds 1
   000D                    1178 _encounter_list_list:
   000D                    1179 	.ds 3
   0010                    1180 _encounter_list:
   0010                    1181 	.ds 3
   0013                    1182 _encounter_memb:
   0013                    1183 	.ds 10
                           1184 	.area HOME    (CODE)
                           1185 	.area GSINIT0 (CODE)
                           1186 	.area GSINIT1 (CODE)
                           1187 	.area GSINIT2 (CODE)
                           1188 	.area GSINIT3 (CODE)
                           1189 	.area GSINIT4 (CODE)
                           1190 	.area GSINIT5 (CODE)
                           1191 	.area GSINIT  (CODE)
                           1192 	.area GSFINAL (CODE)
                           1193 	.area CSEG    (CODE)
                           1194 ;--------------------------------------------------------
                           1195 ; global & static initialisations
                           1196 ;--------------------------------------------------------
                           1197 	.area HOME    (CODE)
                           1198 	.area GSINIT  (CODE)
                           1199 	.area GSFINAL (CODE)
                           1200 	.area GSINIT  (CODE)
                           1201 ;--------------------------------------------------------
                           1202 ; Home
                           1203 ;--------------------------------------------------------
                           1204 	.area HOME    (CODE)
                           1205 	.area HOME    (CODE)
                           1206 ;--------------------------------------------------------
                           1207 ; code
                           1208 ;--------------------------------------------------------
                           1209 	.area BANK1   (CODE)
                           1210 ;------------------------------------------------------------
                           1211 ;Allocation info for local variables in function 'on'
                           1212 ;------------------------------------------------------------
                           1213 ;	../../../contiki-sensinode//core/net/mac/cxmac.c:224: on(void)
                           1214 ;	-----------------------------------------
                           1215 ;	 function on
                           1216 ;	-----------------------------------------
   0000                    1217 _on:
                    0007   1218 	ar7 = 0x07
                    0006   1219 	ar6 = 0x06
                    0005   1220 	ar5 = 0x05
                    0004   1221 	ar4 = 0x04
                    0003   1222 	ar3 = 0x03
                    0002   1223 	ar2 = 0x02
                    0001   1224 	ar1 = 0x01
                    0000   1225 	ar0 = 0x00
                           1226 ;	../../../contiki-sensinode//core/net/mac/cxmac.c:226: if(cxmac_is_on && radio_is_on == 0) {
   0000 90s00r08           1227 	mov	dptr,#_cxmac_is_on
   0003 E0                 1228 	movx	a,@dptr
   0004 FF                 1229 	mov	r7,a
   0005 60 36              1230 	jz	00104$
   0007 90s00r0C           1231 	mov	dptr,#_radio_is_on
   000A E0                 1232 	movx	a,@dptr
   000B FF                 1233 	mov	r7,a
   000C 70 2F              1234 	jnz	00104$
                           1235 ;	../../../contiki-sensinode//core/net/mac/cxmac.c:227: radio_is_on = 1;
   000E 90s00r0C           1236 	mov	dptr,#_radio_is_on
   0011 74 01              1237 	mov	a,#0x01
   0013 F0                 1238 	movx	@dptr,a
                           1239 ;	../../../contiki-sensinode//core/net/mac/cxmac.c:228: NETSTACK_RADIO.on();
   0014 90s00r18           1240 	mov	dptr,#(_cc2530_rf_driver + 0x0018)
   0017 E4                 1241 	clr	a
   0018 93                 1242 	movc	a,@a+dptr
   0019 FD                 1243 	mov	r5,a
   001A A3                 1244 	inc	dptr
   001B E4                 1245 	clr	a
   001C 93                 1246 	movc	a,@a+dptr
   001D FE                 1247 	mov	r6,a
   001E A3                 1248 	inc	dptr
   001F E4                 1249 	clr	a
   0020 93                 1250 	movc	a,@a+dptr
   0021 FF                 1251 	mov	r7,a
   0022 C0 07              1252 	push	ar7
   0024 C0 06              1253 	push	ar6
   0026 C0 05              1254 	push	ar5
   0028 C0 05              1255 	push	ar5
   002A C0 06              1256 	push	ar6
   002C C0 07              1257 	push	ar7
   002E D0 02              1258 	pop	ar2
   0030 D0 01              1259 	pop	ar1
   0032 D0 00              1260 	pop	ar0
   0034 12s00r00           1261 	lcall	__sdcc_banked_call
   0037 D0 05              1262 	pop	ar5
   0039 D0 06              1263 	pop	ar6
   003B D0 07              1264 	pop	ar7
   003D                    1265 00104$:
   003D 02s00r00           1266 	ljmp	__sdcc_banked_ret
                           1267 ;------------------------------------------------------------
                           1268 ;Allocation info for local variables in function 'off'
                           1269 ;------------------------------------------------------------
                           1270 ;	../../../contiki-sensinode//core/net/mac/cxmac.c:234: off(void)
                           1271 ;	-----------------------------------------
                           1272 ;	 function off
                           1273 ;	-----------------------------------------
   0040                    1274 _off:
                           1275 ;	../../../contiki-sensinode//core/net/mac/cxmac.c:236: if(cxmac_is_on && radio_is_on != 0 && is_listening == 0 &&
   0040 90s00r08           1276 	mov	dptr,#_cxmac_is_on
   0043 E0                 1277 	movx	a,@dptr
   0044 FF                 1278 	mov	r7,a
   0045 60 43              1279 	jz	00106$
   0047 90s00r0C           1280 	mov	dptr,#_radio_is_on
   004A E0                 1281 	movx	a,@dptr
   004B FF                 1282 	mov	r7,a
   004C 60 3C              1283 	jz	00106$
   004E 90s00r02           1284 	mov	dptr,#_is_listening
   0051 E0                 1285 	movx	a,@dptr
   0052 FF                 1286 	mov	r7,a
   0053 70 35              1287 	jnz	00106$
                           1288 ;	../../../contiki-sensinode//core/net/mac/cxmac.c:237: is_streaming == 0) {
   0055 90s00r3B           1289 	mov	dptr,#_is_streaming
   0058 E0                 1290 	movx	a,@dptr
   0059 FF                 1291 	mov	r7,a
   005A 70 2E              1292 	jnz	00106$
                           1293 ;	../../../contiki-sensinode//core/net/mac/cxmac.c:238: radio_is_on = 0;
   005C 90s00r0C           1294 	mov	dptr,#_radio_is_on
   005F E4                 1295 	clr	a
   0060 F0                 1296 	movx	@dptr,a
                           1297 ;	../../../contiki-sensinode//core/net/mac/cxmac.c:239: NETSTACK_RADIO.off();
   0061 90s00r1B           1298 	mov	dptr,#(_cc2530_rf_driver + 0x001b)
   0064 E4                 1299 	clr	a
   0065 93                 1300 	movc	a,@a+dptr
   0066 FD                 1301 	mov	r5,a
   0067 A3                 1302 	inc	dptr
   0068 E4                 1303 	clr	a
   0069 93                 1304 	movc	a,@a+dptr
   006A FE                 1305 	mov	r6,a
   006B A3                 1306 	inc	dptr
   006C E4                 1307 	clr	a
   006D 93                 1308 	movc	a,@a+dptr
   006E FF                 1309 	mov	r7,a
   006F C0 07              1310 	push	ar7
   0071 C0 06              1311 	push	ar6
   0073 C0 05              1312 	push	ar5
   0075 C0 05              1313 	push	ar5
   0077 C0 06              1314 	push	ar6
   0079 C0 07              1315 	push	ar7
   007B D0 02              1316 	pop	ar2
   007D D0 01              1317 	pop	ar1
   007F D0 00              1318 	pop	ar0
   0081 12s00r00           1319 	lcall	__sdcc_banked_call
   0084 D0 05              1320 	pop	ar5
   0086 D0 06              1321 	pop	ar6
   0088 D0 07              1322 	pop	ar7
   008A                    1323 00106$:
   008A 02s00r00           1324 	ljmp	__sdcc_banked_ret
                           1325 ;------------------------------------------------------------
                           1326 ;Allocation info for local variables in function 'powercycle_turn_radio_off'
                           1327 ;------------------------------------------------------------
                           1328 ;	../../../contiki-sensinode//core/net/mac/cxmac.c:245: powercycle_turn_radio_off(void)
                           1329 ;	-----------------------------------------
                           1330 ;	 function powercycle_turn_radio_off
                           1331 ;	-----------------------------------------
   008D                    1332 _powercycle_turn_radio_off:
                           1333 ;	../../../contiki-sensinode//core/net/mac/cxmac.c:247: if(we_are_sending == 0 &&
   008D 90s00r0B           1334 	mov	dptr,#_we_are_sending
   0090 E0                 1335 	movx	a,@dptr
   0091 FF                 1336 	mov	r7,a
   0092 70 10              1337 	jnz	00104$
                           1338 ;	../../../contiki-sensinode//core/net/mac/cxmac.c:248: waiting_for_packet == 0) {
   0094 90s00r09           1339 	mov	dptr,#_waiting_for_packet
   0097 E0                 1340 	movx	a,@dptr
   0098 FF                 1341 	mov	r7,a
   0099 70 09              1342 	jnz	00104$
                           1343 ;	../../../contiki-sensinode//core/net/mac/cxmac.c:249: off();
   009B 78r40              1344 	mov	r0,#_off
   009D 79s00              1345 	mov	r1,#(_off >> 8)
   009F 7As00              1346 	mov	r2,#(_off >> 16)
   00A1 12s00r00           1347 	lcall	__sdcc_banked_call
   00A4                    1348 00104$:
   00A4 02s00r00           1349 	ljmp	__sdcc_banked_ret
                           1350 ;------------------------------------------------------------
                           1351 ;Allocation info for local variables in function 'powercycle_turn_radio_on'
                           1352 ;------------------------------------------------------------
                           1353 ;	../../../contiki-sensinode//core/net/mac/cxmac.c:256: powercycle_turn_radio_on(void)
                           1354 ;	-----------------------------------------
                           1355 ;	 function powercycle_turn_radio_on
                           1356 ;	-----------------------------------------
   00A7                    1357 _powercycle_turn_radio_on:
                           1358 ;	../../../contiki-sensinode//core/net/mac/cxmac.c:258: if(we_are_sending == 0 &&
   00A7 90s00r0B           1359 	mov	dptr,#_we_are_sending
   00AA E0                 1360 	movx	a,@dptr
   00AB FF                 1361 	mov	r7,a
   00AC 70 10              1362 	jnz	00104$
                           1363 ;	../../../contiki-sensinode//core/net/mac/cxmac.c:259: waiting_for_packet == 0) {
   00AE 90s00r09           1364 	mov	dptr,#_waiting_for_packet
   00B1 E0                 1365 	movx	a,@dptr
   00B2 FF                 1366 	mov	r7,a
   00B3 70 09              1367 	jnz	00104$
                           1368 ;	../../../contiki-sensinode//core/net/mac/cxmac.c:260: on();
   00B5 78r00              1369 	mov	r0,#_on
   00B7 79s00              1370 	mov	r1,#(_on >> 8)
   00B9 7As00              1371 	mov	r2,#(_on >> 16)
   00BB 12s00r00           1372 	lcall	__sdcc_banked_call
   00BE                    1373 00104$:
   00BE 02s00r00           1374 	ljmp	__sdcc_banked_ret
                           1375 ;------------------------------------------------------------
                           1376 ;Allocation info for local variables in function 'cschedule_powercycle'
                           1377 ;------------------------------------------------------------
                           1378 ;time                      Allocated to registers r6 r7 
                           1379 ;------------------------------------------------------------
                           1380 ;	../../../contiki-sensinode//core/net/mac/cxmac.c:268: cschedule_powercycle(clock_time_t time)
                           1381 ;	-----------------------------------------
                           1382 ;	 function cschedule_powercycle
                           1383 ;	-----------------------------------------
   00C1                    1384 _cschedule_powercycle:
   00C1 AE 82              1385 	mov	r6,dpl
   00C3 AF 83              1386 	mov	r7,dph
                           1387 ;	../../../contiki-sensinode//core/net/mac/cxmac.c:271: if(cxmac_is_on) {
   00C5 90s00r08           1388 	mov	dptr,#_cxmac_is_on
   00C8 E0                 1389 	movx	a,@dptr
   00C9 FD                 1390 	mov	r5,a
   00CA 60 33              1391 	jz	00105$
                           1392 ;	../../../contiki-sensinode//core/net/mac/cxmac.c:272: if(time == 0) {
   00CC EE                 1393 	mov	a,r6
   00CD 4F                 1394 	orl	a,r7
                           1395 ;	../../../contiki-sensinode//core/net/mac/cxmac.c:273: time = 1;
   00CE 70 03              1396 	jnz	00102$
   00D0 7E 01              1397 	mov	r6,#0x01
   00D2 FF                 1398 	mov	r7,a
   00D3                    1399 00102$:
                           1400 ;	../../../contiki-sensinode//core/net/mac/cxmac.c:276: (void (*)(void *))cpowercycle, NULL);
   00D3 7Br02              1401 	mov	r3,#_cpowercycle
   00D5 7Cs01              1402 	mov	r4,#(_cpowercycle >> 8)
   00D7 7Ds00              1403 	mov	r5,#(_cpowercycle >> 16)
                           1404 ;	../../../contiki-sensinode//core/net/mac/cxmac.c:275: ctimer_set(&cpowercycle_ctimer, time,
   00D9 E4                 1405 	clr	a
   00DA C0 E0              1406 	push	acc
   00DC C0 E0              1407 	push	acc
   00DE C0 E0              1408 	push	acc
   00E0 C0 03              1409 	push	ar3
   00E2 C0 04              1410 	push	ar4
   00E4 C0 05              1411 	push	ar5
   00E6 C0 06              1412 	push	ar6
   00E8 C0 07              1413 	push	ar7
   00EA 90s00r4E           1414 	mov	dptr,#_cpowercycle_ctimer
   00ED 75 F0 00           1415 	mov	b,#0x00
   00F0 78r00              1416 	mov	r0,#_ctimer_set
   00F2 79s00              1417 	mov	r1,#(_ctimer_set >> 8)
   00F4 7As00              1418 	mov	r2,#(_ctimer_set >> 16)
   00F6 12s00r00           1419 	lcall	__sdcc_banked_call
   00F9 E5 81              1420 	mov	a,sp
   00FB 24 F8              1421 	add	a,#0xf8
   00FD F5 81              1422 	mov	sp,a
   00FF                    1423 00105$:
   00FF 02s00r00           1424 	ljmp	__sdcc_banked_ret
                           1425 ;------------------------------------------------------------
                           1426 ;Allocation info for local variables in function 'cpowercycle'
                           1427 ;------------------------------------------------------------
                           1428 ;ptr                       Allocated to registers 
                           1429 ;PT_YIELD_FLAG             Allocated to registers r7 
                           1430 ;------------------------------------------------------------
                           1431 ;	../../../contiki-sensinode//core/net/mac/cxmac.c:281: cpowercycle(void *ptr)
                           1432 ;	-----------------------------------------
                           1433 ;	 function cpowercycle
                           1434 ;	-----------------------------------------
   0102                    1435 _cpowercycle:
                           1436 ;	../../../contiki-sensinode//core/net/mac/cxmac.c:283: if(is_streaming) {
   0102 90s00r3B           1437 	mov	dptr,#_is_streaming
   0105 E0                 1438 	movx	a,@dptr
   0106 FF                 1439 	mov	r7,a
   0107 60 67              1440 	jz	00104$
                           1441 ;	../../../contiki-sensinode//core/net/mac/cxmac.c:284: if(!RTIMER_CLOCK_LT(RTIMER_NOW(), stream_until)) {
   0109 AE E2              1442 	mov	r6,_T1CNTL
   010B 7F 00              1443 	mov	r7,#0x00
   010D AC E3              1444 	mov	r4,_T1CNTH
   010F 8C 05              1445 	mov	ar5,r4
   0111 E4                 1446 	clr	a
   0112 2E                 1447 	add	a,r6
   0113 FE                 1448 	mov	r6,a
   0114 ED                 1449 	mov	a,r5
   0115 3F                 1450 	addc	a,r7
   0116 FF                 1451 	mov	r7,a
   0117 90s00r4C           1452 	mov	dptr,#_stream_until
   011A E0                 1453 	movx	a,@dptr
   011B FC                 1454 	mov	r4,a
   011C A3                 1455 	inc	dptr
   011D E0                 1456 	movx	a,@dptr
   011E FD                 1457 	mov	r5,a
   011F EE                 1458 	mov	a,r6
   0120 C3                 1459 	clr	c
   0121 9C                 1460 	subb	a,r4
   0122 FC                 1461 	mov	r4,a
   0123 EF                 1462 	mov	a,r7
   0124 9D                 1463 	subb	a,r5
   0125 FD                 1464 	mov	r5,a
   0126 20 E7 47           1465 	jb	acc.7,00104$
                           1466 ;	../../../contiki-sensinode//core/net/mac/cxmac.c:285: is_streaming = 0;
   0129 90s00r3B           1467 	mov	dptr,#_is_streaming
   012C E4                 1468 	clr	a
   012D F0                 1469 	movx	@dptr,a
                           1470 ;	../../../contiki-sensinode//core/net/mac/cxmac.c:286: rimeaddr_copy(&is_streaming_to, &rimeaddr_null);
   012E 74r00              1471 	mov	a,#_rimeaddr_null
   0130 C0 E0              1472 	push	acc
   0132 74s00              1473 	mov	a,#(_rimeaddr_null >> 8)
   0134 C0 E0              1474 	push	acc
   0136 74 80              1475 	mov	a,#0x80
   0138 C0 E0              1476 	push	acc
   013A 90s00r3C           1477 	mov	dptr,#_is_streaming_to
   013D 75 F0 00           1478 	mov	b,#0x00
   0140 78r00              1479 	mov	r0,#_rimeaddr_copy
   0142 79s00              1480 	mov	r1,#(_rimeaddr_copy >> 8)
   0144 7As00              1481 	mov	r2,#(_rimeaddr_copy >> 16)
   0146 12s00r00           1482 	lcall	__sdcc_banked_call
   0149 15 81              1483 	dec	sp
   014B 15 81              1484 	dec	sp
   014D 15 81              1485 	dec	sp
                           1486 ;	../../../contiki-sensinode//core/net/mac/cxmac.c:287: rimeaddr_copy(&is_streaming_to_too, &rimeaddr_null);
   014F 74r00              1487 	mov	a,#_rimeaddr_null
   0151 C0 E0              1488 	push	acc
   0153 74s00              1489 	mov	a,#(_rimeaddr_null >> 8)
   0155 C0 E0              1490 	push	acc
   0157 74 80              1491 	mov	a,#0x80
   0159 C0 E0              1492 	push	acc
   015B 90s00r44           1493 	mov	dptr,#_is_streaming_to_too
   015E 75 F0 00           1494 	mov	b,#0x00
   0161 78r00              1495 	mov	r0,#_rimeaddr_copy
   0163 79s00              1496 	mov	r1,#(_rimeaddr_copy >> 8)
   0165 7As00              1497 	mov	r2,#(_rimeaddr_copy >> 16)
   0167 12s00r00           1498 	lcall	__sdcc_banked_call
   016A 15 81              1499 	dec	sp
   016C 15 81              1500 	dec	sp
   016E 15 81              1501 	dec	sp
   0170                    1502 00104$:
                           1503 ;	../../../contiki-sensinode//core/net/mac/cxmac.c:291: PT_BEGIN(&pt);
   0170 7F 01              1504 	mov	r7,#0x01
   0172 90s00r00           1505 	mov	dptr,#_pt
   0175 E0                 1506 	movx	a,@dptr
   0176 FD                 1507 	mov	r5,a
   0177 A3                 1508 	inc	dptr
   0178 E0                 1509 	movx	a,@dptr
   0179 FE                 1510 	mov	r6,a
   017A BD 00 05           1511 	cjne	r5,#0x00,00158$
   017D BE 00 02           1512 	cjne	r6,#0x00,00158$
   0180 80 14              1513 	sjmp	00127$
   0182                    1514 00158$:
   0182 BD 2E 05           1515 	cjne	r5,#0x2E,00159$
   0185 BE 01 02           1516 	cjne	r6,#0x01,00159$
   0188 80 3D              1517 	sjmp	00108$
   018A                    1518 00159$:
   018A BD 3D 06           1519 	cjne	r5,#0x3D,00160$
   018D BE 01 03           1520 	cjne	r6,#0x01,00160$
   0190 02s02r20           1521 	ljmp	00118$
   0193                    1522 00160$:
   0193 02s02r2B           1523 	ljmp	00129$
                           1524 ;	../../../contiki-sensinode//core/net/mac/cxmac.c:293: while(1) {
   0196                    1525 00127$:
                           1526 ;	../../../contiki-sensinode//core/net/mac/cxmac.c:295: if(someone_is_sending > 0) {
   0196 90s00r0A           1527 	mov	dptr,#_someone_is_sending
   0199 E0                 1528 	movx	a,@dptr
   019A FE                 1529 	mov	r6,a
   019B 60 09              1530 	jz	00107$
                           1531 ;	../../../contiki-sensinode//core/net/mac/cxmac.c:296: someone_is_sending--;
   019D 90s00r0A           1532 	mov	dptr,#_someone_is_sending
   01A0 E0                 1533 	movx	a,@dptr
   01A1 14                 1534 	dec	a
   01A2 90s00r0A           1535 	mov	dptr,#_someone_is_sending
   01A5 F0                 1536 	movx	@dptr,a
   01A6                    1537 00107$:
                           1538 ;	../../../contiki-sensinode//core/net/mac/cxmac.c:300: powercycle_turn_radio_on();
   01A6 78rA7              1539 	mov	r0,#_powercycle_turn_radio_on
   01A8 79s00              1540 	mov	r1,#(_powercycle_turn_radio_on >> 8)
   01AA 7As00              1541 	mov	r2,#(_powercycle_turn_radio_on >> 16)
   01AC 12s00r00           1542 	lcall	__sdcc_banked_call
                           1543 ;	../../../contiki-sensinode//core/net/mac/cxmac.c:301: CSCHEDULE_POWERCYCLE(DEFAULT_ON_TIME);
   01AF 90 00 00           1544 	mov	dptr,#0x0000
   01B2 78rC1              1545 	mov	r0,#_cschedule_powercycle
   01B4 79s00              1546 	mov	r1,#(_cschedule_powercycle >> 8)
   01B6 7As00              1547 	mov	r2,#(_cschedule_powercycle >> 16)
   01B8 12s00r00           1548 	lcall	__sdcc_banked_call
                           1549 ;	../../../contiki-sensinode//core/net/mac/cxmac.c:302: PT_YIELD(&pt);
   01BB 7F 00              1550 	mov	r7,#0x00
   01BD 90s00r00           1551 	mov	dptr,#_pt
   01C0 74 2E              1552 	mov	a,#0x2E
   01C2 F0                 1553 	movx	@dptr,a
   01C3 A3                 1554 	inc	dptr
   01C4 74 01              1555 	mov	a,#0x01
   01C6 F0                 1556 	movx	@dptr,a
   01C7                    1557 00108$:
   01C7 EF                 1558 	mov	a,r7
   01C8 70 05              1559 	jnz	00112$
   01CA 75 82 01           1560 	mov	dpl,#0x01
   01CD 80 66              1561 	sjmp	00130$
   01CF                    1562 00112$:
                           1563 ;	../../../contiki-sensinode//core/net/mac/cxmac.c:304: if(cxmac_config.off_time > 0) {
   01CF 90s00r02           1564 	mov	dptr,#(_cxmac_config + 0x0002)
   01D2 E0                 1565 	movx	a,@dptr
   01D3 FD                 1566 	mov	r5,a
   01D4 A3                 1567 	inc	dptr
   01D5 E0                 1568 	movx	a,@dptr
   01D6 FE                 1569 	mov	r6,a
   01D7 4D                 1570 	orl	a,r5
   01D8 60 BC              1571 	jz	00127$
                           1572 ;	../../../contiki-sensinode//core/net/mac/cxmac.c:305: powercycle_turn_radio_off();
   01DA 78r8D              1573 	mov	r0,#_powercycle_turn_radio_off
   01DC 79s00              1574 	mov	r1,#(_powercycle_turn_radio_off >> 8)
   01DE 7As00              1575 	mov	r2,#(_powercycle_turn_radio_off >> 16)
   01E0 12s00r00           1576 	lcall	__sdcc_banked_call
                           1577 ;	../../../contiki-sensinode//core/net/mac/cxmac.c:306: if(waiting_for_packet != 0) {
   01E3 90s00r09           1578 	mov	dptr,#_waiting_for_packet
   01E6 E0                 1579 	movx	a,@dptr
   01E7 FE                 1580 	mov	r6,a
   01E8 60 1E              1581 	jz	00117$
                           1582 ;	../../../contiki-sensinode//core/net/mac/cxmac.c:307: waiting_for_packet++;
   01EA 90s00r09           1583 	mov	dptr,#_waiting_for_packet
   01ED E0                 1584 	movx	a,@dptr
   01EE 24 01              1585 	add	a,#0x01
   01F0 F0                 1586 	movx	@dptr,a
                           1587 ;	../../../contiki-sensinode//core/net/mac/cxmac.c:308: if(waiting_for_packet > 2) {
   01F1 90s00r09           1588 	mov	dptr,#_waiting_for_packet
   01F4 E0                 1589 	movx	a,@dptr
   01F5 FE                 1590 	mov  r6,a
   01F6 24 FD              1591 	add	a,#0xff - 0x02
   01F8 50 0E              1592 	jnc	00117$
                           1593 ;	../../../contiki-sensinode//core/net/mac/cxmac.c:312: waiting_for_packet = 0;
   01FA 90s00r09           1594 	mov	dptr,#_waiting_for_packet
   01FD E4                 1595 	clr	a
   01FE F0                 1596 	movx	@dptr,a
                           1597 ;	../../../contiki-sensinode//core/net/mac/cxmac.c:313: powercycle_turn_radio_off();
   01FF 78r8D              1598 	mov	r0,#_powercycle_turn_radio_off
   0201 79s00              1599 	mov	r1,#(_powercycle_turn_radio_off >> 8)
   0203 7As00              1600 	mov	r2,#(_powercycle_turn_radio_off >> 16)
   0205 12s00r00           1601 	lcall	__sdcc_banked_call
   0208                    1602 00117$:
                           1603 ;	../../../contiki-sensinode//core/net/mac/cxmac.c:316: CSCHEDULE_POWERCYCLE(DEFAULT_OFF_TIME);
   0208 90 00 0F           1604 	mov	dptr,#0x000F
   020B 78rC1              1605 	mov	r0,#_cschedule_powercycle
   020D 79s00              1606 	mov	r1,#(_cschedule_powercycle >> 8)
   020F 7As00              1607 	mov	r2,#(_cschedule_powercycle >> 16)
   0211 12s00r00           1608 	lcall	__sdcc_banked_call
                           1609 ;	../../../contiki-sensinode//core/net/mac/cxmac.c:317: PT_YIELD(&pt);
   0214 7F 00              1610 	mov	r7,#0x00
   0216 90s00r00           1611 	mov	dptr,#_pt
   0219 74 3D              1612 	mov	a,#0x3D
   021B F0                 1613 	movx	@dptr,a
   021C A3                 1614 	inc	dptr
   021D 74 01              1615 	mov	a,#0x01
   021F F0                 1616 	movx	@dptr,a
   0220                    1617 00118$:
   0220 EF                 1618 	mov	a,r7
   0221 60 03              1619 	jz	00166$
   0223 02s01r96           1620 	ljmp	00127$
   0226                    1621 00166$:
   0226 75 82 01           1622 	mov	dpl,#0x01
                           1623 ;	../../../contiki-sensinode//core/net/mac/cxmac.c:321: PT_END(&pt);
   0229 80 0A              1624 	sjmp	00130$
   022B                    1625 00129$:
   022B 90s00r00           1626 	mov	dptr,#_pt
   022E E4                 1627 	clr	a
   022F F0                 1628 	movx	@dptr,a
   0230 A3                 1629 	inc	dptr
   0231 F0                 1630 	movx	@dptr,a
   0232 75 82 03           1631 	mov	dpl,#0x03
   0235                    1632 00130$:
   0235 02s00r00           1633 	ljmp	__sdcc_banked_ret
                           1634 ;------------------------------------------------------------
                           1635 ;Allocation info for local variables in function 'register_encounter'
                           1636 ;------------------------------------------------------------
                           1637 ;time                      Allocated to stack - sp -7
                           1638 ;neighbor                  Allocated to stack - sp -2
                           1639 ;e                         Allocated to registers r2 r3 r4 
                           1640 ;------------------------------------------------------------
                           1641 ;	../../../contiki-sensinode//core/net/mac/cxmac.c:386: register_encounter(const rimeaddr_t *neighbor, rtimer_clock_t time)
                           1642 ;	-----------------------------------------
                           1643 ;	 function register_encounter
                           1644 ;	-----------------------------------------
   0238                    1645 _register_encounter:
   0238 C0 82              1646 	push	dpl
   023A C0 83              1647 	push	dph
   023C C0 F0              1648 	push	b
                           1649 ;	../../../contiki-sensinode//core/net/mac/cxmac.c:391: for(e = list_head(encounter_list); e != NULL; e = list_item_next(e)) {
   023E 90s00r10           1650 	mov	dptr,#_encounter_list
   0241 E0                 1651 	movx	a,@dptr
   0242 FA                 1652 	mov	r2,a
   0243 A3                 1653 	inc	dptr
   0244 E0                 1654 	movx	a,@dptr
   0245 FB                 1655 	mov	r3,a
   0246 A3                 1656 	inc	dptr
   0247 E0                 1657 	movx	a,@dptr
   0248 FC                 1658 	mov	r4,a
   0249 8A 82              1659 	mov	dpl,r2
   024B 8B 83              1660 	mov	dph,r3
   024D 8C F0              1661 	mov	b,r4
   024F 78r00              1662 	mov	r0,#_list_head
   0251 79s00              1663 	mov	r1,#(_list_head >> 8)
   0253 7As00              1664 	mov	r2,#(_list_head >> 16)
   0255 12s00r00           1665 	lcall	__sdcc_banked_call
   0258 AA 82              1666 	mov	r2,dpl
   025A AB 83              1667 	mov	r3,dph
   025C AC F0              1668 	mov	r4,b
   025E                    1669 00103$:
   025E EA                 1670 	mov	a,r2
   025F 4B                 1671 	orl	a,r3
   0260 70 03              1672 	jnz	00123$
   0262 02s02rE8           1673 	ljmp	00106$
   0265                    1674 00123$:
                           1675 ;	../../../contiki-sensinode//core/net/mac/cxmac.c:392: if(rimeaddr_cmp(neighbor, &e->neighbor)) {
   0265 74 03              1676 	mov	a,#0x03
   0267 2A                 1677 	add	a,r2
   0268 FD                 1678 	mov	r5,a
   0269 E4                 1679 	clr	a
   026A 3B                 1680 	addc	a,r3
   026B FE                 1681 	mov	r6,a
   026C 8C 07              1682 	mov	ar7,r4
   026E C0 04              1683 	push	ar4
   0270 C0 03              1684 	push	ar3
   0272 C0 02              1685 	push	ar2
   0274 C0 05              1686 	push	ar5
   0276 C0 06              1687 	push	ar6
   0278 C0 07              1688 	push	ar7
   027A E5 81              1689 	mov	a,sp
   027C 24 F8              1690 	add	a,#0xf8
   027E F8                 1691 	mov	r0,a
   027F 86 82              1692 	mov	dpl,@r0
   0281 08                 1693 	inc	r0
   0282 86 83              1694 	mov	dph,@r0
   0284 08                 1695 	inc	r0
   0285 86 F0              1696 	mov	b,@r0
   0287 78r00              1697 	mov	r0,#_rimeaddr_cmp
   0289 79s00              1698 	mov	r1,#(_rimeaddr_cmp >> 8)
   028B 7As00              1699 	mov	r2,#(_rimeaddr_cmp >> 16)
   028D 12s00r00           1700 	lcall	__sdcc_banked_call
   0290 AE 82              1701 	mov	r6,dpl
   0292 AF 83              1702 	mov	r7,dph
   0294 15 81              1703 	dec	sp
   0296 15 81              1704 	dec	sp
   0298 15 81              1705 	dec	sp
   029A D0 02              1706 	pop	ar2
   029C D0 03              1707 	pop	ar3
   029E D0 04              1708 	pop	ar4
   02A0 EE                 1709 	mov	a,r6
   02A1 4F                 1710 	orl	a,r7
   02A2 60 20              1711 	jz	00105$
                           1712 ;	../../../contiki-sensinode//core/net/mac/cxmac.c:393: e->time = time;
   02A4 74 0B              1713 	mov	a,#0x0B
   02A6 2A                 1714 	add	a,r2
   02A7 FD                 1715 	mov	r5,a
   02A8 E4                 1716 	clr	a
   02A9 3B                 1717 	addc	a,r3
   02AA FE                 1718 	mov	r6,a
   02AB 8C 07              1719 	mov	ar7,r4
   02AD 8D 82              1720 	mov	dpl,r5
   02AF 8E 83              1721 	mov	dph,r6
   02B1 8F F0              1722 	mov	b,r7
   02B3 E5 81              1723 	mov	a,sp
   02B5 24 F9              1724 	add	a,#0xf9
   02B7 F8                 1725 	mov	r0,a
   02B8 E6                 1726 	mov	a,@r0
   02B9 12s00r00           1727 	lcall	__gptrput
   02BC A3                 1728 	inc	dptr
   02BD 08                 1729 	inc	r0
   02BE E6                 1730 	mov	a,@r0
   02BF 12s00r00           1731 	lcall	__gptrput
                           1732 ;	../../../contiki-sensinode//core/net/mac/cxmac.c:394: break;
   02C2 80 24              1733 	sjmp	00106$
   02C4                    1734 00105$:
                           1735 ;	../../../contiki-sensinode//core/net/mac/cxmac.c:391: for(e = list_head(encounter_list); e != NULL; e = list_item_next(e)) {
   02C4 8A 05              1736 	mov	ar5,r2
   02C6 8B 06              1737 	mov	ar6,r3
   02C8 8C 07              1738 	mov	ar7,r4
   02CA 8D 82              1739 	mov	dpl,r5
   02CC 8E 83              1740 	mov	dph,r6
   02CE 8F F0              1741 	mov	b,r7
   02D0 78r00              1742 	mov	r0,#_list_item_next
   02D2 79s00              1743 	mov	r1,#(_list_item_next >> 8)
   02D4 7As00              1744 	mov	r2,#(_list_item_next >> 16)
   02D6 12s00r00           1745 	lcall	__sdcc_banked_call
   02D9 AD 82              1746 	mov	r5,dpl
   02DB AE 83              1747 	mov	r6,dph
   02DD AF F0              1748 	mov	r7,b
   02DF 8D 02              1749 	mov	ar2,r5
   02E1 8E 03              1750 	mov	ar3,r6
   02E3 8F 04              1751 	mov	ar4,r7
   02E5 02s02r5E           1752 	ljmp	00103$
   02E8                    1753 00106$:
                           1754 ;	../../../contiki-sensinode//core/net/mac/cxmac.c:398: if(e == NULL) {
   02E8 EA                 1755 	mov	a,r2
   02E9 4B                 1756 	orl	a,r3
   02EA 60 03              1757 	jz	00125$
   02EC 02s03r8F           1758 	ljmp	00111$
   02EF                    1759 00125$:
                           1760 ;	../../../contiki-sensinode//core/net/mac/cxmac.c:399: e = memb_alloc(&encounter_memb);
   02EF 90s00r13           1761 	mov	dptr,#_encounter_memb
   02F2 75 F0 00           1762 	mov	b,#0x00
   02F5 78r00              1763 	mov	r0,#_memb_alloc
   02F7 79s00              1764 	mov	r1,#(_memb_alloc >> 8)
   02F9 7As00              1765 	mov	r2,#(_memb_alloc >> 16)
   02FB 12s00r00           1766 	lcall	__sdcc_banked_call
   02FE AD 82              1767 	mov	r5,dpl
   0300 AE 83              1768 	mov	r6,dph
   0302 AF F0              1769 	mov	r7,b
   0304 8D 02              1770 	mov	ar2,r5
   0306 8E 03              1771 	mov	ar3,r6
   0308 8F 04              1772 	mov	ar4,r7
                           1773 ;	../../../contiki-sensinode//core/net/mac/cxmac.c:400: if(e == NULL) {
   030A EA                 1774 	mov	a,r2
   030B 4B                 1775 	orl	a,r3
   030C 70 03              1776 	jnz	00108$
                           1777 ;	../../../contiki-sensinode//core/net/mac/cxmac.c:402: return;
   030E 02s03r8F           1778 	ljmp	00111$
   0311                    1779 00108$:
                           1780 ;	../../../contiki-sensinode//core/net/mac/cxmac.c:404: rimeaddr_copy(&e->neighbor, neighbor);
   0311 74 03              1781 	mov	a,#0x03
   0313 2A                 1782 	add	a,r2
   0314 FD                 1783 	mov	r5,a
   0315 E4                 1784 	clr	a
   0316 3B                 1785 	addc	a,r3
   0317 FE                 1786 	mov	r6,a
   0318 8C 07              1787 	mov	ar7,r4
   031A C0 04              1788 	push	ar4
   031C C0 03              1789 	push	ar3
   031E C0 02              1790 	push	ar2
   0320 E5 81              1791 	mov	a,sp
   0322 24 FB              1792 	add	a,#0xfb
   0324 F8                 1793 	mov	r0,a
   0325 E6                 1794 	mov	a,@r0
   0326 C0 E0              1795 	push	acc
   0328 08                 1796 	inc	r0
   0329 E6                 1797 	mov	a,@r0
   032A C0 E0              1798 	push	acc
   032C 08                 1799 	inc	r0
   032D E6                 1800 	mov	a,@r0
   032E C0 E0              1801 	push	acc
   0330 8D 82              1802 	mov	dpl,r5
   0332 8E 83              1803 	mov	dph,r6
   0334 8F F0              1804 	mov	b,r7
   0336 78r00              1805 	mov	r0,#_rimeaddr_copy
   0338 79s00              1806 	mov	r1,#(_rimeaddr_copy >> 8)
   033A 7As00              1807 	mov	r2,#(_rimeaddr_copy >> 16)
   033C 12s00r00           1808 	lcall	__sdcc_banked_call
   033F 15 81              1809 	dec	sp
   0341 15 81              1810 	dec	sp
   0343 15 81              1811 	dec	sp
   0345 D0 02              1812 	pop	ar2
   0347 D0 03              1813 	pop	ar3
   0349 D0 04              1814 	pop	ar4
                           1815 ;	../../../contiki-sensinode//core/net/mac/cxmac.c:405: e->time = time;
   034B 74 0B              1816 	mov	a,#0x0B
   034D 2A                 1817 	add	a,r2
   034E FD                 1818 	mov	r5,a
   034F E4                 1819 	clr	a
   0350 3B                 1820 	addc	a,r3
   0351 FE                 1821 	mov	r6,a
   0352 8C 07              1822 	mov	ar7,r4
   0354 8D 82              1823 	mov	dpl,r5
   0356 8E 83              1824 	mov	dph,r6
   0358 8F F0              1825 	mov	b,r7
   035A E5 81              1826 	mov	a,sp
   035C 24 F9              1827 	add	a,#0xf9
   035E F8                 1828 	mov	r0,a
   035F E6                 1829 	mov	a,@r0
   0360 12s00r00           1830 	lcall	__gptrput
   0363 A3                 1831 	inc	dptr
   0364 08                 1832 	inc	r0
   0365 E6                 1833 	mov	a,@r0
   0366 12s00r00           1834 	lcall	__gptrput
                           1835 ;	../../../contiki-sensinode//core/net/mac/cxmac.c:406: list_add(encounter_list, e);
   0369 90s00r10           1836 	mov	dptr,#_encounter_list
   036C E0                 1837 	movx	a,@dptr
   036D FD                 1838 	mov	r5,a
   036E A3                 1839 	inc	dptr
   036F E0                 1840 	movx	a,@dptr
   0370 FE                 1841 	mov	r6,a
   0371 A3                 1842 	inc	dptr
   0372 E0                 1843 	movx	a,@dptr
   0373 FF                 1844 	mov	r7,a
   0374 C0 02              1845 	push	ar2
   0376 C0 03              1846 	push	ar3
   0378 C0 04              1847 	push	ar4
   037A 8D 82              1848 	mov	dpl,r5
   037C 8E 83              1849 	mov	dph,r6
   037E 8F F0              1850 	mov	b,r7
   0380 78r00              1851 	mov	r0,#_list_add
   0382 79s00              1852 	mov	r1,#(_list_add >> 8)
   0384 7As00              1853 	mov	r2,#(_list_add >> 16)
   0386 12s00r00           1854 	lcall	__sdcc_banked_call
   0389 15 81              1855 	dec	sp
   038B 15 81              1856 	dec	sp
   038D 15 81              1857 	dec	sp
   038F                    1858 00111$:
   038F 15 81              1859 	dec	sp
   0391 15 81              1860 	dec	sp
   0393 15 81              1861 	dec	sp
   0395 02s00r00           1862 	ljmp	__sdcc_banked_ret
                           1863 ;------------------------------------------------------------
                           1864 ;Allocation info for local variables in function 'send_packet'
                           1865 ;------------------------------------------------------------
                           1866 ;t0                        Allocated to registers r6 r7 
                           1867 ;t                         Allocated to stack - sp -82
                           1868 ;encounter_time            Allocated to stack - sp -80
                           1869 ;strobes                   Allocated to stack - sp -78
                           1870 ;hdr                       Allocated to registers r2 r3 r7 
                           1871 ;got_strobe_ack            Allocated to stack - sp -76
                           1872 ;strobe                    Allocated to stack - sp -74
                           1873 ;strobe_len                Allocated to stack - sp -24
                           1874 ;len                       Allocated to stack - sp -22
                           1875 ;is_broadcast              Allocated to stack - sp -20
                           1876 ;is_dispatch               Allocated to stack - sp -18
                           1877 ;is_strobe_ack             Allocated to registers r2 r5 
                           1878 ;e                         Allocated to stack - sp -16
                           1879 ;packet                    Allocated to stack - sp -13
                           1880 ;is_already_streaming      Allocated to stack - sp -10
                           1881 ;collisions                Allocated to stack - sp -8
                           1882 ;neighbor                  Allocated to registers r7 r6 r5 
                           1883 ;wait                      Allocated to registers 
                           1884 ;now                       Allocated to registers r3 r4 
                           1885 ;expected                  Allocated to registers r3 r2 
                           1886 ;now                       Allocated to stack - sp -7
                           1887 ;sloc0                     Allocated to stack - sp -5
                           1888 ;sloc1                     Allocated to stack - sp -4
                           1889 ;sloc2                     Allocated to stack - sp -2
                           1890 ;------------------------------------------------------------
                           1891 ;	../../../contiki-sensinode//core/net/mac/cxmac.c:412: send_packet(void)
                           1892 ;	-----------------------------------------
                           1893 ;	 function send_packet
                           1894 ;	-----------------------------------------
   0398                    1895 _send_packet:
   0398 E5 81              1896 	mov	a,sp
   039A 24 53              1897 	add	a,#0x53
                           1898 ;	../../../contiki-sensinode//core/net/mac/cxmac.c:416: rtimer_clock_t encounter_time = 0;
   039C F5 81              1899 	mov	sp,a
   039E 24 B0              1900 	add	a,#0xb0
   03A0 F8                 1901 	mov	r0,a
   03A1 E4                 1902 	clr	a
   03A2 F6                 1903 	mov	@r0,a
   03A3 08                 1904 	inc	r0
   03A4 F6                 1905 	mov	@r0,a
                           1906 ;	../../../contiki-sensinode//core/net/mac/cxmac.c:419: int got_strobe_ack = 0;
   03A5 E5 81              1907 	mov	a,sp
   03A7 24 B4              1908 	add	a,#0xb4
   03A9 F8                 1909 	mov	r0,a
   03AA E4                 1910 	clr	a
   03AB F6                 1911 	mov	@r0,a
   03AC 08                 1912 	inc	r0
   03AD F6                 1913 	mov	@r0,a
                           1914 ;	../../../contiki-sensinode//core/net/mac/cxmac.c:422: int is_broadcast = 0;
   03AE E5 81              1915 	mov	a,sp
   03B0 24 EC              1916 	add	a,#0xec
   03B2 F8                 1917 	mov	r0,a
   03B3 E4                 1918 	clr	a
   03B4 F6                 1919 	mov	@r0,a
   03B5 08                 1920 	inc	r0
   03B6 F6                 1921 	mov	@r0,a
                           1922 ;	../../../contiki-sensinode//core/net/mac/cxmac.c:427: int is_already_streaming = 0;
   03B7 E5 81              1923 	mov	a,sp
   03B9 24 F6              1924 	add	a,#0xf6
   03BB F8                 1925 	mov	r0,a
   03BC E4                 1926 	clr	a
   03BD F6                 1927 	mov	@r0,a
   03BE 08                 1928 	inc	r0
   03BF F6                 1929 	mov	@r0,a
                           1930 ;	../../../contiki-sensinode//core/net/mac/cxmac.c:432: packetbuf_set_addr(PACKETBUF_ADDR_SENDER, &rimeaddr_node_addr);
   03C0 74r00              1931 	mov	a,#_rimeaddr_node_addr
   03C2 C0 E0              1932 	push	acc
   03C4 74s00              1933 	mov	a,#(_rimeaddr_node_addr >> 8)
   03C6 C0 E0              1934 	push	acc
   03C8 E4                 1935 	clr	a
   03C9 C0 E0              1936 	push	acc
   03CB 75 82 18           1937 	mov	dpl,#0x18
   03CE 78r00              1938 	mov	r0,#_packetbuf_set_addr
   03D0 79s00              1939 	mov	r1,#(_packetbuf_set_addr >> 8)
   03D2 7As00              1940 	mov	r2,#(_packetbuf_set_addr >> 16)
   03D4 12s00r00           1941 	lcall	__sdcc_banked_call
   03D7 15 81              1942 	dec	sp
   03D9 15 81              1943 	dec	sp
   03DB 15 81              1944 	dec	sp
                           1945 ;	../../../contiki-sensinode//core/net/mac/cxmac.c:433: if(rimeaddr_cmp(packetbuf_addr(PACKETBUF_ADDR_RECEIVER), &rimeaddr_null)) {
   03DD 75 82 19           1946 	mov	dpl,#0x19
   03E0 78r00              1947 	mov	r0,#_packetbuf_addr
   03E2 79s00              1948 	mov	r1,#(_packetbuf_addr >> 8)
   03E4 7As00              1949 	mov	r2,#(_packetbuf_addr >> 16)
   03E6 12s00r00           1950 	lcall	__sdcc_banked_call
   03E9 AB 82              1951 	mov	r3,dpl
   03EB AE 83              1952 	mov	r6,dph
   03ED AF F0              1953 	mov	r7,b
   03EF 74r00              1954 	mov	a,#_rimeaddr_null
   03F1 C0 E0              1955 	push	acc
   03F3 74s00              1956 	mov	a,#(_rimeaddr_null >> 8)
   03F5 C0 E0              1957 	push	acc
   03F7 74 80              1958 	mov	a,#0x80
   03F9 C0 E0              1959 	push	acc
   03FB 8B 82              1960 	mov	dpl,r3
   03FD 8E 83              1961 	mov	dph,r6
   03FF 8F F0              1962 	mov	b,r7
   0401 78r00              1963 	mov	r0,#_rimeaddr_cmp
   0403 79s00              1964 	mov	r1,#(_rimeaddr_cmp >> 8)
   0405 7As00              1965 	mov	r2,#(_rimeaddr_cmp >> 16)
   0407 12s00r00           1966 	lcall	__sdcc_banked_call
   040A AE 82              1967 	mov	r6,dpl
   040C AF 83              1968 	mov	r7,dph
   040E 15 81              1969 	dec	sp
   0410 15 81              1970 	dec	sp
   0412 15 81              1971 	dec	sp
   0414 EE                 1972 	mov	a,r6
   0415 4F                 1973 	orl	a,r7
   0416 60 0A              1974 	jz	00102$
                           1975 ;	../../../contiki-sensinode//core/net/mac/cxmac.c:434: is_broadcast = 1;
   0418 E5 81              1976 	mov	a,sp
   041A 24 EC              1977 	add	a,#0xec
   041C F8                 1978 	mov	r0,a
   041D 76 01              1979 	mov	@r0,#0x01
   041F 08                 1980 	inc	r0
   0420 76 00              1981 	mov	@r0,#0x00
   0422                    1982 00102$:
                           1983 ;	../../../contiki-sensinode//core/net/mac/cxmac.c:455: len = NETSTACK_FRAMER.create();
   0422 90s00r00           1984 	mov	dptr,#_framer_802154
   0425 E4                 1985 	clr	a
   0426 93                 1986 	movc	a,@a+dptr
   0427 FB                 1987 	mov	r3,a
   0428 A3                 1988 	inc	dptr
   0429 E4                 1989 	clr	a
   042A 93                 1990 	movc	a,@a+dptr
   042B FE                 1991 	mov	r6,a
   042C A3                 1992 	inc	dptr
   042D E4                 1993 	clr	a
   042E 93                 1994 	movc	a,@a+dptr
   042F FF                 1995 	mov	r7,a
   0430 C0 07              1996 	push	ar7
   0432 C0 03              1997 	push	ar3
   0434 C0 06              1998 	push	ar6
   0436 C0 07              1999 	push	ar7
   0438 D0 02              2000 	pop	ar2
   043A D0 01              2001 	pop	ar1
   043C D0 00              2002 	pop	ar0
   043E 12s00r00           2003 	lcall	__sdcc_banked_call
   0441 AB 82              2004 	mov	r3,dpl
   0443 AE 83              2005 	mov	r6,dph
   0445 D0 07              2006 	pop	ar7
   0447 E5 81              2007 	mov	a,sp
   0449 24 EA              2008 	add	a,#0xea
   044B F8                 2009 	mov	r0,a
   044C A6 03              2010 	mov	@r0,ar3
   044E 08                 2011 	inc	r0
   044F A6 06              2012 	mov	@r0,ar6
                           2013 ;	../../../contiki-sensinode//core/net/mac/cxmac.c:456: strobe_len = len + sizeof(struct cxmac_hdr);
   0451 E5 81              2014 	mov	a,sp
   0453 24 EA              2015 	add	a,#0xea
   0455 F8                 2016 	mov	r0,a
   0456 E5 81              2017 	mov	a,sp
   0458 24 E8              2018 	add	a,#0xe8
   045A F9                 2019 	mov	r1,a
   045B 74 02              2020 	mov	a,#0x02
   045D 26                 2021 	add	a,@r0
   045E F7                 2022 	mov	@r1,a
   045F E4                 2023 	clr	a
   0460 08                 2024 	inc	r0
   0461 36                 2025 	addc	a,@r0
   0462 09                 2026 	inc	r1
   0463 F7                 2027 	mov	@r1,a
                           2028 ;	../../../contiki-sensinode//core/net/mac/cxmac.c:457: if(len < 0 || strobe_len > (int)sizeof(strobe)) {
   0464 E5 81              2029 	mov	a,sp
   0466 24 EA              2030 	add	a,#0xea
   0468 F8                 2031 	mov	r0,a
   0469 08                 2032 	inc	r0
   046A E6                 2033 	mov	a,@r0
   046B 20 E7 16           2034 	jb	acc.7,00103$
   046E E5 81              2035 	mov	a,sp
   0470 24 E8              2036 	add	a,#0xe8
   0472 F8                 2037 	mov	r0,a
   0473 C3                 2038 	clr	c
   0474 74 32              2039 	mov	a,#0x32
   0476 96                 2040 	subb	a,@r0
   0477 E4                 2041 	clr	a
   0478 64 80              2042 	xrl	a,#0x80
   047A 08                 2043 	inc	r0
   047B 86 F0              2044 	mov	b,@r0
   047D 63 F0 80           2045 	xrl	b,#0x80
   0480 95 F0              2046 	subb	a,b
   0482 50 06              2047 	jnc	00104$
   0484                    2048 00103$:
                           2049 ;	../../../contiki-sensinode//core/net/mac/cxmac.c:460: return MAC_TX_ERR_FATAL;
   0484 90 00 05           2050 	mov	dptr,#0x0005
   0487 02s0Er4C           2051 	ljmp	00180$
   048A                    2052 00104$:
                           2053 ;	../../../contiki-sensinode//core/net/mac/cxmac.c:462: memcpy(strobe, packetbuf_hdrptr(), len);
   048A E5 81              2054 	mov	a,sp
   048C 24 EA              2055 	add	a,#0xea
   048E F8                 2056 	mov	r0,a
   048F E5 81              2057 	mov	a,sp
   0491 24 FC              2058 	add	a,#0xfc
   0493 F9                 2059 	mov	r1,a
   0494 E6                 2060 	mov	a,@r0
   0495 F7                 2061 	mov	@r1,a
   0496 08                 2062 	inc	r0
   0497 09                 2063 	inc	r1
   0498 E6                 2064 	mov	a,@r0
   0499 F7                 2065 	mov	@r1,a
   049A 78r00              2066 	mov	r0,#_packetbuf_hdrptr
   049C 79s00              2067 	mov	r1,#(_packetbuf_hdrptr >> 8)
   049E 7As00              2068 	mov	r2,#(_packetbuf_hdrptr >> 16)
   04A0 12s00r00           2069 	lcall	__sdcc_banked_call
   04A3 AD 82              2070 	mov	r5,dpl
   04A5 AE 83              2071 	mov	r6,dph
   04A7 AF F0              2072 	mov	r7,b
   04A9 E5 81              2073 	mov	a,sp
   04AB 24 FB              2074 	add	a,#0xfb
   04AD F8                 2075 	mov	r0,a
   04AE E5 81              2076 	mov	a,sp
   04B0 24 B6              2077 	add	a,#0xB6
   04B2 F6                 2078 	mov	@r0,a
   04B3 E5 81              2079 	mov	a,sp
   04B5 24 FB              2080 	add	a,#0xfb
   04B7 F8                 2081 	mov	r0,a
   04B8 86 02              2082 	mov	ar2,@r0
   04BA 7B 00              2083 	mov	r3,#0x00
   04BC 7C 40              2084 	mov	r4,#0x40
   04BE E5 81              2085 	mov	a,sp
   04C0 24 FC              2086 	add	a,#0xfc
   04C2 F8                 2087 	mov	r0,a
   04C3 E6                 2088 	mov	a,@r0
   04C4 C0 E0              2089 	push	acc
   04C6 08                 2090 	inc	r0
   04C7 E6                 2091 	mov	a,@r0
   04C8 C0 E0              2092 	push	acc
   04CA C0 05              2093 	push	ar5
   04CC C0 06              2094 	push	ar6
   04CE C0 07              2095 	push	ar7
   04D0 8A 82              2096 	mov	dpl,r2
   04D2 8B 83              2097 	mov	dph,r3
   04D4 8C F0              2098 	mov	b,r4
   04D6 78r00              2099 	mov	r0,#_memcpy
   04D8 79s00              2100 	mov	r1,#(_memcpy >> 8)
   04DA 7As00              2101 	mov	r2,#(_memcpy >> 16)
   04DC 12s00r00           2102 	lcall	__sdcc_banked_call
   04DF E5 81              2103 	mov	a,sp
   04E1 24 FB              2104 	add	a,#0xfb
                           2105 ;	../../../contiki-sensinode//core/net/mac/cxmac.c:463: strobe[len] = DISPATCH; /* dispatch */
   04E3 F5 81              2106 	mov	sp,a
   04E5 24 FB              2107 	add	a,#0xfb
   04E7 F8                 2108 	mov	r0,a
   04E8 E5 81              2109 	mov	a,sp
   04EA 24 EA              2110 	add	a,#0xea
   04EC F9                 2111 	mov	r1,a
   04ED E7                 2112 	mov	a,@r1
   04EE 26                 2113 	add	a,@r0
   04EF F8                 2114 	mov	r0,a
   04F0 76 00              2115 	mov	@r0,#0x00
                           2116 ;	../../../contiki-sensinode//core/net/mac/cxmac.c:464: strobe[len + 1] = TYPE_STROBE; /* type */
   04F2 E5 81              2117 	mov	a,sp
   04F4 24 EA              2118 	add	a,#0xea
   04F6 F8                 2119 	mov	r0,a
   04F7 E6                 2120 	mov	a,@r0
   04F8 04                 2121 	inc	a
   04F9 C8                 2122 	xch	a,r0
   04FA E5 81              2123 	mov	a,sp
   04FC 24 FB              2124 	add	a,#0xfb
   04FE C8                 2125 	xch	a,r0
   04FF 26                 2126 	add	a,@r0
   0500 F8                 2127 	mov	r0,a
   0501 76 10              2128 	mov	@r0,#0x10
                           2129 ;	../../../contiki-sensinode//core/net/mac/cxmac.c:466: packetbuf_compact();
   0503 78r00              2130 	mov	r0,#_packetbuf_compact
   0505 79s00              2131 	mov	r1,#(_packetbuf_compact >> 8)
   0507 7As00              2132 	mov	r2,#(_packetbuf_compact >> 16)
   0509 12s00r00           2133 	lcall	__sdcc_banked_call
                           2134 ;	../../../contiki-sensinode//core/net/mac/cxmac.c:467: packet = queuebuf_new_from_packetbuf();
   050C 78r00              2135 	mov	r0,#_queuebuf_new_from_packetbuf
   050E 79s00              2136 	mov	r1,#(_queuebuf_new_from_packetbuf >> 8)
   0510 7As00              2137 	mov	r2,#(_queuebuf_new_from_packetbuf >> 16)
   0512 12s00r00           2138 	lcall	__sdcc_banked_call
   0515 AD 82              2139 	mov	r5,dpl
   0517 AE 83              2140 	mov	r6,dph
   0519 AF F0              2141 	mov	r7,b
   051B E5 81              2142 	mov	a,sp
   051D 24 F3              2143 	add	a,#0xf3
   051F F8                 2144 	mov	r0,a
   0520 A6 05              2145 	mov	@r0,ar5
   0522 08                 2146 	inc	r0
   0523 A6 06              2147 	mov	@r0,ar6
   0525 08                 2148 	inc	r0
   0526 A6 07              2149 	mov	@r0,ar7
                           2150 ;	../../../contiki-sensinode//core/net/mac/cxmac.c:468: if(packet == NULL) {
   0528 E5 81              2151 	mov	a,sp
   052A 24 F3              2152 	add	a,#0xf3
   052C F8                 2153 	mov	r0,a
   052D E6                 2154 	mov	a,@r0
   052E 08                 2155 	inc	r0
   052F 46                 2156 	orl	a,@r0
   0530 70 06              2157 	jnz	00107$
                           2158 ;	../../../contiki-sensinode//core/net/mac/cxmac.c:472: return MAC_TX_ERR;
   0532 90 00 04           2159 	mov	dptr,#0x0004
   0535 02s0Er4C           2160 	ljmp	00180$
   0538                    2161 00107$:
                           2162 ;	../../../contiki-sensinode//core/net/mac/cxmac.c:476: if(is_streaming == 1 &&
   0538 90s00r3B           2163 	mov	dptr,#_is_streaming
   053B E0                 2164 	movx	a,@dptr
   053C FF                 2165 	mov	r7,a
   053D BF 01 02           2166 	cjne	r7,#0x01,00268$
   0540 80 03              2167 	sjmp	00269$
   0542                    2168 00268$:
   0542 02s05rC3           2169 	ljmp	00109$
   0545                    2170 00269$:
                           2171 ;	../../../contiki-sensinode//core/net/mac/cxmac.c:478: &is_streaming_to) ||
                           2172 ;	../../../contiki-sensinode//core/net/mac/cxmac.c:477: (rimeaddr_cmp(packetbuf_addr(PACKETBUF_ADDR_RECEIVER),
   0545 75 82 19           2173 	mov	dpl,#0x19
   0548 78r00              2174 	mov	r0,#_packetbuf_addr
   054A 79s00              2175 	mov	r1,#(_packetbuf_addr >> 8)
   054C 7As00              2176 	mov	r2,#(_packetbuf_addr >> 16)
   054E 12s00r00           2177 	lcall	__sdcc_banked_call
   0551 AD 82              2178 	mov	r5,dpl
   0553 AE 83              2179 	mov	r6,dph
   0555 AF F0              2180 	mov	r7,b
   0557 74r3C              2181 	mov	a,#_is_streaming_to
   0559 C0 E0              2182 	push	acc
   055B 74s00              2183 	mov	a,#(_is_streaming_to >> 8)
   055D C0 E0              2184 	push	acc
   055F E4                 2185 	clr	a
   0560 C0 E0              2186 	push	acc
   0562 8D 82              2187 	mov	dpl,r5
   0564 8E 83              2188 	mov	dph,r6
   0566 8F F0              2189 	mov	b,r7
   0568 78r00              2190 	mov	r0,#_rimeaddr_cmp
   056A 79s00              2191 	mov	r1,#(_rimeaddr_cmp >> 8)
   056C 7As00              2192 	mov	r2,#(_rimeaddr_cmp >> 16)
   056E 12s00r00           2193 	lcall	__sdcc_banked_call
   0571 AE 82              2194 	mov	r6,dpl
   0573 AF 83              2195 	mov	r7,dph
   0575 15 81              2196 	dec	sp
   0577 15 81              2197 	dec	sp
   0579 15 81              2198 	dec	sp
   057B EE                 2199 	mov	a,r6
   057C 4F                 2200 	orl	a,r7
   057D 70 3A              2201 	jnz	00108$
                           2202 ;	../../../contiki-sensinode//core/net/mac/cxmac.c:480: &is_streaming_to_too))) {
                           2203 ;	../../../contiki-sensinode//core/net/mac/cxmac.c:479: rimeaddr_cmp(packetbuf_addr(PACKETBUF_ADDR_RECEIVER),
   057F 75 82 19           2204 	mov	dpl,#0x19
   0582 78r00              2205 	mov	r0,#_packetbuf_addr
   0584 79s00              2206 	mov	r1,#(_packetbuf_addr >> 8)
   0586 7As00              2207 	mov	r2,#(_packetbuf_addr >> 16)
   0588 12s00r00           2208 	lcall	__sdcc_banked_call
   058B AD 82              2209 	mov	r5,dpl
   058D AE 83              2210 	mov	r6,dph
   058F AF F0              2211 	mov	r7,b
   0591 74r44              2212 	mov	a,#_is_streaming_to_too
   0593 C0 E0              2213 	push	acc
   0595 74s00              2214 	mov	a,#(_is_streaming_to_too >> 8)
   0597 C0 E0              2215 	push	acc
   0599 E4                 2216 	clr	a
   059A C0 E0              2217 	push	acc
   059C 8D 82              2218 	mov	dpl,r5
   059E 8E 83              2219 	mov	dph,r6
   05A0 8F F0              2220 	mov	b,r7
   05A2 78r00              2221 	mov	r0,#_rimeaddr_cmp
   05A4 79s00              2222 	mov	r1,#(_rimeaddr_cmp >> 8)
   05A6 7As00              2223 	mov	r2,#(_rimeaddr_cmp >> 16)
   05A8 12s00r00           2224 	lcall	__sdcc_banked_call
   05AB AE 82              2225 	mov	r6,dpl
   05AD AF 83              2226 	mov	r7,dph
   05AF 15 81              2227 	dec	sp
   05B1 15 81              2228 	dec	sp
   05B3 15 81              2229 	dec	sp
   05B5 EE                 2230 	mov	a,r6
   05B6 4F                 2231 	orl	a,r7
   05B7 60 0A              2232 	jz	00109$
   05B9                    2233 00108$:
                           2234 ;	../../../contiki-sensinode//core/net/mac/cxmac.c:481: is_already_streaming = 1;
   05B9 E5 81              2235 	mov	a,sp
   05BB 24 F6              2236 	add	a,#0xf6
   05BD F8                 2237 	mov	r0,a
   05BE 76 01              2238 	mov	@r0,#0x01
   05C0 08                 2239 	inc	r0
   05C1 76 00              2240 	mov	@r0,#0x00
   05C3                    2241 00109$:
                           2242 ;	../../../contiki-sensinode//core/net/mac/cxmac.c:483: if(packetbuf_attr(PACKETBUF_ATTR_PACKET_TYPE) ==
   05C3 75 82 0E           2243 	mov	dpl,#0x0E
   05C6 78r00              2244 	mov	r0,#_packetbuf_attr
   05C8 79s00              2245 	mov	r1,#(_packetbuf_attr >> 8)
   05CA 7As00              2246 	mov	r2,#(_packetbuf_attr >> 16)
   05CC 12s00r00           2247 	lcall	__sdcc_banked_call
   05CF AE 82              2248 	mov	r6,dpl
   05D1 AF 83              2249 	mov	r7,dph
   05D3 BE 02 05           2250 	cjne	r6,#0x02,00272$
   05D6 BF 00 02           2251 	cjne	r7,#0x00,00272$
   05D9 80 03              2252 	sjmp	00273$
   05DB                    2253 00272$:
   05DB 02s06rB9           2254 	ljmp	00118$
   05DE                    2255 00273$:
                           2256 ;	../../../contiki-sensinode//core/net/mac/cxmac.c:485: is_streaming = 1;
   05DE 90s00r3B           2257 	mov	dptr,#_is_streaming
   05E1 74 01              2258 	mov	a,#0x01
   05E3 F0                 2259 	movx	@dptr,a
                           2260 ;	../../../contiki-sensinode//core/net/mac/cxmac.c:486: if(rimeaddr_cmp(&is_streaming_to, &rimeaddr_null)) {
   05E4 74r00              2261 	mov	a,#_rimeaddr_null
   05E6 C0 E0              2262 	push	acc
   05E8 74s00              2263 	mov	a,#(_rimeaddr_null >> 8)
   05EA C0 E0              2264 	push	acc
   05EC 74 80              2265 	mov	a,#0x80
   05EE C0 E0              2266 	push	acc
   05F0 90s00r3C           2267 	mov	dptr,#_is_streaming_to
   05F3 75 F0 00           2268 	mov	b,#0x00
   05F6 78r00              2269 	mov	r0,#_rimeaddr_cmp
   05F8 79s00              2270 	mov	r1,#(_rimeaddr_cmp >> 8)
   05FA 7As00              2271 	mov	r2,#(_rimeaddr_cmp >> 16)
   05FC 12s00r00           2272 	lcall	__sdcc_banked_call
   05FF AE 82              2273 	mov	r6,dpl
   0601 AF 83              2274 	mov	r7,dph
   0603 15 81              2275 	dec	sp
   0605 15 81              2276 	dec	sp
   0607 15 81              2277 	dec	sp
   0609 EE                 2278 	mov	a,r6
   060A 4F                 2279 	orl	a,r7
   060B 60 2F              2280 	jz	00115$
                           2281 ;	../../../contiki-sensinode//core/net/mac/cxmac.c:487: rimeaddr_copy(&is_streaming_to, packetbuf_addr(PACKETBUF_ADDR_RECEIVER));
   060D 75 82 19           2282 	mov	dpl,#0x19
   0610 78r00              2283 	mov	r0,#_packetbuf_addr
   0612 79s00              2284 	mov	r1,#(_packetbuf_addr >> 8)
   0614 7As00              2285 	mov	r2,#(_packetbuf_addr >> 16)
   0616 12s00r00           2286 	lcall	__sdcc_banked_call
   0619 AD 82              2287 	mov	r5,dpl
   061B AE 83              2288 	mov	r6,dph
   061D AF F0              2289 	mov	r7,b
   061F C0 05              2290 	push	ar5
   0621 C0 06              2291 	push	ar6
   0623 C0 07              2292 	push	ar7
   0625 90s00r3C           2293 	mov	dptr,#_is_streaming_to
   0628 75 F0 00           2294 	mov	b,#0x00
   062B 78r00              2295 	mov	r0,#_rimeaddr_copy
   062D 79s00              2296 	mov	r1,#(_rimeaddr_copy >> 8)
   062F 7As00              2297 	mov	r2,#(_rimeaddr_copy >> 16)
   0631 12s00r00           2298 	lcall	__sdcc_banked_call
   0634 15 81              2299 	dec	sp
   0636 15 81              2300 	dec	sp
   0638 15 81              2301 	dec	sp
   063A 80 62              2302 	sjmp	00116$
   063C                    2303 00115$:
                           2304 ;	../../../contiki-sensinode//core/net/mac/cxmac.c:488: } else if(!rimeaddr_cmp(&is_streaming_to, packetbuf_addr(PACKETBUF_ADDR_RECEIVER))) {
   063C 75 82 19           2305 	mov	dpl,#0x19
   063F 78r00              2306 	mov	r0,#_packetbuf_addr
   0641 79s00              2307 	mov	r1,#(_packetbuf_addr >> 8)
   0643 7As00              2308 	mov	r2,#(_packetbuf_addr >> 16)
   0645 12s00r00           2309 	lcall	__sdcc_banked_call
   0648 AD 82              2310 	mov	r5,dpl
   064A AE 83              2311 	mov	r6,dph
   064C AF F0              2312 	mov	r7,b
   064E C0 05              2313 	push	ar5
   0650 C0 06              2314 	push	ar6
   0652 C0 07              2315 	push	ar7
   0654 90s00r3C           2316 	mov	dptr,#_is_streaming_to
   0657 75 F0 00           2317 	mov	b,#0x00
   065A 78r00              2318 	mov	r0,#_rimeaddr_cmp
   065C 79s00              2319 	mov	r1,#(_rimeaddr_cmp >> 8)
   065E 7As00              2320 	mov	r2,#(_rimeaddr_cmp >> 16)
   0660 12s00r00           2321 	lcall	__sdcc_banked_call
   0663 AE 82              2322 	mov	r6,dpl
   0665 AF 83              2323 	mov	r7,dph
   0667 15 81              2324 	dec	sp
   0669 15 81              2325 	dec	sp
   066B 15 81              2326 	dec	sp
   066D EE                 2327 	mov	a,r6
   066E 4F                 2328 	orl	a,r7
   066F 70 2D              2329 	jnz	00116$
                           2330 ;	../../../contiki-sensinode//core/net/mac/cxmac.c:489: rimeaddr_copy(&is_streaming_to_too, packetbuf_addr(PACKETBUF_ADDR_RECEIVER));
   0671 75 82 19           2331 	mov	dpl,#0x19
   0674 78r00              2332 	mov	r0,#_packetbuf_addr
   0676 79s00              2333 	mov	r1,#(_packetbuf_addr >> 8)
   0678 7As00              2334 	mov	r2,#(_packetbuf_addr >> 16)
   067A 12s00r00           2335 	lcall	__sdcc_banked_call
   067D AD 82              2336 	mov	r5,dpl
   067F AE 83              2337 	mov	r6,dph
   0681 AF F0              2338 	mov	r7,b
   0683 C0 05              2339 	push	ar5
   0685 C0 06              2340 	push	ar6
   0687 C0 07              2341 	push	ar7
   0689 90s00r44           2342 	mov	dptr,#_is_streaming_to_too
   068C 75 F0 00           2343 	mov	b,#0x00
   068F 78r00              2344 	mov	r0,#_rimeaddr_copy
   0691 79s00              2345 	mov	r1,#(_rimeaddr_copy >> 8)
   0693 7As00              2346 	mov	r2,#(_rimeaddr_copy >> 16)
   0695 12s00r00           2347 	lcall	__sdcc_banked_call
   0698 15 81              2348 	dec	sp
   069A 15 81              2349 	dec	sp
   069C 15 81              2350 	dec	sp
   069E                    2351 00116$:
                           2352 ;	../../../contiki-sensinode//core/net/mac/cxmac.c:491: stream_until = RTIMER_NOW() + DEFAULT_STREAM_TIME;
   069E AE E2              2353 	mov	r6,_T1CNTL
   06A0 7F 00              2354 	mov	r7,#0x00
   06A2 AC E3              2355 	mov	r4,_T1CNTH
   06A4 8C 05              2356 	mov	ar5,r4
   06A6 E4                 2357 	clr	a
   06A7 FC                 2358 	mov	r4,a
   06A8 2E                 2359 	add	a,r6
   06A9 FE                 2360 	mov	r6,a
   06AA ED                 2361 	mov	a,r5
   06AB 3F                 2362 	addc	a,r7
   06AC FF                 2363 	mov	r7,a
   06AD 90s00r4C           2364 	mov	dptr,#_stream_until
   06B0 74 09              2365 	mov	a,#0x09
   06B2 2E                 2366 	add	a,r6
   06B3 F0                 2367 	movx	@dptr,a
   06B4 74 3D              2368 	mov	a,#0x3D
   06B6 3F                 2369 	addc	a,r7
   06B7 A3                 2370 	inc	dptr
   06B8 F0                 2371 	movx	@dptr,a
   06B9                    2372 00118$:
                           2373 ;	../../../contiki-sensinode//core/net/mac/cxmac.c:495: off();
   06B9 78r40              2374 	mov	r0,#_off
   06BB 79s00              2375 	mov	r1,#(_off >> 8)
   06BD 7As00              2376 	mov	r2,#(_off >> 16)
   06BF 12s00r00           2377 	lcall	__sdcc_banked_call
                           2378 ;	../../../contiki-sensinode//core/net/mac/cxmac.c:502: for(e = list_head(encounter_list); e != NULL; e = list_item_next(e)) {
   06C2 90s00r10           2379 	mov	dptr,#_encounter_list
   06C5 E0                 2380 	movx	a,@dptr
   06C6 FD                 2381 	mov	r5,a
   06C7 A3                 2382 	inc	dptr
   06C8 E0                 2383 	movx	a,@dptr
   06C9 FE                 2384 	mov	r6,a
   06CA A3                 2385 	inc	dptr
   06CB E0                 2386 	movx	a,@dptr
   06CC FF                 2387 	mov	r7,a
   06CD 8D 82              2388 	mov	dpl,r5
   06CF 8E 83              2389 	mov	dph,r6
   06D1 8F F0              2390 	mov	b,r7
   06D3 78r00              2391 	mov	r0,#_list_head
   06D5 79s00              2392 	mov	r1,#(_list_head >> 8)
   06D7 7As00              2393 	mov	r2,#(_list_head >> 16)
   06D9 12s00r00           2394 	lcall	__sdcc_banked_call
   06DC AD 82              2395 	mov	r5,dpl
   06DE AE 83              2396 	mov	r6,dph
   06E0 AF F0              2397 	mov	r7,b
   06E2 E5 81              2398 	mov	a,sp
   06E4 24 F0              2399 	add	a,#0xf0
   06E6 F8                 2400 	mov	r0,a
   06E7 A6 05              2401 	mov	@r0,ar5
   06E9 08                 2402 	inc	r0
   06EA A6 06              2403 	mov	@r0,ar6
   06EC 08                 2404 	inc	r0
   06ED A6 07              2405 	mov	@r0,ar7
   06EF                    2406 00170$:
   06EF E5 81              2407 	mov	a,sp
   06F1 24 F0              2408 	add	a,#0xf0
   06F3 F8                 2409 	mov	r0,a
   06F4 E4                 2410 	clr	a
   06F5 C0 E0              2411 	push	acc
   06F7 E4                 2412 	clr	a
   06F8 C0 E0              2413 	push	acc
   06FA E4                 2414 	clr	a
   06FB C0 E0              2415 	push	acc
   06FD 86 82              2416 	mov	dpl,@r0
   06FF 08                 2417 	inc	r0
   0700 86 83              2418 	mov	dph,@r0
   0702 08                 2419 	inc	r0
   0703 86 F0              2420 	mov	b,@r0
   0705 12s00r00           2421 	lcall	___gptr_cmp
   0708 15 81              2422 	dec	sp
   070A 15 81              2423 	dec	sp
   070C 15 81              2424 	dec	sp
   070E 70 03              2425 	jnz	00276$
   0710 02s08r2E           2426 	ljmp	00173$
   0713                    2427 00276$:
                           2428 ;	../../../contiki-sensinode//core/net/mac/cxmac.c:503: const rimeaddr_t *neighbor = packetbuf_addr(PACKETBUF_ADDR_RECEIVER);
   0713 75 82 19           2429 	mov	dpl,#0x19
   0716 78r00              2430 	mov	r0,#_packetbuf_addr
   0718 79s00              2431 	mov	r1,#(_packetbuf_addr >> 8)
   071A 7As00              2432 	mov	r2,#(_packetbuf_addr >> 16)
   071C 12s00r00           2433 	lcall	__sdcc_banked_call
   071F AF 82              2434 	mov	r7,dpl
   0721 AE 83              2435 	mov	r6,dph
   0723 AD F0              2436 	mov	r5,b
                           2437 ;	../../../contiki-sensinode//core/net/mac/cxmac.c:505: if(rimeaddr_cmp(neighbor, &e->neighbor)) {
   0725 E5 81              2438 	mov	a,sp
   0727 24 F0              2439 	add	a,#0xf0
   0729 F8                 2440 	mov	r0,a
   072A 74 03              2441 	mov	a,#0x03
   072C 26                 2442 	add	a,@r0
   072D FA                 2443 	mov	r2,a
   072E E4                 2444 	clr	a
   072F 08                 2445 	inc	r0
   0730 36                 2446 	addc	a,@r0
   0731 FB                 2447 	mov	r3,a
   0732 08                 2448 	inc	r0
   0733 86 04              2449 	mov	ar4,@r0
   0735 C0 02              2450 	push	ar2
   0737 C0 03              2451 	push	ar3
   0739 C0 04              2452 	push	ar4
   073B 8F 82              2453 	mov	dpl,r7
   073D 8E 83              2454 	mov	dph,r6
   073F 8D F0              2455 	mov	b,r5
   0741 78r00              2456 	mov	r0,#_rimeaddr_cmp
   0743 79s00              2457 	mov	r1,#(_rimeaddr_cmp >> 8)
   0745 7As00              2458 	mov	r2,#(_rimeaddr_cmp >> 16)
   0747 12s00r00           2459 	lcall	__sdcc_banked_call
   074A AB 82              2460 	mov	r3,dpl
   074C AC 83              2461 	mov	r4,dph
   074E 15 81              2462 	dec	sp
   0750 15 81              2463 	dec	sp
   0752 15 81              2464 	dec	sp
   0754 EB                 2465 	mov	a,r3
   0755 4C                 2466 	orl	a,r4
   0756 70 03              2467 	jnz	00277$
   0758 02s07rFC           2468 	ljmp	00172$
   075B                    2469 00277$:
                           2470 ;	../../../contiki-sensinode//core/net/mac/cxmac.c:515: now = RTIMER_NOW();
   075B AB E2              2471 	mov	r3,_T1CNTL
   075D 7C 00              2472 	mov	r4,#0x00
   075F AA E3              2473 	mov	r2,_T1CNTH
   0761 8A 07              2474 	mov	ar7,r2
   0763 E4                 2475 	clr	a
   0764 2B                 2476 	add	a,r3
   0765 FB                 2477 	mov	r3,a
   0766 EF                 2478 	mov	a,r7
   0767 3C                 2479 	addc	a,r4
   0768 FC                 2480 	mov	r4,a
                           2481 ;	../../../contiki-sensinode//core/net/mac/cxmac.c:516: wait = ((rtimer_clock_t)(e->time - now)) % (DEFAULT_PERIOD);
   0769 E5 81              2482 	mov	a,sp
   076B 24 F0              2483 	add	a,#0xf0
   076D F8                 2484 	mov	r0,a
   076E 74 0B              2485 	mov	a,#0x0B
   0770 26                 2486 	add	a,@r0
   0771 FD                 2487 	mov	r5,a
   0772 E4                 2488 	clr	a
   0773 08                 2489 	inc	r0
   0774 36                 2490 	addc	a,@r0
   0775 FE                 2491 	mov	r6,a
   0776 08                 2492 	inc	r0
   0777 86 07              2493 	mov	ar7,@r0
   0779 8D 82              2494 	mov	dpl,r5
   077B 8E 83              2495 	mov	dph,r6
   077D 8F F0              2496 	mov	b,r7
   077F 12s00r00           2497 	lcall	__gptrget
   0782 FD                 2498 	mov	r5,a
   0783 A3                 2499 	inc	dptr
   0784 12s00r00           2500 	lcall	__gptrget
   0787 FE                 2501 	mov	r6,a
   0788 ED                 2502 	mov	a,r5
   0789 C3                 2503 	clr	c
   078A 9B                 2504 	subb	a,r3
   078B FD                 2505 	mov	r5,a
   078C EE                 2506 	mov	a,r6
   078D 9C                 2507 	subb	a,r4
   078E FE                 2508 	mov	r6,a
   078F C0 04              2509 	push	ar4
   0791 C0 03              2510 	push	ar3
   0793 74 A1              2511 	mov	a,#0xA1
   0795 C0 E0              2512 	push	acc
   0797 74 07              2513 	mov	a,#0x07
   0799 C0 E0              2514 	push	acc
   079B 8D 82              2515 	mov	dpl,r5
   079D 8E 83              2516 	mov	dph,r6
   079F 12s00r00           2517 	lcall	__moduint
   07A2 AE 82              2518 	mov	r6,dpl
   07A4 AF 83              2519 	mov	r7,dph
   07A6 15 81              2520 	dec	sp
   07A8 15 81              2521 	dec	sp
   07AA D0 03              2522 	pop	ar3
   07AC D0 04              2523 	pop	ar4
                           2524 ;	../../../contiki-sensinode//core/net/mac/cxmac.c:517: expected = now + wait - 2 * DEFAULT_ON_TIME;
   07AE EE                 2525 	mov	a,r6
   07AF 2B                 2526 	add	a,r3
   07B0 FB                 2527 	mov	r3,a
   07B1 EF                 2528 	mov	a,r7
   07B2 3C                 2529 	addc	a,r4
   07B3 FC                 2530 	mov	r4,a
   07B4 EB                 2531 	mov	a,r3
   07B5 24 3E              2532 	add	a,#0x3E
   07B7 FB                 2533 	mov	r3,a
   07B8 EC                 2534 	mov	a,r4
   07B9 34 FF              2535 	addc	a,#0xFF
   07BB FA                 2536 	mov	r2,a
                           2537 ;	../../../contiki-sensinode//core/net/mac/cxmac.c:521: if(packetbuf_attr(PACKETBUF_ATTR_PACKET_TYPE) !=
   07BC 75 82 0E           2538 	mov	dpl,#0x0E
   07BF C0 03              2539 	push	ar3
   07C1 C0 02              2540 	push	ar2
   07C3 78r00              2541 	mov	r0,#_packetbuf_attr
   07C5 79s00              2542 	mov	r1,#(_packetbuf_attr >> 8)
   07C7 7As00              2543 	mov	r2,#(_packetbuf_attr >> 16)
   07C9 12s00r00           2544 	lcall	__sdcc_banked_call
   07CC AE 82              2545 	mov	r6,dpl
   07CE AF 83              2546 	mov	r7,dph
   07D0 D0 02              2547 	pop	ar2
   07D2 D0 03              2548 	pop	ar3
   07D4 BE 01 05           2549 	cjne	r6,#0x01,00278$
   07D7 BF 00 02           2550 	cjne	r7,#0x00,00278$
   07DA 80 20              2551 	sjmp	00172$
   07DC                    2552 00278$:
                           2553 ;	../../../contiki-sensinode//core/net/mac/cxmac.c:523: is_streaming == 0) {
   07DC 90s00r3B           2554 	mov	dptr,#_is_streaming
   07DF E0                 2555 	movx	a,@dptr
   07E0 FF                 2556 	mov	r7,a
   07E1 70 19              2557 	jnz	00172$
                           2558 ;	../../../contiki-sensinode//core/net/mac/cxmac.c:526: while(RTIMER_CLOCK_LT(RTIMER_NOW(), expected));
   07E3                    2559 00119$:
   07E3 AE E2              2560 	mov	r6,_T1CNTL
   07E5 7F 00              2561 	mov	r7,#0x00
   07E7 AC E3              2562 	mov	r4,_T1CNTH
   07E9 8C 05              2563 	mov	ar5,r4
   07EB E4                 2564 	clr	a
   07EC FC                 2565 	mov	r4,a
   07ED 2E                 2566 	add	a,r6
   07EE FE                 2567 	mov	r6,a
   07EF ED                 2568 	mov	a,r5
   07F0 3F                 2569 	addc	a,r7
   07F1 FF                 2570 	mov	r7,a
   07F2 EE                 2571 	mov	a,r6
   07F3 C3                 2572 	clr	c
   07F4 9B                 2573 	subb	a,r3
   07F5 FE                 2574 	mov	r6,a
   07F6 EF                 2575 	mov	a,r7
   07F7 9A                 2576 	subb	a,r2
   07F8 FF                 2577 	mov	r7,a
   07F9 20 E7 E7           2578 	jb	acc.7,00119$
   07FC                    2579 00172$:
                           2580 ;	../../../contiki-sensinode//core/net/mac/cxmac.c:502: for(e = list_head(encounter_list); e != NULL; e = list_item_next(e)) {
   07FC E5 81              2581 	mov	a,sp
   07FE 24 F0              2582 	add	a,#0xf0
   0800 F8                 2583 	mov	r0,a
   0801 86 05              2584 	mov	ar5,@r0
   0803 08                 2585 	inc	r0
   0804 86 06              2586 	mov	ar6,@r0
   0806 08                 2587 	inc	r0
   0807 86 07              2588 	mov	ar7,@r0
   0809 8D 82              2589 	mov	dpl,r5
   080B 8E 83              2590 	mov	dph,r6
   080D 8F F0              2591 	mov	b,r7
   080F 78r00              2592 	mov	r0,#_list_item_next
   0811 79s00              2593 	mov	r1,#(_list_item_next >> 8)
   0813 7As00              2594 	mov	r2,#(_list_item_next >> 16)
   0815 12s00r00           2595 	lcall	__sdcc_banked_call
   0818 AD 82              2596 	mov	r5,dpl
   081A AE 83              2597 	mov	r6,dph
   081C AF F0              2598 	mov	r7,b
   081E E5 81              2599 	mov	a,sp
   0820 24 F0              2600 	add	a,#0xf0
   0822 F8                 2601 	mov	r0,a
   0823 A6 05              2602 	mov	@r0,ar5
   0825 08                 2603 	inc	r0
   0826 A6 06              2604 	mov	@r0,ar6
   0828 08                 2605 	inc	r0
   0829 A6 07              2606 	mov	@r0,ar7
   082B 02s06rEF           2607 	ljmp	00170$
   082E                    2608 00173$:
                           2609 ;	../../../contiki-sensinode//core/net/mac/cxmac.c:538: we_are_sending = 1;
   082E 90s00r0B           2610 	mov	dptr,#_we_are_sending
   0831 74 01              2611 	mov	a,#0x01
   0833 F0                 2612 	movx	@dptr,a
                           2613 ;	../../../contiki-sensinode//core/net/mac/cxmac.c:540: t0 = RTIMER_NOW();
   0834 AE E2              2614 	mov	r6,_T1CNTL
   0836 7F 00              2615 	mov	r7,#0x00
   0838 AC E3              2616 	mov	r4,_T1CNTH
   083A 8C 05              2617 	mov	ar5,r4
   083C E4                 2618 	clr	a
   083D 2E                 2619 	add	a,r6
   083E FE                 2620 	mov	r6,a
   083F ED                 2621 	mov	a,r5
   0840 3F                 2622 	addc	a,r7
   0841 FF                 2623 	mov	r7,a
                           2624 ;	../../../contiki-sensinode//core/net/mac/cxmac.c:548: on();
   0842 C0 07              2625 	push	ar7
   0844 C0 06              2626 	push	ar6
   0846 78r00              2627 	mov	r0,#_on
   0848 79s00              2628 	mov	r1,#(_on >> 8)
   084A 7As00              2629 	mov	r2,#(_on >> 16)
   084C 12s00r00           2630 	lcall	__sdcc_banked_call
   084F D0 06              2631 	pop	ar6
   0851 D0 07              2632 	pop	ar7
                           2633 ;	../../../contiki-sensinode//core/net/mac/cxmac.c:549: collisions = 0;
   0853 E5 81              2634 	mov	a,sp
   0855 24 F8              2635 	add	a,#0xf8
   0857 F8                 2636 	mov	r0,a
   0858 76 00              2637 	mov	@r0,#0x00
                           2638 ;	../../../contiki-sensinode//core/net/mac/cxmac.c:550: if(!is_already_streaming) {
   085A E5 81              2639 	mov	a,sp
   085C 24 F6              2640 	add	a,#0xf6
   085E F8                 2641 	mov	r0,a
   085F E6                 2642 	mov	a,@r0
   0860 08                 2643 	inc	r0
   0861 46                 2644 	orl	a,@r0
   0862 60 03              2645 	jz	00281$
   0864 02s0CrAB           2646 	ljmp	00148$
   0867                    2647 00281$:
                           2648 ;	../../../contiki-sensinode//core/net/mac/cxmac.c:551: watchdog_stop();
   0867 C0 06              2649 	push	ar6
   0869 C0 07              2650 	push	ar7
   086B C0 07              2651 	push	ar7
   086D C0 06              2652 	push	ar6
   086F 78r00              2653 	mov	r0,#_watchdog_periodic
   0871 79s00              2654 	mov	r1,#(_watchdog_periodic >> 8)
   0873 7As00              2655 	mov	r2,#(_watchdog_periodic >> 16)
   0875 12s00r00           2656 	lcall	__sdcc_banked_call
   0878 D0 06              2657 	pop	ar6
   087A D0 07              2658 	pop	ar7
                           2659 ;	../../../contiki-sensinode//core/net/mac/cxmac.c:552: got_strobe_ack = 0;
   087C E5 81              2660 	mov	a,sp
   087E 24 B2              2661 	add	a,#0xb2
   0880 F8                 2662 	mov	r0,a
   0881 E4                 2663 	clr	a
   0882 F6                 2664 	mov	@r0,a
   0883 08                 2665 	inc	r0
   0884 F6                 2666 	mov	@r0,a
                           2667 ;	../../../contiki-sensinode//core/net/mac/cxmac.c:553: t = RTIMER_NOW();
   0885 AC E2              2668 	mov	r4,_T1CNTL
   0887 7F 00              2669 	mov	r7,#0x00
   0889 AB E3              2670 	mov	r3,_T1CNTH
   088B 8B 06              2671 	mov	ar6,r3
   088D E4                 2672 	clr	a
   088E FB                 2673 	mov	r3,a
   088F 2C                 2674 	add	a,r4
   0890 FC                 2675 	mov	r4,a
   0891 EE                 2676 	mov	a,r6
   0892 3F                 2677 	addc	a,r7
   0893 FF                 2678 	mov	r7,a
   0894 E5 81              2679 	mov	a,sp
   0896 24 AC              2680 	add	a,#0xac
   0898 F8                 2681 	mov	r0,a
   0899 A6 04              2682 	mov	@r0,ar4
   089B 08                 2683 	inc	r0
   089C A6 07              2684 	mov	@r0,ar7
                           2685 ;	../../../contiki-sensinode//core/net/mac/cxmac.c:554: for(strobes = 0, collisions = 0;
   089E E5 81              2686 	mov	a,sp
   08A0 24 F6              2687 	add	a,#0xf6
   08A2 F8                 2688 	mov	r0,a
   08A3 76 00              2689 	mov	@r0,#0x00
   08A5 E5 81              2690 	mov	a,sp
   08A7 24 F9              2691 	add	a,#0xf9
   08A9 F8                 2692 	mov	r0,a
   08AA E5 81              2693 	mov	a,sp
   08AC 24 FA              2694 	add	a,#0xfa
   08AE F9                 2695 	mov	r1,a
   08AF E6                 2696 	mov	a,@r0
   08B0 F7                 2697 	mov	@r1,a
   08B1 E5 81              2698 	mov	a,sp
   08B3 24 B0              2699 	add	a,#0xb0
   08B5 F8                 2700 	mov	r0,a
   08B6 E4                 2701 	clr	a
   08B7 F6                 2702 	mov	@r0,a
   08B8 08                 2703 	inc	r0
   08B9 F6                 2704 	mov	@r0,a
                           2705 ;	../../../contiki-sensinode//core/net/mac/cxmac.c:682: return MAC_TX_COLLISION;
   08BA D0 07              2706 	pop	ar7
   08BC D0 06              2707 	pop	ar6
                           2708 ;	../../../contiki-sensinode//core/net/mac/cxmac.c:554: for(strobes = 0, collisions = 0;
   08BE                    2709 00176$:
                           2710 ;	../../../contiki-sensinode//core/net/mac/cxmac.c:555: got_strobe_ack == 0 && collisions == 0 &&
   08BE E5 81              2711 	mov	a,sp
   08C0 24 B4              2712 	add	a,#0xb4
   08C2 F8                 2713 	mov	r0,a
   08C3 B6 00 06           2714 	cjne	@r0,#0x00,00282$
   08C6 08                 2715 	inc	r0
   08C7 B6 00 02           2716 	cjne	@r0,#0x00,00282$
   08CA 80 03              2717 	sjmp	00283$
   08CC                    2718 00282$:
   08CC 02s0CrAB           2719 	ljmp	00148$
   08CF                    2720 00283$:
   08CF E5 81              2721 	mov	a,sp
   08D1 24 F8              2722 	add	a,#0xf8
   08D3 F8                 2723 	mov	r0,a
   08D4 B6 00 02           2724 	cjne	@r0,#0x00,00284$
   08D7 80 03              2725 	sjmp	00285$
   08D9                    2726 00284$:
   08D9 02s0CrAB           2727 	ljmp	00148$
   08DC                    2728 00285$:
                           2729 ;	../../../contiki-sensinode//core/net/mac/cxmac.c:556: RTIMER_CLOCK_LT(RTIMER_NOW(), t0 + cxmac_config.strobe_time);
   08DC AB E2              2730 	mov	r3,_T1CNTL
   08DE 7C 00              2731 	mov	r4,#0x00
   08E0 AA E3              2732 	mov	r2,_T1CNTH
   08E2 8A 05              2733 	mov	ar5,r2
   08E4 E4                 2734 	clr	a
   08E5 2B                 2735 	add	a,r3
   08E6 FB                 2736 	mov	r3,a
   08E7 ED                 2737 	mov	a,r5
   08E8 3C                 2738 	addc	a,r4
   08E9 FC                 2739 	mov	r4,a
   08EA 90s00r04           2740 	mov	dptr,#(_cxmac_config + 0x0004)
   08ED E0                 2741 	movx	a,@dptr
   08EE FA                 2742 	mov	r2,a
   08EF A3                 2743 	inc	dptr
   08F0 E0                 2744 	movx	a,@dptr
   08F1 FD                 2745 	mov	r5,a
   08F2 EA                 2746 	mov	a,r2
   08F3 2E                 2747 	add	a,r6
   08F4 FA                 2748 	mov	r2,a
   08F5 ED                 2749 	mov	a,r5
   08F6 3F                 2750 	addc	a,r7
   08F7 FD                 2751 	mov	r5,a
   08F8 EB                 2752 	mov	a,r3
   08F9 C3                 2753 	clr	c
   08FA 9A                 2754 	subb	a,r2
   08FB FA                 2755 	mov	r2,a
   08FC EC                 2756 	mov	a,r4
   08FD 9D                 2757 	subb	a,r5
   08FE FD                 2758 	mov	r5,a
   08FF 20 E7 03           2759 	jb	acc.7,00286$
   0902 02s0CrAB           2760 	ljmp	00148$
   0905                    2761 00286$:
                           2762 ;	../../../contiki-sensinode//core/net/mac/cxmac.c:559: while(got_strobe_ack == 0 &&
   0905 E5 81              2763 	mov	a,sp
   0907 24 F8              2764 	add	a,#0xf8
   0909 F8                 2765 	mov	r0,a
   090A 86 04              2766 	mov	ar4,@r0
   090C                    2767 00138$:
   090C E5 81              2768 	mov	a,sp
   090E 24 B4              2769 	add	a,#0xb4
   0910 F8                 2770 	mov	r0,a
   0911 E6                 2771 	mov	a,@r0
   0912 08                 2772 	inc	r0
   0913 46                 2773 	orl	a,@r0
   0914 60 03              2774 	jz	00287$
   0916 02s0Br30           2775 	ljmp	00221$
   0919                    2776 00287$:
                           2777 ;	../../../contiki-sensinode//core/net/mac/cxmac.c:560: RTIMER_CLOCK_LT(RTIMER_NOW(), t + cxmac_config.strobe_wait_time)) {
   0919 C0 06              2778 	push	ar6
   091B C0 07              2779 	push	ar7
   091D AA E2              2780 	mov	r2,_T1CNTL
   091F 7B 00              2781 	mov	r3,#0x00
   0921 AE E3              2782 	mov	r6,_T1CNTH
   0923 8E 07              2783 	mov	ar7,r6
   0925 E4                 2784 	clr	a
   0926 2A                 2785 	add	a,r2
   0927 FA                 2786 	mov	r2,a
   0928 EF                 2787 	mov	a,r7
   0929 3B                 2788 	addc	a,r3
   092A FB                 2789 	mov	r3,a
   092B 90s00r06           2790 	mov	dptr,#(_cxmac_config + 0x0006)
   092E E0                 2791 	movx	a,@dptr
   092F FE                 2792 	mov	r6,a
   0930 A3                 2793 	inc	dptr
   0931 E0                 2794 	movx	a,@dptr
   0932 FF                 2795 	mov	r7,a
   0933 E5 81              2796 	mov	a,sp
   0935 24 AC              2797 	add	a,#0xac
   0937 F8                 2798 	mov	r0,a
   0938 EE                 2799 	mov	a,r6
   0939 26                 2800 	add	a,@r0
   093A FE                 2801 	mov	r6,a
   093B EF                 2802 	mov	a,r7
   093C 08                 2803 	inc	r0
   093D 36                 2804 	addc	a,@r0
   093E FF                 2805 	mov	r7,a
   093F EA                 2806 	mov	a,r2
   0940 C3                 2807 	clr	c
   0941 9E                 2808 	subb	a,r6
   0942 EB                 2809 	mov	a,r3
   0943 9F                 2810 	subb	a,r7
   0944 D0 07              2811 	pop	ar7
   0946 D0 06              2812 	pop	ar6
   0948 20 E7 03           2813 	jb	acc.7,00288$
   094B 02s0Br30           2814 	ljmp	00221$
   094E                    2815 00288$:
                           2816 ;	../../../contiki-sensinode//core/net/mac/cxmac.c:561: rtimer_clock_t now = RTIMER_NOW();
   094E C0 06              2817 	push	ar6
   0950 C0 07              2818 	push	ar7
   0952 AA E2              2819 	mov	r2,_T1CNTL
   0954 7B 00              2820 	mov	r3,#0x00
   0956 AE E3              2821 	mov	r6,_T1CNTH
   0958 8E 07              2822 	mov	ar7,r6
   095A E4                 2823 	clr	a
   095B FE                 2824 	mov	r6,a
   095C 2A                 2825 	add	a,r2
   095D FA                 2826 	mov	r2,a
   095E EF                 2827 	mov	a,r7
   095F 3B                 2828 	addc	a,r3
   0960 FB                 2829 	mov	r3,a
   0961 E5 81              2830 	mov	a,sp
   0963 24 F7              2831 	add	a,#0xf7
   0965 F8                 2832 	mov	r0,a
   0966 A6 02              2833 	mov	@r0,ar2
   0968 08                 2834 	inc	r0
   0969 A6 03              2835 	mov	@r0,ar3
                           2836 ;	../../../contiki-sensinode//core/net/mac/cxmac.c:564: packetbuf_clear();
   096B C0 07              2837 	push	ar7
   096D C0 06              2838 	push	ar6
   096F C0 04              2839 	push	ar4
   0971 78r00              2840 	mov	r0,#_packetbuf_clear
   0973 79s00              2841 	mov	r1,#(_packetbuf_clear >> 8)
   0975 7As00              2842 	mov	r2,#(_packetbuf_clear >> 16)
   0977 12s00r00           2843 	lcall	__sdcc_banked_call
   097A D0 04              2844 	pop	ar4
   097C D0 06              2845 	pop	ar6
   097E D0 07              2846 	pop	ar7
                           2847 ;	../../../contiki-sensinode//core/net/mac/cxmac.c:565: len = NETSTACK_RADIO.read(packetbuf_dataptr(), PACKETBUF_SIZE);
   0980 90s00r0C           2848 	mov	dptr,#(_cc2530_rf_driver + 0x000c)
   0983 E5 81              2849 	mov	a,sp
   0985 24 FC              2850 	add	a,#0xfc
   0987 F8                 2851 	mov	r0,a
   0988 E4                 2852 	clr	a
   0989 93                 2853 	movc	a,@a+dptr
   098A F6                 2854 	mov	@r0,a
   098B A3                 2855 	inc	dptr
   098C E4                 2856 	clr	a
   098D 93                 2857 	movc	a,@a+dptr
   098E 08                 2858 	inc	r0
   098F F6                 2859 	mov	@r0,a
   0990 A3                 2860 	inc	dptr
   0991 E4                 2861 	clr	a
   0992 93                 2862 	movc	a,@a+dptr
   0993 08                 2863 	inc	r0
   0994 F6                 2864 	mov	@r0,a
   0995 C0 04              2865 	push	ar4
   0997 78r00              2866 	mov	r0,#_packetbuf_dataptr
   0999 79s00              2867 	mov	r1,#(_packetbuf_dataptr >> 8)
   099B 7As00              2868 	mov	r2,#(_packetbuf_dataptr >> 16)
   099D 12s00r00           2869 	lcall	__sdcc_banked_call
   09A0 AA 82              2870 	mov	r2,dpl
   09A2 AE 83              2871 	mov	r6,dph
   09A4 AF F0              2872 	mov	r7,b
   09A6 74 80              2873 	mov	a,#0x80
   09A8 C0 E0              2874 	push	acc
   09AA E4                 2875 	clr	a
   09AB C0 E0              2876 	push	acc
   09AD E5 81              2877 	mov	a,sp
   09AF 24 F9              2878 	add	a,#0xf9
   09B1 F8                 2879 	mov	r0,a
   09B2 E6                 2880 	mov	a,@r0
   09B3 C0 E0              2881 	push	acc
   09B5 08                 2882 	inc	r0
   09B6 E6                 2883 	mov	a,@r0
   09B7 C0 E0              2884 	push	acc
   09B9 08                 2885 	inc	r0
   09BA E6                 2886 	mov	a,@r0
   09BB C0 E0              2887 	push	acc
   09BD 8A 82              2888 	mov	dpl,r2
   09BF 8E 83              2889 	mov	dph,r6
   09C1 8F F0              2890 	mov	b,r7
   09C3 D0 02              2891 	pop	ar2
   09C5 D0 01              2892 	pop	ar1
   09C7 D0 00              2893 	pop	ar0
   09C9 12s00r00           2894 	lcall	__sdcc_banked_call
   09CC AE 82              2895 	mov	r6,dpl
   09CE AF 83              2896 	mov	r7,dph
   09D0 15 81              2897 	dec	sp
   09D2 15 81              2898 	dec	sp
   09D4 D0 04              2899 	pop	ar4
   09D6 E5 81              2900 	mov	a,sp
   09D8 24 E8              2901 	add	a,#0xe8
   09DA F8                 2902 	mov	r0,a
   09DB A6 06              2903 	mov	@r0,ar6
   09DD 08                 2904 	inc	r0
   09DE A6 07              2905 	mov	@r0,ar7
                           2906 ;	../../../contiki-sensinode//core/net/mac/cxmac.c:566: if(len > 0) {
   09E0 E5 81              2907 	mov	a,sp
   09E2 24 E8              2908 	add	a,#0xe8
   09E4 F8                 2909 	mov	r0,a
   09E5 C3                 2910 	clr	c
   09E6 E4                 2911 	clr	a
   09E7 96                 2912 	subb	a,@r0
   09E8 E4                 2913 	clr	a
   09E9 64 80              2914 	xrl	a,#0x80
   09EB 08                 2915 	inc	r0
   09EC 86 F0              2916 	mov	b,@r0
   09EE 63 F0 80           2917 	xrl	b,#0x80
   09F1 95 F0              2918 	subb	a,b
   09F3 D0 07              2919 	pop	ar7
   09F5 D0 06              2920 	pop	ar6
   09F7 40 03              2921 	jc	00290$
   09F9 02s09r0C           2922 	ljmp	00138$
   09FC                    2923 00290$:
                           2924 ;	../../../contiki-sensinode//core/net/mac/cxmac.c:567: packetbuf_set_datalen(len);
   09FC C0 06              2925 	push	ar6
   09FE C0 07              2926 	push	ar7
   0A00 E5 81              2927 	mov	a,sp
   0A02 24 E8              2928 	add	a,#0xe8
   0A04 F8                 2929 	mov	r0,a
   0A05 86 02              2930 	mov	ar2,@r0
   0A07 08                 2931 	inc	r0
   0A08 86 03              2932 	mov	ar3,@r0
   0A0A 8A 82              2933 	mov	dpl,r2
   0A0C 8B 83              2934 	mov	dph,r3
   0A0E C0 07              2935 	push	ar7
   0A10 C0 06              2936 	push	ar6
   0A12 C0 04              2937 	push	ar4
   0A14 78r00              2938 	mov	r0,#_packetbuf_set_datalen
   0A16 79s00              2939 	mov	r1,#(_packetbuf_set_datalen >> 8)
   0A18 7As00              2940 	mov	r2,#(_packetbuf_set_datalen >> 16)
   0A1A 12s00r00           2941 	lcall	__sdcc_banked_call
   0A1D D0 04              2942 	pop	ar4
   0A1F D0 06              2943 	pop	ar6
   0A21 D0 07              2944 	pop	ar7
                           2945 ;	../../../contiki-sensinode//core/net/mac/cxmac.c:568: if(NETSTACK_FRAMER.parse() >= 0) {
   0A23 90s00r03           2946 	mov	dptr,#(_framer_802154 + 0x0003)
   0A26 E4                 2947 	clr	a
   0A27 93                 2948 	movc	a,@a+dptr
   0A28 FA                 2949 	mov	r2,a
   0A29 A3                 2950 	inc	dptr
   0A2A E4                 2951 	clr	a
   0A2B 93                 2952 	movc	a,@a+dptr
   0A2C FB                 2953 	mov	r3,a
   0A2D A3                 2954 	inc	dptr
   0A2E E4                 2955 	clr	a
   0A2F 93                 2956 	movc	a,@a+dptr
   0A30 FF                 2957 	mov	r7,a
   0A31 C0 07              2958 	push	ar7
   0A33 C0 06              2959 	push	ar6
   0A35 C0 04              2960 	push	ar4
   0A37 C0 02              2961 	push	ar2
   0A39 C0 03              2962 	push	ar3
   0A3B C0 07              2963 	push	ar7
   0A3D D0 02              2964 	pop	ar2
   0A3F D0 01              2965 	pop	ar1
   0A41 D0 00              2966 	pop	ar0
   0A43 12s00r00           2967 	lcall	__sdcc_banked_call
   0A46 AA 82              2968 	mov	r2,dpl
   0A48 AB 83              2969 	mov	r3,dph
   0A4A D0 04              2970 	pop	ar4
   0A4C D0 06              2971 	pop	ar6
   0A4E D0 07              2972 	pop	ar7
   0A50 EB                 2973 	mov	a,r3
   0A51 D0 07              2974 	pop	ar7
   0A53 D0 06              2975 	pop	ar6
   0A55 30 E7 03           2976 	jnb	acc.7,00292$
   0A58 02s09r0C           2977 	ljmp	00138$
   0A5B                    2978 00292$:
                           2979 ;	../../../contiki-sensinode//core/net/mac/cxmac.c:569: hdr = packetbuf_dataptr();
   0A5B C0 06              2980 	push	ar6
   0A5D C0 07              2981 	push	ar7
   0A5F C0 06              2982 	push	ar6
   0A61 C0 04              2983 	push	ar4
   0A63 78r00              2984 	mov	r0,#_packetbuf_dataptr
   0A65 79s00              2985 	mov	r1,#(_packetbuf_dataptr >> 8)
   0A67 7As00              2986 	mov	r2,#(_packetbuf_dataptr >> 16)
   0A69 12s00r00           2987 	lcall	__sdcc_banked_call
   0A6C AA 82              2988 	mov	r2,dpl
   0A6E AB 83              2989 	mov	r3,dph
   0A70 AF F0              2990 	mov	r7,b
   0A72 D0 04              2991 	pop	ar4
   0A74 D0 06              2992 	pop	ar6
                           2993 ;	../../../contiki-sensinode//core/net/mac/cxmac.c:570: is_dispatch = hdr->dispatch == DISPATCH;
   0A76 8A 82              2994 	mov	dpl,r2
   0A78 8B 83              2995 	mov	dph,r3
   0A7A 8F F0              2996 	mov	b,r7
   0A7C 12s00r00           2997 	lcall	__gptrget
   0A7F FE                 2998 	mov	r6,a
   0A80 E4                 2999 	clr	a
   0A81 BE 00 01           3000 	cjne	r6,#0x00,00293$
   0A84 04                 3001 	inc	a
   0A85                    3002 00293$:
   0A85 FE                 3003 	mov	r6,a
   0A86 E5 81              3004 	mov	a,sp
   0A88 24 EC              3005 	add	a,#0xec
   0A8A F8                 3006 	mov	r0,a
   0A8B A6 06              3007 	mov	@r0,ar6
   0A8D EE                 3008 	mov	a,r6
   0A8E 33                 3009 	rlc	a
   0A8F 95 E0              3010 	subb	a,acc
   0A91 08                 3011 	inc	r0
   0A92 F6                 3012 	mov	@r0,a
                           3013 ;	../../../contiki-sensinode//core/net/mac/cxmac.c:571: is_strobe_ack = hdr->type == TYPE_STROBE_ACK;
   0A93 0A                 3014 	inc	r2
   0A94 BA 00 01           3015 	cjne	r2,#0x00,00295$
   0A97 0B                 3016 	inc	r3
   0A98                    3017 00295$:
   0A98 8A 82              3018 	mov	dpl,r2
   0A9A 8B 83              3019 	mov	dph,r3
   0A9C 8F F0              3020 	mov	b,r7
   0A9E 12s00r00           3021 	lcall	__gptrget
   0AA1 FA                 3022 	mov	r2,a
   0AA2 E4                 3023 	clr	a
   0AA3 BA 13 01           3024 	cjne	r2,#0x13,00296$
   0AA6 04                 3025 	inc	a
   0AA7                    3026 00296$:
   0AA7 FA                 3027 	mov	r2,a
   0AA8 33                 3028 	rlc	a
   0AA9 95 E0              3029 	subb	a,acc
   0AAB FD                 3030 	mov	r5,a
                           3031 ;	../../../contiki-sensinode//core/net/mac/cxmac.c:572: if(is_dispatch && is_strobe_ack) {
   0AAC D0 07              3032 	pop	ar7
   0AAE D0 06              3033 	pop	ar6
   0AB0 E5 81              3034 	mov	a,sp
   0AB2 24 EE              3035 	add	a,#0xee
   0AB4 F8                 3036 	mov	r0,a
   0AB5 E6                 3037 	mov	a,@r0
   0AB6 08                 3038 	inc	r0
   0AB7 46                 3039 	orl	a,@r0
   0AB8 60 72              3040 	jz	00130$
   0ABA EA                 3041 	mov	a,r2
   0ABB 4D                 3042 	orl	a,r5
   0ABC 60 6E              3043 	jz	00130$
                           3044 ;	../../../contiki-sensinode//core/net/mac/cxmac.c:574: &rimeaddr_node_addr)) {
   0ABE C0 06              3045 	push	ar6
   0AC0 C0 07              3046 	push	ar7
                           3047 ;	../../../contiki-sensinode//core/net/mac/cxmac.c:573: if(rimeaddr_cmp(packetbuf_addr(PACKETBUF_ADDR_RECEIVER),
   0AC2 75 82 19           3048 	mov	dpl,#0x19
   0AC5 C0 06              3049 	push	ar6
   0AC7 C0 04              3050 	push	ar4
   0AC9 78r00              3051 	mov	r0,#_packetbuf_addr
   0ACB 79s00              3052 	mov	r1,#(_packetbuf_addr >> 8)
   0ACD 7As00              3053 	mov	r2,#(_packetbuf_addr >> 16)
   0ACF 12s00r00           3054 	lcall	__sdcc_banked_call
   0AD2 AA 82              3055 	mov	r2,dpl
   0AD4 AB 83              3056 	mov	r3,dph
   0AD6 AF F0              3057 	mov	r7,b
   0AD8 D0 04              3058 	pop	ar4
   0ADA D0 06              3059 	pop	ar6
   0ADC C0 04              3060 	push	ar4
   0ADE 74r00              3061 	mov	a,#_rimeaddr_node_addr
   0AE0 C0 E0              3062 	push	acc
   0AE2 74s00              3063 	mov	a,#(_rimeaddr_node_addr >> 8)
   0AE4 C0 E0              3064 	push	acc
   0AE6 E4                 3065 	clr	a
   0AE7 C0 E0              3066 	push	acc
   0AE9 8A 82              3067 	mov	dpl,r2
   0AEB 8B 83              3068 	mov	dph,r3
   0AED 8F F0              3069 	mov	b,r7
   0AEF 78r00              3070 	mov	r0,#_rimeaddr_cmp
   0AF1 79s00              3071 	mov	r1,#(_rimeaddr_cmp >> 8)
   0AF3 7As00              3072 	mov	r2,#(_rimeaddr_cmp >> 16)
   0AF5 12s00r00           3073 	lcall	__sdcc_banked_call
   0AF8 AE 82              3074 	mov	r6,dpl
   0AFA AF 83              3075 	mov	r7,dph
   0AFC 15 81              3076 	dec	sp
   0AFE 15 81              3077 	dec	sp
   0B00 15 81              3078 	dec	sp
   0B02 D0 04              3079 	pop	ar4
   0B04 EE                 3080 	mov	a,r6
   0B05 4F                 3081 	orl	a,r7
   0B06 D0 07              3082 	pop	ar7
   0B08 D0 06              3083 	pop	ar6
   0B0A 70 03              3084 	jnz	00300$
   0B0C 02s09r0C           3085 	ljmp	00138$
   0B0F                    3086 00300$:
                           3087 ;	../../../contiki-sensinode//core/net/mac/cxmac.c:577: got_strobe_ack = 1;
   0B0F E5 81              3088 	mov	a,sp
   0B11 24 B4              3089 	add	a,#0xb4
   0B13 F8                 3090 	mov	r0,a
   0B14 76 01              3091 	mov	@r0,#0x01
   0B16 08                 3092 	inc	r0
   0B17 76 00              3093 	mov	@r0,#0x00
                           3094 ;	../../../contiki-sensinode//core/net/mac/cxmac.c:578: encounter_time = now;
   0B19 E5 81              3095 	mov	a,sp
   0B1B 24 F9              3096 	add	a,#0xf9
   0B1D F8                 3097 	mov	r0,a
   0B1E E5 81              3098 	mov	a,sp
   0B20 24 B0              3099 	add	a,#0xb0
   0B22 F9                 3100 	mov	r1,a
   0B23 E6                 3101 	mov	a,@r0
   0B24 F7                 3102 	mov	@r1,a
   0B25 08                 3103 	inc	r0
   0B26 09                 3104 	inc	r1
   0B27 E6                 3105 	mov	a,@r0
   0B28 F7                 3106 	mov	@r1,a
   0B29 02s09r0C           3107 	ljmp	00138$
   0B2C                    3108 00130$:
                           3109 ;	../../../contiki-sensinode//core/net/mac/cxmac.c:584: collisions++;
   0B2C 0C                 3110 	inc	r4
   0B2D 02s09r0C           3111 	ljmp	00138$
   0B30                    3112 00221$:
   0B30 C0 06              3113 	push	ar6
   0B32 C0 07              3114 	push	ar7
   0B34 E5 81              3115 	mov	a,sp
   0B36 24 F6              3116 	add	a,#0xf6
   0B38 F8                 3117 	mov	r0,a
   0B39 A6 04              3118 	mov	@r0,ar4
                           3119 ;	../../../contiki-sensinode//core/net/mac/cxmac.c:592: t = RTIMER_NOW();
   0B3B AA E2              3120 	mov	r2,_T1CNTL
   0B3D 7B 00              3121 	mov	r3,#0x00
   0B3F AE E3              3122 	mov	r6,_T1CNTH
   0B41 8E 07              3123 	mov	ar7,r6
   0B43 E4                 3124 	clr	a
   0B44 2A                 3125 	add	a,r2
   0B45 FA                 3126 	mov	r2,a
   0B46 EF                 3127 	mov	a,r7
   0B47 3B                 3128 	addc	a,r3
   0B48 FB                 3129 	mov	r3,a
   0B49 E5 81              3130 	mov	a,sp
   0B4B 24 AC              3131 	add	a,#0xac
   0B4D F8                 3132 	mov	r0,a
   0B4E A6 02              3133 	mov	@r0,ar2
   0B50 08                 3134 	inc	r0
   0B51 A6 03              3135 	mov	@r0,ar3
                           3136 ;	../../../contiki-sensinode//core/net/mac/cxmac.c:594: if(got_strobe_ack == 0 && collisions == 0) {
   0B53 D0 07              3137 	pop	ar7
   0B55 D0 06              3138 	pop	ar6
   0B57 E5 81              3139 	mov	a,sp
   0B59 24 B4              3140 	add	a,#0xb4
   0B5B F8                 3141 	mov	r0,a
   0B5C E6                 3142 	mov	a,@r0
   0B5D 08                 3143 	inc	r0
   0B5E 46                 3144 	orl	a,@r0
   0B5F 60 03              3145 	jz	00301$
   0B61 02s0Cr9D           3146 	ljmp	00178$
   0B64                    3147 00301$:
   0B64 EC                 3148 	mov	a,r4
   0B65 60 03              3149 	jz	00302$
   0B67 02s0Cr9D           3150 	ljmp	00178$
   0B6A                    3151 00302$:
                           3152 ;	../../../contiki-sensinode//core/net/mac/cxmac.c:595: if(is_broadcast) {
   0B6A E5 81              3153 	mov	a,sp
   0B6C 24 EC              3154 	add	a,#0xec
   0B6E F8                 3155 	mov	r0,a
   0B6F E6                 3156 	mov	a,@r0
   0B70 08                 3157 	inc	r0
   0B71 46                 3158 	orl	a,@r0
   0B72 70 03              3159 	jnz	00303$
   0B74 02s0Cr2A           3160 	ljmp	00142$
   0B77                    3161 00303$:
                           3162 ;	../../../contiki-sensinode//core/net/mac/cxmac.c:600: queuebuf_to_packetbuf(packet);
   0B77 C0 06              3163 	push	ar6
   0B79 C0 07              3164 	push	ar7
   0B7B E5 81              3165 	mov	a,sp
   0B7D 24 F1              3166 	add	a,#0xf1
   0B7F F8                 3167 	mov	r0,a
   0B80 86 82              3168 	mov	dpl,@r0
   0B82 08                 3169 	inc	r0
   0B83 86 83              3170 	mov	dph,@r0
   0B85 08                 3171 	inc	r0
   0B86 86 F0              3172 	mov	b,@r0
   0B88 C0 07              3173 	push	ar7
   0B8A C0 06              3174 	push	ar6
   0B8C 78r00              3175 	mov	r0,#_queuebuf_to_packetbuf
   0B8E 79s00              3176 	mov	r1,#(_queuebuf_to_packetbuf >> 8)
   0B90 7As00              3177 	mov	r2,#(_queuebuf_to_packetbuf >> 16)
   0B92 12s00r00           3178 	lcall	__sdcc_banked_call
                           3179 ;	../../../contiki-sensinode//core/net/mac/cxmac.c:601: NETSTACK_RADIO.send(packetbuf_hdrptr(), packetbuf_totlen());
   0B95 90s00r09           3180 	mov	dptr,#(_cc2530_rf_driver + 0x0009)
   0B98 E4                 3181 	clr	a
   0B99 93                 3182 	movc	a,@a+dptr
   0B9A FA                 3183 	mov	r2,a
   0B9B A3                 3184 	inc	dptr
   0B9C E4                 3185 	clr	a
   0B9D 93                 3186 	movc	a,@a+dptr
   0B9E FB                 3187 	mov	r3,a
   0B9F A3                 3188 	inc	dptr
   0BA0 E4                 3189 	clr	a
   0BA1 93                 3190 	movc	a,@a+dptr
   0BA2 FC                 3191 	mov	r4,a
   0BA3 C0 04              3192 	push	ar4
   0BA5 C0 03              3193 	push	ar3
   0BA7 C0 02              3194 	push	ar2
   0BA9 78r00              3195 	mov	r0,#_packetbuf_totlen
   0BAB 79s00              3196 	mov	r1,#(_packetbuf_totlen >> 8)
   0BAD 7As00              3197 	mov	r2,#(_packetbuf_totlen >> 16)
   0BAF 12s00r00           3198 	lcall	__sdcc_banked_call
   0BB2 C8                 3199 	xch	a,r0
   0BB3 E5 81              3200 	mov	a,sp
   0BB5 24 F7              3201 	add	a,#0xf7
   0BB7 C8                 3202 	xch	a,r0
   0BB8 A6 82              3203 	mov	@r0,dpl
   0BBA 08                 3204 	inc	r0
   0BBB A6 83              3205 	mov	@r0,dph
   0BBD D0 02              3206 	pop	ar2
   0BBF D0 03              3207 	pop	ar3
   0BC1 D0 04              3208 	pop	ar4
   0BC3 D0 06              3209 	pop	ar6
   0BC5 D0 07              3210 	pop	ar7
   0BC7 C0 04              3211 	push	ar4
   0BC9 C0 03              3212 	push	ar3
   0BCB C0 02              3213 	push	ar2
   0BCD 78r00              3214 	mov	r0,#_packetbuf_hdrptr
   0BCF 79s00              3215 	mov	r1,#(_packetbuf_hdrptr >> 8)
   0BD1 7As00              3216 	mov	r2,#(_packetbuf_hdrptr >> 16)
   0BD3 12s00r00           3217 	lcall	__sdcc_banked_call
   0BD6 AD 82              3218 	mov	r5,dpl
   0BD8 AE 83              3219 	mov	r6,dph
   0BDA AF F0              3220 	mov	r7,b
   0BDC D0 02              3221 	pop	ar2
   0BDE D0 03              3222 	pop	ar3
   0BE0 D0 04              3223 	pop	ar4
   0BE2 C0 07              3224 	push	ar7
   0BE4 C0 06              3225 	push	ar6
   0BE6 C0 04              3226 	push	ar4
   0BE8 C0 03              3227 	push	ar3
   0BEA C0 02              3228 	push	ar2
   0BEC E5 81              3229 	mov	a,sp
   0BEE 24 F7              3230 	add	a,#0xf7
   0BF0 F8                 3231 	mov	r0,a
   0BF1 E6                 3232 	mov	a,@r0
   0BF2 C0 E0              3233 	push	acc
   0BF4 08                 3234 	inc	r0
   0BF5 E6                 3235 	mov	a,@r0
   0BF6 C0 E0              3236 	push	acc
   0BF8 C0 02              3237 	push	ar2
   0BFA C0 03              3238 	push	ar3
   0BFC C0 04              3239 	push	ar4
   0BFE 8D 82              3240 	mov	dpl,r5
   0C00 8E 83              3241 	mov	dph,r6
   0C02 8F F0              3242 	mov	b,r7
   0C04 D0 02              3243 	pop	ar2
   0C06 D0 01              3244 	pop	ar1
   0C08 D0 00              3245 	pop	ar0
   0C0A 12s00r00           3246 	lcall	__sdcc_banked_call
   0C0D 15 81              3247 	dec	sp
   0C0F 15 81              3248 	dec	sp
   0C11 D0 02              3249 	pop	ar2
   0C13 D0 03              3250 	pop	ar3
   0C15 D0 04              3251 	pop	ar4
                           3252 ;	../../../contiki-sensinode//core/net/mac/cxmac.c:603: off();
   0C17 78r40              3253 	mov	r0,#_off
   0C19 79s00              3254 	mov	r1,#(_off >> 8)
   0C1B 7As00              3255 	mov	r2,#(_off >> 16)
   0C1D 12s00r00           3256 	lcall	__sdcc_banked_call
   0C20 D0 06              3257 	pop	ar6
   0C22 D0 07              3258 	pop	ar7
   0C24 D0 07              3259 	pop	ar7
   0C26 D0 06              3260 	pop	ar6
   0C28 80 73              3261 	sjmp	00178$
   0C2A                    3262 00142$:
                           3263 ;	../../../contiki-sensinode//core/net/mac/cxmac.c:605: NETSTACK_RADIO.send(strobe, strobe_len);
   0C2A C0 06              3264 	push	ar6
   0C2C C0 07              3265 	push	ar7
   0C2E 90s00r09           3266 	mov	dptr,#(_cc2530_rf_driver + 0x0009)
   0C31 E4                 3267 	clr	a
   0C32 93                 3268 	movc	a,@a+dptr
   0C33 FB                 3269 	mov	r3,a
   0C34 A3                 3270 	inc	dptr
   0C35 E4                 3271 	clr	a
   0C36 93                 3272 	movc	a,@a+dptr
   0C37 FC                 3273 	mov	r4,a
   0C38 A3                 3274 	inc	dptr
   0C39 E4                 3275 	clr	a
   0C3A 93                 3276 	movc	a,@a+dptr
   0C3B FD                 3277 	mov	r5,a
   0C3C E5 81              3278 	mov	a,sp
   0C3E 24 E6              3279 	add	a,#0xe6
   0C40 F8                 3280 	mov	r0,a
   0C41 E5 81              3281 	mov	a,sp
   0C43 24 FC              3282 	add	a,#0xfc
   0C45 F9                 3283 	mov	r1,a
   0C46 E6                 3284 	mov	a,@r0
   0C47 F7                 3285 	mov	@r1,a
   0C48 08                 3286 	inc	r0
   0C49 09                 3287 	inc	r1
   0C4A E6                 3288 	mov	a,@r0
   0C4B F7                 3289 	mov	@r1,a
   0C4C E5 81              3290 	mov	a,sp
   0C4E 24 FA              3291 	add	a,#0xfa
   0C50 F8                 3292 	mov	r0,a
   0C51 86 02              3293 	mov	ar2,@r0
   0C53 7E 00              3294 	mov	r6,#0x00
   0C55 7F 40              3295 	mov	r7,#0x40
   0C57 C0 07              3296 	push	ar7
   0C59 C0 06              3297 	push	ar6
   0C5B C0 05              3298 	push	ar5
   0C5D C0 04              3299 	push	ar4
   0C5F C0 03              3300 	push	ar3
   0C61 E5 81              3301 	mov	a,sp
   0C63 24 F7              3302 	add	a,#0xf7
   0C65 F8                 3303 	mov	r0,a
   0C66 E6                 3304 	mov	a,@r0
   0C67 C0 E0              3305 	push	acc
   0C69 08                 3306 	inc	r0
   0C6A E6                 3307 	mov	a,@r0
   0C6B C0 E0              3308 	push	acc
   0C6D C0 03              3309 	push	ar3
   0C6F C0 04              3310 	push	ar4
   0C71 C0 05              3311 	push	ar5
   0C73 8A 82              3312 	mov	dpl,r2
   0C75 8E 83              3313 	mov	dph,r6
   0C77 8F F0              3314 	mov	b,r7
   0C79 D0 02              3315 	pop	ar2
   0C7B D0 01              3316 	pop	ar1
   0C7D D0 00              3317 	pop	ar0
   0C7F 12s00r00           3318 	lcall	__sdcc_banked_call
   0C82 15 81              3319 	dec	sp
   0C84 15 81              3320 	dec	sp
   0C86 D0 03              3321 	pop	ar3
   0C88 D0 04              3322 	pop	ar4
   0C8A D0 05              3323 	pop	ar5
                           3324 ;	../../../contiki-sensinode//core/net/mac/cxmac.c:614: on();
   0C8C 78r00              3325 	mov	r0,#_on
   0C8E 79s00              3326 	mov	r1,#(_on >> 8)
   0C90 7As00              3327 	mov	r2,#(_on >> 16)
   0C92 12s00r00           3328 	lcall	__sdcc_banked_call
   0C95 D0 06              3329 	pop	ar6
   0C97 D0 07              3330 	pop	ar7
                           3331 ;	../../../contiki-sensinode//core/net/mac/cxmac.c:682: return MAC_TX_COLLISION;
   0C99 D0 07              3332 	pop	ar7
   0C9B D0 06              3333 	pop	ar6
                           3334 ;	../../../contiki-sensinode//core/net/mac/cxmac.c:614: on();
   0C9D                    3335 00178$:
                           3336 ;	../../../contiki-sensinode//core/net/mac/cxmac.c:557: strobes++) {
   0C9D E5 81              3337 	mov	a,sp
   0C9F 24 B2              3338 	add	a,#0xb2
   0CA1 F8                 3339 	mov	r0,a
   0CA2 06                 3340 	inc	@r0
   0CA3 B6 00 02           3341 	cjne	@r0,#0x00,00306$
   0CA6 08                 3342 	inc	r0
   0CA7 06                 3343 	inc	@r0
   0CA8                    3344 00306$:
   0CA8 02s08rBE           3345 	ljmp	00176$
   0CAB                    3346 00148$:
                           3347 ;	../../../contiki-sensinode//core/net/mac/cxmac.c:624: if(got_strobe_ack && (packetbuf_attr(PACKETBUF_ATTR_RELIABLE) ||
   0CAB E5 81              3348 	mov	a,sp
   0CAD 24 B4              3349 	add	a,#0xb4
   0CAF F8                 3350 	mov	r0,a
   0CB0 E6                 3351 	mov	a,@r0
   0CB1 08                 3352 	inc	r0
   0CB2 46                 3353 	orl	a,@r0
   0CB3 60 51              3354 	jz	00150$
   0CB5 75 82 0C           3355 	mov	dpl,#0x0C
   0CB8 78r00              3356 	mov	r0,#_packetbuf_attr
   0CBA 79s00              3357 	mov	r1,#(_packetbuf_attr >> 8)
   0CBC 7As00              3358 	mov	r2,#(_packetbuf_attr >> 16)
   0CBE 12s00r00           3359 	lcall	__sdcc_banked_call
   0CC1 E5 82              3360 	mov	a,dpl
   0CC3 85 83 F0           3361 	mov	b,dph
   0CC6 45 F0              3362 	orl	a,b
   0CC8 70 2B              3363 	jnz	00149$
                           3364 ;	../../../contiki-sensinode//core/net/mac/cxmac.c:625: packetbuf_attr(PACKETBUF_ATTR_ERELIABLE) ||
   0CCA 75 82 17           3365 	mov	dpl,#0x17
   0CCD 78r00              3366 	mov	r0,#_packetbuf_attr
   0CCF 79s00              3367 	mov	r1,#(_packetbuf_attr >> 8)
   0CD1 7As00              3368 	mov	r2,#(_packetbuf_attr >> 16)
   0CD3 12s00r00           3369 	lcall	__sdcc_banked_call
   0CD6 E5 82              3370 	mov	a,dpl
   0CD8 85 83 F0           3371 	mov	b,dph
   0CDB 45 F0              3372 	orl	a,b
   0CDD 70 16              3373 	jnz	00149$
                           3374 ;	../../../contiki-sensinode//core/net/mac/cxmac.c:626: packetbuf_attr(PACKETBUF_ATTR_PACKET_TYPE) ==
   0CDF 75 82 0E           3375 	mov	dpl,#0x0E
   0CE2 78r00              3376 	mov	r0,#_packetbuf_attr
   0CE4 79s00              3377 	mov	r1,#(_packetbuf_attr >> 8)
   0CE6 7As00              3378 	mov	r2,#(_packetbuf_attr >> 16)
   0CE8 12s00r00           3379 	lcall	__sdcc_banked_call
   0CEB AE 82              3380 	mov	r6,dpl
   0CED AF 83              3381 	mov	r7,dph
   0CEF BE 02 14           3382 	cjne	r6,#0x02,00150$
   0CF2 BF 00 11           3383 	cjne	r7,#0x00,00150$
   0CF5                    3384 00149$:
                           3385 ;	../../../contiki-sensinode//core/net/mac/cxmac.c:628: on(); /* Wait for ACK packet */
   0CF5 78r00              3386 	mov	r0,#_on
   0CF7 79s00              3387 	mov	r1,#(_on >> 8)
   0CF9 7As00              3388 	mov	r2,#(_on >> 16)
   0CFB 12s00r00           3389 	lcall	__sdcc_banked_call
                           3390 ;	../../../contiki-sensinode//core/net/mac/cxmac.c:629: waiting_for_packet = 1;
   0CFE 90s00r09           3391 	mov	dptr,#_waiting_for_packet
   0D01 74 01              3392 	mov	a,#0x01
   0D03 F0                 3393 	movx	@dptr,a
   0D04 80 09              3394 	sjmp	00151$
   0D06                    3395 00150$:
                           3396 ;	../../../contiki-sensinode//core/net/mac/cxmac.c:631: off();
   0D06 78r40              3397 	mov	r0,#_off
   0D08 79s00              3398 	mov	r1,#(_off >> 8)
   0D0A 7As00              3399 	mov	r2,#(_off >> 16)
   0D0C 12s00r00           3400 	lcall	__sdcc_banked_call
   0D0F                    3401 00151$:
                           3402 ;	../../../contiki-sensinode//core/net/mac/cxmac.c:638: queuebuf_to_packetbuf(packet);
   0D0F E5 81              3403 	mov	a,sp
   0D11 24 F3              3404 	add	a,#0xf3
   0D13 F8                 3405 	mov	r0,a
   0D14 86 82              3406 	mov	dpl,@r0
   0D16 08                 3407 	inc	r0
   0D17 86 83              3408 	mov	dph,@r0
   0D19 08                 3409 	inc	r0
   0D1A 86 F0              3410 	mov	b,@r0
   0D1C 78r00              3411 	mov	r0,#_queuebuf_to_packetbuf
   0D1E 79s00              3412 	mov	r1,#(_queuebuf_to_packetbuf >> 8)
   0D20 7As00              3413 	mov	r2,#(_queuebuf_to_packetbuf >> 16)
   0D22 12s00r00           3414 	lcall	__sdcc_banked_call
                           3415 ;	../../../contiki-sensinode//core/net/mac/cxmac.c:639: queuebuf_free(packet);
   0D25 E5 81              3416 	mov	a,sp
   0D27 24 F3              3417 	add	a,#0xf3
   0D29 F8                 3418 	mov	r0,a
   0D2A 86 82              3419 	mov	dpl,@r0
   0D2C 08                 3420 	inc	r0
   0D2D 86 83              3421 	mov	dph,@r0
   0D2F 08                 3422 	inc	r0
   0D30 86 F0              3423 	mov	b,@r0
   0D32 78r00              3424 	mov	r0,#_queuebuf_free
   0D34 79s00              3425 	mov	r1,#(_queuebuf_free >> 8)
   0D36 7As00              3426 	mov	r2,#(_queuebuf_free >> 16)
   0D38 12s00r00           3427 	lcall	__sdcc_banked_call
                           3428 ;	../../../contiki-sensinode//core/net/mac/cxmac.c:642: if((is_broadcast || got_strobe_ack || is_streaming) && collisions == 0) {
   0D3B E5 81              3429 	mov	a,sp
   0D3D 24 EC              3430 	add	a,#0xec
   0D3F F8                 3431 	mov	r0,a
   0D40 E6                 3432 	mov	a,@r0
   0D41 08                 3433 	inc	r0
   0D42 46                 3434 	orl	a,@r0
   0D43 70 11              3435 	jnz	00159$
   0D45 E5 81              3436 	mov	a,sp
   0D47 24 B4              3437 	add	a,#0xb4
   0D49 F8                 3438 	mov	r0,a
   0D4A E6                 3439 	mov	a,@r0
   0D4B 08                 3440 	inc	r0
   0D4C 46                 3441 	orl	a,@r0
   0D4D 70 07              3442 	jnz	00159$
   0D4F 90s00r3B           3443 	mov	dptr,#_is_streaming
   0D52 E0                 3444 	movx	a,@dptr
   0D53 FF                 3445 	mov	r7,a
   0D54 60 76              3446 	jz	00156$
   0D56                    3447 00159$:
   0D56 E5 81              3448 	mov	a,sp
   0D58 24 F8              3449 	add	a,#0xf8
   0D5A F8                 3450 	mov	r0,a
   0D5B E6                 3451 	mov	a,@r0
   0D5C 70 6E              3452 	jnz	00156$
                           3453 ;	../../../contiki-sensinode//core/net/mac/cxmac.c:643: NETSTACK_RADIO.send(packetbuf_hdrptr(), packetbuf_totlen());
   0D5E 90s00r09           3454 	mov	dptr,#(_cc2530_rf_driver + 0x0009)
   0D61 E4                 3455 	clr	a
   0D62 93                 3456 	movc	a,@a+dptr
   0D63 FD                 3457 	mov	r5,a
   0D64 A3                 3458 	inc	dptr
   0D65 E4                 3459 	clr	a
   0D66 93                 3460 	movc	a,@a+dptr
   0D67 FE                 3461 	mov	r6,a
   0D68 A3                 3462 	inc	dptr
   0D69 E4                 3463 	clr	a
   0D6A 93                 3464 	movc	a,@a+dptr
   0D6B FF                 3465 	mov	r7,a
   0D6C C0 07              3466 	push	ar7
   0D6E C0 06              3467 	push	ar6
   0D70 C0 05              3468 	push	ar5
   0D72 78r00              3469 	mov	r0,#_packetbuf_totlen
   0D74 79s00              3470 	mov	r1,#(_packetbuf_totlen >> 8)
   0D76 7As00              3471 	mov	r2,#(_packetbuf_totlen >> 16)
   0D78 12s00r00           3472 	lcall	__sdcc_banked_call
   0D7B C8                 3473 	xch	a,r0
   0D7C E5 81              3474 	mov	a,sp
   0D7E 24 FB              3475 	add	a,#0xfb
   0D80 C8                 3476 	xch	a,r0
   0D81 A6 82              3477 	mov	@r0,dpl
   0D83 08                 3478 	inc	r0
   0D84 A6 83              3479 	mov	@r0,dph
   0D86 78r00              3480 	mov	r0,#_packetbuf_hdrptr
   0D88 79s00              3481 	mov	r1,#(_packetbuf_hdrptr >> 8)
   0D8A 7As00              3482 	mov	r2,#(_packetbuf_hdrptr >> 16)
   0D8C 12s00r00           3483 	lcall	__sdcc_banked_call
   0D8F AA 82              3484 	mov	r2,dpl
   0D91 AB 83              3485 	mov	r3,dph
   0D93 AC F0              3486 	mov	r4,b
   0D95 D0 05              3487 	pop	ar5
   0D97 D0 06              3488 	pop	ar6
   0D99 D0 07              3489 	pop	ar7
   0D9B C0 07              3490 	push	ar7
   0D9D C0 06              3491 	push	ar6
   0D9F C0 05              3492 	push	ar5
   0DA1 E5 81              3493 	mov	a,sp
   0DA3 24 FB              3494 	add	a,#0xfb
   0DA5 F8                 3495 	mov	r0,a
   0DA6 E6                 3496 	mov	a,@r0
   0DA7 C0 E0              3497 	push	acc
   0DA9 08                 3498 	inc	r0
   0DAA E6                 3499 	mov	a,@r0
   0DAB C0 E0              3500 	push	acc
   0DAD C0 05              3501 	push	ar5
   0DAF C0 06              3502 	push	ar6
   0DB1 C0 07              3503 	push	ar7
   0DB3 8A 82              3504 	mov	dpl,r2
   0DB5 8B 83              3505 	mov	dph,r3
   0DB7 8C F0              3506 	mov	b,r4
   0DB9 D0 02              3507 	pop	ar2
   0DBB D0 01              3508 	pop	ar1
   0DBD D0 00              3509 	pop	ar0
   0DBF 12s00r00           3510 	lcall	__sdcc_banked_call
   0DC2 15 81              3511 	dec	sp
   0DC4 15 81              3512 	dec	sp
   0DC6 D0 05              3513 	pop	ar5
   0DC8 D0 06              3514 	pop	ar6
   0DCA D0 07              3515 	pop	ar7
   0DCC                    3516 00156$:
                           3517 ;	../../../contiki-sensinode//core/net/mac/cxmac.c:647: if(got_strobe_ack && !is_streaming) {
   0DCC E5 81              3518 	mov	a,sp
   0DCE 24 B4              3519 	add	a,#0xb4
   0DD0 F8                 3520 	mov	r0,a
   0DD1 E6                 3521 	mov	a,@r0
   0DD2 08                 3522 	inc	r0
   0DD3 46                 3523 	orl	a,@r0
   0DD4 60 38              3524 	jz	00161$
   0DD6 90s00r3B           3525 	mov	dptr,#_is_streaming
   0DD9 E0                 3526 	movx	a,@dptr
   0DDA FF                 3527 	mov	r7,a
   0DDB 70 31              3528 	jnz	00161$
                           3529 ;	../../../contiki-sensinode//core/net/mac/cxmac.c:648: register_encounter(packetbuf_addr(PACKETBUF_ADDR_RECEIVER), encounter_time);
   0DDD 75 82 19           3530 	mov	dpl,#0x19
   0DE0 78r00              3531 	mov	r0,#_packetbuf_addr
   0DE2 79s00              3532 	mov	r1,#(_packetbuf_addr >> 8)
   0DE4 7As00              3533 	mov	r2,#(_packetbuf_addr >> 16)
   0DE6 12s00r00           3534 	lcall	__sdcc_banked_call
   0DE9 AD 82              3535 	mov	r5,dpl
   0DEB AE 83              3536 	mov	r6,dph
   0DED AF F0              3537 	mov	r7,b
   0DEF E5 81              3538 	mov	a,sp
   0DF1 24 B0              3539 	add	a,#0xb0
   0DF3 F8                 3540 	mov	r0,a
   0DF4 E6                 3541 	mov	a,@r0
   0DF5 C0 E0              3542 	push	acc
   0DF7 08                 3543 	inc	r0
   0DF8 E6                 3544 	mov	a,@r0
   0DF9 C0 E0              3545 	push	acc
   0DFB 8D 82              3546 	mov	dpl,r5
   0DFD 8E 83              3547 	mov	dph,r6
   0DFF 8F F0              3548 	mov	b,r7
   0E01 78r38              3549 	mov	r0,#_register_encounter
   0E03 79s02              3550 	mov	r1,#(_register_encounter >> 8)
   0E05 7As00              3551 	mov	r2,#(_register_encounter >> 16)
   0E07 12s00r00           3552 	lcall	__sdcc_banked_call
   0E0A 15 81              3553 	dec	sp
   0E0C 15 81              3554 	dec	sp
   0E0E                    3555 00161$:
                           3556 ;	../../../contiki-sensinode//core/net/mac/cxmac.c:651: watchdog_start();
   0E0E 78r00              3557 	mov	r0,#_watchdog_start
   0E10 79s00              3558 	mov	r1,#(_watchdog_start >> 8)
   0E12 7As00              3559 	mov	r2,#(_watchdog_start >> 16)
   0E14 12s00r00           3560 	lcall	__sdcc_banked_call
                           3561 ;	../../../contiki-sensinode//core/net/mac/cxmac.c:671: we_are_sending = 0;
   0E17 90s00r0B           3562 	mov	dptr,#_we_are_sending
   0E1A E4                 3563 	clr	a
   0E1B F0                 3564 	movx	@dptr,a
                           3565 ;	../../../contiki-sensinode//core/net/mac/cxmac.c:674: if(collisions == 0) {
   0E1C E5 81              3566 	mov	a,sp
   0E1E 24 F8              3567 	add	a,#0xf8
   0E20 F8                 3568 	mov	r0,a
   0E21 E6                 3569 	mov	a,@r0
   0E22 70 1E              3570 	jnz	00168$
                           3571 ;	../../../contiki-sensinode//core/net/mac/cxmac.c:675: if(!is_broadcast && !got_strobe_ack) {
   0E24 E5 81              3572 	mov	a,sp
   0E26 24 EC              3573 	add	a,#0xec
   0E28 F8                 3574 	mov	r0,a
   0E29 E6                 3575 	mov	a,@r0
   0E2A 08                 3576 	inc	r0
   0E2B 46                 3577 	orl	a,@r0
   0E2C 70 0F              3578 	jnz	00164$
   0E2E E5 81              3579 	mov	a,sp
   0E30 24 B4              3580 	add	a,#0xb4
   0E32 F8                 3581 	mov	r0,a
   0E33 E6                 3582 	mov	a,@r0
   0E34 08                 3583 	inc	r0
   0E35 46                 3584 	orl	a,@r0
   0E36 70 05              3585 	jnz	00164$
                           3586 ;	../../../contiki-sensinode//core/net/mac/cxmac.c:676: return MAC_TX_NOACK;
   0E38 90 00 02           3587 	mov	dptr,#0x0002
   0E3B 80 0F              3588 	sjmp	00180$
   0E3D                    3589 00164$:
                           3590 ;	../../../contiki-sensinode//core/net/mac/cxmac.c:678: return MAC_TX_OK;
   0E3D 90 00 00           3591 	mov	dptr,#0x0000
   0E40 80 0A              3592 	sjmp	00180$
   0E42                    3593 00168$:
                           3594 ;	../../../contiki-sensinode//core/net/mac/cxmac.c:681: someone_is_sending++;
   0E42 90s00r0A           3595 	mov	dptr,#_someone_is_sending
   0E45 E0                 3596 	movx	a,@dptr
   0E46 24 01              3597 	add	a,#0x01
   0E48 F0                 3598 	movx	@dptr,a
                           3599 ;	../../../contiki-sensinode//core/net/mac/cxmac.c:682: return MAC_TX_COLLISION;
   0E49 90 00 01           3600 	mov	dptr,#0x0001
   0E4C                    3601 00180$:
   0E4C E5 81              3602 	mov	a,sp
   0E4E 24 AD              3603 	add	a,#0xAD
   0E50 F5 81              3604 	mov	sp,a
   0E52 02s00r00           3605 	ljmp	__sdcc_banked_ret
                           3606 ;------------------------------------------------------------
                           3607 ;Allocation info for local variables in function 'qsend_packet'
                           3608 ;------------------------------------------------------------
                           3609 ;ptr                       Allocated to stack - sp -7
                           3610 ;sent                      Allocated to registers r5 r6 r7 
                           3611 ;ret                       Allocated to stack - sp -1
                           3612 ;sloc0                     Allocated to stack - sp -1
                           3613 ;------------------------------------------------------------
                           3614 ;	../../../contiki-sensinode//core/net/mac/cxmac.c:688: qsend_packet(mac_callback_t sent, void *ptr)
                           3615 ;	-----------------------------------------
                           3616 ;	 function qsend_packet
                           3617 ;	-----------------------------------------
   0E55                    3618 _qsend_packet:
   0E55 05 81              3619 	inc	sp
   0E57 05 81              3620 	inc	sp
   0E59 AD 82              3621 	mov	r5,dpl
   0E5B AE 83              3622 	mov	r6,dph
   0E5D AF F0              3623 	mov	r7,b
                           3624 ;	../../../contiki-sensinode//core/net/mac/cxmac.c:691: if(someone_is_sending) {
   0E5F 90s00r0A           3625 	mov	dptr,#_someone_is_sending
   0E62 E0                 3626 	movx	a,@dptr
   0E63 FC                 3627 	mov	r4,a
   0E64 60 41              3628 	jz	00102$
                           3629 ;	../../../contiki-sensinode//core/net/mac/cxmac.c:694: RIMESTATS_ADD(sendingdrop);
   0E66 C0 05              3630 	push	ar5
   0E68 C0 06              3631 	push	ar6
   0E6A C0 07              3632 	push	ar7
   0E6C 90s00r3C           3633 	mov	dptr,#(_rimestats + 0x003c)
   0E6F E0                 3634 	movx	a,@dptr
   0E70 FA                 3635 	mov	r2,a
   0E71 A3                 3636 	inc	dptr
   0E72 E0                 3637 	movx	a,@dptr
   0E73 FB                 3638 	mov	r3,a
   0E74 A3                 3639 	inc	dptr
   0E75 E0                 3640 	movx	a,@dptr
   0E76 FC                 3641 	mov	r4,a
   0E77 A3                 3642 	inc	dptr
   0E78 E0                 3643 	movx	a,@dptr
   0E79 FF                 3644 	mov	r7,a
   0E7A 0A                 3645 	inc	r2
   0E7B BA 00 09           3646 	cjne	r2,#0x00,00116$
   0E7E 0B                 3647 	inc	r3
   0E7F BB 00 05           3648 	cjne	r3,#0x00,00116$
   0E82 0C                 3649 	inc	r4
   0E83 BC 00 01           3650 	cjne	r4,#0x00,00116$
   0E86 0F                 3651 	inc	r7
   0E87                    3652 00116$:
   0E87 90s00r3C           3653 	mov	dptr,#(_rimestats + 0x003c)
   0E8A EA                 3654 	mov	a,r2
   0E8B F0                 3655 	movx	@dptr,a
   0E8C A3                 3656 	inc	dptr
   0E8D EB                 3657 	mov	a,r3
   0E8E F0                 3658 	movx	@dptr,a
   0E8F A3                 3659 	inc	dptr
   0E90 EC                 3660 	mov	a,r4
   0E91 F0                 3661 	movx	@dptr,a
   0E92 A3                 3662 	inc	dptr
   0E93 EF                 3663 	mov	a,r7
   0E94 F0                 3664 	movx	@dptr,a
                           3665 ;	../../../contiki-sensinode//core/net/mac/cxmac.c:695: ret = MAC_TX_COLLISION;
   0E95 E5 81              3666 	mov	a,sp
   0E97 24 FC              3667 	add	a,#0xfc
   0E99 F8                 3668 	mov	r0,a
   0E9A 76 01              3669 	mov	@r0,#0x01
   0E9C 08                 3670 	inc	r0
   0E9D 76 00              3671 	mov	@r0,#0x00
   0E9F D0 07              3672 	pop	ar7
   0EA1 D0 06              3673 	pop	ar6
   0EA3 D0 05              3674 	pop	ar5
   0EA5 80 21              3675 	sjmp	00106$
   0EA7                    3676 00102$:
                           3677 ;	../../../contiki-sensinode//core/net/mac/cxmac.c:698: ret = send_packet();
   0EA7 C0 07              3678 	push	ar7
   0EA9 C0 06              3679 	push	ar6
   0EAB C0 05              3680 	push	ar5
   0EAD 78r98              3681 	mov	r0,#_send_packet
   0EAF 79s03              3682 	mov	r1,#(_send_packet >> 8)
   0EB1 7As00              3683 	mov	r2,#(_send_packet >> 16)
   0EB3 12s00r00           3684 	lcall	__sdcc_banked_call
   0EB6 AB 82              3685 	mov	r3,dpl
   0EB8 AC 83              3686 	mov	r4,dph
   0EBA D0 05              3687 	pop	ar5
   0EBC D0 06              3688 	pop	ar6
   0EBE D0 07              3689 	pop	ar7
   0EC0 A8 81              3690 	mov	r0,sp
   0EC2 18                 3691 	dec	r0
   0EC3 A6 03              3692 	mov	@r0,ar3
   0EC5 08                 3693 	inc	r0
   0EC6 A6 04              3694 	mov	@r0,ar4
                           3695 ;	../../../contiki-sensinode//core/net/mac/cxmac.c:701: mac_call_sent_callback(sent, ptr, ret, 1);
   0EC8                    3696 00106$:
   0EC8 ED                 3697 	mov	a,r5
   0EC9 4E                 3698 	orl	a,r6
   0ECA 60 41              3699 	jz	00109$
   0ECC C0 07              3700 	push	ar7
   0ECE C0 06              3701 	push	ar6
   0ED0 C0 05              3702 	push	ar5
   0ED2 74 01              3703 	mov	a,#0x01
   0ED4 C0 E0              3704 	push	acc
   0ED6 E4                 3705 	clr	a
   0ED7 C0 E0              3706 	push	acc
   0ED9 E5 81              3707 	mov	a,sp
   0EDB 24 FA              3708 	add	a,#0xfa
   0EDD F8                 3709 	mov	r0,a
   0EDE E6                 3710 	mov	a,@r0
   0EDF C0 E0              3711 	push	acc
   0EE1 08                 3712 	inc	r0
   0EE2 E6                 3713 	mov	a,@r0
   0EE3 C0 E0              3714 	push	acc
   0EE5 C0 05              3715 	push	ar5
   0EE7 C0 06              3716 	push	ar6
   0EE9 C0 07              3717 	push	ar7
   0EEB E5 81              3718 	mov	a,sp
   0EED 24 EF              3719 	add	a,#0xef
   0EEF F8                 3720 	mov	r0,a
   0EF0 86 82              3721 	mov	dpl,@r0
   0EF2 08                 3722 	inc	r0
   0EF3 86 83              3723 	mov	dph,@r0
   0EF5 08                 3724 	inc	r0
   0EF6 86 F0              3725 	mov	b,@r0
   0EF8 D0 02              3726 	pop	ar2
   0EFA D0 01              3727 	pop	ar1
   0EFC D0 00              3728 	pop	ar0
   0EFE 12s00r00           3729 	lcall	__sdcc_banked_call
   0F01 E5 81              3730 	mov	a,sp
   0F03 24 FC              3731 	add	a,#0xfc
   0F05 F5 81              3732 	mov	sp,a
   0F07 D0 05              3733 	pop	ar5
   0F09 D0 06              3734 	pop	ar6
   0F0B D0 07              3735 	pop	ar7
   0F0D                    3736 00109$:
   0F0D 15 81              3737 	dec	sp
   0F0F 15 81              3738 	dec	sp
   0F11 02s00r00           3739 	ljmp	__sdcc_banked_ret
                           3740 ;------------------------------------------------------------
                           3741 ;Allocation info for local variables in function 'qsend_list'
                           3742 ;------------------------------------------------------------
                           3743 ;ptr                       Allocated to stack - sp -5
                           3744 ;buf_list                  Allocated to stack - sp -8
                           3745 ;sent                      Allocated to registers r5 r6 r7 
                           3746 ;------------------------------------------------------------
                           3747 ;	../../../contiki-sensinode//core/net/mac/cxmac.c:705: qsend_list(mac_callback_t sent, void *ptr, struct rdc_buf_list *buf_list)
                           3748 ;	-----------------------------------------
                           3749 ;	 function qsend_list
                           3750 ;	-----------------------------------------
   0F14                    3751 _qsend_list:
   0F14 AD 82              3752 	mov	r5,dpl
   0F16 AE 83              3753 	mov	r6,dph
   0F18 AF F0              3754 	mov	r7,b
                           3755 ;	../../../contiki-sensinode//core/net/mac/cxmac.c:707: if(buf_list != NULL) {
   0F1A E5 81              3756 	mov	a,sp
   0F1C 24 F8              3757 	add	a,#0xf8
   0F1E F8                 3758 	mov	r0,a
   0F1F E6                 3759 	mov	a,@r0
   0F20 08                 3760 	inc	r0
   0F21 46                 3761 	orl	a,@r0
   0F22 60 68              3762 	jz	00103$
                           3763 ;	../../../contiki-sensinode//core/net/mac/cxmac.c:708: queuebuf_to_packetbuf(buf_list->buf);
   0F24 E5 81              3764 	mov	a,sp
   0F26 24 F8              3765 	add	a,#0xf8
   0F28 F8                 3766 	mov	r0,a
   0F29 86 02              3767 	mov	ar2,@r0
   0F2B 08                 3768 	inc	r0
   0F2C 86 03              3769 	mov	ar3,@r0
   0F2E 08                 3770 	inc	r0
   0F2F 86 04              3771 	mov	ar4,@r0
   0F31 74 03              3772 	mov	a,#0x03
   0F33 2A                 3773 	add	a,r2
   0F34 FA                 3774 	mov	r2,a
   0F35 E4                 3775 	clr	a
   0F36 3B                 3776 	addc	a,r3
   0F37 FB                 3777 	mov	r3,a
   0F38 8A 82              3778 	mov	dpl,r2
   0F3A 8B 83              3779 	mov	dph,r3
   0F3C 8C F0              3780 	mov	b,r4
   0F3E 12s00r00           3781 	lcall	__gptrget
   0F41 FA                 3782 	mov	r2,a
   0F42 A3                 3783 	inc	dptr
   0F43 12s00r00           3784 	lcall	__gptrget
   0F46 FB                 3785 	mov	r3,a
   0F47 A3                 3786 	inc	dptr
   0F48 12s00r00           3787 	lcall	__gptrget
   0F4B FC                 3788 	mov	r4,a
   0F4C 8A 82              3789 	mov	dpl,r2
   0F4E 8B 83              3790 	mov	dph,r3
   0F50 8C F0              3791 	mov	b,r4
   0F52 C0 07              3792 	push	ar7
   0F54 C0 06              3793 	push	ar6
   0F56 C0 05              3794 	push	ar5
   0F58 78r00              3795 	mov	r0,#_queuebuf_to_packetbuf
   0F5A 79s00              3796 	mov	r1,#(_queuebuf_to_packetbuf >> 8)
   0F5C 7As00              3797 	mov	r2,#(_queuebuf_to_packetbuf >> 16)
   0F5E 12s00r00           3798 	lcall	__sdcc_banked_call
   0F61 D0 05              3799 	pop	ar5
   0F63 D0 06              3800 	pop	ar6
   0F65 D0 07              3801 	pop	ar7
                           3802 ;	../../../contiki-sensinode//core/net/mac/cxmac.c:709: qsend_packet(sent, ptr);
   0F67 E5 81              3803 	mov	a,sp
   0F69 24 FB              3804 	add	a,#0xfb
   0F6B F8                 3805 	mov	r0,a
   0F6C E6                 3806 	mov	a,@r0
   0F6D C0 E0              3807 	push	acc
   0F6F 08                 3808 	inc	r0
   0F70 E6                 3809 	mov	a,@r0
   0F71 C0 E0              3810 	push	acc
   0F73 08                 3811 	inc	r0
   0F74 E6                 3812 	mov	a,@r0
   0F75 C0 E0              3813 	push	acc
   0F77 8D 82              3814 	mov	dpl,r5
   0F79 8E 83              3815 	mov	dph,r6
   0F7B 8F F0              3816 	mov	b,r7
   0F7D 78r55              3817 	mov	r0,#_qsend_packet
   0F7F 79s0E              3818 	mov	r1,#(_qsend_packet >> 8)
   0F81 7As00              3819 	mov	r2,#(_qsend_packet >> 16)
   0F83 12s00r00           3820 	lcall	__sdcc_banked_call
   0F86 15 81              3821 	dec	sp
   0F88 15 81              3822 	dec	sp
   0F8A 15 81              3823 	dec	sp
   0F8C                    3824 00103$:
   0F8C 02s00r00           3825 	ljmp	__sdcc_banked_ret
                           3826 ;------------------------------------------------------------
                           3827 ;Allocation info for local variables in function 'input_packet'
                           3828 ;------------------------------------------------------------
                           3829 ;hdr                       Allocated to registers r5 r6 r7 
                           3830 ;sloc0                     Allocated to stack - sp -1
                           3831 ;------------------------------------------------------------
                           3832 ;	../../../contiki-sensinode//core/net/mac/cxmac.c:714: input_packet(void)
                           3833 ;	-----------------------------------------
                           3834 ;	 function input_packet
                           3835 ;	-----------------------------------------
   0F8F                    3836 _input_packet:
   0F8F 05 81              3837 	inc	sp
   0F91 05 81              3838 	inc	sp
                           3839 ;	../../../contiki-sensinode//core/net/mac/cxmac.c:718: if(NETSTACK_FRAMER.parse() >= 0) {
   0F93 90s00r03           3840 	mov	dptr,#(_framer_802154 + 0x0003)
   0F96 E4                 3841 	clr	a
   0F97 93                 3842 	movc	a,@a+dptr
   0F98 FD                 3843 	mov	r5,a
   0F99 A3                 3844 	inc	dptr
   0F9A E4                 3845 	clr	a
   0F9B 93                 3846 	movc	a,@a+dptr
   0F9C FE                 3847 	mov	r6,a
   0F9D A3                 3848 	inc	dptr
   0F9E E4                 3849 	clr	a
   0F9F 93                 3850 	movc	a,@a+dptr
   0FA0 FF                 3851 	mov	r7,a
   0FA1 C0 07              3852 	push	ar7
   0FA3 C0 05              3853 	push	ar5
   0FA5 C0 06              3854 	push	ar6
   0FA7 C0 07              3855 	push	ar7
   0FA9 D0 02              3856 	pop	ar2
   0FAB D0 01              3857 	pop	ar1
   0FAD D0 00              3858 	pop	ar0
   0FAF 12s00r00           3859 	lcall	__sdcc_banked_call
   0FB2 AD 82              3860 	mov	r5,dpl
   0FB4 AE 83              3861 	mov	r6,dph
   0FB6 D0 07              3862 	pop	ar7
   0FB8 EE                 3863 	mov	a,r6
   0FB9 30 E7 03           3864 	jnb	acc.7,00136$
   0FBC 02s12r49           3865 	ljmp	00119$
   0FBF                    3866 00136$:
                           3867 ;	../../../contiki-sensinode//core/net/mac/cxmac.c:719: hdr = packetbuf_dataptr();
   0FBF 78r00              3868 	mov	r0,#_packetbuf_dataptr
   0FC1 79s00              3869 	mov	r1,#(_packetbuf_dataptr >> 8)
   0FC3 7As00              3870 	mov	r2,#(_packetbuf_dataptr >> 16)
   0FC5 12s00r00           3871 	lcall	__sdcc_banked_call
                           3872 ;	../../../contiki-sensinode//core/net/mac/cxmac.c:721: if(hdr->dispatch != DISPATCH) {
   0FC8 AD 82              3873 	mov	r5,dpl
   0FCA AE 83              3874 	mov	r6,dph
   0FCC AF F0              3875 	mov	r7,b
   0FCE 12s00r00           3876 	lcall	__gptrget
   0FD1 70 03              3877 	jnz	00137$
   0FD3 02s10r8D           3878 	ljmp	00115$
   0FD6                    3879 00137$:
                           3880 ;	../../../contiki-sensinode//core/net/mac/cxmac.c:722: someone_is_sending = 0;
   0FD6 90s00r0A           3881 	mov	dptr,#_someone_is_sending
   0FD9 E4                 3882 	clr	a
   0FDA F0                 3883 	movx	@dptr,a
                           3884 ;	../../../contiki-sensinode//core/net/mac/cxmac.c:724: &rimeaddr_node_addr) ||
                           3885 ;	../../../contiki-sensinode//core/net/mac/cxmac.c:723: if(rimeaddr_cmp(packetbuf_addr(PACKETBUF_ADDR_RECEIVER),
   0FDB 75 82 19           3886 	mov	dpl,#0x19
   0FDE 78r00              3887 	mov	r0,#_packetbuf_addr
   0FE0 79s00              3888 	mov	r1,#(_packetbuf_addr >> 8)
   0FE2 7As00              3889 	mov	r2,#(_packetbuf_addr >> 16)
   0FE4 12s00r00           3890 	lcall	__sdcc_banked_call
   0FE7 AA 82              3891 	mov	r2,dpl
   0FE9 AB 83              3892 	mov	r3,dph
   0FEB AC F0              3893 	mov	r4,b
   0FED 74r00              3894 	mov	a,#_rimeaddr_node_addr
   0FEF C0 E0              3895 	push	acc
   0FF1 74s00              3896 	mov	a,#(_rimeaddr_node_addr >> 8)
   0FF3 C0 E0              3897 	push	acc
   0FF5 E4                 3898 	clr	a
   0FF6 C0 E0              3899 	push	acc
   0FF8 8A 82              3900 	mov	dpl,r2
   0FFA 8B 83              3901 	mov	dph,r3
   0FFC 8C F0              3902 	mov	b,r4
   0FFE 78r00              3903 	mov	r0,#_rimeaddr_cmp
   1000 79s00              3904 	mov	r1,#(_rimeaddr_cmp >> 8)
   1002 7As00              3905 	mov	r2,#(_rimeaddr_cmp >> 16)
   1004 12s00r00           3906 	lcall	__sdcc_banked_call
   1007 AB 82              3907 	mov	r3,dpl
   1009 AC 83              3908 	mov	r4,dph
   100B 15 81              3909 	dec	sp
   100D 15 81              3910 	dec	sp
   100F 15 81              3911 	dec	sp
   1011 EB                 3912 	mov	a,r3
   1012 4C                 3913 	orl	a,r4
   1013 70 3E              3914 	jnz	00101$
                           3915 ;	../../../contiki-sensinode//core/net/mac/cxmac.c:726: &rimeaddr_null)) {
                           3916 ;	../../../contiki-sensinode//core/net/mac/cxmac.c:725: rimeaddr_cmp(packetbuf_addr(PACKETBUF_ADDR_RECEIVER),
   1015 75 82 19           3917 	mov	dpl,#0x19
   1018 78r00              3918 	mov	r0,#_packetbuf_addr
   101A 79s00              3919 	mov	r1,#(_packetbuf_addr >> 8)
   101C 7As00              3920 	mov	r2,#(_packetbuf_addr >> 16)
   101E 12s00r00           3921 	lcall	__sdcc_banked_call
   1021 AA 82              3922 	mov	r2,dpl
   1023 AB 83              3923 	mov	r3,dph
   1025 AC F0              3924 	mov	r4,b
   1027 74r00              3925 	mov	a,#_rimeaddr_null
   1029 C0 E0              3926 	push	acc
   102B 74s00              3927 	mov	a,#(_rimeaddr_null >> 8)
   102D C0 E0              3928 	push	acc
   102F 74 80              3929 	mov	a,#0x80
   1031 C0 E0              3930 	push	acc
   1033 8A 82              3931 	mov	dpl,r2
   1035 8B 83              3932 	mov	dph,r3
   1037 8C F0              3933 	mov	b,r4
   1039 78r00              3934 	mov	r0,#_rimeaddr_cmp
   103B 79s00              3935 	mov	r1,#(_rimeaddr_cmp >> 8)
   103D 7As00              3936 	mov	r2,#(_rimeaddr_cmp >> 16)
   103F 12s00r00           3937 	lcall	__sdcc_banked_call
   1042 AB 82              3938 	mov	r3,dpl
   1044 AC 83              3939 	mov	r4,dph
   1046 15 81              3940 	dec	sp
   1048 15 81              3941 	dec	sp
   104A 15 81              3942 	dec	sp
   104C EB                 3943 	mov	a,r3
   104D 4C                 3944 	orl	a,r4
   104E 70 03              3945 	jnz	00139$
   1050 02s12r49           3946 	ljmp	00119$
   1053                    3947 00139$:
   1053                    3948 00101$:
                           3949 ;	../../../contiki-sensinode//core/net/mac/cxmac.c:732: off();
   1053 78r40              3950 	mov	r0,#_off
   1055 79s00              3951 	mov	r1,#(_off >> 8)
   1057 7As00              3952 	mov	r2,#(_off >> 16)
   1059 12s00r00           3953 	lcall	__sdcc_banked_call
                           3954 ;	../../../contiki-sensinode//core/net/mac/cxmac.c:748: waiting_for_packet = 0;
   105C 90s00r09           3955 	mov	dptr,#_waiting_for_packet
   105F E4                 3956 	clr	a
   1060 F0                 3957 	movx	@dptr,a
                           3958 ;	../../../contiki-sensinode//core/net/mac/cxmac.c:751: NETSTACK_MAC.input();
   1061 90s00r09           3959 	mov	dptr,#(_csma_driver + 0x0009)
   1064 E4                 3960 	clr	a
   1065 93                 3961 	movc	a,@a+dptr
   1066 FA                 3962 	mov	r2,a
   1067 A3                 3963 	inc	dptr
   1068 E4                 3964 	clr	a
   1069 93                 3965 	movc	a,@a+dptr
   106A FB                 3966 	mov	r3,a
   106B A3                 3967 	inc	dptr
   106C E4                 3968 	clr	a
   106D 93                 3969 	movc	a,@a+dptr
   106E FC                 3970 	mov	r4,a
   106F C0 04              3971 	push	ar4
   1071 C0 03              3972 	push	ar3
   1073 C0 02              3973 	push	ar2
   1075 C0 02              3974 	push	ar2
   1077 C0 03              3975 	push	ar3
   1079 C0 04              3976 	push	ar4
   107B D0 02              3977 	pop	ar2
   107D D0 01              3978 	pop	ar1
   107F D0 00              3979 	pop	ar0
   1081 12s00r00           3980 	lcall	__sdcc_banked_call
   1084 D0 02              3981 	pop	ar2
   1086 D0 03              3982 	pop	ar3
   1088 D0 04              3983 	pop	ar4
                           3984 ;	../../../contiki-sensinode//core/net/mac/cxmac.c:752: return;
   108A 02s12r49           3985 	ljmp	00119$
   108D                    3986 00115$:
                           3987 ;	../../../contiki-sensinode//core/net/mac/cxmac.c:757: } else if(hdr->type == TYPE_STROBE) {
   108D 0D                 3988 	inc	r5
   108E BD 00 01           3989 	cjne	r5,#0x00,00141$
   1091 0E                 3990 	inc	r6
   1092                    3991 00141$:
   1092 8D 82              3992 	mov	dpl,r5
   1094 8E 83              3993 	mov	dph,r6
   1096 8F F0              3994 	mov	b,r7
   1098 12s00r00           3995 	lcall	__gptrget
   109B FC                 3996 	mov	r4,a
   109C BC 10 02           3997 	cjne	r4,#0x10,00142$
   109F 80 03              3998 	sjmp	00143$
   10A1                    3999 00142$:
   10A1 02s12r49           4000 	ljmp	00119$
   10A4                    4001 00143$:
                           4002 ;	../../../contiki-sensinode//core/net/mac/cxmac.c:758: someone_is_sending = 2;
   10A4 90s00r0A           4003 	mov	dptr,#_someone_is_sending
   10A7 74 02              4004 	mov	a,#0x02
   10A9 F0                 4005 	movx	@dptr,a
                           4006 ;	../../../contiki-sensinode//core/net/mac/cxmac.c:761: &rimeaddr_node_addr)) {
                           4007 ;	../../../contiki-sensinode//core/net/mac/cxmac.c:760: if(rimeaddr_cmp(packetbuf_addr(PACKETBUF_ADDR_RECEIVER),
   10AA 75 82 19           4008 	mov	dpl,#0x19
   10AD C0 07              4009 	push	ar7
   10AF C0 06              4010 	push	ar6
   10B1 C0 05              4011 	push	ar5
   10B3 78r00              4012 	mov	r0,#_packetbuf_addr
   10B5 79s00              4013 	mov	r1,#(_packetbuf_addr >> 8)
   10B7 7As00              4014 	mov	r2,#(_packetbuf_addr >> 16)
   10B9 12s00r00           4015 	lcall	__sdcc_banked_call
   10BC AA 82              4016 	mov	r2,dpl
   10BE AB 83              4017 	mov	r3,dph
   10C0 AC F0              4018 	mov	r4,b
   10C2 74r00              4019 	mov	a,#_rimeaddr_node_addr
   10C4 C0 E0              4020 	push	acc
   10C6 74s00              4021 	mov	a,#(_rimeaddr_node_addr >> 8)
   10C8 C0 E0              4022 	push	acc
   10CA E4                 4023 	clr	a
   10CB C0 E0              4024 	push	acc
   10CD 8A 82              4025 	mov	dpl,r2
   10CF 8B 83              4026 	mov	dph,r3
   10D1 8C F0              4027 	mov	b,r4
   10D3 78r00              4028 	mov	r0,#_rimeaddr_cmp
   10D5 79s00              4029 	mov	r1,#(_rimeaddr_cmp >> 8)
   10D7 7As00              4030 	mov	r2,#(_rimeaddr_cmp >> 16)
   10D9 12s00r00           4031 	lcall	__sdcc_banked_call
   10DC AB 82              4032 	mov	r3,dpl
   10DE AC 83              4033 	mov	r4,dph
   10E0 15 81              4034 	dec	sp
   10E2 15 81              4035 	dec	sp
   10E4 15 81              4036 	dec	sp
   10E6 D0 05              4037 	pop	ar5
   10E8 D0 06              4038 	pop	ar6
   10EA D0 07              4039 	pop	ar7
   10EC EB                 4040 	mov	a,r3
   10ED 4C                 4041 	orl	a,r4
   10EE 70 03              4042 	jnz	00144$
   10F0 02s11rFF           4043 	ljmp	00109$
   10F3                    4044 00144$:
                           4045 ;	../../../contiki-sensinode//core/net/mac/cxmac.c:768: hdr->type = TYPE_STROBE_ACK;
   10F3 8D 82              4046 	mov	dpl,r5
   10F5 8E 83              4047 	mov	dph,r6
   10F7 8F F0              4048 	mov	b,r7
   10F9 74 13              4049 	mov	a,#0x13
   10FB 12s00r00           4050 	lcall	__gptrput
                           4051 ;	../../../contiki-sensinode//core/net/mac/cxmac.c:770: packetbuf_addr(PACKETBUF_ADDR_SENDER));
   10FE 75 82 18           4052 	mov	dpl,#0x18
   1101 78r00              4053 	mov	r0,#_packetbuf_addr
   1103 79s00              4054 	mov	r1,#(_packetbuf_addr >> 8)
   1105 7As00              4055 	mov	r2,#(_packetbuf_addr >> 16)
   1107 12s00r00           4056 	lcall	__sdcc_banked_call
   110A AD 82              4057 	mov	r5,dpl
   110C AE 83              4058 	mov	r6,dph
   110E AF F0              4059 	mov	r7,b
                           4060 ;	../../../contiki-sensinode//core/net/mac/cxmac.c:769: packetbuf_set_addr(PACKETBUF_ADDR_RECEIVER,
   1110 C0 05              4061 	push	ar5
   1112 C0 06              4062 	push	ar6
   1114 C0 07              4063 	push	ar7
   1116 75 82 19           4064 	mov	dpl,#0x19
   1119 78r00              4065 	mov	r0,#_packetbuf_set_addr
   111B 79s00              4066 	mov	r1,#(_packetbuf_set_addr >> 8)
   111D 7As00              4067 	mov	r2,#(_packetbuf_set_addr >> 16)
   111F 12s00r00           4068 	lcall	__sdcc_banked_call
   1122 15 81              4069 	dec	sp
   1124 15 81              4070 	dec	sp
   1126 15 81              4071 	dec	sp
                           4072 ;	../../../contiki-sensinode//core/net/mac/cxmac.c:771: packetbuf_set_addr(PACKETBUF_ADDR_SENDER, &rimeaddr_node_addr);
   1128 74r00              4073 	mov	a,#_rimeaddr_node_addr
   112A C0 E0              4074 	push	acc
   112C 74s00              4075 	mov	a,#(_rimeaddr_node_addr >> 8)
   112E C0 E0              4076 	push	acc
   1130 E4                 4077 	clr	a
   1131 C0 E0              4078 	push	acc
   1133 75 82 18           4079 	mov	dpl,#0x18
   1136 78r00              4080 	mov	r0,#_packetbuf_set_addr
   1138 79s00              4081 	mov	r1,#(_packetbuf_set_addr >> 8)
   113A 7As00              4082 	mov	r2,#(_packetbuf_set_addr >> 16)
   113C 12s00r00           4083 	lcall	__sdcc_banked_call
   113F 15 81              4084 	dec	sp
   1141 15 81              4085 	dec	sp
   1143 15 81              4086 	dec	sp
                           4087 ;	../../../contiki-sensinode//core/net/mac/cxmac.c:772: packetbuf_compact();
   1145 78r00              4088 	mov	r0,#_packetbuf_compact
   1147 79s00              4089 	mov	r1,#(_packetbuf_compact >> 8)
   1149 7As00              4090 	mov	r2,#(_packetbuf_compact >> 16)
   114B 12s00r00           4091 	lcall	__sdcc_banked_call
                           4092 ;	../../../contiki-sensinode//core/net/mac/cxmac.c:773: if(NETSTACK_FRAMER.create() >= 0) {
   114E 90s00r00           4093 	mov	dptr,#_framer_802154
   1151 E4                 4094 	clr	a
   1152 93                 4095 	movc	a,@a+dptr
   1153 FD                 4096 	mov	r5,a
   1154 A3                 4097 	inc	dptr
   1155 E4                 4098 	clr	a
   1156 93                 4099 	movc	a,@a+dptr
   1157 FE                 4100 	mov	r6,a
   1158 A3                 4101 	inc	dptr
   1159 E4                 4102 	clr	a
   115A 93                 4103 	movc	a,@a+dptr
   115B FF                 4104 	mov	r7,a
   115C C0 07              4105 	push	ar7
   115E C0 05              4106 	push	ar5
   1160 C0 06              4107 	push	ar6
   1162 C0 07              4108 	push	ar7
   1164 D0 02              4109 	pop	ar2
   1166 D0 01              4110 	pop	ar1
   1168 D0 00              4111 	pop	ar0
   116A 12s00r00           4112 	lcall	__sdcc_banked_call
   116D AD 82              4113 	mov	r5,dpl
   116F AE 83              4114 	mov	r6,dph
   1171 D0 07              4115 	pop	ar7
   1173 EE                 4116 	mov	a,r6
   1174 30 E7 03           4117 	jnb	acc.7,00146$
   1177 02s12r49           4118 	ljmp	00110$
   117A                    4119 00146$:
                           4120 ;	../../../contiki-sensinode//core/net/mac/cxmac.c:776: someone_is_sending = 1;
   117A 90s00r0A           4121 	mov	dptr,#_someone_is_sending
   117D 74 01              4122 	mov	a,#0x01
   117F F0                 4123 	movx	@dptr,a
                           4124 ;	../../../contiki-sensinode//core/net/mac/cxmac.c:777: waiting_for_packet = 1;
   1180 90s00r09           4125 	mov	dptr,#_waiting_for_packet
   1183 74 01              4126 	mov	a,#0x01
   1185 F0                 4127 	movx	@dptr,a
                           4128 ;	../../../contiki-sensinode//core/net/mac/cxmac.c:778: on();
   1186 78r00              4129 	mov	r0,#_on
   1188 79s00              4130 	mov	r1,#(_on >> 8)
   118A 7As00              4131 	mov	r2,#(_on >> 16)
   118C 12s00r00           4132 	lcall	__sdcc_banked_call
                           4133 ;	../../../contiki-sensinode//core/net/mac/cxmac.c:779: NETSTACK_RADIO.send(packetbuf_hdrptr(), packetbuf_totlen());
   118F 90s00r09           4134 	mov	dptr,#(_cc2530_rf_driver + 0x0009)
   1192 E4                 4135 	clr	a
   1193 93                 4136 	movc	a,@a+dptr
   1194 FD                 4137 	mov	r5,a
   1195 A3                 4138 	inc	dptr
   1196 E4                 4139 	clr	a
   1197 93                 4140 	movc	a,@a+dptr
   1198 FE                 4141 	mov	r6,a
   1199 A3                 4142 	inc	dptr
   119A E4                 4143 	clr	a
   119B 93                 4144 	movc	a,@a+dptr
   119C FF                 4145 	mov	r7,a
   119D C0 07              4146 	push	ar7
   119F C0 06              4147 	push	ar6
   11A1 C0 05              4148 	push	ar5
   11A3 78r00              4149 	mov	r0,#_packetbuf_totlen
   11A5 79s00              4150 	mov	r1,#(_packetbuf_totlen >> 8)
   11A7 7As00              4151 	mov	r2,#(_packetbuf_totlen >> 16)
   11A9 12s00r00           4152 	lcall	__sdcc_banked_call
   11AC C8                 4153 	xch	a,r0
   11AD E5 81              4154 	mov	a,sp
   11AF 24 FC              4155 	add	a,#0xfc
   11B1 C8                 4156 	xch	a,r0
   11B2 A6 82              4157 	mov	@r0,dpl
   11B4 08                 4158 	inc	r0
   11B5 A6 83              4159 	mov	@r0,dph
   11B7 78r00              4160 	mov	r0,#_packetbuf_hdrptr
   11B9 79s00              4161 	mov	r1,#(_packetbuf_hdrptr >> 8)
   11BB 7As00              4162 	mov	r2,#(_packetbuf_hdrptr >> 16)
   11BD 12s00r00           4163 	lcall	__sdcc_banked_call
   11C0 AA 82              4164 	mov	r2,dpl
   11C2 AB 83              4165 	mov	r3,dph
   11C4 AC F0              4166 	mov	r4,b
   11C6 D0 05              4167 	pop	ar5
   11C8 D0 06              4168 	pop	ar6
   11CA D0 07              4169 	pop	ar7
   11CC C0 07              4170 	push	ar7
   11CE C0 06              4171 	push	ar6
   11D0 C0 05              4172 	push	ar5
   11D2 E5 81              4173 	mov	a,sp
   11D4 24 FC              4174 	add	a,#0xfc
   11D6 F8                 4175 	mov	r0,a
   11D7 E6                 4176 	mov	a,@r0
   11D8 C0 E0              4177 	push	acc
   11DA 08                 4178 	inc	r0
   11DB E6                 4179 	mov	a,@r0
   11DC C0 E0              4180 	push	acc
   11DE C0 05              4181 	push	ar5
   11E0 C0 06              4182 	push	ar6
   11E2 C0 07              4183 	push	ar7
   11E4 8A 82              4184 	mov	dpl,r2
   11E6 8B 83              4185 	mov	dph,r3
   11E8 8C F0              4186 	mov	b,r4
   11EA D0 02              4187 	pop	ar2
   11EC D0 01              4188 	pop	ar1
   11EE D0 00              4189 	pop	ar0
   11F0 12s00r00           4190 	lcall	__sdcc_banked_call
   11F3 15 81              4191 	dec	sp
   11F5 15 81              4192 	dec	sp
   11F7 D0 05              4193 	pop	ar5
   11F9 D0 06              4194 	pop	ar6
   11FB D0 07              4195 	pop	ar7
   11FD 80 4A              4196 	sjmp	00110$
   11FF                    4197 00109$:
                           4198 ;	../../../contiki-sensinode//core/net/mac/cxmac.c:785: &rimeaddr_null)) {
                           4199 ;	../../../contiki-sensinode//core/net/mac/cxmac.c:784: } else if(rimeaddr_cmp(packetbuf_addr(PACKETBUF_ADDR_RECEIVER),
   11FF 75 82 19           4200 	mov	dpl,#0x19
   1202 78r00              4201 	mov	r0,#_packetbuf_addr
   1204 79s00              4202 	mov	r1,#(_packetbuf_addr >> 8)
   1206 7As00              4203 	mov	r2,#(_packetbuf_addr >> 16)
   1208 12s00r00           4204 	lcall	__sdcc_banked_call
   120B AD 82              4205 	mov	r5,dpl
   120D AE 83              4206 	mov	r6,dph
   120F AF F0              4207 	mov	r7,b
   1211 74r00              4208 	mov	a,#_rimeaddr_null
   1213 C0 E0              4209 	push	acc
   1215 74s00              4210 	mov	a,#(_rimeaddr_null >> 8)
   1217 C0 E0              4211 	push	acc
   1219 74 80              4212 	mov	a,#0x80
   121B C0 E0              4213 	push	acc
   121D 8D 82              4214 	mov	dpl,r5
   121F 8E 83              4215 	mov	dph,r6
   1221 8F F0              4216 	mov	b,r7
   1223 78r00              4217 	mov	r0,#_rimeaddr_cmp
   1225 79s00              4218 	mov	r1,#(_rimeaddr_cmp >> 8)
   1227 7As00              4219 	mov	r2,#(_rimeaddr_cmp >> 16)
   1229 12s00r00           4220 	lcall	__sdcc_banked_call
   122C AE 82              4221 	mov	r6,dpl
   122E AF 83              4222 	mov	r7,dph
   1230 15 81              4223 	dec	sp
   1232 15 81              4224 	dec	sp
   1234 15 81              4225 	dec	sp
   1236 EE                 4226 	mov	a,r6
   1237 4F                 4227 	orl	a,r7
   1238 60 0F              4228 	jz	00110$
                           4229 ;	../../../contiki-sensinode//core/net/mac/cxmac.c:790: waiting_for_packet = 1;
   123A 90s00r09           4230 	mov	dptr,#_waiting_for_packet
   123D 74 01              4231 	mov	a,#0x01
   123F F0                 4232 	movx	@dptr,a
                           4233 ;	../../../contiki-sensinode//core/net/mac/cxmac.c:791: on();
   1240 78r00              4234 	mov	r0,#_on
   1242 79s00              4235 	mov	r1,#(_on >> 8)
   1244 7As00              4236 	mov	r2,#(_on >> 16)
   1246 12s00r00           4237 	lcall	__sdcc_banked_call
   1249                    4238 00110$:
                           4239 ;	../../../contiki-sensinode//core/net/mac/cxmac.c:798: return;
                           4240 ;	../../../contiki-sensinode//core/net/mac/cxmac.c:804: } else if(hdr->type == TYPE_STROBE_ACK) {
   1249                    4241 00119$:
   1249 15 81              4242 	dec	sp
   124B 15 81              4243 	dec	sp
   124D 02s00r00           4244 	ljmp	__sdcc_banked_ret
                           4245 ;------------------------------------------------------------
                           4246 ;Allocation info for local variables in function 'cxmac_set_announcement_radio_txpower'
                           4247 ;------------------------------------------------------------
                           4248 ;txpower                   Allocated to registers 
                           4249 ;------------------------------------------------------------
                           4250 ;	../../../contiki-sensinode//core/net/mac/cxmac.c:864: cxmac_set_announcement_radio_txpower(int txpower)
                           4251 ;	-----------------------------------------
                           4252 ;	 function cxmac_set_announcement_radio_txpower
                           4253 ;	-----------------------------------------
   1250                    4254 _cxmac_set_announcement_radio_txpower:
                           4255 ;	../../../contiki-sensinode//core/net/mac/cxmac.c:869: }
   1250 02s00r00           4256 	ljmp	__sdcc_banked_ret
                           4257 ;------------------------------------------------------------
                           4258 ;Allocation info for local variables in function 'cxmac_init'
                           4259 ;------------------------------------------------------------
                           4260 ;	../../../contiki-sensinode//core/net/mac/cxmac.c:872: cxmac_init(void)
                           4261 ;	-----------------------------------------
                           4262 ;	 function cxmac_init
                           4263 ;	-----------------------------------------
   1253                    4264 _cxmac_init:
                           4265 ;	../../../contiki-sensinode//core/net/mac/cxmac.c:874: radio_is_on = 0;
   1253 90s00r0C           4266 	mov	dptr,#_radio_is_on
                           4267 ;	../../../contiki-sensinode//core/net/mac/cxmac.c:875: waiting_for_packet = 0;
                           4268 ;	../../../contiki-sensinode//core/net/mac/cxmac.c:876: PT_INIT(&pt);
   1256 E4                 4269 	clr	a
   1257 F0                 4270 	movx	@dptr,a
   1258 90s00r09           4271 	mov	dptr,#_waiting_for_packet
   125B F0                 4272 	movx	@dptr,a
   125C 90s00r00           4273 	mov	dptr,#_pt
   125F F0                 4274 	movx	@dptr,a
   1260 A3                 4275 	inc	dptr
   1261 E4                 4276 	clr	a
   1262 F0                 4277 	movx	@dptr,a
                           4278 ;	../../../contiki-sensinode//core/net/mac/cxmac.c:880: cxmac_is_on = 1;
   1263 90s00r08           4279 	mov	dptr,#_cxmac_is_on
   1266 74 01              4280 	mov	a,#0x01
   1268 F0                 4281 	movx	@dptr,a
                           4282 ;	../../../contiki-sensinode//core/net/mac/cxmac.c:883: list_init(encounter_list);
   1269 90s00r10           4283 	mov	dptr,#_encounter_list
   126C E0                 4284 	movx	a,@dptr
   126D FD                 4285 	mov	r5,a
   126E A3                 4286 	inc	dptr
   126F E0                 4287 	movx	a,@dptr
   1270 FE                 4288 	mov	r6,a
   1271 A3                 4289 	inc	dptr
   1272 E0                 4290 	movx	a,@dptr
   1273 FF                 4291 	mov	r7,a
   1274 8D 82              4292 	mov	dpl,r5
   1276 8E 83              4293 	mov	dph,r6
   1278 8F F0              4294 	mov	b,r7
   127A 78r00              4295 	mov	r0,#_list_init
   127C 79s00              4296 	mov	r1,#(_list_init >> 8)
   127E 7As00              4297 	mov	r2,#(_list_init >> 16)
   1280 12s00r00           4298 	lcall	__sdcc_banked_call
                           4299 ;	../../../contiki-sensinode//core/net/mac/cxmac.c:884: memb_init(&encounter_memb);
   1283 90s00r13           4300 	mov	dptr,#_encounter_memb
   1286 75 F0 00           4301 	mov	b,#0x00
   1289 78r00              4302 	mov	r0,#_memb_init
   128B 79s00              4303 	mov	r1,#(_memb_init >> 8)
   128D 7As00              4304 	mov	r2,#(_memb_init >> 16)
   128F 12s00r00           4305 	lcall	__sdcc_banked_call
                           4306 ;	../../../contiki-sensinode//core/net/mac/cxmac.c:893: CSCHEDULE_POWERCYCLE(DEFAULT_OFF_TIME);
   1292 90 00 0F           4307 	mov	dptr,#0x000F
   1295 78rC1              4308 	mov	r0,#_cschedule_powercycle
   1297 79s00              4309 	mov	r1,#(_cschedule_powercycle >> 8)
   1299 7As00              4310 	mov	r2,#(_cschedule_powercycle >> 16)
   129B 12s00r00           4311 	lcall	__sdcc_banked_call
   129E 02s00r00           4312 	ljmp	__sdcc_banked_ret
                           4313 ;------------------------------------------------------------
                           4314 ;Allocation info for local variables in function 'turn_on'
                           4315 ;------------------------------------------------------------
                           4316 ;	../../../contiki-sensinode//core/net/mac/cxmac.c:897: turn_on(void)
                           4317 ;	-----------------------------------------
                           4318 ;	 function turn_on
                           4319 ;	-----------------------------------------
   12A1                    4320 _turn_on:
                           4321 ;	../../../contiki-sensinode//core/net/mac/cxmac.c:899: cxmac_is_on = 1;
   12A1 90s00r08           4322 	mov	dptr,#_cxmac_is_on
   12A4 74 01              4323 	mov	a,#0x01
   12A6 F0                 4324 	movx	@dptr,a
                           4325 ;	../../../contiki-sensinode//core/net/mac/cxmac.c:902: CSCHEDULE_POWERCYCLE(DEFAULT_OFF_TIME);
   12A7 90 00 0F           4326 	mov	dptr,#0x000F
   12AA 78rC1              4327 	mov	r0,#_cschedule_powercycle
   12AC 79s00              4328 	mov	r1,#(_cschedule_powercycle >> 8)
   12AE 7As00              4329 	mov	r2,#(_cschedule_powercycle >> 16)
   12B0 12s00r00           4330 	lcall	__sdcc_banked_call
                           4331 ;	../../../contiki-sensinode//core/net/mac/cxmac.c:903: return 1;
   12B3 90 00 01           4332 	mov	dptr,#0x0001
   12B6 02s00r00           4333 	ljmp	__sdcc_banked_ret
                           4334 ;------------------------------------------------------------
                           4335 ;Allocation info for local variables in function 'turn_off'
                           4336 ;------------------------------------------------------------
                           4337 ;keep_radio_on             Allocated to registers r6 r7 
                           4338 ;------------------------------------------------------------
                           4339 ;	../../../contiki-sensinode//core/net/mac/cxmac.c:907: turn_off(int keep_radio_on)
                           4340 ;	-----------------------------------------
                           4341 ;	 function turn_off
                           4342 ;	-----------------------------------------
   12B9                    4343 _turn_off:
   12B9 AE 82              4344 	mov	r6,dpl
   12BB AF 83              4345 	mov	r7,dph
                           4346 ;	../../../contiki-sensinode//core/net/mac/cxmac.c:909: cxmac_is_on = 0;
   12BD 90s00r08           4347 	mov	dptr,#_cxmac_is_on
   12C0 E4                 4348 	clr	a
   12C1 F0                 4349 	movx	@dptr,a
                           4350 ;	../../../contiki-sensinode//core/net/mac/cxmac.c:910: if(keep_radio_on) {
   12C2 EE                 4351 	mov	a,r6
   12C3 4F                 4352 	orl	a,r7
   12C4 60 2B              4353 	jz	00102$
                           4354 ;	../../../contiki-sensinode//core/net/mac/cxmac.c:911: return NETSTACK_RADIO.on();
   12C6 90s00r18           4355 	mov	dptr,#(_cc2530_rf_driver + 0x0018)
   12C9 E4                 4356 	clr	a
   12CA 93                 4357 	movc	a,@a+dptr
   12CB FD                 4358 	mov	r5,a
   12CC A3                 4359 	inc	dptr
   12CD E4                 4360 	clr	a
   12CE 93                 4361 	movc	a,@a+dptr
   12CF FE                 4362 	mov	r6,a
   12D0 A3                 4363 	inc	dptr
   12D1 E4                 4364 	clr	a
   12D2 93                 4365 	movc	a,@a+dptr
   12D3 FF                 4366 	mov	r7,a
   12D4 C0 07              4367 	push	ar7
   12D6 C0 05              4368 	push	ar5
   12D8 C0 06              4369 	push	ar6
   12DA C0 07              4370 	push	ar7
   12DC D0 02              4371 	pop	ar2
   12DE D0 01              4372 	pop	ar1
   12E0 D0 00              4373 	pop	ar0
   12E2 12s00r00           4374 	lcall	__sdcc_banked_call
   12E5 AD 82              4375 	mov	r5,dpl
   12E7 AE 83              4376 	mov	r6,dph
   12E9 D0 07              4377 	pop	ar7
   12EB 8D 82              4378 	mov	dpl,r5
   12ED 8E 83              4379 	mov	dph,r6
   12EF 80 29              4380 	sjmp	00104$
   12F1                    4381 00102$:
                           4382 ;	../../../contiki-sensinode//core/net/mac/cxmac.c:913: return NETSTACK_RADIO.off();
   12F1 90s00r1B           4383 	mov	dptr,#(_cc2530_rf_driver + 0x001b)
   12F4 E4                 4384 	clr	a
   12F5 93                 4385 	movc	a,@a+dptr
   12F6 FD                 4386 	mov	r5,a
   12F7 A3                 4387 	inc	dptr
   12F8 E4                 4388 	clr	a
   12F9 93                 4389 	movc	a,@a+dptr
   12FA FE                 4390 	mov	r6,a
   12FB A3                 4391 	inc	dptr
   12FC E4                 4392 	clr	a
   12FD 93                 4393 	movc	a,@a+dptr
   12FE FF                 4394 	mov	r7,a
   12FF C0 07              4395 	push	ar7
   1301 C0 05              4396 	push	ar5
   1303 C0 06              4397 	push	ar6
   1305 C0 07              4398 	push	ar7
   1307 D0 02              4399 	pop	ar2
   1309 D0 01              4400 	pop	ar1
   130B D0 00              4401 	pop	ar0
   130D 12s00r00           4402 	lcall	__sdcc_banked_call
   1310 AD 82              4403 	mov	r5,dpl
   1312 AE 83              4404 	mov	r6,dph
   1314 D0 07              4405 	pop	ar7
   1316 8D 82              4406 	mov	dpl,r5
   1318 8E 83              4407 	mov	dph,r6
   131A                    4408 00104$:
   131A 02s00r00           4409 	ljmp	__sdcc_banked_ret
                           4410 ;------------------------------------------------------------
                           4411 ;Allocation info for local variables in function 'channel_check_interval'
                           4412 ;------------------------------------------------------------
                           4413 ;	../../../contiki-sensinode//core/net/mac/cxmac.c:918: channel_check_interval(void)
                           4414 ;	-----------------------------------------
                           4415 ;	 function channel_check_interval
                           4416 ;	-----------------------------------------
   131D                    4417 _channel_check_interval:
                           4418 ;	../../../contiki-sensinode//core/net/mac/cxmac.c:920: return (1ul * CLOCK_SECOND * DEFAULT_PERIOD) / RTIMER_ARCH_SECOND;
   131D 90 00 0F           4419 	mov	dptr,#0x000F
   1320 02s00r00           4420 	ljmp	__sdcc_banked_ret
                           4421 	.area CSEG    (CODE)
                           4422 	.area CONST   (CODE)
   0000                    4423 _cxmac_driver:
   0000r18s00 80           4424 	.byte _str_0,(_str_0 >> 8),#0x80
   0003r53s12s00           4425 	.byte _cxmac_init,(_cxmac_init >> 8),(_cxmac_init >> 16)
   0006r55s0Es00           4426 	.byte _qsend_packet,(_qsend_packet >> 8),(_qsend_packet >> 16)
   0009r14s0Fs00           4427 	.byte _qsend_list,(_qsend_list >> 8),(_qsend_list >> 16)
   000Cr8Fs0Fs00           4428 	.byte _input_packet,(_input_packet >> 8),(_input_packet >> 16)
   000FrA1s12s00           4429 	.byte _turn_on,(_turn_on >> 8),(_turn_on >> 16)
   0012rB9s12s00           4430 	.byte _turn_off,(_turn_off >> 8),(_turn_off >> 16)
   0015r1Ds13s00           4431 	.byte _channel_check_interval,(_channel_check_interval >> 8),(_channel_check_interval >> 16)
   0018                    4432 _str_0:
   0018 43 58 2D 4D 41 43  4433 	.ascii "CX-MAC"
   001E 00                 4434 	.db 0x00
                           4435 	.area XINIT   (CODE)
   0000                    4436 __xinit__cxmac_config:
   0000 61 00              4437 	.byte #0x61,#0x00	; 97
   0002 40 07              4438 	.byte #0x40,#0x07	; 1856
   0004 C4 08              4439 	.byte #0xC4,#0x08	; 2244
   0006 54 00              4440 	.byte #0x54,#0x00	; 84
   0008                    4441 __xinit__cxmac_is_on:
   0008 00                 4442 	.db #0x00	; 0
   0009                    4443 __xinit__waiting_for_packet:
   0009 00                 4444 	.db #0x00	; 0
   000A                    4445 __xinit__someone_is_sending:
   000A 00                 4446 	.db #0x00	; 0
   000B                    4447 __xinit__we_are_sending:
   000B 00                 4448 	.db #0x00	; 0
   000C                    4449 __xinit__radio_is_on:
   000C 00                 4450 	.db #0x00	; 0
   000D                    4451 __xinit__encounter_list_list:
                           4452 ; generic printIvalPtr
   000D 00 00 00           4453 	.byte #0x00,#0x00,#0x00
   0010                    4454 __xinit__encounter_list:
   0010r0Ds00 00           4455 	.byte _encounter_list_list,(_encounter_list_list >> 8),#0x00
   0013                    4456 __xinit__encounter_memb:
   0013 0D 00              4457 	.byte #0x0D,#0x00	; 13
   0015 04 00              4458 	.byte #0x04,#0x00	; 4
   0017r03s00 00           4459 	.byte _encounter_memb_memb_count,(_encounter_memb_memb_count >> 8),#0x00
   001Ar07s00 00           4460 	.byte _encounter_memb_memb_mem,(_encounter_memb_memb_mem >> 8),#0x00
                           4461 	.area CABS    (ABS,CODE)
