                              1 ;--------------------------------------------------------
                              2 ; File Created by SDCC : free open source ANSI-C Compiler
                              3 ; Version 3.1.1 #7100 (Oct 29 2014) (Linux)
                              4 ; This file was generated Wed Dec  2 18:10:55 2015
                              5 ;--------------------------------------------------------
                              6 	.module elfloader
                              7 	.optsdcc -mmcs51 --model-huge
                              8 	
                              9 ;--------------------------------------------------------
                             10 ; Public variables in this module
                             11 ;--------------------------------------------------------
                             12 	.globl _symtab_lookup
                             13 	.globl _elfloader_arch_write_rom
                             14 	.globl _elfloader_arch_relocate
                             15 	.globl _elfloader_arch_allocate_rom
                             16 	.globl _elfloader_arch_allocate_ram
                             17 	.globl _cfs_seek
                             18 	.globl _cfs_read
                             19 	.globl _memset
                             20 	.globl _strncmp
                             21 	.globl _strcmp
                             22 	.globl _memcmp
                             23 	.globl _memcpy
                             24 	.globl _ACTIVE
                             25 	.globl _TX_BYTE
                             26 	.globl _RX_BYTE
                             27 	.globl _ERR
                             28 	.globl _FE
                             29 	.globl _SLAVE
                             30 	.globl _RE
                             31 	.globl _MODE
                             32 	.globl _T3OVFIF
                             33 	.globl _T3CH0IF
                             34 	.globl _T3CH1IF
                             35 	.globl _T4OVFIF
                             36 	.globl _T4CH0IF
                             37 	.globl _T4CH1IF
                             38 	.globl _OVFIM
                             39 	.globl _B_0
                             40 	.globl _B_1
                             41 	.globl _B_2
                             42 	.globl _B_3
                             43 	.globl _B_4
                             44 	.globl _B_5
                             45 	.globl _B_6
                             46 	.globl _B_7
                             47 	.globl _P2IF
                             48 	.globl _UTX0IF
                             49 	.globl _UTX1IF
                             50 	.globl _P1IF
                             51 	.globl _WDTIF
                             52 	.globl _ACC_0
                             53 	.globl _ACC_1
                             54 	.globl _ACC_2
                             55 	.globl _ACC_3
                             56 	.globl _ACC_4
                             57 	.globl _ACC_5
                             58 	.globl _ACC_6
                             59 	.globl _ACC_7
                             60 	.globl _P
                             61 	.globl _F1
                             62 	.globl _OV
                             63 	.globl _RS0
                             64 	.globl _RS1
                             65 	.globl _F0
                             66 	.globl _AC
                             67 	.globl _CY
                             68 	.globl _DMAIF
                             69 	.globl _T1IF
                             70 	.globl _T2IF
                             71 	.globl _T3IF
                             72 	.globl _T4IF
                             73 	.globl _P0IF
                             74 	.globl _STIF
                             75 	.globl _DMAIE
                             76 	.globl _T1IE
                             77 	.globl _T2IE
                             78 	.globl _T3IE
                             79 	.globl _T4IE
                             80 	.globl _P0IE
                             81 	.globl _RFERRIE
                             82 	.globl _ADCIE
                             83 	.globl _URX0IE
                             84 	.globl _URX1IE
                             85 	.globl _ENCIE
                             86 	.globl _STIE
                             87 	.globl _EA
                             88 	.globl _P2_0
                             89 	.globl _P2_1
                             90 	.globl _P2_2
                             91 	.globl _P2_3
                             92 	.globl _P2_4
                             93 	.globl _P2_5
                             94 	.globl _P2_6
                             95 	.globl _P2_7
                             96 	.globl _ENCIF_0
                             97 	.globl _ENCIF_1
                             98 	.globl _P1_0
                             99 	.globl _P1_1
                            100 	.globl _P1_2
                            101 	.globl _P1_3
                            102 	.globl _P1_4
                            103 	.globl _P1_5
                            104 	.globl _P1_6
                            105 	.globl _P1_7
                            106 	.globl _IT0
                            107 	.globl _RFERRIF
                            108 	.globl _IT1
                            109 	.globl _URX0IF
                            110 	.globl _ADCIF
                            111 	.globl _URX1IF
                            112 	.globl _P0_0
                            113 	.globl _P0_1
                            114 	.globl _P0_2
                            115 	.globl _P0_3
                            116 	.globl _P0_4
                            117 	.globl _P0_5
                            118 	.globl _P0_6
                            119 	.globl _P0_7
                            120 	.globl _WDCTL
                            121 	.globl _U1GCR
                            122 	.globl _U1UCR
                            123 	.globl _U1BAUD
                            124 	.globl _U1DBUF
                            125 	.globl _U1CSR
                            126 	.globl _U0GCR
                            127 	.globl _U0UCR
                            128 	.globl _U0BAUD
                            129 	.globl _U0DBUF
                            130 	.globl _U0CSR
                            131 	.globl _TIMIF
                            132 	.globl _T4CC1
                            133 	.globl _T4CCTL1
                            134 	.globl _T4CC0
                            135 	.globl _T4CCTL0
                            136 	.globl _T4CTL
                            137 	.globl _T4CNT
                            138 	.globl _T3CC1
                            139 	.globl _T3CCTL1
                            140 	.globl _T3CC0
                            141 	.globl _T3CCTL0
                            142 	.globl _T3CTL
                            143 	.globl _T3CNT
                            144 	.globl _T2MSEL
                            145 	.globl _T2IRQM
                            146 	.globl _T2MOVF2
                            147 	.globl _T2MOVF1
                            148 	.globl _T2MOVF0
                            149 	.globl _T2M1
                            150 	.globl _T2M0
                            151 	.globl _T2IRQF
                            152 	.globl _T2EVTCFG
                            153 	.globl _T2CTRL
                            154 	.globl _T1STAT
                            155 	.globl _T1CCTL2
                            156 	.globl _T1CCTL1
                            157 	.globl _T1CCTL0
                            158 	.globl _T1CTL
                            159 	.globl _T1CNTH
                            160 	.globl _T1CNTL
                            161 	.globl _T1CC2H
                            162 	.globl _T1CC2L
                            163 	.globl _T1CC1H
                            164 	.globl _T1CC1L
                            165 	.globl _T1CC0H
                            166 	.globl _T1CC0L
                            167 	.globl _CLKCONSTA
                            168 	.globl _CLKCONCMD
                            169 	.globl _SLEEPSTA
                            170 	.globl _SLEEPCMD
                            171 	.globl _STLOAD
                            172 	.globl _ST2
                            173 	.globl _ST1
                            174 	.globl _ST0
                            175 	.globl _RFERRF
                            176 	.globl _RFIRQF0
                            177 	.globl _RFST
                            178 	.globl _RFD
                            179 	.globl _RFIRQF1
                            180 	.globl _PSBANK
                            181 	.globl _FMAP
                            182 	.globl _MEMCTR
                            183 	.globl __XPAGE
                            184 	.globl _MPAGE
                            185 	.globl _PMUX
                            186 	.globl _P2DIR
                            187 	.globl _P1DIR
                            188 	.globl _P0DIR
                            189 	.globl _P2INP
                            190 	.globl _P1INP
                            191 	.globl _P2SEL
                            192 	.globl _P1SEL
                            193 	.globl _P0SEL
                            194 	.globl _APCFG
                            195 	.globl _PERCFG
                            196 	.globl _P0INP
                            197 	.globl _P2IEN
                            198 	.globl _P1IEN
                            199 	.globl _P0IEN
                            200 	.globl _PICTL
                            201 	.globl _P2IFG
                            202 	.globl _P1IFG
                            203 	.globl _P0IFG
                            204 	.globl _DMAREQ
                            205 	.globl _DMAARM
                            206 	.globl _DMA0CFGH
                            207 	.globl _DMA0CFGL
                            208 	.globl _DMA1CFGH
                            209 	.globl _DMA1CFGL
                            210 	.globl _DMAIRQ
                            211 	.globl _ENCCS
                            212 	.globl _ENCDO
                            213 	.globl _ENCDI
                            214 	.globl _RNDH
                            215 	.globl _RNDL
                            216 	.globl _ADCH
                            217 	.globl _ADCL
                            218 	.globl _ADCCON3
                            219 	.globl _ADCCON2
                            220 	.globl _ADCCON1
                            221 	.globl _B
                            222 	.globl _IRCON2
                            223 	.globl _ACC
                            224 	.globl _PSW
                            225 	.globl _IRCON
                            226 	.globl _IP1
                            227 	.globl _IEN1
                            228 	.globl _IP0
                            229 	.globl _IEN0
                            230 	.globl _P2
                            231 	.globl _S1CON
                            232 	.globl _IEN2
                            233 	.globl _S0CON
                            234 	.globl _DPS
                            235 	.globl _P1
                            236 	.globl _TCON
                            237 	.globl _PCON
                            238 	.globl _DPH1
                            239 	.globl _DPL1
                            240 	.globl _DPH0
                            241 	.globl _DPL0
                            242 	.globl _SP
                            243 	.globl _P0
                            244 	.globl _elfloader_autostart_processes
                            245 	.globl _elfloader_unknown
                            246 	.globl _X_IEEE_ADDR
                            247 	.globl _X_INFOPAGE
                            248 	.globl _X_P2DIR
                            249 	.globl _X_P1DIR
                            250 	.globl _X_P0DIR
                            251 	.globl _X_U1GCR
                            252 	.globl _X_U1UCR
                            253 	.globl _X_U1BAUD
                            254 	.globl _X_U1DBUF
                            255 	.globl _X_U1CSR
                            256 	.globl _X_P2INP
                            257 	.globl _X_P1INP
                            258 	.globl _X_P2SEL
                            259 	.globl _X_P1SEL
                            260 	.globl _X_P0SEL
                            261 	.globl _X_APCFG
                            262 	.globl _X_PERCFG
                            263 	.globl _X_T4CC1
                            264 	.globl _X_T4CCTL1
                            265 	.globl _X_T4CC0
                            266 	.globl _X_T4CCTL0
                            267 	.globl _X_T4CTL
                            268 	.globl _X_T4CNT
                            269 	.globl _X_RFIRQF0
                            270 	.globl _X_T1CCTL2
                            271 	.globl _X_T1CCTL1
                            272 	.globl _X_T1CCTL0
                            273 	.globl _X_T1CTL
                            274 	.globl _X_T1CNTH
                            275 	.globl _X_T1CNTL
                            276 	.globl _X_RFST
                            277 	.globl _X_T1CC2H
                            278 	.globl _X_T1CC2L
                            279 	.globl _X_T1CC1H
                            280 	.globl _X_T1CC1L
                            281 	.globl _X_T1CC0H
                            282 	.globl _X_T1CC0L
                            283 	.globl _X_RFD
                            284 	.globl _X_TIMIF
                            285 	.globl _X_DMAREQ
                            286 	.globl _X_DMAARM
                            287 	.globl _X_DMA0CFGH
                            288 	.globl _X_DMA0CFGL
                            289 	.globl _X_DMA1CFGH
                            290 	.globl _X_DMA1CFGL
                            291 	.globl _X_DMAIRQ
                            292 	.globl _X_T3CC1
                            293 	.globl _X_T3CCTL1
                            294 	.globl _X_T3CC0
                            295 	.globl _X_T3CCTL0
                            296 	.globl _X_T3CTL
                            297 	.globl _X_T3CNT
                            298 	.globl _X_WDCTL
                            299 	.globl _X_MEMCTR
                            300 	.globl _X_CLKCONCMD
                            301 	.globl _X_U0GCR
                            302 	.globl _X_U0UCR
                            303 	.globl _X_T2MSEL
                            304 	.globl _X_U0BAUD
                            305 	.globl _X_U0DBUF
                            306 	.globl _X_RFERRF
                            307 	.globl _X_SLEEPCMD
                            308 	.globl _X_RNDH
                            309 	.globl _X_RNDL
                            310 	.globl _X_ADCH
                            311 	.globl _X_ADCL
                            312 	.globl _X_ADCCON3
                            313 	.globl _X_ADCCON2
                            314 	.globl _X_ADCCON1
                            315 	.globl _X_ENCCS
                            316 	.globl _X_ENCDO
                            317 	.globl _X_ENCDI
                            318 	.globl _X_T1STAT
                            319 	.globl _X_PMUX
                            320 	.globl _X_STLOAD
                            321 	.globl _X_P2IEN
                            322 	.globl _X_P0IEN
                            323 	.globl _X_T2IRQM
                            324 	.globl _X_T2MOVF2
                            325 	.globl _X_T2MOVF1
                            326 	.globl _X_T2MOVF0
                            327 	.globl _X_T2M1
                            328 	.globl _X_T2M0
                            329 	.globl _X_T2IRQF
                            330 	.globl _X_P2
                            331 	.globl _X_PSBANK
                            332 	.globl _X_FMAP
                            333 	.globl _X_CLKCONSTA
                            334 	.globl _X_SLEEPSTA
                            335 	.globl _X_T2EVTCFG
                            336 	.globl _X_ST2
                            337 	.globl _X_ST1
                            338 	.globl _X_ST0
                            339 	.globl _X_T2CTRL
                            340 	.globl _X__XPAGE
                            341 	.globl _X_MPAGE
                            342 	.globl _X_RFIRQF1
                            343 	.globl _X_P1
                            344 	.globl _X_P0INP
                            345 	.globl _X_P1IEN
                            346 	.globl _X_PICTL
                            347 	.globl _X_P2IFG
                            348 	.globl _X_P1IFG
                            349 	.globl _X_P0IFG
                            350 	.globl _X_U0CSR
                            351 	.globl _X_P0
                            352 	.globl _USBF5
                            353 	.globl _USBF4
                            354 	.globl _USBF3
                            355 	.globl _USBF2
                            356 	.globl _USBF1
                            357 	.globl _USBF0
                            358 	.globl _USBCNTH
                            359 	.globl _USBCNTL
                            360 	.globl _USBCNT0
                            361 	.globl _USBCSOH
                            362 	.globl _USBCSOL
                            363 	.globl _USBMAXO
                            364 	.globl _USBCSIH
                            365 	.globl _USBCSIL
                            366 	.globl _USBCS0
                            367 	.globl _USBMAXI
                            368 	.globl _USBCTRL
                            369 	.globl _USBINDEX
                            370 	.globl _USBFRMH
                            371 	.globl _USBFRML
                            372 	.globl _USBCIE
                            373 	.globl _USBOIE
                            374 	.globl _USBIIE
                            375 	.globl _USBCIF
                            376 	.globl _USBOIF
                            377 	.globl _USBIIF
                            378 	.globl _USBPOW
                            379 	.globl _USBADDR
                            380 	.globl _CSPT
                            381 	.globl _CSPZ
                            382 	.globl _CSPY
                            383 	.globl _CSPX
                            384 	.globl _CSPSTAT
                            385 	.globl _CSPCTRL
                            386 	.globl _CSPPROG23
                            387 	.globl _CSPPROG22
                            388 	.globl _CSPPROG21
                            389 	.globl _CSPPROG20
                            390 	.globl _CSPPROG19
                            391 	.globl _CSPPROG18
                            392 	.globl _CSPPROG17
                            393 	.globl _CSPPROG16
                            394 	.globl _CSPPROG15
                            395 	.globl _CSPPROG14
                            396 	.globl _CSPPROG13
                            397 	.globl _CSPPROG12
                            398 	.globl _CSPPROG11
                            399 	.globl _CSPPROG10
                            400 	.globl _CSPPROG9
                            401 	.globl _CSPPROG8
                            402 	.globl _CSPPROG7
                            403 	.globl _CSPPROG6
                            404 	.globl _CSPPROG5
                            405 	.globl _CSPPROG4
                            406 	.globl _CSPPROG3
                            407 	.globl _CSPPROG2
                            408 	.globl _CSPPROG1
                            409 	.globl _CSPPROG0
                            410 	.globl _RFC_OBS_CTRL2
                            411 	.globl _RFC_OBS_CTRL1
                            412 	.globl _RFC_OBS_CTRL0
                            413 	.globl _TXFILTCFG
                            414 	.globl _PTEST1
                            415 	.globl _PTEST0
                            416 	.globl _ATEST
                            417 	.globl _DACTEST2
                            418 	.globl _DACTEST1
                            419 	.globl _DACTEST0
                            420 	.globl _MDMTEST1
                            421 	.globl _MDMTEST0
                            422 	.globl _ADCTEST2
                            423 	.globl _ADCTEST1
                            424 	.globl _ADCTEST0
                            425 	.globl _AGCCTRL3
                            426 	.globl _AGCCTRL2
                            427 	.globl _AGCCTRL1
                            428 	.globl _AGCCTRL0
                            429 	.globl _FSCAL3
                            430 	.globl _FSCAL2
                            431 	.globl _FSCAL1
                            432 	.globl _FSCAL0
                            433 	.globl _FSCTRL
                            434 	.globl _RXCTRL
                            435 	.globl _FREQEST
                            436 	.globl _MDMCTRL1
                            437 	.globl _MDMCTRL0
                            438 	.globl _RFRND
                            439 	.globl _RFERRM
                            440 	.globl _RFIRQM1
                            441 	.globl _RFIRQM0
                            442 	.globl _TXLAST_PTR
                            443 	.globl _TXFIRST_PTR
                            444 	.globl _RXP1_PTR
                            445 	.globl _RXLAST_PTR
                            446 	.globl _RXFIRST_PTR
                            447 	.globl _TXFIFOCNT
                            448 	.globl _RXFIFOCNT
                            449 	.globl _RXFIRST
                            450 	.globl _RSSISTAT
                            451 	.globl _RSSI
                            452 	.globl _CCACTRL1
                            453 	.globl _CCACTRL0
                            454 	.globl _FSMCTRL
                            455 	.globl _FIFOPCTRL
                            456 	.globl _FSMSTAT1
                            457 	.globl _FSMSTAT0
                            458 	.globl _TXCTRL
                            459 	.globl _TXPOWER
                            460 	.globl _FREQCTRL
                            461 	.globl _FREQTUNE
                            462 	.globl _RXMASKCLR
                            463 	.globl _RXMASKSET
                            464 	.globl _RXENABLE
                            465 	.globl _FRMCTRL1
                            466 	.globl _FRMCTRL0
                            467 	.globl _SRCEXTEN2
                            468 	.globl _SRCEXTEN1
                            469 	.globl _SRCEXTEN0
                            470 	.globl _SRCSHORTEN2
                            471 	.globl _SRCSHORTEN1
                            472 	.globl _SRCSHORTEN0
                            473 	.globl _SRCMATCH
                            474 	.globl _FRMFILT1
                            475 	.globl _FRMFILT0
                            476 	.globl _SHORT_ADDR1
                            477 	.globl _SHORT_ADDR0
                            478 	.globl _PAN_ID1
                            479 	.globl _PAN_ID0
                            480 	.globl _EXT_ADDR7
                            481 	.globl _EXT_ADDR6
                            482 	.globl _EXT_ADDR5
                            483 	.globl _EXT_ADDR4
                            484 	.globl _EXT_ADDR3
                            485 	.globl _EXT_ADDR2
                            486 	.globl _EXT_ADDR1
                            487 	.globl _EXT_ADDR0
                            488 	.globl _SRCSHORTPENDEN2
                            489 	.globl _SRCSHORTPENDEN1
                            490 	.globl _SRCSHORTPENDEN0
                            491 	.globl _SRCEXTPENDEN2
                            492 	.globl _SRCEXTPENDEN1
                            493 	.globl _SRCEXTPENDEN0
                            494 	.globl _SRCRESINDEX
                            495 	.globl _SRCRESMASK2
                            496 	.globl _SRCRESMASK1
                            497 	.globl _SRCRESMASK0
                            498 	.globl _SRC_ADDR_TABLE
                            499 	.globl _TXFIFO
                            500 	.globl _RXFIFO
                            501 	.globl _RFCORE_RAM
                            502 	.globl _CMPCTL
                            503 	.globl _OPAMPS
                            504 	.globl _OPAMPC
                            505 	.globl _STCV2
                            506 	.globl _STCV1
                            507 	.globl _STCV0
                            508 	.globl _STCS
                            509 	.globl _STCC
                            510 	.globl _T1CC4H
                            511 	.globl _T1CC4L
                            512 	.globl _T1CC3H
                            513 	.globl _T1CC3L
                            514 	.globl _XX_T1CC2H
                            515 	.globl _XX_T1CC2L
                            516 	.globl _XX_T1CC1H
                            517 	.globl _XX_T1CC1L
                            518 	.globl _XX_T1CC0H
                            519 	.globl _XX_T1CC0L
                            520 	.globl _T1CCTL4
                            521 	.globl _T1CCTL3
                            522 	.globl _XX_T1CCTL2
                            523 	.globl _XX_T1CCTL1
                            524 	.globl _XX_T1CCTL0
                            525 	.globl _CLD
                            526 	.globl _IRCTL
                            527 	.globl _CHIPINFO1
                            528 	.globl _CHIPINFO0
                            529 	.globl _FWDATA
                            530 	.globl _FADDRH
                            531 	.globl _FADDRL
                            532 	.globl _FCTL
                            533 	.globl _IVCTRL
                            534 	.globl _BATTMON
                            535 	.globl _SRCRC
                            536 	.globl _DBGDATA
                            537 	.globl _TESTREG0
                            538 	.globl _CHIPID
                            539 	.globl _CHVER
                            540 	.globl _OBSSEL5
                            541 	.globl _OBSSEL4
                            542 	.globl _OBSSEL3
                            543 	.globl _OBSSEL2
                            544 	.globl _OBSSEL1
                            545 	.globl _OBSSEL0
                            546 	.globl _I2CIO
                            547 	.globl _I2CWC
                            548 	.globl _I2CADDR
                            549 	.globl _I2CDATA
                            550 	.globl _I2CSTAT
                            551 	.globl _I2CCFG
                            552 	.globl _OPAMPMC
                            553 	.globl _MONMUX
                            554 	.globl _elfloader_init
                            555 	.globl _elfloader_load
                            556 ;--------------------------------------------------------
                            557 ; special function registers
                            558 ;--------------------------------------------------------
                            559 	.area RSEG    (ABS,DATA)
   0000                     560 	.org 0x0000
                    0080    561 _P0	=	0x0080
                    0081    562 _SP	=	0x0081
                    0082    563 _DPL0	=	0x0082
                    0083    564 _DPH0	=	0x0083
                    0084    565 _DPL1	=	0x0084
                    0085    566 _DPH1	=	0x0085
                    0087    567 _PCON	=	0x0087
                    0088    568 _TCON	=	0x0088
                    0090    569 _P1	=	0x0090
                    0092    570 _DPS	=	0x0092
                    0098    571 _S0CON	=	0x0098
                    009A    572 _IEN2	=	0x009a
                    009B    573 _S1CON	=	0x009b
                    00A0    574 _P2	=	0x00a0
                    00A8    575 _IEN0	=	0x00a8
                    00A9    576 _IP0	=	0x00a9
                    00B8    577 _IEN1	=	0x00b8
                    00B9    578 _IP1	=	0x00b9
                    00C0    579 _IRCON	=	0x00c0
                    00D0    580 _PSW	=	0x00d0
                    00E0    581 _ACC	=	0x00e0
                    00E8    582 _IRCON2	=	0x00e8
                    00F0    583 _B	=	0x00f0
                    00B4    584 _ADCCON1	=	0x00b4
                    00B5    585 _ADCCON2	=	0x00b5
                    00B6    586 _ADCCON3	=	0x00b6
                    00BA    587 _ADCL	=	0x00ba
                    00BB    588 _ADCH	=	0x00bb
                    00BC    589 _RNDL	=	0x00bc
                    00BD    590 _RNDH	=	0x00bd
                    00B1    591 _ENCDI	=	0x00b1
                    00B2    592 _ENCDO	=	0x00b2
                    00B3    593 _ENCCS	=	0x00b3
                    00D1    594 _DMAIRQ	=	0x00d1
                    00D2    595 _DMA1CFGL	=	0x00d2
                    00D3    596 _DMA1CFGH	=	0x00d3
                    00D4    597 _DMA0CFGL	=	0x00d4
                    00D5    598 _DMA0CFGH	=	0x00d5
                    00D6    599 _DMAARM	=	0x00d6
                    00D7    600 _DMAREQ	=	0x00d7
                    0089    601 _P0IFG	=	0x0089
                    008A    602 _P1IFG	=	0x008a
                    008B    603 _P2IFG	=	0x008b
                    008C    604 _PICTL	=	0x008c
                    00AB    605 _P0IEN	=	0x00ab
                    008D    606 _P1IEN	=	0x008d
                    00AC    607 _P2IEN	=	0x00ac
                    008F    608 _P0INP	=	0x008f
                    00F1    609 _PERCFG	=	0x00f1
                    00F2    610 _APCFG	=	0x00f2
                    00F3    611 _P0SEL	=	0x00f3
                    00F4    612 _P1SEL	=	0x00f4
                    00F5    613 _P2SEL	=	0x00f5
                    00F6    614 _P1INP	=	0x00f6
                    00F7    615 _P2INP	=	0x00f7
                    00FD    616 _P0DIR	=	0x00fd
                    00FE    617 _P1DIR	=	0x00fe
                    00FF    618 _P2DIR	=	0x00ff
                    00AE    619 _PMUX	=	0x00ae
                    0093    620 _MPAGE	=	0x0093
                    0093    621 __XPAGE	=	0x0093
                    00C7    622 _MEMCTR	=	0x00c7
                    009F    623 _FMAP	=	0x009f
                    009F    624 _PSBANK	=	0x009f
                    0091    625 _RFIRQF1	=	0x0091
                    00D9    626 _RFD	=	0x00d9
                    00E1    627 _RFST	=	0x00e1
                    00E9    628 _RFIRQF0	=	0x00e9
                    00BF    629 _RFERRF	=	0x00bf
                    0095    630 _ST0	=	0x0095
                    0096    631 _ST1	=	0x0096
                    0097    632 _ST2	=	0x0097
                    00AD    633 _STLOAD	=	0x00ad
                    00BE    634 _SLEEPCMD	=	0x00be
                    009D    635 _SLEEPSTA	=	0x009d
                    00C6    636 _CLKCONCMD	=	0x00c6
                    009E    637 _CLKCONSTA	=	0x009e
                    00DA    638 _T1CC0L	=	0x00da
                    00DB    639 _T1CC0H	=	0x00db
                    00DC    640 _T1CC1L	=	0x00dc
                    00DD    641 _T1CC1H	=	0x00dd
                    00DE    642 _T1CC2L	=	0x00de
                    00DF    643 _T1CC2H	=	0x00df
                    00E2    644 _T1CNTL	=	0x00e2
                    00E3    645 _T1CNTH	=	0x00e3
                    00E4    646 _T1CTL	=	0x00e4
                    00E5    647 _T1CCTL0	=	0x00e5
                    00E6    648 _T1CCTL1	=	0x00e6
                    00E7    649 _T1CCTL2	=	0x00e7
                    00AF    650 _T1STAT	=	0x00af
                    0094    651 _T2CTRL	=	0x0094
                    009C    652 _T2EVTCFG	=	0x009c
                    00A1    653 _T2IRQF	=	0x00a1
                    00A2    654 _T2M0	=	0x00a2
                    00A3    655 _T2M1	=	0x00a3
                    00A4    656 _T2MOVF0	=	0x00a4
                    00A5    657 _T2MOVF1	=	0x00a5
                    00A6    658 _T2MOVF2	=	0x00a6
                    00A7    659 _T2IRQM	=	0x00a7
                    00C3    660 _T2MSEL	=	0x00c3
                    00CA    661 _T3CNT	=	0x00ca
                    00CB    662 _T3CTL	=	0x00cb
                    00CC    663 _T3CCTL0	=	0x00cc
                    00CD    664 _T3CC0	=	0x00cd
                    00CE    665 _T3CCTL1	=	0x00ce
                    00CF    666 _T3CC1	=	0x00cf
                    00EA    667 _T4CNT	=	0x00ea
                    00EB    668 _T4CTL	=	0x00eb
                    00EC    669 _T4CCTL0	=	0x00ec
                    00ED    670 _T4CC0	=	0x00ed
                    00EE    671 _T4CCTL1	=	0x00ee
                    00EF    672 _T4CC1	=	0x00ef
                    00D8    673 _TIMIF	=	0x00d8
                    0086    674 _U0CSR	=	0x0086
                    00C1    675 _U0DBUF	=	0x00c1
                    00C2    676 _U0BAUD	=	0x00c2
                    00C4    677 _U0UCR	=	0x00c4
                    00C5    678 _U0GCR	=	0x00c5
                    00F8    679 _U1CSR	=	0x00f8
                    00F9    680 _U1DBUF	=	0x00f9
                    00FA    681 _U1BAUD	=	0x00fa
                    00FB    682 _U1UCR	=	0x00fb
                    00FC    683 _U1GCR	=	0x00fc
                    00C9    684 _WDCTL	=	0x00c9
                            685 ;--------------------------------------------------------
                            686 ; special function bits
                            687 ;--------------------------------------------------------
                            688 	.area RSEG    (ABS,DATA)
   0000                     689 	.org 0x0000
                    0087    690 _P0_7	=	0x0087
                    0086    691 _P0_6	=	0x0086
                    0085    692 _P0_5	=	0x0085
                    0084    693 _P0_4	=	0x0084
                    0083    694 _P0_3	=	0x0083
                    0082    695 _P0_2	=	0x0082
                    0081    696 _P0_1	=	0x0081
                    0080    697 _P0_0	=	0x0080
                    008F    698 _URX1IF	=	0x008f
                    008D    699 _ADCIF	=	0x008d
                    008B    700 _URX0IF	=	0x008b
                    008A    701 _IT1	=	0x008a
                    0089    702 _RFERRIF	=	0x0089
                    0088    703 _IT0	=	0x0088
                    0097    704 _P1_7	=	0x0097
                    0096    705 _P1_6	=	0x0096
                    0095    706 _P1_5	=	0x0095
                    0094    707 _P1_4	=	0x0094
                    0093    708 _P1_3	=	0x0093
                    0092    709 _P1_2	=	0x0092
                    0091    710 _P1_1	=	0x0091
                    0090    711 _P1_0	=	0x0090
                    0099    712 _ENCIF_1	=	0x0099
                    0098    713 _ENCIF_0	=	0x0098
                    00A7    714 _P2_7	=	0x00a7
                    00A6    715 _P2_6	=	0x00a6
                    00A5    716 _P2_5	=	0x00a5
                    00A4    717 _P2_4	=	0x00a4
                    00A3    718 _P2_3	=	0x00a3
                    00A2    719 _P2_2	=	0x00a2
                    00A1    720 _P2_1	=	0x00a1
                    00A0    721 _P2_0	=	0x00a0
                    00AF    722 _EA	=	0x00af
                    00AD    723 _STIE	=	0x00ad
                    00AC    724 _ENCIE	=	0x00ac
                    00AB    725 _URX1IE	=	0x00ab
                    00AA    726 _URX0IE	=	0x00aa
                    00A9    727 _ADCIE	=	0x00a9
                    00A8    728 _RFERRIE	=	0x00a8
                    00BD    729 _P0IE	=	0x00bd
                    00BC    730 _T4IE	=	0x00bc
                    00BB    731 _T3IE	=	0x00bb
                    00BA    732 _T2IE	=	0x00ba
                    00B9    733 _T1IE	=	0x00b9
                    00B8    734 _DMAIE	=	0x00b8
                    00C7    735 _STIF	=	0x00c7
                    00C5    736 _P0IF	=	0x00c5
                    00C4    737 _T4IF	=	0x00c4
                    00C3    738 _T3IF	=	0x00c3
                    00C2    739 _T2IF	=	0x00c2
                    00C1    740 _T1IF	=	0x00c1
                    00C0    741 _DMAIF	=	0x00c0
                    00D7    742 _CY	=	0x00d7
                    00D6    743 _AC	=	0x00d6
                    00D5    744 _F0	=	0x00d5
                    00D4    745 _RS1	=	0x00d4
                    00D3    746 _RS0	=	0x00d3
                    00D2    747 _OV	=	0x00d2
                    00D1    748 _F1	=	0x00d1
                    00D0    749 _P	=	0x00d0
                    00E7    750 _ACC_7	=	0x00e7
                    00E6    751 _ACC_6	=	0x00e6
                    00E5    752 _ACC_5	=	0x00e5
                    00E4    753 _ACC_4	=	0x00e4
                    00E3    754 _ACC_3	=	0x00e3
                    00E2    755 _ACC_2	=	0x00e2
                    00E1    756 _ACC_1	=	0x00e1
                    00E0    757 _ACC_0	=	0x00e0
                    00EC    758 _WDTIF	=	0x00ec
                    00EB    759 _P1IF	=	0x00eb
                    00EA    760 _UTX1IF	=	0x00ea
                    00E9    761 _UTX0IF	=	0x00e9
                    00E8    762 _P2IF	=	0x00e8
                    00F7    763 _B_7	=	0x00f7
                    00F6    764 _B_6	=	0x00f6
                    00F5    765 _B_5	=	0x00f5
                    00F4    766 _B_4	=	0x00f4
                    00F3    767 _B_3	=	0x00f3
                    00F2    768 _B_2	=	0x00f2
                    00F1    769 _B_1	=	0x00f1
                    00F0    770 _B_0	=	0x00f0
                    00DE    771 _OVFIM	=	0x00de
                    00DD    772 _T4CH1IF	=	0x00dd
                    00DC    773 _T4CH0IF	=	0x00dc
                    00DB    774 _T4OVFIF	=	0x00db
                    00DA    775 _T3CH1IF	=	0x00da
                    00D9    776 _T3CH0IF	=	0x00d9
                    00D8    777 _T3OVFIF	=	0x00d8
                    00FF    778 _MODE	=	0x00ff
                    00FE    779 _RE	=	0x00fe
                    00FD    780 _SLAVE	=	0x00fd
                    00FC    781 _FE	=	0x00fc
                    00FB    782 _ERR	=	0x00fb
                    00FA    783 _RX_BYTE	=	0x00fa
                    00F9    784 _TX_BYTE	=	0x00f9
                    00F8    785 _ACTIVE	=	0x00f8
                            786 ;--------------------------------------------------------
                            787 ; overlayable register banks
                            788 ;--------------------------------------------------------
                            789 	.area REG_BANK_0	(REL,OVR,DATA)
   0000                     790 	.ds 8
                            791 ;--------------------------------------------------------
                            792 ; internal ram data
                            793 ;--------------------------------------------------------
                            794 	.area DSEG    (DATA)
                            795 ;--------------------------------------------------------
                            796 ; overlayable items in internal ram 
                            797 ;--------------------------------------------------------
                            798 	.area OSEG    (OVR,DATA)
                            799 ;--------------------------------------------------------
                            800 ; indirectly addressable internal ram data
                            801 ;--------------------------------------------------------
                            802 	.area ISEG    (DATA)
                            803 ;--------------------------------------------------------
                            804 ; absolute internal ram data
                            805 ;--------------------------------------------------------
                            806 	.area IABS    (ABS,DATA)
                            807 	.area IABS    (ABS,DATA)
                            808 ;--------------------------------------------------------
                            809 ; bit data
                            810 ;--------------------------------------------------------
                            811 	.area BSEG    (BIT)
                            812 ;--------------------------------------------------------
                            813 ; paged external ram data
                            814 ;--------------------------------------------------------
                            815 	.area PSEG    (PAG,XDATA)
                            816 ;--------------------------------------------------------
                            817 ; external ram data
                            818 ;--------------------------------------------------------
                            819 	.area XSEG    (XDATA)
                    61A6    820 _MONMUX	=	0x61a6
                    61A6    821 _OPAMPMC	=	0x61a6
                    6230    822 _I2CCFG	=	0x6230
                    6231    823 _I2CSTAT	=	0x6231
                    6232    824 _I2CDATA	=	0x6232
                    6233    825 _I2CADDR	=	0x6233
                    6234    826 _I2CWC	=	0x6234
                    6235    827 _I2CIO	=	0x6235
                    6243    828 _OBSSEL0	=	0x6243
                    6244    829 _OBSSEL1	=	0x6244
                    6245    830 _OBSSEL2	=	0x6245
                    6246    831 _OBSSEL3	=	0x6246
                    6247    832 _OBSSEL4	=	0x6247
                    6248    833 _OBSSEL5	=	0x6248
                    6249    834 _CHVER	=	0x6249
                    624A    835 _CHIPID	=	0x624a
                    624B    836 _TESTREG0	=	0x624b
                    6260    837 _DBGDATA	=	0x6260
                    6262    838 _SRCRC	=	0x6262
                    6264    839 _BATTMON	=	0x6264
                    6265    840 _IVCTRL	=	0x6265
                    6270    841 _FCTL	=	0x6270
                    6271    842 _FADDRL	=	0x6271
                    6272    843 _FADDRH	=	0x6272
                    6273    844 _FWDATA	=	0x6273
                    6276    845 _CHIPINFO0	=	0x6276
                    6277    846 _CHIPINFO1	=	0x6277
                    6281    847 _IRCTL	=	0x6281
                    6290    848 _CLD	=	0x6290
                    62A0    849 _XX_T1CCTL0	=	0x62a0
                    62A1    850 _XX_T1CCTL1	=	0x62a1
                    62A2    851 _XX_T1CCTL2	=	0x62a2
                    62A3    852 _T1CCTL3	=	0x62a3
                    62A4    853 _T1CCTL4	=	0x62a4
                    62A6    854 _XX_T1CC0L	=	0x62a6
                    62A7    855 _XX_T1CC0H	=	0x62a7
                    62A8    856 _XX_T1CC1L	=	0x62a8
                    62A9    857 _XX_T1CC1H	=	0x62a9
                    62AA    858 _XX_T1CC2L	=	0x62aa
                    62AB    859 _XX_T1CC2H	=	0x62ab
                    62AC    860 _T1CC3L	=	0x62ac
                    62AD    861 _T1CC3H	=	0x62ad
                    62AE    862 _T1CC4L	=	0x62ae
                    62AF    863 _T1CC4H	=	0x62af
                    62B0    864 _STCC	=	0x62b0
                    62B1    865 _STCS	=	0x62b1
                    62B2    866 _STCV0	=	0x62b2
                    62B3    867 _STCV1	=	0x62b3
                    62B4    868 _STCV2	=	0x62b4
                    62C0    869 _OPAMPC	=	0x62c0
                    62C1    870 _OPAMPS	=	0x62c1
                    62D0    871 _CMPCTL	=	0x62d0
                    6000    872 _RFCORE_RAM	=	0x6000
                    6000    873 _RXFIFO	=	0x6000
                    6080    874 _TXFIFO	=	0x6080
                    6100    875 _SRC_ADDR_TABLE	=	0x6100
                    6160    876 _SRCRESMASK0	=	0x6160
                    6161    877 _SRCRESMASK1	=	0x6161
                    6162    878 _SRCRESMASK2	=	0x6162
                    6163    879 _SRCRESINDEX	=	0x6163
                    6164    880 _SRCEXTPENDEN0	=	0x6164
                    6165    881 _SRCEXTPENDEN1	=	0x6165
                    6166    882 _SRCEXTPENDEN2	=	0x6166
                    6167    883 _SRCSHORTPENDEN0	=	0x6167
                    6168    884 _SRCSHORTPENDEN1	=	0x6168
                    6169    885 _SRCSHORTPENDEN2	=	0x6169
                    616A    886 _EXT_ADDR0	=	0x616a
                    616B    887 _EXT_ADDR1	=	0x616b
                    616C    888 _EXT_ADDR2	=	0x616c
                    616D    889 _EXT_ADDR3	=	0x616d
                    616E    890 _EXT_ADDR4	=	0x616e
                    616F    891 _EXT_ADDR5	=	0x616f
                    6170    892 _EXT_ADDR6	=	0x6170
                    6171    893 _EXT_ADDR7	=	0x6171
                    6172    894 _PAN_ID0	=	0x6172
                    6173    895 _PAN_ID1	=	0x6173
                    6174    896 _SHORT_ADDR0	=	0x6174
                    6175    897 _SHORT_ADDR1	=	0x6175
                    6180    898 _FRMFILT0	=	0x6180
                    6181    899 _FRMFILT1	=	0x6181
                    6182    900 _SRCMATCH	=	0x6182
                    6183    901 _SRCSHORTEN0	=	0x6183
                    6184    902 _SRCSHORTEN1	=	0x6184
                    6185    903 _SRCSHORTEN2	=	0x6185
                    6186    904 _SRCEXTEN0	=	0x6186
                    6187    905 _SRCEXTEN1	=	0x6187
                    6188    906 _SRCEXTEN2	=	0x6188
                    6189    907 _FRMCTRL0	=	0x6189
                    618A    908 _FRMCTRL1	=	0x618a
                    618B    909 _RXENABLE	=	0x618b
                    618C    910 _RXMASKSET	=	0x618c
                    618D    911 _RXMASKCLR	=	0x618d
                    618E    912 _FREQTUNE	=	0x618e
                    618F    913 _FREQCTRL	=	0x618f
                    6190    914 _TXPOWER	=	0x6190
                    6191    915 _TXCTRL	=	0x6191
                    6192    916 _FSMSTAT0	=	0x6192
                    6193    917 _FSMSTAT1	=	0x6193
                    6194    918 _FIFOPCTRL	=	0x6194
                    6195    919 _FSMCTRL	=	0x6195
                    6196    920 _CCACTRL0	=	0x6196
                    6197    921 _CCACTRL1	=	0x6197
                    6198    922 _RSSI	=	0x6198
                    6199    923 _RSSISTAT	=	0x6199
                    619A    924 _RXFIRST	=	0x619a
                    619B    925 _RXFIFOCNT	=	0x619b
                    619C    926 _TXFIFOCNT	=	0x619c
                    619D    927 _RXFIRST_PTR	=	0x619d
                    619E    928 _RXLAST_PTR	=	0x619e
                    619F    929 _RXP1_PTR	=	0x619f
                    61A1    930 _TXFIRST_PTR	=	0x61a1
                    61A2    931 _TXLAST_PTR	=	0x61a2
                    61A3    932 _RFIRQM0	=	0x61a3
                    61A4    933 _RFIRQM1	=	0x61a4
                    61A5    934 _RFERRM	=	0x61a5
                    61A7    935 _RFRND	=	0x61a7
                    61A8    936 _MDMCTRL0	=	0x61a8
                    61A9    937 _MDMCTRL1	=	0x61a9
                    61AA    938 _FREQEST	=	0x61aa
                    61AB    939 _RXCTRL	=	0x61ab
                    61AC    940 _FSCTRL	=	0x61ac
                    61AD    941 _FSCAL0	=	0x61ad
                    61AE    942 _FSCAL1	=	0x61ae
                    61AF    943 _FSCAL2	=	0x61af
                    61B0    944 _FSCAL3	=	0x61b0
                    61B1    945 _AGCCTRL0	=	0x61b1
                    61B2    946 _AGCCTRL1	=	0x61b2
                    61B3    947 _AGCCTRL2	=	0x61b3
                    61B4    948 _AGCCTRL3	=	0x61b4
                    61B5    949 _ADCTEST0	=	0x61b5
                    61B6    950 _ADCTEST1	=	0x61b6
                    61B7    951 _ADCTEST2	=	0x61b7
                    61B8    952 _MDMTEST0	=	0x61b8
                    61B9    953 _MDMTEST1	=	0x61b9
                    61BA    954 _DACTEST0	=	0x61ba
                    61BB    955 _DACTEST1	=	0x61bb
                    61BC    956 _DACTEST2	=	0x61bc
                    61BD    957 _ATEST	=	0x61bd
                    61BE    958 _PTEST0	=	0x61be
                    61BF    959 _PTEST1	=	0x61bf
                    61FA    960 _TXFILTCFG	=	0x61fa
                    61EB    961 _RFC_OBS_CTRL0	=	0x61eb
                    61EC    962 _RFC_OBS_CTRL1	=	0x61ec
                    61ED    963 _RFC_OBS_CTRL2	=	0x61ed
                    61C0    964 _CSPPROG0	=	0x61c0
                    61C1    965 _CSPPROG1	=	0x61c1
                    61C2    966 _CSPPROG2	=	0x61c2
                    61C3    967 _CSPPROG3	=	0x61c3
                    61C4    968 _CSPPROG4	=	0x61c4
                    61C5    969 _CSPPROG5	=	0x61c5
                    61C6    970 _CSPPROG6	=	0x61c6
                    61C7    971 _CSPPROG7	=	0x61c7
                    61C8    972 _CSPPROG8	=	0x61c8
                    61C9    973 _CSPPROG9	=	0x61c9
                    61CA    974 _CSPPROG10	=	0x61ca
                    61CB    975 _CSPPROG11	=	0x61cb
                    61CC    976 _CSPPROG12	=	0x61cc
                    61CD    977 _CSPPROG13	=	0x61cd
                    61CE    978 _CSPPROG14	=	0x61ce
                    61CF    979 _CSPPROG15	=	0x61cf
                    61D0    980 _CSPPROG16	=	0x61d0
                    61D1    981 _CSPPROG17	=	0x61d1
                    61D2    982 _CSPPROG18	=	0x61d2
                    61D3    983 _CSPPROG19	=	0x61d3
                    61D4    984 _CSPPROG20	=	0x61d4
                    61D5    985 _CSPPROG21	=	0x61d5
                    61D6    986 _CSPPROG22	=	0x61d6
                    61D7    987 _CSPPROG23	=	0x61d7
                    61E0    988 _CSPCTRL	=	0x61e0
                    61E1    989 _CSPSTAT	=	0x61e1
                    61E2    990 _CSPX	=	0x61e2
                    61E3    991 _CSPY	=	0x61e3
                    61E4    992 _CSPZ	=	0x61e4
                    61E5    993 _CSPT	=	0x61e5
                    6200    994 _USBADDR	=	0x6200
                    6201    995 _USBPOW	=	0x6201
                    6202    996 _USBIIF	=	0x6202
                    6204    997 _USBOIF	=	0x6204
                    6206    998 _USBCIF	=	0x6206
                    6207    999 _USBIIE	=	0x6207
                    6209   1000 _USBOIE	=	0x6209
                    620B   1001 _USBCIE	=	0x620b
                    620C   1002 _USBFRML	=	0x620c
                    620D   1003 _USBFRMH	=	0x620d
                    620E   1004 _USBINDEX	=	0x620e
                    620F   1005 _USBCTRL	=	0x620f
                    6210   1006 _USBMAXI	=	0x6210
                    6211   1007 _USBCS0	=	0x6211
                    6211   1008 _USBCSIL	=	0x6211
                    6212   1009 _USBCSIH	=	0x6212
                    6213   1010 _USBMAXO	=	0x6213
                    6214   1011 _USBCSOL	=	0x6214
                    6215   1012 _USBCSOH	=	0x6215
                    6216   1013 _USBCNT0	=	0x6216
                    6216   1014 _USBCNTL	=	0x6216
                    6217   1015 _USBCNTH	=	0x6217
                    6220   1016 _USBF0	=	0x6220
                    6222   1017 _USBF1	=	0x6222
                    6224   1018 _USBF2	=	0x6224
                    6226   1019 _USBF3	=	0x6226
                    6228   1020 _USBF4	=	0x6228
                    622A   1021 _USBF5	=	0x622a
                    7080   1022 _X_P0	=	0x7080
                    7086   1023 _X_U0CSR	=	0x7086
                    7089   1024 _X_P0IFG	=	0x7089
                    708A   1025 _X_P1IFG	=	0x708a
                    708B   1026 _X_P2IFG	=	0x708b
                    708C   1027 _X_PICTL	=	0x708c
                    708D   1028 _X_P1IEN	=	0x708d
                    708F   1029 _X_P0INP	=	0x708f
                    7090   1030 _X_P1	=	0x7090
                    7091   1031 _X_RFIRQF1	=	0x7091
                    7093   1032 _X_MPAGE	=	0x7093
                    7093   1033 _X__XPAGE	=	0x7093
                    7094   1034 _X_T2CTRL	=	0x7094
                    7095   1035 _X_ST0	=	0x7095
                    7096   1036 _X_ST1	=	0x7096
                    7097   1037 _X_ST2	=	0x7097
                    709C   1038 _X_T2EVTCFG	=	0x709c
                    709D   1039 _X_SLEEPSTA	=	0x709d
                    709E   1040 _X_CLKCONSTA	=	0x709e
                    709F   1041 _X_FMAP	=	0x709f
                    709F   1042 _X_PSBANK	=	0x709f
                    70A0   1043 _X_P2	=	0x70a0
                    70A1   1044 _X_T2IRQF	=	0x70a1
                    70A2   1045 _X_T2M0	=	0x70a2
                    70A3   1046 _X_T2M1	=	0x70a3
                    70A4   1047 _X_T2MOVF0	=	0x70a4
                    70A5   1048 _X_T2MOVF1	=	0x70a5
                    70A6   1049 _X_T2MOVF2	=	0x70a6
                    70A7   1050 _X_T2IRQM	=	0x70a7
                    70AB   1051 _X_P0IEN	=	0x70ab
                    70AC   1052 _X_P2IEN	=	0x70ac
                    70AD   1053 _X_STLOAD	=	0x70ad
                    70AE   1054 _X_PMUX	=	0x70ae
                    70AF   1055 _X_T1STAT	=	0x70af
                    70B1   1056 _X_ENCDI	=	0x70b1
                    70B2   1057 _X_ENCDO	=	0x70b2
                    70B3   1058 _X_ENCCS	=	0x70b3
                    70B4   1059 _X_ADCCON1	=	0x70b4
                    70B5   1060 _X_ADCCON2	=	0x70b5
                    70B6   1061 _X_ADCCON3	=	0x70b6
                    70BA   1062 _X_ADCL	=	0x70ba
                    70BB   1063 _X_ADCH	=	0x70bb
                    70BC   1064 _X_RNDL	=	0x70bc
                    70BD   1065 _X_RNDH	=	0x70bd
                    70BE   1066 _X_SLEEPCMD	=	0x70be
                    70BF   1067 _X_RFERRF	=	0x70bf
                    70C1   1068 _X_U0DBUF	=	0x70c1
                    70C2   1069 _X_U0BAUD	=	0x70c2
                    70C3   1070 _X_T2MSEL	=	0x70c3
                    70C4   1071 _X_U0UCR	=	0x70c4
                    70C5   1072 _X_U0GCR	=	0x70c5
                    70C6   1073 _X_CLKCONCMD	=	0x70c6
                    70C7   1074 _X_MEMCTR	=	0x70c7
                    70C9   1075 _X_WDCTL	=	0x70c9
                    70CA   1076 _X_T3CNT	=	0x70ca
                    70CB   1077 _X_T3CTL	=	0x70cb
                    70CC   1078 _X_T3CCTL0	=	0x70cc
                    70CD   1079 _X_T3CC0	=	0x70cd
                    70CE   1080 _X_T3CCTL1	=	0x70ce
                    70CF   1081 _X_T3CC1	=	0x70cf
                    70D1   1082 _X_DMAIRQ	=	0x70d1
                    70D2   1083 _X_DMA1CFGL	=	0x70d2
                    70D3   1084 _X_DMA1CFGH	=	0x70d3
                    70D4   1085 _X_DMA0CFGL	=	0x70d4
                    70D5   1086 _X_DMA0CFGH	=	0x70d5
                    70D6   1087 _X_DMAARM	=	0x70d6
                    70D7   1088 _X_DMAREQ	=	0x70d7
                    70D8   1089 _X_TIMIF	=	0x70d8
                    70D9   1090 _X_RFD	=	0x70d9
                    70DA   1091 _X_T1CC0L	=	0x70da
                    70DB   1092 _X_T1CC0H	=	0x70db
                    70DC   1093 _X_T1CC1L	=	0x70dc
                    70DD   1094 _X_T1CC1H	=	0x70dd
                    70DE   1095 _X_T1CC2L	=	0x70de
                    70DF   1096 _X_T1CC2H	=	0x70df
                    70E1   1097 _X_RFST	=	0x70e1
                    70E2   1098 _X_T1CNTL	=	0x70e2
                    70E3   1099 _X_T1CNTH	=	0x70e3
                    70E4   1100 _X_T1CTL	=	0x70e4
                    70E5   1101 _X_T1CCTL0	=	0x70e5
                    70E6   1102 _X_T1CCTL1	=	0x70e6
                    70E7   1103 _X_T1CCTL2	=	0x70e7
                    70E9   1104 _X_RFIRQF0	=	0x70e9
                    70EA   1105 _X_T4CNT	=	0x70ea
                    70EB   1106 _X_T4CTL	=	0x70eb
                    70EC   1107 _X_T4CCTL0	=	0x70ec
                    70ED   1108 _X_T4CC0	=	0x70ed
                    70EE   1109 _X_T4CCTL1	=	0x70ee
                    70EF   1110 _X_T4CC1	=	0x70ef
                    70F1   1111 _X_PERCFG	=	0x70f1
                    70F2   1112 _X_APCFG	=	0x70f2
                    70F3   1113 _X_P0SEL	=	0x70f3
                    70F4   1114 _X_P1SEL	=	0x70f4
                    70F5   1115 _X_P2SEL	=	0x70f5
                    70F6   1116 _X_P1INP	=	0x70f6
                    70F7   1117 _X_P2INP	=	0x70f7
                    70F8   1118 _X_U1CSR	=	0x70f8
                    70F9   1119 _X_U1DBUF	=	0x70f9
                    70FA   1120 _X_U1BAUD	=	0x70fa
                    70FB   1121 _X_U1UCR	=	0x70fb
                    70FC   1122 _X_U1GCR	=	0x70fc
                    70FD   1123 _X_P0DIR	=	0x70fd
                    70FE   1124 _X_P1DIR	=	0x70fe
                    70FF   1125 _X_P2DIR	=	0x70ff
                    7800   1126 _X_INFOPAGE	=	0x7800
                    780C   1127 _X_IEEE_ADDR	=	0x780c
   0000                    1128 _elfloader_unknown::
   0000                    1129 	.ds 30
   001E                    1130 _elfloader_autostart_processes::
   001E                    1131 	.ds 3
   0021                    1132 _bss:
   0021                    1133 	.ds 6
   0027                    1134 _data:
   0027                    1135 	.ds 6
   002D                    1136 _rodata:
   002D                    1137 	.ds 6
   0033                    1138 _text:
   0033                    1139 	.ds 6
                           1140 ;--------------------------------------------------------
                           1141 ; absolute external ram data
                           1142 ;--------------------------------------------------------
                           1143 	.area XABS    (ABS,XDATA)
                           1144 ;--------------------------------------------------------
                           1145 ; external initialized ram data
                           1146 ;--------------------------------------------------------
                           1147 	.area XISEG   (XDATA)
                           1148 	.area HOME    (CODE)
                           1149 	.area GSINIT0 (CODE)
                           1150 	.area GSINIT1 (CODE)
                           1151 	.area GSINIT2 (CODE)
                           1152 	.area GSINIT3 (CODE)
                           1153 	.area GSINIT4 (CODE)
                           1154 	.area GSINIT5 (CODE)
                           1155 	.area GSINIT  (CODE)
                           1156 	.area GSFINAL (CODE)
                           1157 	.area CSEG    (CODE)
                           1158 ;--------------------------------------------------------
                           1159 ; global & static initialisations
                           1160 ;--------------------------------------------------------
                           1161 	.area HOME    (CODE)
                           1162 	.area GSINIT  (CODE)
                           1163 	.area GSFINAL (CODE)
                           1164 	.area GSINIT  (CODE)
                           1165 ;--------------------------------------------------------
                           1166 ; Home
                           1167 ;--------------------------------------------------------
                           1168 	.area HOME    (CODE)
                           1169 	.area HOME    (CODE)
                           1170 ;--------------------------------------------------------
                           1171 ; code
                           1172 ;--------------------------------------------------------
                           1173 	.area BANK1   (CODE)
                           1174 ;------------------------------------------------------------
                           1175 ;Allocation info for local variables in function 'seek_read'
                           1176 ;------------------------------------------------------------
                           1177 ;offset                    Allocated to stack - sp -6
                           1178 ;buf                       Allocated to stack - sp -9
                           1179 ;len                       Allocated to stack - sp -11
                           1180 ;fd                        Allocated to stack - sp -1
                           1181 ;------------------------------------------------------------
                           1182 ;	../../../contiki-sensinode//core/loader/elfloader.c:149: seek_read(int fd, unsigned int offset, char *buf, int len)
                           1183 ;	-----------------------------------------
                           1184 ;	 function seek_read
                           1185 ;	-----------------------------------------
   0000                    1186 _seek_read:
                    0007   1187 	ar7 = 0x07
                    0006   1188 	ar6 = 0x06
                    0005   1189 	ar5 = 0x05
                    0004   1190 	ar4 = 0x04
                    0003   1191 	ar3 = 0x03
                    0002   1192 	ar2 = 0x02
                    0001   1193 	ar1 = 0x01
                    0000   1194 	ar0 = 0x00
   0000 C0 82              1195 	push	dpl
   0002 C0 83              1196 	push	dph
                           1197 ;	../../../contiki-sensinode//core/loader/elfloader.c:151: cfs_seek(fd, offset, CFS_SEEK_SET);
   0004 E5 81              1198 	mov	a,sp
   0006 24 FA              1199 	add	a,#0xfa
   0008 F8                 1200 	mov	r0,a
   0009 86 04              1201 	mov	ar4,@r0
   000B 08                 1202 	inc	r0
   000C 86 05              1203 	mov	ar5,@r0
   000E E4                 1204 	clr	a
   000F C0 E0              1205 	push	acc
   0011 C0 E0              1206 	push	acc
   0013 C0 04              1207 	push	ar4
   0015 C0 05              1208 	push	ar5
   0017 E5 81              1209 	mov	a,sp
   0019 24 FB              1210 	add	a,#0xfb
   001B F8                 1211 	mov	r0,a
   001C 86 82              1212 	mov	dpl,@r0
   001E 08                 1213 	inc	r0
   001F 86 83              1214 	mov	dph,@r0
   0021 78r00              1215 	mov	r0,#_cfs_seek
   0023 79s00              1216 	mov	r1,#(_cfs_seek >> 8)
   0025 7As00              1217 	mov	r2,#(_cfs_seek >> 16)
   0027 12s00r00           1218 	lcall	__sdcc_banked_call
   002A E5 81              1219 	mov	a,sp
   002C 24 FC              1220 	add	a,#0xfc
                           1221 ;	../../../contiki-sensinode//core/loader/elfloader.c:152: cfs_read(fd, buf, len);
   002E F5 81              1222 	mov	sp,a
   0030 24 F5              1223 	add	a,#0xf5
   0032 F8                 1224 	mov	r0,a
   0033 86 04              1225 	mov	ar4,@r0
   0035 08                 1226 	inc	r0
   0036 86 05              1227 	mov	ar5,@r0
   0038 E5 81              1228 	mov	a,sp
   003A 24 F7              1229 	add	a,#0xf7
   003C F8                 1230 	mov	r0,a
   003D 86 02              1231 	mov	ar2,@r0
   003F 08                 1232 	inc	r0
   0040 86 03              1233 	mov	ar3,@r0
   0042 08                 1234 	inc	r0
   0043 86 07              1235 	mov	ar7,@r0
   0045 C0 04              1236 	push	ar4
   0047 C0 05              1237 	push	ar5
   0049 C0 02              1238 	push	ar2
   004B C0 03              1239 	push	ar3
   004D C0 07              1240 	push	ar7
   004F E5 81              1241 	mov	a,sp
   0051 24 FA              1242 	add	a,#0xfa
   0053 F8                 1243 	mov	r0,a
   0054 86 82              1244 	mov	dpl,@r0
   0056 08                 1245 	inc	r0
   0057 86 83              1246 	mov	dph,@r0
   0059 78r00              1247 	mov	r0,#_cfs_read
   005B 79s00              1248 	mov	r1,#(_cfs_read >> 8)
   005D 7As00              1249 	mov	r2,#(_cfs_read >> 16)
   005F 12s00r00           1250 	lcall	__sdcc_banked_call
   0062 E5 81              1251 	mov	a,sp
   0064 24 FB              1252 	add	a,#0xfb
   0066 F5 81              1253 	mov	sp,a
   0068 15 81              1254 	dec	sp
   006A 15 81              1255 	dec	sp
   006C 02s00r00           1256 	ljmp	__sdcc_banked_ret
                           1257 ;------------------------------------------------------------
                           1258 ;Allocation info for local variables in function 'find_local_symbol'
                           1259 ;------------------------------------------------------------
                           1260 ;symbol                    Allocated to stack - sp -64
                           1261 ;symtab                    Allocated to stack - sp -66
                           1262 ;symtabsize                Allocated to stack - sp -68
                           1263 ;strtab                    Allocated to stack - sp -70
                           1264 ;fd                        Allocated to stack - sp -58
                           1265 ;s                         Allocated to stack - sp -56
                           1266 ;a                         Allocated to registers r4 r5 
                           1267 ;name                      Allocated to stack - sp -40
                           1268 ;sect                      Allocated to registers r4 r6 r7 
                           1269 ;sloc0                     Allocated to stack - sp -10
                           1270 ;sloc1                     Allocated to stack - sp -8
                           1271 ;sloc2                     Allocated to stack - sp -4
                           1272 ;sloc3                     Allocated to stack - sp -3
                           1273 ;sloc4                     Allocated to stack - sp +0
                           1274 ;------------------------------------------------------------
                           1275 ;	../../../contiki-sensinode//core/loader/elfloader.c:176: find_local_symbol(int fd, const char *symbol,
                           1276 ;	-----------------------------------------
                           1277 ;	 function find_local_symbol
                           1278 ;	-----------------------------------------
   006F                    1279 _find_local_symbol:
   006F C0 82              1280 	push	dpl
   0071 C0 83              1281 	push	dph
   0073 E5 81              1282 	mov	a,sp
   0075 24 39              1283 	add	a,#0x39
                           1284 ;	../../../contiki-sensinode//core/loader/elfloader.c:185: for(a = symtab; a < symtab + symtabsize; a += sizeof(s)) {
   0077 F5 81              1285 	mov	sp,a
   0079 24 BE              1286 	add	a,#0xbe
   007B F8                 1287 	mov	r0,a
   007C 86 04              1288 	mov	ar4,@r0
   007E 08                 1289 	inc	r0
   007F 86 05              1290 	mov	ar5,@r0
   0081 E5 81              1291 	mov	a,sp
   0083 F8                 1292 	mov	r0,a
   0084 24 D8              1293 	add	a,#0xD8
   0086 F6                 1294 	mov	@r0,a
   0087 E5 81              1295 	mov	a,sp
   0089 F8                 1296 	mov	r0,a
   008A 24 FC              1297 	add	a,#0xfc
   008C F9                 1298 	mov	r1,a
   008D E6                 1299 	mov	a,@r0
   008E F7                 1300 	mov	@r1,a
   008F E5 81              1301 	mov	a,sp
   0091 24 C8              1302 	add	a,#0xC8
   0093 F9                 1303 	mov	r1,a
   0094 E5 81              1304 	mov	a,sp
   0096 24 BC              1305 	add	a,#0xbc
   0098 F8                 1306 	mov	r0,a
   0099 C0 01              1307 	push	ar1
   009B E5 81              1308 	mov	a,sp
   009D 24 F5              1309 	add	a,#0xf5
   009F F9                 1310 	mov	r1,a
   00A0 E6                 1311 	mov	a,@r0
   00A1 2C                 1312 	add	a,r4
   00A2 F7                 1313 	mov	@r1,a
   00A3 08                 1314 	inc	r0
   00A4 E6                 1315 	mov	a,@r0
   00A5 3D                 1316 	addc	a,r5
   00A6 09                 1317 	inc	r1
   00A7 F7                 1318 	mov	@r1,a
   00A8 D0 01              1319 	pop	ar1
   00AA                    1320 00114$:
   00AA E5 81              1321 	mov	a,sp
   00AC 24 F6              1322 	add	a,#0xf6
   00AE F8                 1323 	mov	r0,a
   00AF C3                 1324 	clr	c
   00B0 EC                 1325 	mov	a,r4
   00B1 96                 1326 	subb	a,@r0
   00B2 ED                 1327 	mov	a,r5
   00B3 08                 1328 	inc	r0
   00B4 96                 1329 	subb	a,@r0
   00B5 40 03              1330 	jc	00134$
   00B7 02s02r8A           1331 	ljmp	00117$
   00BA                    1332 00134$:
                           1333 ;	../../../contiki-sensinode//core/loader/elfloader.c:186: seek_read(fd, a, (char *)&s, sizeof(s));
   00BA E5 81              1334 	mov	a,sp
   00BC 24 C8              1335 	add	a,#0xC8
   00BE FA                 1336 	mov	r2,a
   00BF 7E 00              1337 	mov	r6,#0x00
   00C1 7F 40              1338 	mov	r7,#0x40
   00C3 C0 05              1339 	push	ar5
   00C5 C0 04              1340 	push	ar4
   00C7 C0 01              1341 	push	ar1
   00C9 74 10              1342 	mov	a,#0x10
   00CB C0 E0              1343 	push	acc
   00CD E4                 1344 	clr	a
   00CE C0 E0              1345 	push	acc
   00D0 C0 02              1346 	push	ar2
   00D2 C0 06              1347 	push	ar6
   00D4 C0 07              1348 	push	ar7
   00D6 C0 04              1349 	push	ar4
   00D8 C0 05              1350 	push	ar5
   00DA E5 81              1351 	mov	a,sp
   00DC 24 BC              1352 	add	a,#0xbc
   00DE F8                 1353 	mov	r0,a
   00DF 86 82              1354 	mov	dpl,@r0
   00E1 08                 1355 	inc	r0
   00E2 86 83              1356 	mov	dph,@r0
   00E4 78r00              1357 	mov	r0,#_seek_read
   00E6 79s00              1358 	mov	r1,#(_seek_read >> 8)
   00E8 7As00              1359 	mov	r2,#(_seek_read >> 16)
   00EA 12s00r00           1360 	lcall	__sdcc_banked_call
   00ED E5 81              1361 	mov	a,sp
   00EF 24 F9              1362 	add	a,#0xf9
   00F1 F5 81              1363 	mov	sp,a
   00F3 D0 01              1364 	pop	ar1
   00F5 D0 04              1365 	pop	ar4
   00F7 D0 05              1366 	pop	ar5
                           1367 ;	../../../contiki-sensinode//core/loader/elfloader.c:188: if(s.st_name != 0) {
   00F9 E5 81              1368 	mov	a,sp
   00FB 24 F8              1369 	add	a,#0xf8
   00FD F8                 1370 	mov	r0,a
   00FE E7                 1371 	mov	a,@r1
   00FF F6                 1372 	mov	@r0,a
   0100 09                 1373 	inc	r1
   0101 E7                 1374 	mov	a,@r1
   0102 08                 1375 	inc	r0
   0103 F6                 1376 	mov	@r0,a
   0104 09                 1377 	inc	r1
   0105 E7                 1378 	mov	a,@r1
   0106 08                 1379 	inc	r0
   0107 F6                 1380 	mov	@r0,a
   0108 09                 1381 	inc	r1
   0109 E7                 1382 	mov	a,@r1
   010A 08                 1383 	inc	r0
   010B F6                 1384 	mov	@r0,a
   010C 19                 1385 	dec	r1
   010D 19                 1386 	dec	r1
   010E 19                 1387 	dec	r1
   010F E5 81              1388 	mov	a,sp
   0111 24 F8              1389 	add	a,#0xf8
   0113 F8                 1390 	mov	r0,a
   0114 E6                 1391 	mov	a,@r0
   0115 08                 1392 	inc	r0
   0116 46                 1393 	orl	a,@r0
   0117 08                 1394 	inc	r0
   0118 46                 1395 	orl	a,@r0
   0119 08                 1396 	inc	r0
   011A 46                 1397 	orl	a,@r0
   011B 70 03              1398 	jnz	00135$
   011D 02s02r80           1399 	ljmp	00116$
   0120                    1400 00135$:
                           1401 ;	../../../contiki-sensinode//core/loader/elfloader.c:189: seek_read(fd, strtab + s.st_name, name, sizeof(name));
   0120 C0 01              1402 	push	ar1
   0122 A8 81              1403 	mov	r0,sp
   0124 18                 1404 	dec	r0
   0125 C0 01              1405 	push	ar1
   0127 E5 81              1406 	mov	a,sp
   0129 24 FB              1407 	add	a,#0xfb
   012B F9                 1408 	mov	r1,a
   012C E6                 1409 	mov	a,@r0
   012D F7                 1410 	mov	@r1,a
   012E 09                 1411 	inc	r1
   012F 77 00              1412 	mov	@r1,#0x00
   0131 09                 1413 	inc	r1
   0132 77 40              1414 	mov	@r1,#0x40
   0134 D0 01              1415 	pop	ar1
   0136 E5 81              1416 	mov	a,sp
   0138 24 B9              1417 	add	a,#0xb9
   013A F8                 1418 	mov	r0,a
   013B 86 02              1419 	mov	ar2,@r0
   013D 08                 1420 	inc	r0
   013E 86 03              1421 	mov	ar3,@r0
   0140 E4                 1422 	clr	a
   0141 FE                 1423 	mov	r6,a
   0142 FF                 1424 	mov	r7,a
   0143 E5 81              1425 	mov	a,sp
   0145 24 F7              1426 	add	a,#0xf7
   0147 F8                 1427 	mov	r0,a
   0148 E6                 1428 	mov	a,@r0
   0149 2A                 1429 	add	a,r2
   014A FA                 1430 	mov	r2,a
   014B 08                 1431 	inc	r0
   014C E6                 1432 	mov	a,@r0
   014D 3B                 1433 	addc	a,r3
   014E FB                 1434 	mov	r3,a
   014F 08                 1435 	inc	r0
   0150 E6                 1436 	mov	a,@r0
   0151 3E                 1437 	addc	a,r6
   0152 08                 1438 	inc	r0
   0153 E6                 1439 	mov	a,@r0
   0154 3F                 1440 	addc	a,r7
   0155 C0 05              1441 	push	ar5
   0157 C0 04              1442 	push	ar4
   0159 C0 01              1443 	push	ar1
   015B 74 1E              1444 	mov	a,#0x1E
   015D C0 E0              1445 	push	acc
   015F E4                 1446 	clr	a
   0160 C0 E0              1447 	push	acc
   0162 E5 81              1448 	mov	a,sp
   0164 24 F7              1449 	add	a,#0xf7
   0166 F8                 1450 	mov	r0,a
   0167 E6                 1451 	mov	a,@r0
   0168 C0 E0              1452 	push	acc
   016A 08                 1453 	inc	r0
   016B E6                 1454 	mov	a,@r0
   016C C0 E0              1455 	push	acc
   016E 08                 1456 	inc	r0
   016F E6                 1457 	mov	a,@r0
   0170 C0 E0              1458 	push	acc
   0172 C0 02              1459 	push	ar2
   0174 C0 03              1460 	push	ar3
   0176 E5 81              1461 	mov	a,sp
   0178 24 BB              1462 	add	a,#0xbb
   017A F8                 1463 	mov	r0,a
   017B 86 82              1464 	mov	dpl,@r0
   017D 08                 1465 	inc	r0
   017E 86 83              1466 	mov	dph,@r0
   0180 78r00              1467 	mov	r0,#_seek_read
   0182 79s00              1468 	mov	r1,#(_seek_read >> 8)
   0184 7As00              1469 	mov	r2,#(_seek_read >> 16)
   0186 12s00r00           1470 	lcall	__sdcc_banked_call
   0189 E5 81              1471 	mov	a,sp
   018B 24 F9              1472 	add	a,#0xf9
   018D F5 81              1473 	mov	sp,a
   018F D0 01              1474 	pop	ar1
   0191 D0 04              1475 	pop	ar4
   0193 D0 05              1476 	pop	ar5
                           1477 ;	../../../contiki-sensinode//core/loader/elfloader.c:190: if(strcmp(name, symbol) == 0) {
   0195 E5 81              1478 	mov	a,sp
   0197 24 FB              1479 	add	a,#0xfb
   0199 F8                 1480 	mov	r0,a
   019A 86 02              1481 	mov	ar2,@r0
   019C 7E 00              1482 	mov	r6,#0x00
   019E 7F 40              1483 	mov	r7,#0x40
   01A0 C0 05              1484 	push	ar5
   01A2 C0 04              1485 	push	ar4
   01A4 C0 01              1486 	push	ar1
   01A6 E5 81              1487 	mov	a,sp
   01A8 24 BC              1488 	add	a,#0xbc
   01AA F8                 1489 	mov	r0,a
   01AB E6                 1490 	mov	a,@r0
   01AC C0 E0              1491 	push	acc
   01AE 08                 1492 	inc	r0
   01AF E6                 1493 	mov	a,@r0
   01B0 C0 E0              1494 	push	acc
   01B2 08                 1495 	inc	r0
   01B3 E6                 1496 	mov	a,@r0
   01B4 C0 E0              1497 	push	acc
   01B6 8A 82              1498 	mov	dpl,r2
   01B8 8E 83              1499 	mov	dph,r6
   01BA 8F F0              1500 	mov	b,r7
   01BC 78r00              1501 	mov	r0,#_strcmp
   01BE 79s00              1502 	mov	r1,#(_strcmp >> 8)
   01C0 7As00              1503 	mov	r2,#(_strcmp >> 16)
   01C2 12s00r00           1504 	lcall	__sdcc_banked_call
   01C5 AE 82              1505 	mov	r6,dpl
   01C7 AF 83              1506 	mov	r7,dph
   01C9 15 81              1507 	dec	sp
   01CB 15 81              1508 	dec	sp
   01CD 15 81              1509 	dec	sp
   01CF D0 01              1510 	pop	ar1
   01D1 D0 04              1511 	pop	ar4
   01D3 D0 05              1512 	pop	ar5
   01D5 D0 01              1513 	pop	ar1
   01D7 EE                 1514 	mov	a,r6
   01D8 4F                 1515 	orl	a,r7
   01D9 60 03              1516 	jz	00136$
   01DB 02s02r80           1517 	ljmp	00116$
   01DE                    1518 00136$:
                           1519 ;	../../../contiki-sensinode//core/loader/elfloader.c:191: if(s.st_shndx == bss.number) {
   01DE E5 81              1520 	mov	a,sp
   01E0 24 C8              1521 	add	a,#0xC8
   01E2 FD                 1522 	mov	r5,a
   01E3 24 0E              1523 	add	a,#0x0E
   01E5 F8                 1524 	mov	r0,a
   01E6 86 03              1525 	mov	ar3,@r0
   01E8 08                 1526 	inc	r0
   01E9 86 06              1527 	mov	ar6,@r0
   01EB 90s00r21           1528 	mov	dptr,#_bss
   01EE E0                 1529 	movx	a,@dptr
   01EF FA                 1530 	mov	r2,a
   01F0 7F 00              1531 	mov	r7,#0x00
   01F2 EB                 1532 	mov	a,r3
   01F3 B5 02 0C           1533 	cjne	a,ar2,00108$
   01F6 EE                 1534 	mov	a,r6
   01F7 B5 07 08           1535 	cjne	a,ar7,00108$
                           1536 ;	../../../contiki-sensinode//core/loader/elfloader.c:192: sect = &bss;
   01FA 7Cr21              1537 	mov	r4,#_bss
   01FC 7Es00              1538 	mov	r6,#(_bss >> 8)
   01FE 7F 00              1539 	mov	r7,#0x00
   0200 80 36              1540 	sjmp	00109$
   0202                    1541 00108$:
                           1542 ;	../../../contiki-sensinode//core/loader/elfloader.c:193: } else if(s.st_shndx == data.number) {
   0202 90s00r27           1543 	mov	dptr,#_data
   0205 E0                 1544 	movx	a,@dptr
   0206 FF                 1545 	mov	r7,a
   0207 7A 00              1546 	mov	r2,#0x00
   0209 EB                 1547 	mov	a,r3
   020A B5 07 0C           1548 	cjne	a,ar7,00105$
   020D EE                 1549 	mov	a,r6
   020E B5 02 08           1550 	cjne	a,ar2,00105$
                           1551 ;	../../../contiki-sensinode//core/loader/elfloader.c:194: sect = &data;
   0211 7Cr27              1552 	mov	r4,#_data
   0213 7Es00              1553 	mov	r6,#(_data >> 8)
   0215 7F 00              1554 	mov	r7,#0x00
   0217 80 1F              1555 	sjmp	00109$
   0219                    1556 00105$:
                           1557 ;	../../../contiki-sensinode//core/loader/elfloader.c:195: } else if(s.st_shndx == text.number) {
   0219 90s00r33           1558 	mov	dptr,#_text
   021C E0                 1559 	movx	a,@dptr
   021D FF                 1560 	mov	r7,a
   021E 7A 00              1561 	mov	r2,#0x00
   0220 EB                 1562 	mov	a,r3
   0221 B5 07 0C           1563 	cjne	a,ar7,00102$
   0224 EE                 1564 	mov	a,r6
   0225 B5 02 08           1565 	cjne	a,ar2,00102$
                           1566 ;	../../../contiki-sensinode//core/loader/elfloader.c:196: sect = &text;
   0228 7Cr33              1567 	mov	r4,#_text
   022A 7Es00              1568 	mov	r6,#(_text >> 8)
   022C 7F 00              1569 	mov	r7,#0x00
   022E 80 08              1570 	sjmp	00109$
   0230                    1571 00102$:
                           1572 ;	../../../contiki-sensinode//core/loader/elfloader.c:198: return NULL;
   0230 90 00 00           1573 	mov	dptr,#0x0000
   0233 75 F0 00           1574 	mov	b,#0x00
   0236 80 58              1575 	sjmp	00118$
   0238                    1576 00109$:
                           1577 ;	../../../contiki-sensinode//core/loader/elfloader.c:200: return &(sect->address[s.st_value]);
   0238 74 03              1578 	mov	a,#0x03
   023A 2C                 1579 	add	a,r4
   023B FB                 1580 	mov	r3,a
   023C E4                 1581 	clr	a
   023D 3E                 1582 	addc	a,r6
   023E FE                 1583 	mov	r6,a
   023F 8B 82              1584 	mov	dpl,r3
   0241 8E 83              1585 	mov	dph,r6
   0243 8F F0              1586 	mov	b,r7
   0245 E5 81              1587 	mov	a,sp
   0247 24 F8              1588 	add	a,#0xf8
   0249 F8                 1589 	mov	r0,a
   024A 12s00r00           1590 	lcall	__gptrget
   024D F6                 1591 	mov	@r0,a
   024E A3                 1592 	inc	dptr
   024F 12s00r00           1593 	lcall	__gptrget
   0252 08                 1594 	inc	r0
   0253 F6                 1595 	mov	@r0,a
   0254 A3                 1596 	inc	dptr
   0255 12s00r00           1597 	lcall	__gptrget
   0258 08                 1598 	inc	r0
   0259 F6                 1599 	mov	@r0,a
   025A 74 04              1600 	mov	a,#0x04
   025C 2D                 1601 	add	a,r5
   025D F8                 1602 	mov	r0,a
   025E 86 02              1603 	mov	ar2,@r0
   0260 08                 1604 	inc	r0
   0261 86 03              1605 	mov	ar3,@r0
   0263 08                 1606 	inc	r0
   0264 86 06              1607 	mov	ar6,@r0
   0266 08                 1608 	inc	r0
   0267 86 07              1609 	mov	ar7,@r0
   0269 E5 81              1610 	mov	a,sp
   026B 24 F8              1611 	add	a,#0xf8
   026D F8                 1612 	mov	r0,a
   026E EA                 1613 	mov	a,r2
   026F 26                 1614 	add	a,@r0
   0270 FA                 1615 	mov	r2,a
   0271 EB                 1616 	mov	a,r3
   0272 08                 1617 	inc	r0
   0273 36                 1618 	addc	a,@r0
   0274 FB                 1619 	mov	r3,a
   0275 08                 1620 	inc	r0
   0276 86 06              1621 	mov	ar6,@r0
   0278 8A 82              1622 	mov	dpl,r2
   027A 8B 83              1623 	mov	dph,r3
   027C 8E F0              1624 	mov	b,r6
   027E 80 10              1625 	sjmp	00118$
   0280                    1626 00116$:
                           1627 ;	../../../contiki-sensinode//core/loader/elfloader.c:185: for(a = symtab; a < symtab + symtabsize; a += sizeof(s)) {
   0280 74 10              1628 	mov	a,#0x10
   0282 2C                 1629 	add	a,r4
   0283 FC                 1630 	mov	r4,a
   0284 E4                 1631 	clr	a
   0285 3D                 1632 	addc	a,r5
   0286 FD                 1633 	mov	r5,a
   0287 02s00rAA           1634 	ljmp	00114$
   028A                    1635 00117$:
                           1636 ;	../../../contiki-sensinode//core/loader/elfloader.c:204: return NULL;
   028A 90 00 00           1637 	mov	dptr,#0x0000
   028D 75 F0 00           1638 	mov	b,#0x00
   0290                    1639 00118$:
   0290 E5 81              1640 	mov	a,sp
   0292 24 C5              1641 	add	a,#0xC5
   0294 F5 81              1642 	mov	sp,a
   0296 02s00r00           1643 	ljmp	__sdcc_banked_ret
                           1644 ;------------------------------------------------------------
                           1645 ;Allocation info for local variables in function 'relocate_section'
                           1646 ;------------------------------------------------------------
                           1647 ;section                   Allocated to stack - sp -87
                           1648 ;size                      Allocated to stack - sp -89
                           1649 ;sectionaddr               Allocated to stack - sp -91
                           1650 ;sectionbase               Allocated to stack - sp -94
                           1651 ;strs                      Allocated to stack - sp -96
                           1652 ;strtab                    Allocated to stack - sp -98
                           1653 ;symtab                    Allocated to stack - sp -100
                           1654 ;symtabsize                Allocated to stack - sp -102
                           1655 ;using_relas               Allocated to stack - sp -103
                           1656 ;fd                        Allocated to stack - sp -82
                           1657 ;rela                      Allocated to stack - sp -80
                           1658 ;rel_size                  Allocated to stack - sp -68
                           1659 ;s                         Allocated to stack - sp -66
                           1660 ;a                         Allocated to stack - sp -50
                           1661 ;name                      Allocated to stack - sp -48
                           1662 ;addr                      Allocated to stack - sp -18
                           1663 ;sect                      Allocated to registers r2 r3 r4 
                           1664 ;sloc0                     Allocated to stack - sp -15
                           1665 ;sloc1                     Allocated to stack - sp -14
                           1666 ;sloc2                     Allocated to stack - sp -12
                           1667 ;sloc3                     Allocated to stack - sp -11
                           1668 ;sloc4                     Allocated to stack - sp -8
                           1669 ;sloc5                     Allocated to stack - sp -4
                           1670 ;sloc6                     Allocated to stack - sp -3
                           1671 ;------------------------------------------------------------
                           1672 ;	../../../contiki-sensinode//core/loader/elfloader.c:208: relocate_section(int fd,
                           1673 ;	-----------------------------------------
                           1674 ;	 function relocate_section
                           1675 ;	-----------------------------------------
   0299                    1676 _relocate_section:
   0299 C0 82              1677 	push	dpl
   029B C0 83              1678 	push	dph
   029D E5 81              1679 	mov	a,sp
   029F 24 51              1680 	add	a,#0x51
                           1681 ;	../../../contiki-sensinode//core/loader/elfloader.c:227: if(using_relas) {
   02A1 F5 81              1682 	mov	sp,a
   02A3 24 99              1683 	add	a,#0x99
   02A5 F8                 1684 	mov	r0,a
   02A6 E6                 1685 	mov	a,@r0
   02A7 60 0C              1686 	jz	00102$
                           1687 ;	../../../contiki-sensinode//core/loader/elfloader.c:228: rel_size = sizeof(struct elf32_rela);
   02A9 E5 81              1688 	mov	a,sp
   02AB 24 BC              1689 	add	a,#0xbc
   02AD F8                 1690 	mov	r0,a
   02AE 76 0C              1691 	mov	@r0,#0x0C
   02B0 08                 1692 	inc	r0
   02B1 76 00              1693 	mov	@r0,#0x00
   02B3 80 0A              1694 	sjmp	00103$
   02B5                    1695 00102$:
                           1696 ;	../../../contiki-sensinode//core/loader/elfloader.c:230: rel_size = sizeof(struct elf32_rel);
   02B5 E5 81              1697 	mov	a,sp
   02B7 24 BC              1698 	add	a,#0xbc
   02B9 F8                 1699 	mov	r0,a
   02BA 76 08              1700 	mov	@r0,#0x08
   02BC 08                 1701 	inc	r0
   02BD 76 00              1702 	mov	@r0,#0x00
   02BF                    1703 00103$:
                           1704 ;	../../../contiki-sensinode//core/loader/elfloader.c:233: for(a = section; a < section + size; a += rel_size) {
   02BF E5 81              1705 	mov	a,sp
   02C1 24 A9              1706 	add	a,#0xa9
   02C3 F8                 1707 	mov	r0,a
   02C4 E5 81              1708 	mov	a,sp
   02C6 24 CE              1709 	add	a,#0xce
   02C8 F9                 1710 	mov	r1,a
   02C9 E6                 1711 	mov	a,@r0
   02CA F7                 1712 	mov	@r1,a
   02CB 08                 1713 	inc	r0
   02CC 09                 1714 	inc	r1
   02CD E6                 1715 	mov	a,@r0
   02CE F7                 1716 	mov	@r1,a
   02CF E5 81              1717 	mov	a,sp
   02D1 24 BE              1718 	add	a,#0xBE
   02D3 24 0E              1719 	add	a,#0x0E
   02D5 F9                 1720 	mov	r1,a
   02D6 E5 81              1721 	mov	a,sp
   02D8 24 F4              1722 	add	a,#0xf4
   02DA F8                 1723 	mov	r0,a
   02DB E5 81              1724 	mov	a,sp
   02DD 24 BE              1725 	add	a,#0xBE
   02DF F6                 1726 	mov	@r0,a
   02E0 E5 81              1727 	mov	a,sp
   02E2 24 BE              1728 	add	a,#0xBE
   02E4 C8                 1729 	xch	a,r0
   02E5 E5 81              1730 	mov	a,sp
   02E7 24 F1              1731 	add	a,#0xf1
   02E9 C8                 1732 	xch	a,r0
   02EA 24 0E              1733 	add	a,#0x0E
   02EC F6                 1734 	mov	@r0,a
   02ED E5 81              1735 	mov	a,sp
   02EF 24 CE              1736 	add	a,#0xce
   02F1 F8                 1737 	mov	r0,a
   02F2 C0 01              1738 	push	ar1
   02F4 E5 81              1739 	mov	a,sp
   02F6 24 A6              1740 	add	a,#0xa6
   02F8 F9                 1741 	mov	r1,a
   02F9 E7                 1742 	mov	a,@r1
   02FA 26                 1743 	add	a,@r0
   02FB C0 E0              1744 	push	acc
   02FD 09                 1745 	inc	r1
   02FE E7                 1746 	mov	a,@r1
   02FF 08                 1747 	inc	r0
   0300 36                 1748 	addc	a,@r0
   0301 C0 E0              1749 	push	acc
   0303 E5 81              1750 	mov	a,sp
   0305 24 F0              1751 	add	a,#0xf0
   0307 F8                 1752 	mov	r0,a
   0308 D0 E0              1753 	pop	acc
   030A F6                 1754 	mov	@r0,a
   030B 18                 1755 	dec	r0
   030C D0 E0              1756 	pop	acc
   030E F6                 1757 	mov	@r0,a
   030F D0 01              1758 	pop	ar1
   0311                    1759 00145$:
   0311 E5 81              1760 	mov	a,sp
   0313 24 CE              1761 	add	a,#0xce
   0315 F8                 1762 	mov	r0,a
   0316 C0 01              1763 	push	ar1
   0318 E5 81              1764 	mov	a,sp
   031A 24 F1              1765 	add	a,#0xf1
   031C F9                 1766 	mov	r1,a
   031D C3                 1767 	clr	c
   031E E6                 1768 	mov	a,@r0
   031F 97                 1769 	subb	a,@r1
   0320 08                 1770 	inc	r0
   0321 E6                 1771 	mov	a,@r0
   0322 09                 1772 	inc	r1
   0323 97                 1773 	subb	a,@r1
   0324 D0 01              1774 	pop	ar1
   0326 40 03              1775 	jc	00182$
   0328 02s07rC7           1776 	ljmp	00148$
   032B                    1777 00182$:
                           1778 ;	../../../contiki-sensinode//core/loader/elfloader.c:234: seek_read(fd, a, (char *)&rela, rel_size);
   032B C0 01              1779 	push	ar1
   032D E5 81              1780 	mov	a,sp
   032F 24 AF              1781 	add	a,#0xAF
   0331 FB                 1782 	mov	r3,a
   0332 7C 00              1783 	mov	r4,#0x00
   0334 7D 40              1784 	mov	r5,#0x40
   0336 C0 01              1785 	push	ar1
   0338 E5 81              1786 	mov	a,sp
   033A 24 BA              1787 	add	a,#0xba
   033C F8                 1788 	mov	r0,a
   033D E6                 1789 	mov	a,@r0
   033E C0 E0              1790 	push	acc
   0340 08                 1791 	inc	r0
   0341 E6                 1792 	mov	a,@r0
   0342 C0 E0              1793 	push	acc
   0344 C0 03              1794 	push	ar3
   0346 C0 04              1795 	push	ar4
   0348 C0 05              1796 	push	ar5
   034A E5 81              1797 	mov	a,sp
   034C 24 C7              1798 	add	a,#0xc7
   034E F8                 1799 	mov	r0,a
   034F E6                 1800 	mov	a,@r0
   0350 C0 E0              1801 	push	acc
   0352 08                 1802 	inc	r0
   0353 E6                 1803 	mov	a,@r0
   0354 C0 E0              1804 	push	acc
   0356 E5 81              1805 	mov	a,sp
   0358 24 A5              1806 	add	a,#0xa5
   035A F8                 1807 	mov	r0,a
   035B 86 82              1808 	mov	dpl,@r0
   035D 08                 1809 	inc	r0
   035E 86 83              1810 	mov	dph,@r0
   0360 78r00              1811 	mov	r0,#_seek_read
   0362 79s00              1812 	mov	r1,#(_seek_read >> 8)
   0364 7As00              1813 	mov	r2,#(_seek_read >> 16)
   0366 12s00r00           1814 	lcall	__sdcc_banked_call
   0369 E5 81              1815 	mov	a,sp
   036B 24 F9              1816 	add	a,#0xf9
   036D F5 81              1817 	mov	sp,a
   036F D0 01              1818 	pop	ar1
                           1819 ;	../../../contiki-sensinode//core/loader/elfloader.c:237: (char *)&s, sizeof(s));
   0371 E5 81              1820 	mov	a,sp
   0373 24 BD              1821 	add	a,#0xBD
   0375 FD                 1822 	mov	r5,a
   0376 E5 81              1823 	mov	a,sp
   0378 24 F4              1824 	add	a,#0xf4
   037A F8                 1825 	mov	r0,a
   037B A6 05              1826 	mov	@r0,ar5
   037D 08                 1827 	inc	r0
   037E 76 00              1828 	mov	@r0,#0x00
   0380 08                 1829 	inc	r0
   0381 76 40              1830 	mov	@r0,#0x40
                           1831 ;	../../../contiki-sensinode//core/loader/elfloader.c:236: symtab + sizeof(struct elf32_sym) * ELF32_R_SYM(rela.r_info),
   0383 E5 81              1832 	mov	a,sp
   0385 24 AF              1833 	add	a,#0xAF
   0387 24 04              1834 	add	a,#0x04
   0389 F9                 1835 	mov	r1,a
   038A 87 02              1836 	mov	ar2,@r1
   038C 09                 1837 	inc	r1
   038D 87 05              1838 	mov	ar5,@r1
   038F 09                 1839 	inc	r1
   0390 87 06              1840 	mov	ar6,@r1
   0392 09                 1841 	inc	r1
   0393 87 07              1842 	mov	ar7,@r1
   0395 19                 1843 	dec	r1
   0396 19                 1844 	dec	r1
   0397 19                 1845 	dec	r1
   0398 8D 02              1846 	mov	ar2,r5
   039A 8E 05              1847 	mov	ar5,r6
   039C ED                 1848 	mov	a,r5
   039D C4                 1849 	swap	a
   039E 54 F0              1850 	anl	a,#0xF0
   03A0 CA                 1851 	xch	a,r2
   03A1 C4                 1852 	swap	a
   03A2 CA                 1853 	xch	a,r2
   03A3 6A                 1854 	xrl	a,r2
   03A4 CA                 1855 	xch	a,r2
   03A5 54 F0              1856 	anl	a,#0xF0
   03A7 CA                 1857 	xch	a,r2
   03A8 6A                 1858 	xrl	a,r2
   03A9 FD                 1859 	mov	r5,a
   03AA E5 81              1860 	mov	a,sp
   03AC 24 9B              1861 	add	a,#0x9b
   03AE F8                 1862 	mov	r0,a
   03AF EA                 1863 	mov	a,r2
   03B0 26                 1864 	add	a,@r0
   03B1 FA                 1865 	mov	r2,a
   03B2 ED                 1866 	mov	a,r5
   03B3 08                 1867 	inc	r0
   03B4 36                 1868 	addc	a,@r0
   03B5 FD                 1869 	mov	r5,a
                           1870 ;	../../../contiki-sensinode//core/loader/elfloader.c:235: seek_read(fd,
   03B6 C0 01              1871 	push	ar1
   03B8 74 10              1872 	mov	a,#0x10
   03BA C0 E0              1873 	push	acc
   03BC E4                 1874 	clr	a
   03BD C0 E0              1875 	push	acc
   03BF E5 81              1876 	mov	a,sp
   03C1 24 F1              1877 	add	a,#0xf1
   03C3 F8                 1878 	mov	r0,a
   03C4 E6                 1879 	mov	a,@r0
   03C5 C0 E0              1880 	push	acc
   03C7 08                 1881 	inc	r0
   03C8 E6                 1882 	mov	a,@r0
   03C9 C0 E0              1883 	push	acc
   03CB 08                 1884 	inc	r0
   03CC E6                 1885 	mov	a,@r0
   03CD C0 E0              1886 	push	acc
   03CF C0 02              1887 	push	ar2
   03D1 C0 05              1888 	push	ar5
   03D3 E5 81              1889 	mov	a,sp
   03D5 24 A5              1890 	add	a,#0xa5
   03D7 F8                 1891 	mov	r0,a
   03D8 86 82              1892 	mov	dpl,@r0
   03DA 08                 1893 	inc	r0
   03DB 86 83              1894 	mov	dph,@r0
   03DD 78r00              1895 	mov	r0,#_seek_read
   03DF 79s00              1896 	mov	r1,#(_seek_read >> 8)
   03E1 7As00              1897 	mov	r2,#(_seek_read >> 16)
   03E3 12s00r00           1898 	lcall	__sdcc_banked_call
   03E6 E5 81              1899 	mov	a,sp
   03E8 24 F9              1900 	add	a,#0xf9
   03EA F5 81              1901 	mov	sp,a
   03EC D0 01              1902 	pop	ar1
                           1903 ;	../../../contiki-sensinode//core/loader/elfloader.c:238: if(s.st_name != 0) {
   03EE E5 81              1904 	mov	a,sp
   03F0 24 F3              1905 	add	a,#0xf3
   03F2 F8                 1906 	mov	r0,a
   03F3 C0 01              1907 	push	ar1
   03F5 E5 81              1908 	mov	a,sp
   03F7 24 F6              1909 	add	a,#0xf6
   03F9 F9                 1910 	mov	r1,a
   03FA 86 00              1911 	mov	ar0,@r0
   03FC E6                 1912 	mov	a,@r0
   03FD F7                 1913 	mov	@r1,a
   03FE 08                 1914 	inc	r0
   03FF E6                 1915 	mov	a,@r0
   0400 09                 1916 	inc	r1
   0401 F7                 1917 	mov	@r1,a
   0402 08                 1918 	inc	r0
   0403 E6                 1919 	mov	a,@r0
   0404 09                 1920 	inc	r1
   0405 F7                 1921 	mov	@r1,a
   0406 08                 1922 	inc	r0
   0407 E6                 1923 	mov	a,@r0
   0408 09                 1924 	inc	r1
   0409 F7                 1925 	mov	@r1,a
   040A 18                 1926 	dec	r0
   040B 18                 1927 	dec	r0
   040C 18                 1928 	dec	r0
   040D D0 01              1929 	pop	ar1
   040F D0 01              1930 	pop	ar1
   0411 E5 81              1931 	mov	a,sp
   0413 24 F8              1932 	add	a,#0xf8
   0415 F8                 1933 	mov	r0,a
   0416 E6                 1934 	mov	a,@r0
   0417 08                 1935 	inc	r0
   0418 46                 1936 	orl	a,@r0
   0419 08                 1937 	inc	r0
   041A 46                 1938 	orl	a,@r0
   041B 08                 1939 	inc	r0
   041C 46                 1940 	orl	a,@r0
   041D 70 03              1941 	jnz	00183$
   041F 02s06r1C           1942 	ljmp	00141$
   0422                    1943 00183$:
                           1944 ;	../../../contiki-sensinode//core/loader/elfloader.c:239: seek_read(fd, strtab + s.st_name, name, sizeof(name));
   0422 C0 01              1945 	push	ar1
   0424 E5 81              1946 	mov	a,sp
   0426 24 FB              1947 	add	a,#0xfb
   0428 F8                 1948 	mov	r0,a
   0429 E5 81              1949 	mov	a,sp
   042B 24 CF              1950 	add	a,#0xCF
   042D F6                 1951 	mov	@r0,a
   042E E5 81              1952 	mov	a,sp
   0430 24 FB              1953 	add	a,#0xfb
   0432 F8                 1954 	mov	r0,a
   0433 C0 01              1955 	push	ar1
   0435 E5 81              1956 	mov	a,sp
   0437 24 F3              1957 	add	a,#0xf3
   0439 F9                 1958 	mov	r1,a
   043A E6                 1959 	mov	a,@r0
   043B F7                 1960 	mov	@r1,a
   043C 09                 1961 	inc	r1
   043D 77 00              1962 	mov	@r1,#0x00
   043F 09                 1963 	inc	r1
   0440 77 40              1964 	mov	@r1,#0x40
   0442 D0 01              1965 	pop	ar1
   0444 E5 81              1966 	mov	a,sp
   0446 24 9D              1967 	add	a,#0x9d
   0448 F8                 1968 	mov	r0,a
   0449 86 02              1969 	mov	ar2,@r0
   044B 08                 1970 	inc	r0
   044C 86 03              1971 	mov	ar3,@r0
   044E E4                 1972 	clr	a
   044F FD                 1973 	mov	r5,a
   0450 FE                 1974 	mov	r6,a
   0451 E5 81              1975 	mov	a,sp
   0453 24 F7              1976 	add	a,#0xf7
   0455 F8                 1977 	mov	r0,a
   0456 E6                 1978 	mov	a,@r0
   0457 2A                 1979 	add	a,r2
   0458 FA                 1980 	mov	r2,a
   0459 08                 1981 	inc	r0
   045A E6                 1982 	mov	a,@r0
   045B 3B                 1983 	addc	a,r3
   045C FB                 1984 	mov	r3,a
   045D 08                 1985 	inc	r0
   045E E6                 1986 	mov	a,@r0
   045F 3D                 1987 	addc	a,r5
   0460 08                 1988 	inc	r0
   0461 E6                 1989 	mov	a,@r0
   0462 3E                 1990 	addc	a,r6
   0463 C0 01              1991 	push	ar1
   0465 74 1E              1992 	mov	a,#0x1E
   0467 C0 E0              1993 	push	acc
   0469 E4                 1994 	clr	a
   046A C0 E0              1995 	push	acc
   046C E5 81              1996 	mov	a,sp
   046E 24 F1              1997 	add	a,#0xf1
   0470 F8                 1998 	mov	r0,a
   0471 E6                 1999 	mov	a,@r0
   0472 C0 E0              2000 	push	acc
   0474 08                 2001 	inc	r0
   0475 E6                 2002 	mov	a,@r0
   0476 C0 E0              2003 	push	acc
   0478 08                 2004 	inc	r0
   0479 E6                 2005 	mov	a,@r0
   047A C0 E0              2006 	push	acc
   047C C0 02              2007 	push	ar2
   047E C0 03              2008 	push	ar3
   0480 E5 81              2009 	mov	a,sp
   0482 24 A5              2010 	add	a,#0xa5
   0484 F8                 2011 	mov	r0,a
   0485 86 82              2012 	mov	dpl,@r0
   0487 08                 2013 	inc	r0
   0488 86 83              2014 	mov	dph,@r0
   048A 78r00              2015 	mov	r0,#_seek_read
   048C 79s00              2016 	mov	r1,#(_seek_read >> 8)
   048E 7As00              2017 	mov	r2,#(_seek_read >> 16)
   0490 12s00r00           2018 	lcall	__sdcc_banked_call
   0493 E5 81              2019 	mov	a,sp
   0495 24 F9              2020 	add	a,#0xf9
   0497 F5 81              2021 	mov	sp,a
   0499 D0 01              2022 	pop	ar1
                           2023 ;	../../../contiki-sensinode//core/loader/elfloader.c:241: addr = (char *)symtab_lookup(name);
   049B E5 81              2024 	mov	a,sp
   049D 24 FB              2025 	add	a,#0xfb
   049F F8                 2026 	mov	r0,a
   04A0 86 06              2027 	mov	ar6,@r0
   04A2 7D 00              2028 	mov	r5,#0x00
   04A4 7C 40              2029 	mov	r4,#0x40
   04A6 8E 82              2030 	mov	dpl,r6
   04A8 8D 83              2031 	mov	dph,r5
   04AA 8C F0              2032 	mov	b,r4
   04AC C0 01              2033 	push	ar1
   04AE 78r00              2034 	mov	r0,#_symtab_lookup
   04B0 79s00              2035 	mov	r1,#(_symtab_lookup >> 8)
   04B2 7As00              2036 	mov	r2,#(_symtab_lookup >> 16)
   04B4 12s00r00           2037 	lcall	__sdcc_banked_call
   04B7 AC 82              2038 	mov	r4,dpl
   04B9 AD 83              2039 	mov	r5,dph
   04BB AE F0              2040 	mov	r6,b
   04BD D0 01              2041 	pop	ar1
   04BF E5 81              2042 	mov	a,sp
   04C1 24 ED              2043 	add	a,#0xed
   04C3 F8                 2044 	mov	r0,a
   04C4 A6 04              2045 	mov	@r0,ar4
   04C6 08                 2046 	inc	r0
   04C7 A6 05              2047 	mov	@r0,ar5
   04C9 08                 2048 	inc	r0
   04CA A6 06              2049 	mov	@r0,ar6
                           2050 ;	../../../contiki-sensinode//core/loader/elfloader.c:243: if(addr == NULL) {
   04CC D0 01              2051 	pop	ar1
   04CE E5 81              2052 	mov	a,sp
   04D0 24 EE              2053 	add	a,#0xee
   04D2 F8                 2054 	mov	r0,a
   04D3 E6                 2055 	mov	a,@r0
   04D4 08                 2056 	inc	r0
   04D5 46                 2057 	orl	a,@r0
   04D6 70 65              2058 	jnz	00111$
                           2059 ;	../../../contiki-sensinode//core/loader/elfloader.c:245: addr = find_local_symbol(fd, name, symtab, symtabsize, strtab);
   04D8 E5 81              2060 	mov	a,sp
   04DA 24 FC              2061 	add	a,#0xfc
   04DC F8                 2062 	mov	r0,a
   04DD 86 06              2063 	mov	ar6,@r0
   04DF 7D 00              2064 	mov	r5,#0x00
   04E1 7C 40              2065 	mov	r4,#0x40
   04E3 C0 01              2066 	push	ar1
   04E5 E5 81              2067 	mov	a,sp
   04E7 24 9D              2068 	add	a,#0x9d
   04E9 F8                 2069 	mov	r0,a
   04EA E6                 2070 	mov	a,@r0
   04EB C0 E0              2071 	push	acc
   04ED 08                 2072 	inc	r0
   04EE E6                 2073 	mov	a,@r0
   04EF C0 E0              2074 	push	acc
   04F1 E5 81              2075 	mov	a,sp
   04F3 24 97              2076 	add	a,#0x97
   04F5 F8                 2077 	mov	r0,a
   04F6 E6                 2078 	mov	a,@r0
   04F7 C0 E0              2079 	push	acc
   04F9 08                 2080 	inc	r0
   04FA E6                 2081 	mov	a,@r0
   04FB C0 E0              2082 	push	acc
   04FD E5 81              2083 	mov	a,sp
   04FF 24 97              2084 	add	a,#0x97
   0501 F8                 2085 	mov	r0,a
   0502 E6                 2086 	mov	a,@r0
   0503 C0 E0              2087 	push	acc
   0505 08                 2088 	inc	r0
   0506 E6                 2089 	mov	a,@r0
   0507 C0 E0              2090 	push	acc
   0509 C0 06              2091 	push	ar6
   050B C0 05              2092 	push	ar5
   050D C0 04              2093 	push	ar4
   050F E5 81              2094 	mov	a,sp
   0511 24 A4              2095 	add	a,#0xa4
   0513 F8                 2096 	mov	r0,a
   0514 86 82              2097 	mov	dpl,@r0
   0516 08                 2098 	inc	r0
   0517 86 83              2099 	mov	dph,@r0
   0519 78r6F              2100 	mov	r0,#_find_local_symbol
   051B 79s00              2101 	mov	r1,#(_find_local_symbol >> 8)
   051D 7As00              2102 	mov	r2,#(_find_local_symbol >> 16)
   051F 12s00r00           2103 	lcall	__sdcc_banked_call
   0522 AC 82              2104 	mov	r4,dpl
   0524 AD 83              2105 	mov	r5,dph
   0526 AE F0              2106 	mov	r6,b
   0528 E5 81              2107 	mov	a,sp
   052A 24 F7              2108 	add	a,#0xf7
   052C F5 81              2109 	mov	sp,a
   052E D0 01              2110 	pop	ar1
   0530 E5 81              2111 	mov	a,sp
   0532 24 EE              2112 	add	a,#0xee
   0534 F8                 2113 	mov	r0,a
   0535 A6 04              2114 	mov	@r0,ar4
   0537 08                 2115 	inc	r0
   0538 A6 05              2116 	mov	@r0,ar5
   053A 08                 2117 	inc	r0
   053B A6 06              2118 	mov	@r0,ar6
                           2119 ;	../../../contiki-sensinode//core/loader/elfloader.c:246: PRINTF("found address %p\n", addr);
   053D                    2120 00111$:
                           2121 ;	../../../contiki-sensinode//core/loader/elfloader.c:248: if(addr == NULL) {
   053D E5 81              2122 	mov	a,sp
   053F 24 EE              2123 	add	a,#0xee
   0541 F8                 2124 	mov	r0,a
   0542 E6                 2125 	mov	a,@r0
   0543 08                 2126 	inc	r0
   0544 46                 2127 	orl	a,@r0
   0545 60 03              2128 	jz	00185$
   0547 02s06rBD           2129 	ljmp	00142$
   054A                    2130 00185$:
                           2131 ;	../../../contiki-sensinode//core/loader/elfloader.c:249: if(s.st_shndx == bss.number) {
   054A 87 05              2132 	mov	ar5,@r1
   054C 09                 2133 	inc	r1
   054D 87 02              2134 	mov	ar2,@r1
   054F 19                 2135 	dec	r1
   0550 90s00r21           2136 	mov	dptr,#_bss
   0553 E0                 2137 	movx	a,@dptr
   0554 FC                 2138 	mov	r4,a
   0555 7B 00              2139 	mov	r3,#0x00
   0557 ED                 2140 	mov	a,r5
   0558 B5 04 0D           2141 	cjne	a,ar4,00124$
   055B EA                 2142 	mov	a,r2
   055C B5 03 09           2143 	cjne	a,ar3,00124$
                           2144 ;	../../../contiki-sensinode//core/loader/elfloader.c:250: sect = &bss;
   055F 7Ar21              2145 	mov	r2,#_bss
   0561 7Bs00              2146 	mov	r3,#(_bss >> 8)
   0563 7C 00              2147 	mov	r4,#0x00
   0565 02s05rEF           2148 	ljmp	00125$
   0568                    2149 00124$:
                           2150 ;	../../../contiki-sensinode//core/loader/elfloader.c:251: } else if(s.st_shndx == data.number) {
   0568 C0 01              2151 	push	ar1
   056A 90s00r27           2152 	mov	dptr,#_data
   056D E0                 2153 	movx	a,@dptr
   056E FE                 2154 	mov	r6,a
   056F 7F 00              2155 	mov	r7,#0x00
   0571 ED                 2156 	mov	a,r5
   0572 B5 06 06           2157 	cjne	a,ar6,00188$
   0575 EA                 2158 	mov	a,r2
   0576 B5 07 02           2159 	cjne	a,ar7,00188$
   0579 80 04              2160 	sjmp	00189$
   057B                    2161 00188$:
   057B D0 01              2162 	pop	ar1
   057D 80 0A              2163 	sjmp	00121$
   057F                    2164 00189$:
   057F D0 01              2165 	pop	ar1
                           2166 ;	../../../contiki-sensinode//core/loader/elfloader.c:252: sect = &data;
   0581 7Ar27              2167 	mov	r2,#_data
   0583 7Bs00              2168 	mov	r3,#(_data >> 8)
   0585 7C 00              2169 	mov	r4,#0x00
   0587 80 66              2170 	sjmp	00125$
   0589                    2171 00121$:
                           2172 ;	../../../contiki-sensinode//core/loader/elfloader.c:253: } else if(s.st_shndx == rodata.number) {
   0589 90s00r2D           2173 	mov	dptr,#_rodata
   058C E0                 2174 	movx	a,@dptr
   058D FF                 2175 	mov	r7,a
   058E 7E 00              2176 	mov	r6,#0x00
   0590 ED                 2177 	mov	a,r5
   0591 B5 07 0C           2178 	cjne	a,ar7,00118$
   0594 EA                 2179 	mov	a,r2
   0595 B5 06 08           2180 	cjne	a,ar6,00118$
                           2181 ;	../../../contiki-sensinode//core/loader/elfloader.c:254: sect = &rodata;
   0598 7Ar2D              2182 	mov	r2,#_rodata
   059A 7Bs00              2183 	mov	r3,#(_rodata >> 8)
   059C 7C 00              2184 	mov	r4,#0x00
   059E 80 4F              2185 	sjmp	00125$
   05A0                    2186 00118$:
                           2187 ;	../../../contiki-sensinode//core/loader/elfloader.c:255: } else if(s.st_shndx == text.number) {
   05A0 90s00r33           2188 	mov	dptr,#_text
   05A3 E0                 2189 	movx	a,@dptr
   05A4 FF                 2190 	mov	r7,a
   05A5 7E 00              2191 	mov	r6,#0x00
   05A7 ED                 2192 	mov	a,r5
   05A8 B5 07 0C           2193 	cjne	a,ar7,00112$
   05AB EA                 2194 	mov	a,r2
   05AC B5 06 08           2195 	cjne	a,ar6,00112$
                           2196 ;	../../../contiki-sensinode//core/loader/elfloader.c:256: sect = &text;
   05AF 7Ar33              2197 	mov	r2,#_text
   05B1 7Bs00              2198 	mov	r3,#(_text >> 8)
   05B3 7C 00              2199 	mov	r4,#0x00
                           2200 ;	../../../contiki-sensinode//core/loader/elfloader.c:258: PRINTF("elfloader unknown name: '%30s'\n", name);
   05B5 80 38              2201 	sjmp	00125$
   05B7                    2202 00112$:
                           2203 ;	../../../contiki-sensinode//core/loader/elfloader.c:259: memcpy(elfloader_unknown, name, sizeof(elfloader_unknown));
   05B7 E5 81              2204 	mov	a,sp
   05B9 24 FC              2205 	add	a,#0xfc
   05BB F8                 2206 	mov	r0,a
   05BC 86 07              2207 	mov	ar7,@r0
   05BE 7E 00              2208 	mov	r6,#0x00
   05C0 7D 40              2209 	mov	r5,#0x40
   05C2 74 1E              2210 	mov	a,#0x1E
   05C4 C0 E0              2211 	push	acc
   05C6 E4                 2212 	clr	a
   05C7 C0 E0              2213 	push	acc
   05C9 C0 07              2214 	push	ar7
   05CB C0 06              2215 	push	ar6
   05CD C0 05              2216 	push	ar5
   05CF 90s00r00           2217 	mov	dptr,#_elfloader_unknown
   05D2 75 F0 00           2218 	mov	b,#0x00
   05D5 78r00              2219 	mov	r0,#_memcpy
   05D7 79s00              2220 	mov	r1,#(_memcpy >> 8)
   05D9 7As00              2221 	mov	r2,#(_memcpy >> 16)
   05DB 12s00r00           2222 	lcall	__sdcc_banked_call
   05DE E5 81              2223 	mov	a,sp
   05E0 24 FB              2224 	add	a,#0xfb
   05E2 F5 81              2225 	mov	sp,a
                           2226 ;	../../../contiki-sensinode//core/loader/elfloader.c:260: elfloader_unknown[sizeof(elfloader_unknown) - 1] = 0;
   05E4 90s00r1D           2227 	mov	dptr,#(_elfloader_unknown + 0x001d)
   05E7 E4                 2228 	clr	a
   05E8 F0                 2229 	movx	@dptr,a
                           2230 ;	../../../contiki-sensinode//core/loader/elfloader.c:261: return ELFLOADER_SYMBOL_NOT_FOUND;
   05E9 90 00 05           2231 	mov	dptr,#0x0005
   05EC 02s07rCA           2232 	ljmp	00149$
   05EF                    2233 00125$:
                           2234 ;	../../../contiki-sensinode//core/loader/elfloader.c:263: addr = sect->address;
   05EF 74 03              2235 	mov	a,#0x03
   05F1 2A                 2236 	add	a,r2
   05F2 FD                 2237 	mov	r5,a
   05F3 E4                 2238 	clr	a
   05F4 3B                 2239 	addc	a,r3
   05F5 FE                 2240 	mov	r6,a
   05F6 8C 07              2241 	mov	ar7,r4
   05F8 8D 82              2242 	mov	dpl,r5
   05FA 8E 83              2243 	mov	dph,r6
   05FC 8F F0              2244 	mov	b,r7
   05FE 12s00r00           2245 	lcall	__gptrget
   0601 FD                 2246 	mov	r5,a
   0602 A3                 2247 	inc	dptr
   0603 12s00r00           2248 	lcall	__gptrget
   0606 FE                 2249 	mov	r6,a
   0607 A3                 2250 	inc	dptr
   0608 12s00r00           2251 	lcall	__gptrget
   060B FF                 2252 	mov	r7,a
   060C E5 81              2253 	mov	a,sp
   060E 24 EE              2254 	add	a,#0xee
   0610 F8                 2255 	mov	r0,a
   0611 A6 05              2256 	mov	@r0,ar5
   0613 08                 2257 	inc	r0
   0614 A6 06              2258 	mov	@r0,ar6
   0616 08                 2259 	inc	r0
   0617 A6 07              2260 	mov	@r0,ar7
   0619 02s06rBD           2261 	ljmp	00142$
   061C                    2262 00141$:
                           2263 ;	../../../contiki-sensinode//core/loader/elfloader.c:266: if(s.st_shndx == bss.number) {
   061C C0 01              2264 	push	ar1
   061E E5 81              2265 	mov	a,sp
   0620 24 F0              2266 	add	a,#0xf0
   0622 F8                 2267 	mov	r0,a
   0623 86 00              2268 	mov	ar0,@r0
   0625 86 04              2269 	mov	ar4,@r0
   0627 08                 2270 	inc	r0
   0628 86 03              2271 	mov	ar3,@r0
   062A 18                 2272 	dec	r0
   062B 90s00r21           2273 	mov	dptr,#_bss
   062E E0                 2274 	movx	a,@dptr
   062F FD                 2275 	mov	r5,a
   0630 7F 00              2276 	mov	r7,#0x00
   0632 EC                 2277 	mov	a,r4
   0633 B5 05 06           2278 	cjne	a,ar5,00194$
   0636 EB                 2279 	mov	a,r3
   0637 B5 07 02           2280 	cjne	a,ar7,00194$
   063A 80 04              2281 	sjmp	00195$
   063C                    2282 00194$:
   063C D0 01              2283 	pop	ar1
   063E 80 0A              2284 	sjmp	00138$
   0640                    2285 00195$:
   0640 D0 01              2286 	pop	ar1
                           2287 ;	../../../contiki-sensinode//core/loader/elfloader.c:267: sect = &bss;
   0642 7Ar21              2288 	mov	r2,#_bss
   0644 7Bs00              2289 	mov	r3,#(_bss >> 8)
   0646 7C 00              2290 	mov	r4,#0x00
   0648 80 4B              2291 	sjmp	00139$
   064A                    2292 00138$:
                           2293 ;	../../../contiki-sensinode//core/loader/elfloader.c:268: } else if(s.st_shndx == data.number) {
   064A 90s00r27           2294 	mov	dptr,#_data
   064D E0                 2295 	movx	a,@dptr
   064E FF                 2296 	mov	r7,a
   064F 7E 00              2297 	mov	r6,#0x00
   0651 EC                 2298 	mov	a,r4
   0652 B5 07 0C           2299 	cjne	a,ar7,00135$
   0655 EB                 2300 	mov	a,r3
   0656 B5 06 08           2301 	cjne	a,ar6,00135$
                           2302 ;	../../../contiki-sensinode//core/loader/elfloader.c:269: sect = &data;
   0659 7Ar27              2303 	mov	r2,#_data
   065B 7Bs00              2304 	mov	r3,#(_data >> 8)
   065D 7C 00              2305 	mov	r4,#0x00
   065F 80 34              2306 	sjmp	00139$
   0661                    2307 00135$:
                           2308 ;	../../../contiki-sensinode//core/loader/elfloader.c:270: } else if(s.st_shndx == rodata.number) {
   0661 90s00r2D           2309 	mov	dptr,#_rodata
   0664 E0                 2310 	movx	a,@dptr
   0665 FF                 2311 	mov	r7,a
   0666 7E 00              2312 	mov	r6,#0x00
   0668 EC                 2313 	mov	a,r4
   0669 B5 07 0C           2314 	cjne	a,ar7,00132$
   066C EB                 2315 	mov	a,r3
   066D B5 06 08           2316 	cjne	a,ar6,00132$
                           2317 ;	../../../contiki-sensinode//core/loader/elfloader.c:271: sect = &rodata;
   0670 7Ar2D              2318 	mov	r2,#_rodata
   0672 7Bs00              2319 	mov	r3,#(_rodata >> 8)
   0674 7C 00              2320 	mov	r4,#0x00
   0676 80 1D              2321 	sjmp	00139$
   0678                    2322 00132$:
                           2323 ;	../../../contiki-sensinode//core/loader/elfloader.c:272: } else if(s.st_shndx == text.number) {
   0678 90s00r33           2324 	mov	dptr,#_text
   067B E0                 2325 	movx	a,@dptr
   067C FF                 2326 	mov	r7,a
   067D 7E 00              2327 	mov	r6,#0x00
   067F EC                 2328 	mov	a,r4
   0680 B5 07 0C           2329 	cjne	a,ar7,00129$
   0683 EB                 2330 	mov	a,r3
   0684 B5 06 08           2331 	cjne	a,ar6,00129$
                           2332 ;	../../../contiki-sensinode//core/loader/elfloader.c:273: sect = &text;
   0687 7Ar33              2333 	mov	r2,#_text
   0689 7Bs00              2334 	mov	r3,#(_text >> 8)
   068B 7C 00              2335 	mov	r4,#0x00
   068D 80 06              2336 	sjmp	00139$
   068F                    2337 00129$:
                           2338 ;	../../../contiki-sensinode//core/loader/elfloader.c:275: return ELFLOADER_SEGMENT_NOT_FOUND;
   068F 90 00 06           2339 	mov	dptr,#0x0006
   0692 02s07rCA           2340 	ljmp	00149$
   0695                    2341 00139$:
                           2342 ;	../../../contiki-sensinode//core/loader/elfloader.c:278: addr = sect->address;
   0695 74 03              2343 	mov	a,#0x03
   0697 2A                 2344 	add	a,r2
   0698 FA                 2345 	mov	r2,a
   0699 E4                 2346 	clr	a
   069A 3B                 2347 	addc	a,r3
   069B FB                 2348 	mov	r3,a
   069C 8A 82              2349 	mov	dpl,r2
   069E 8B 83              2350 	mov	dph,r3
   06A0 8C F0              2351 	mov	b,r4
   06A2 12s00r00           2352 	lcall	__gptrget
   06A5 FA                 2353 	mov	r2,a
   06A6 A3                 2354 	inc	dptr
   06A7 12s00r00           2355 	lcall	__gptrget
   06AA FB                 2356 	mov	r3,a
   06AB A3                 2357 	inc	dptr
   06AC 12s00r00           2358 	lcall	__gptrget
   06AF FC                 2359 	mov	r4,a
   06B0 E5 81              2360 	mov	a,sp
   06B2 24 EE              2361 	add	a,#0xee
   06B4 F8                 2362 	mov	r0,a
   06B5 A6 02              2363 	mov	@r0,ar2
   06B7 08                 2364 	inc	r0
   06B8 A6 03              2365 	mov	@r0,ar3
   06BA 08                 2366 	inc	r0
   06BB A6 04              2367 	mov	@r0,ar4
   06BD                    2368 00142$:
                           2369 ;	../../../contiki-sensinode//core/loader/elfloader.c:281: if(!using_relas) {
   06BD E5 81              2370 	mov	a,sp
   06BF 24 99              2371 	add	a,#0x99
   06C1 F8                 2372 	mov	r0,a
   06C2 E6                 2373 	mov	a,@r0
   06C3 60 03              2374 	jz	00202$
   06C5 02s07r56           2375 	ljmp	00144$
   06C8                    2376 00202$:
                           2377 ;	../../../contiki-sensinode//core/loader/elfloader.c:283: seek_read(fd, sectionaddr + rela.r_offset, (char *)&rela.r_addend, 4);
   06C8 C0 01              2378 	push	ar1
   06CA E5 81              2379 	mov	a,sp
   06CC 24 AF              2380 	add	a,#0xAF
   06CE F8                 2381 	mov	r0,a
   06CF 24 08              2382 	add	a,#0x08
   06D1 FF                 2383 	mov	r7,a
   06D2 C0 00              2384 	push	ar0
   06D4 E5 81              2385 	mov	a,sp
   06D6 24 F6              2386 	add	a,#0xf6
   06D8 F8                 2387 	mov	r0,a
   06D9 A6 07              2388 	mov	@r0,ar7
   06DB 08                 2389 	inc	r0
   06DC 76 00              2390 	mov	@r0,#0x00
   06DE 08                 2391 	inc	r0
   06DF 76 40              2392 	mov	@r0,#0x40
   06E1 D0 00              2393 	pop	ar0
   06E3 C0 01              2394 	push	ar1
   06E5 E5 81              2395 	mov	a,sp
   06E7 24 FB              2396 	add	a,#0xfb
   06E9 F9                 2397 	mov	r1,a
   06EA E6                 2398 	mov	a,@r0
   06EB F7                 2399 	mov	@r1,a
   06EC 08                 2400 	inc	r0
   06ED E6                 2401 	mov	a,@r0
   06EE 09                 2402 	inc	r1
   06EF F7                 2403 	mov	@r1,a
   06F0 08                 2404 	inc	r0
   06F1 E6                 2405 	mov	a,@r0
   06F2 09                 2406 	inc	r1
   06F3 F7                 2407 	mov	@r1,a
   06F4 08                 2408 	inc	r0
   06F5 E6                 2409 	mov	a,@r0
   06F6 09                 2410 	inc	r1
   06F7 F7                 2411 	mov	@r1,a
   06F8 18                 2412 	dec	r0
   06F9 18                 2413 	dec	r0
   06FA 18                 2414 	dec	r0
   06FB D0 01              2415 	pop	ar1
   06FD E5 81              2416 	mov	a,sp
   06FF 24 A4              2417 	add	a,#0xa4
   0701 F8                 2418 	mov	r0,a
   0702 86 04              2419 	mov	ar4,@r0
   0704 08                 2420 	inc	r0
   0705 86 05              2421 	mov	ar5,@r0
   0707 E4                 2422 	clr	a
   0708 FE                 2423 	mov	r6,a
   0709 FF                 2424 	mov	r7,a
   070A E5 81              2425 	mov	a,sp
   070C 24 FC              2426 	add	a,#0xfc
   070E F8                 2427 	mov	r0,a
   070F E6                 2428 	mov	a,@r0
   0710 2C                 2429 	add	a,r4
   0711 FC                 2430 	mov	r4,a
   0712 08                 2431 	inc	r0
   0713 E6                 2432 	mov	a,@r0
   0714 3D                 2433 	addc	a,r5
   0715 FD                 2434 	mov	r5,a
   0716 08                 2435 	inc	r0
   0717 E6                 2436 	mov	a,@r0
   0718 3E                 2437 	addc	a,r6
   0719 08                 2438 	inc	r0
   071A E6                 2439 	mov	a,@r0
   071B 3F                 2440 	addc	a,r7
   071C C0 01              2441 	push	ar1
   071E 74 04              2442 	mov	a,#0x04
   0720 C0 E0              2443 	push	acc
   0722 E4                 2444 	clr	a
   0723 C0 E0              2445 	push	acc
   0725 E5 81              2446 	mov	a,sp
   0727 24 F4              2447 	add	a,#0xf4
   0729 F8                 2448 	mov	r0,a
   072A E6                 2449 	mov	a,@r0
   072B C0 E0              2450 	push	acc
   072D 08                 2451 	inc	r0
   072E E6                 2452 	mov	a,@r0
   072F C0 E0              2453 	push	acc
   0731 08                 2454 	inc	r0
   0732 E6                 2455 	mov	a,@r0
   0733 C0 E0              2456 	push	acc
   0735 C0 04              2457 	push	ar4
   0737 C0 05              2458 	push	ar5
   0739 E5 81              2459 	mov	a,sp
   073B 24 A5              2460 	add	a,#0xa5
   073D F8                 2461 	mov	r0,a
   073E 86 82              2462 	mov	dpl,@r0
   0740 08                 2463 	inc	r0
   0741 86 83              2464 	mov	dph,@r0
   0743 78r00              2465 	mov	r0,#_seek_read
   0745 79s00              2466 	mov	r1,#(_seek_read >> 8)
   0747 7As00              2467 	mov	r2,#(_seek_read >> 16)
   0749 12s00r00           2468 	lcall	__sdcc_banked_call
   074C E5 81              2469 	mov	a,sp
   074E 24 F9              2470 	add	a,#0xf9
   0750 F5 81              2471 	mov	sp,a
   0752 D0 01              2472 	pop	ar1
                           2473 ;	../../../contiki-sensinode//core/loader/elfloader.c:288: return ELFLOADER_OK;
   0754 D0 01              2474 	pop	ar1
                           2475 ;	../../../contiki-sensinode//core/loader/elfloader.c:283: seek_read(fd, sectionaddr + rela.r_offset, (char *)&rela.r_addend, 4);
   0756                    2476 00144$:
                           2477 ;	../../../contiki-sensinode//core/loader/elfloader.c:286: elfloader_arch_relocate(fd, sectionaddr, sectionbase, &rela, addr);
   0756 E5 81              2478 	mov	a,sp
   0758 24 B0              2479 	add	a,#0xB0
   075A FF                 2480 	mov	r7,a
   075B 7E 00              2481 	mov	r6,#0x00
   075D 7D 40              2482 	mov	r5,#0x40
   075F C0 01              2483 	push	ar1
   0761 E5 81              2484 	mov	a,sp
   0763 24 ED              2485 	add	a,#0xed
   0765 F8                 2486 	mov	r0,a
   0766 E6                 2487 	mov	a,@r0
   0767 C0 E0              2488 	push	acc
   0769 08                 2489 	inc	r0
   076A E6                 2490 	mov	a,@r0
   076B C0 E0              2491 	push	acc
   076D 08                 2492 	inc	r0
   076E E6                 2493 	mov	a,@r0
   076F C0 E0              2494 	push	acc
   0771 C0 07              2495 	push	ar7
   0773 C0 06              2496 	push	ar6
   0775 C0 05              2497 	push	ar5
   0777 E5 81              2498 	mov	a,sp
   0779 24 9B              2499 	add	a,#0x9b
   077B F8                 2500 	mov	r0,a
   077C E6                 2501 	mov	a,@r0
   077D C0 E0              2502 	push	acc
   077F 08                 2503 	inc	r0
   0780 E6                 2504 	mov	a,@r0
   0781 C0 E0              2505 	push	acc
   0783 08                 2506 	inc	r0
   0784 E6                 2507 	mov	a,@r0
   0785 C0 E0              2508 	push	acc
   0787 E5 81              2509 	mov	a,sp
   0789 24 9B              2510 	add	a,#0x9b
   078B F8                 2511 	mov	r0,a
   078C E6                 2512 	mov	a,@r0
   078D C0 E0              2513 	push	acc
   078F 08                 2514 	inc	r0
   0790 E6                 2515 	mov	a,@r0
   0791 C0 E0              2516 	push	acc
   0793 E5 81              2517 	mov	a,sp
   0795 24 A2              2518 	add	a,#0xa2
   0797 F8                 2519 	mov	r0,a
   0798 86 82              2520 	mov	dpl,@r0
   079A 08                 2521 	inc	r0
   079B 86 83              2522 	mov	dph,@r0
   079D 78r00              2523 	mov	r0,#_elfloader_arch_relocate
   079F 79s00              2524 	mov	r1,#(_elfloader_arch_relocate >> 8)
   07A1 7As00              2525 	mov	r2,#(_elfloader_arch_relocate >> 16)
   07A3 12s00r00           2526 	lcall	__sdcc_banked_call
   07A6 E5 81              2527 	mov	a,sp
   07A8 24 F5              2528 	add	a,#0xf5
   07AA F5 81              2529 	mov	sp,a
   07AC D0 01              2530 	pop	ar1
                           2531 ;	../../../contiki-sensinode//core/loader/elfloader.c:233: for(a = section; a < section + size; a += rel_size) {
   07AE E5 81              2532 	mov	a,sp
   07B0 24 BC              2533 	add	a,#0xbc
   07B2 F8                 2534 	mov	r0,a
   07B3 86 04              2535 	mov	ar4,@r0
   07B5 08                 2536 	inc	r0
   07B6 86 05              2537 	mov	ar5,@r0
   07B8 E5 81              2538 	mov	a,sp
   07BA 24 CE              2539 	add	a,#0xce
   07BC F8                 2540 	mov	r0,a
   07BD EC                 2541 	mov	a,r4
   07BE 26                 2542 	add	a,@r0
   07BF F6                 2543 	mov	@r0,a
   07C0 ED                 2544 	mov	a,r5
   07C1 08                 2545 	inc	r0
   07C2 36                 2546 	addc	a,@r0
   07C3 F6                 2547 	mov	@r0,a
   07C4 02s03r11           2548 	ljmp	00145$
   07C7                    2549 00148$:
                           2550 ;	../../../contiki-sensinode//core/loader/elfloader.c:288: return ELFLOADER_OK;
   07C7 90 00 00           2551 	mov	dptr,#0x0000
   07CA                    2552 00149$:
   07CA E5 81              2553 	mov	a,sp
   07CC 24 AD              2554 	add	a,#0xAD
   07CE F5 81              2555 	mov	sp,a
   07D0 02s00r00           2556 	ljmp	__sdcc_banked_ret
                           2557 ;------------------------------------------------------------
                           2558 ;Allocation info for local variables in function 'find_program_processes'
                           2559 ;------------------------------------------------------------
                           2560 ;symtab                    Allocated to stack - sp -63
                           2561 ;size                      Allocated to stack - sp -65
                           2562 ;strtab                    Allocated to stack - sp -67
                           2563 ;fd                        Allocated to stack - sp -58
                           2564 ;s                         Allocated to stack - sp -56
                           2565 ;a                         Allocated to registers r4 r5 
                           2566 ;name                      Allocated to stack - sp -40
                           2567 ;sloc0                     Allocated to stack - sp -10
                           2568 ;sloc1                     Allocated to stack - sp -8
                           2569 ;sloc2                     Allocated to stack - sp -4
                           2570 ;sloc3                     Allocated to stack - sp -3
                           2571 ;sloc4                     Allocated to stack - sp +0
                           2572 ;------------------------------------------------------------
                           2573 ;	../../../contiki-sensinode//core/loader/elfloader.c:292: find_program_processes(int fd,
                           2574 ;	-----------------------------------------
                           2575 ;	 function find_program_processes
                           2576 ;	-----------------------------------------
   07D3                    2577 _find_program_processes:
   07D3 C0 82              2578 	push	dpl
   07D5 C0 83              2579 	push	dph
   07D7 E5 81              2580 	mov	a,sp
   07D9 24 39              2581 	add	a,#0x39
                           2582 ;	../../../contiki-sensinode//core/loader/elfloader.c:300: for(a = symtab; a < symtab + size; a += sizeof(s)) {
   07DB F5 81              2583 	mov	sp,a
   07DD 24 C1              2584 	add	a,#0xc1
   07DF F8                 2585 	mov	r0,a
   07E0 86 04              2586 	mov	ar4,@r0
   07E2 08                 2587 	inc	r0
   07E3 86 05              2588 	mov	ar5,@r0
   07E5 E5 81              2589 	mov	a,sp
   07E7 F8                 2590 	mov	r0,a
   07E8 24 D8              2591 	add	a,#0xD8
   07EA F6                 2592 	mov	@r0,a
   07EB E5 81              2593 	mov	a,sp
   07ED F8                 2594 	mov	r0,a
   07EE 24 FC              2595 	add	a,#0xfc
   07F0 F9                 2596 	mov	r1,a
   07F1 E6                 2597 	mov	a,@r0
   07F2 F7                 2598 	mov	@r1,a
   07F3 E5 81              2599 	mov	a,sp
   07F5 24 C8              2600 	add	a,#0xC8
   07F7 F9                 2601 	mov	r1,a
   07F8 E5 81              2602 	mov	a,sp
   07FA 24 BF              2603 	add	a,#0xbf
   07FC F8                 2604 	mov	r0,a
   07FD C0 01              2605 	push	ar1
   07FF E5 81              2606 	mov	a,sp
   0801 24 F5              2607 	add	a,#0xf5
   0803 F9                 2608 	mov	r1,a
   0804 E6                 2609 	mov	a,@r0
   0805 2C                 2610 	add	a,r4
   0806 F7                 2611 	mov	@r1,a
   0807 08                 2612 	inc	r0
   0808 E6                 2613 	mov	a,@r0
   0809 3D                 2614 	addc	a,r5
   080A 09                 2615 	inc	r1
   080B F7                 2616 	mov	@r1,a
   080C D0 01              2617 	pop	ar1
   080E                    2618 00105$:
   080E E5 81              2619 	mov	a,sp
   0810 24 F6              2620 	add	a,#0xf6
   0812 F8                 2621 	mov	r0,a
   0813 C3                 2622 	clr	c
   0814 EC                 2623 	mov	a,r4
   0815 96                 2624 	subb	a,@r0
   0816 ED                 2625 	mov	a,r5
   0817 08                 2626 	inc	r0
   0818 96                 2627 	subb	a,@r0
   0819 40 03              2628 	jc	00119$
   081B 02s09r80           2629 	ljmp	00108$
   081E                    2630 00119$:
                           2631 ;	../../../contiki-sensinode//core/loader/elfloader.c:301: seek_read(fd, a, (char *)&s, sizeof(s));
   081E E5 81              2632 	mov	a,sp
   0820 24 C8              2633 	add	a,#0xC8
   0822 FA                 2634 	mov	r2,a
   0823 7E 00              2635 	mov	r6,#0x00
   0825 7F 40              2636 	mov	r7,#0x40
   0827 C0 05              2637 	push	ar5
   0829 C0 04              2638 	push	ar4
   082B C0 01              2639 	push	ar1
   082D 74 10              2640 	mov	a,#0x10
   082F C0 E0              2641 	push	acc
   0831 E4                 2642 	clr	a
   0832 C0 E0              2643 	push	acc
   0834 C0 02              2644 	push	ar2
   0836 C0 06              2645 	push	ar6
   0838 C0 07              2646 	push	ar7
   083A C0 04              2647 	push	ar4
   083C C0 05              2648 	push	ar5
   083E E5 81              2649 	mov	a,sp
   0840 24 BC              2650 	add	a,#0xbc
   0842 F8                 2651 	mov	r0,a
   0843 86 82              2652 	mov	dpl,@r0
   0845 08                 2653 	inc	r0
   0846 86 83              2654 	mov	dph,@r0
   0848 78r00              2655 	mov	r0,#_seek_read
   084A 79s00              2656 	mov	r1,#(_seek_read >> 8)
   084C 7As00              2657 	mov	r2,#(_seek_read >> 16)
   084E 12s00r00           2658 	lcall	__sdcc_banked_call
   0851 E5 81              2659 	mov	a,sp
   0853 24 F9              2660 	add	a,#0xf9
   0855 F5 81              2661 	mov	sp,a
   0857 D0 01              2662 	pop	ar1
   0859 D0 04              2663 	pop	ar4
   085B D0 05              2664 	pop	ar5
                           2665 ;	../../../contiki-sensinode//core/loader/elfloader.c:303: if(s.st_name != 0) {
   085D E5 81              2666 	mov	a,sp
   085F 24 F8              2667 	add	a,#0xf8
   0861 F8                 2668 	mov	r0,a
   0862 E7                 2669 	mov	a,@r1
   0863 F6                 2670 	mov	@r0,a
   0864 09                 2671 	inc	r1
   0865 E7                 2672 	mov	a,@r1
   0866 08                 2673 	inc	r0
   0867 F6                 2674 	mov	@r0,a
   0868 09                 2675 	inc	r1
   0869 E7                 2676 	mov	a,@r1
   086A 08                 2677 	inc	r0
   086B F6                 2678 	mov	@r0,a
   086C 09                 2679 	inc	r1
   086D E7                 2680 	mov	a,@r1
   086E 08                 2681 	inc	r0
   086F F6                 2682 	mov	@r0,a
   0870 19                 2683 	dec	r1
   0871 19                 2684 	dec	r1
   0872 19                 2685 	dec	r1
   0873 E5 81              2686 	mov	a,sp
   0875 24 F8              2687 	add	a,#0xf8
   0877 F8                 2688 	mov	r0,a
   0878 E6                 2689 	mov	a,@r0
   0879 08                 2690 	inc	r0
   087A 46                 2691 	orl	a,@r0
   087B 08                 2692 	inc	r0
   087C 46                 2693 	orl	a,@r0
   087D 08                 2694 	inc	r0
   087E 46                 2695 	orl	a,@r0
   087F 70 03              2696 	jnz	00120$
   0881 02s09r76           2697 	ljmp	00107$
   0884                    2698 00120$:
                           2699 ;	../../../contiki-sensinode//core/loader/elfloader.c:304: seek_read(fd, strtab + s.st_name, name, sizeof(name));
   0884 C0 01              2700 	push	ar1
   0886 A8 81              2701 	mov	r0,sp
   0888 18                 2702 	dec	r0
   0889 C0 01              2703 	push	ar1
   088B E5 81              2704 	mov	a,sp
   088D 24 FB              2705 	add	a,#0xfb
   088F F9                 2706 	mov	r1,a
   0890 E6                 2707 	mov	a,@r0
   0891 F7                 2708 	mov	@r1,a
   0892 09                 2709 	inc	r1
   0893 77 00              2710 	mov	@r1,#0x00
   0895 09                 2711 	inc	r1
   0896 77 40              2712 	mov	@r1,#0x40
   0898 D0 01              2713 	pop	ar1
   089A E5 81              2714 	mov	a,sp
   089C 24 BC              2715 	add	a,#0xbc
   089E F8                 2716 	mov	r0,a
   089F 86 02              2717 	mov	ar2,@r0
   08A1 08                 2718 	inc	r0
   08A2 86 03              2719 	mov	ar3,@r0
   08A4 E4                 2720 	clr	a
   08A5 FE                 2721 	mov	r6,a
   08A6 FF                 2722 	mov	r7,a
   08A7 E5 81              2723 	mov	a,sp
   08A9 24 F7              2724 	add	a,#0xf7
   08AB F8                 2725 	mov	r0,a
   08AC E6                 2726 	mov	a,@r0
   08AD 2A                 2727 	add	a,r2
   08AE FA                 2728 	mov	r2,a
   08AF 08                 2729 	inc	r0
   08B0 E6                 2730 	mov	a,@r0
   08B1 3B                 2731 	addc	a,r3
   08B2 FB                 2732 	mov	r3,a
   08B3 08                 2733 	inc	r0
   08B4 E6                 2734 	mov	a,@r0
   08B5 3E                 2735 	addc	a,r6
   08B6 08                 2736 	inc	r0
   08B7 E6                 2737 	mov	a,@r0
   08B8 3F                 2738 	addc	a,r7
   08B9 C0 05              2739 	push	ar5
   08BB C0 04              2740 	push	ar4
   08BD C0 01              2741 	push	ar1
   08BF 74 1E              2742 	mov	a,#0x1E
   08C1 C0 E0              2743 	push	acc
   08C3 E4                 2744 	clr	a
   08C4 C0 E0              2745 	push	acc
   08C6 E5 81              2746 	mov	a,sp
   08C8 24 F7              2747 	add	a,#0xf7
   08CA F8                 2748 	mov	r0,a
   08CB E6                 2749 	mov	a,@r0
   08CC C0 E0              2750 	push	acc
   08CE 08                 2751 	inc	r0
   08CF E6                 2752 	mov	a,@r0
   08D0 C0 E0              2753 	push	acc
   08D2 08                 2754 	inc	r0
   08D3 E6                 2755 	mov	a,@r0
   08D4 C0 E0              2756 	push	acc
   08D6 C0 02              2757 	push	ar2
   08D8 C0 03              2758 	push	ar3
   08DA E5 81              2759 	mov	a,sp
   08DC 24 BB              2760 	add	a,#0xbb
   08DE F8                 2761 	mov	r0,a
   08DF 86 82              2762 	mov	dpl,@r0
   08E1 08                 2763 	inc	r0
   08E2 86 83              2764 	mov	dph,@r0
   08E4 78r00              2765 	mov	r0,#_seek_read
   08E6 79s00              2766 	mov	r1,#(_seek_read >> 8)
   08E8 7As00              2767 	mov	r2,#(_seek_read >> 16)
   08EA 12s00r00           2768 	lcall	__sdcc_banked_call
   08ED E5 81              2769 	mov	a,sp
   08EF 24 F9              2770 	add	a,#0xf9
   08F1 F5 81              2771 	mov	sp,a
   08F3 D0 01              2772 	pop	ar1
   08F5 D0 04              2773 	pop	ar4
   08F7 D0 05              2774 	pop	ar5
                           2775 ;	../../../contiki-sensinode//core/loader/elfloader.c:305: if(strcmp(name, "autostart_processes") == 0) {
   08F9 E5 81              2776 	mov	a,sp
   08FB 24 FB              2777 	add	a,#0xfb
   08FD F8                 2778 	mov	r0,a
   08FE 86 02              2779 	mov	ar2,@r0
   0900 7E 00              2780 	mov	r6,#0x00
   0902 7F 40              2781 	mov	r7,#0x40
   0904 C0 05              2782 	push	ar5
   0906 C0 04              2783 	push	ar4
   0908 C0 01              2784 	push	ar1
   090A 74r07              2785 	mov	a,#__str_0
   090C C0 E0              2786 	push	acc
   090E 74s00              2787 	mov	a,#(__str_0 >> 8)
   0910 C0 E0              2788 	push	acc
   0912 74 80              2789 	mov	a,#0x80
   0914 C0 E0              2790 	push	acc
   0916 8A 82              2791 	mov	dpl,r2
   0918 8E 83              2792 	mov	dph,r6
   091A 8F F0              2793 	mov	b,r7
   091C 78r00              2794 	mov	r0,#_strcmp
   091E 79s00              2795 	mov	r1,#(_strcmp >> 8)
   0920 7As00              2796 	mov	r2,#(_strcmp >> 16)
   0922 12s00r00           2797 	lcall	__sdcc_banked_call
   0925 AE 82              2798 	mov	r6,dpl
   0927 AF 83              2799 	mov	r7,dph
   0929 15 81              2800 	dec	sp
   092B 15 81              2801 	dec	sp
   092D 15 81              2802 	dec	sp
   092F D0 01              2803 	pop	ar1
   0931 D0 04              2804 	pop	ar4
   0933 D0 05              2805 	pop	ar5
   0935 D0 01              2806 	pop	ar1
   0937 EE                 2807 	mov	a,r6
   0938 4F                 2808 	orl	a,r7
   0939 70 3B              2809 	jnz	00107$
                           2810 ;	../../../contiki-sensinode//core/loader/elfloader.c:306: return &data.address[s.st_value];
   093B 90s00r2A           2811 	mov	dptr,#(_data + 0x0003)
   093E E5 81              2812 	mov	a,sp
   0940 24 FD              2813 	add	a,#0xfd
   0942 F8                 2814 	mov	r0,a
   0943 E0                 2815 	movx	a,@dptr
   0944 F6                 2816 	mov	@r0,a
   0945 A3                 2817 	inc	dptr
   0946 E0                 2818 	movx	a,@dptr
   0947 08                 2819 	inc	r0
   0948 F6                 2820 	mov	@r0,a
   0949 A3                 2821 	inc	dptr
   094A E0                 2822 	movx	a,@dptr
   094B 08                 2823 	inc	r0
   094C F6                 2824 	mov	@r0,a
   094D E5 81              2825 	mov	a,sp
   094F 24 C8              2826 	add	a,#0xC8
   0951 24 04              2827 	add	a,#0x04
   0953 F8                 2828 	mov	r0,a
   0954 86 02              2829 	mov	ar2,@r0
   0956 08                 2830 	inc	r0
   0957 86 03              2831 	mov	ar3,@r0
   0959 08                 2832 	inc	r0
   095A 86 06              2833 	mov	ar6,@r0
   095C 08                 2834 	inc	r0
   095D 86 07              2835 	mov	ar7,@r0
   095F E5 81              2836 	mov	a,sp
   0961 24 FD              2837 	add	a,#0xfd
   0963 F8                 2838 	mov	r0,a
   0964 EA                 2839 	mov	a,r2
   0965 26                 2840 	add	a,@r0
   0966 FA                 2841 	mov	r2,a
   0967 EB                 2842 	mov	a,r3
   0968 08                 2843 	inc	r0
   0969 36                 2844 	addc	a,@r0
   096A FB                 2845 	mov	r3,a
   096B 08                 2846 	inc	r0
   096C 86 06              2847 	mov	ar6,@r0
   096E 8A 82              2848 	mov	dpl,r2
   0970 8B 83              2849 	mov	dph,r3
   0972 8E F0              2850 	mov	b,r6
   0974 80 10              2851 	sjmp	00109$
   0976                    2852 00107$:
                           2853 ;	../../../contiki-sensinode//core/loader/elfloader.c:300: for(a = symtab; a < symtab + size; a += sizeof(s)) {
   0976 74 10              2854 	mov	a,#0x10
   0978 2C                 2855 	add	a,r4
   0979 FC                 2856 	mov	r4,a
   097A E4                 2857 	clr	a
   097B 3D                 2858 	addc	a,r5
   097C FD                 2859 	mov	r5,a
   097D 02s08r0E           2860 	ljmp	00105$
   0980                    2861 00108$:
                           2862 ;	../../../contiki-sensinode//core/loader/elfloader.c:310: return NULL;
   0980 90 00 00           2863 	mov	dptr,#0x0000
   0983 75 F0 00           2864 	mov	b,#0x00
   0986                    2865 00109$:
   0986 E5 81              2866 	mov	a,sp
   0988 24 C5              2867 	add	a,#0xC5
   098A F5 81              2868 	mov	sp,a
   098C 02s00r00           2869 	ljmp	__sdcc_banked_ret
                           2870 ;------------------------------------------------------------
                           2871 ;Allocation info for local variables in function 'elfloader_init'
                           2872 ;------------------------------------------------------------
                           2873 ;	../../../contiki-sensinode//core/loader/elfloader.c:315: elfloader_init(void)
                           2874 ;	-----------------------------------------
                           2875 ;	 function elfloader_init
                           2876 ;	-----------------------------------------
   098F                    2877 _elfloader_init:
                           2878 ;	../../../contiki-sensinode//core/loader/elfloader.c:317: elfloader_autostart_processes = NULL;
   098F 90s00r1E           2879 	mov	dptr,#_elfloader_autostart_processes
   0992 E4                 2880 	clr	a
   0993 F0                 2881 	movx	@dptr,a
   0994 A3                 2882 	inc	dptr
   0995 F0                 2883 	movx	@dptr,a
   0996 A3                 2884 	inc	dptr
   0997 F0                 2885 	movx	@dptr,a
   0998 02s00r00           2886 	ljmp	__sdcc_banked_ret
                           2887 ;------------------------------------------------------------
                           2888 ;Allocation info for local variables in function 'elfloader_load'
                           2889 ;------------------------------------------------------------
                           2890 ;fd                        Allocated to stack - sp -229
                           2891 ;ehdr                      Allocated to stack - sp -227
                           2892 ;shdr                      Allocated to stack - sp -175
                           2893 ;strtable                  Allocated to stack - sp -135
                           2894 ;strs                      Allocated to stack - sp -95
                           2895 ;shdrptr                   Allocated to stack - sp -93
                           2896 ;nameptr                   Allocated to registers r3 r4 
                           2897 ;name                      Allocated to stack - sp -91
                           2898 ;i                         Allocated to stack - sp -79
                           2899 ;shdrnum                   Allocated to stack - sp -77
                           2900 ;shdrsize                  Allocated to stack - sp -75
                           2901 ;using_relas               Allocated to stack - sp -73
                           2902 ;textoff                   Allocated to stack - sp -72
                           2903 ;textsize                  Allocated to stack - sp -70
                           2904 ;textrelaoff               Allocated to registers r2 r5 
                           2905 ;textrelasize              Allocated to stack - sp -38
                           2906 ;dataoff                   Allocated to stack - sp -68
                           2907 ;datasize                  Allocated to stack - sp -40
                           2908 ;datarelaoff               Allocated to stack - sp -58
                           2909 ;datarelasize              Allocated to stack - sp -42
                           2910 ;rodataoff                 Allocated to stack - sp -66
                           2911 ;rodatasize                Allocated to stack - sp -44
                           2912 ;rodatarelaoff             Allocated to stack - sp -56
                           2913 ;rodatarelasize            Allocated to stack - sp -52
                           2914 ;symtaboff                 Allocated to stack - sp -64
                           2915 ;symtabsize                Allocated to stack - sp -62
                           2916 ;strtaboff                 Allocated to stack - sp -60
                           2917 ;strtabsize                Allocated to stack - sp -48
                           2918 ;bsssize                   Allocated to stack - sp -54
                           2919 ;process                   Allocated to registers r5 r6 r7 
                           2920 ;ret                       Allocated to registers r6 r7 
                           2921 ;sloc0                     Allocated to stack - sp -58
                           2922 ;sloc1                     Allocated to stack - sp -56
                           2923 ;sloc2                     Allocated to stack - sp -54
                           2924 ;sloc3                     Allocated to stack - sp -52
                           2925 ;sloc4                     Allocated to stack - sp -49
                           2926 ;sloc5                     Allocated to stack - sp -48
                           2927 ;sloc6                     Allocated to stack - sp -44
                           2928 ;sloc7                     Allocated to stack - sp -42
                           2929 ;sloc8                     Allocated to stack - sp -40
                           2930 ;sloc9                     Allocated to stack - sp -38
                           2931 ;sloc10                    Allocated to stack - sp -9
                           2932 ;sloc11                    Allocated to stack - sp -36
                           2933 ;sloc12                    Allocated to stack - sp -35
                           2934 ;sloc13                    Allocated to stack - sp -34
                           2935 ;sloc14                    Allocated to stack - sp -33
                           2936 ;sloc15                    Allocated to stack - sp -32
                           2937 ;sloc16                    Allocated to stack - sp -31
                           2938 ;sloc17                    Allocated to stack - sp -30
                           2939 ;sloc18                    Allocated to stack - sp -29
                           2940 ;sloc19                    Allocated to stack - sp -28
                           2941 ;sloc20                    Allocated to stack - sp -27
                           2942 ;sloc21                    Allocated to stack - sp -26
                           2943 ;sloc22                    Allocated to stack - sp -25
                           2944 ;sloc23                    Allocated to stack - sp -24
                           2945 ;sloc24                    Allocated to stack - sp -23
                           2946 ;sloc25                    Allocated to stack - sp -22
                           2947 ;sloc26                    Allocated to stack - sp -21
                           2948 ;sloc27                    Allocated to stack - sp -20
                           2949 ;sloc28                    Allocated to stack - sp -19
                           2950 ;sloc29                    Allocated to stack - sp -18
                           2951 ;sloc30                    Allocated to stack - sp -17
                           2952 ;sloc31                    Allocated to stack - sp -16
                           2953 ;sloc32                    Allocated to stack - sp -15
                           2954 ;sloc33                    Allocated to stack - sp -14
                           2955 ;sloc34                    Allocated to stack - sp -13
                           2956 ;sloc35                    Allocated to stack - sp -12
                           2957 ;sloc36                    Allocated to stack - sp -11
                           2958 ;sloc37                    Allocated to stack - sp -10
                           2959 ;sloc38                    Allocated to stack - sp -9
                           2960 ;sloc39                    Allocated to stack - sp -8
                           2961 ;sloc40                    Allocated to stack - sp -7
                           2962 ;sloc41                    Allocated to stack - sp -6
                           2963 ;sloc42                    Allocated to stack - sp -5
                           2964 ;sloc43                    Allocated to stack - sp -4
                           2965 ;sloc44                    Allocated to stack - sp -3
                           2966 ;------------------------------------------------------------
                           2967 ;	../../../contiki-sensinode//core/loader/elfloader.c:337: elfloader_load(int fd)
                           2968 ;	-----------------------------------------
                           2969 ;	 function elfloader_load
                           2970 ;	-----------------------------------------
   099B                    2971 _elfloader_load:
   099B C0 82              2972 	push	dpl
   099D C0 83              2973 	push	dph
   099F E5 81              2974 	mov	a,sp
   09A1 24 E4              2975 	add	a,#0xE4
                           2976 ;	../../../contiki-sensinode//core/loader/elfloader.c:350: unsigned char using_relas = -1;
   09A3 F5 81              2977 	mov	sp,a
   09A5 24 B7              2978 	add	a,#0xb7
   09A7 F8                 2979 	mov	r0,a
   09A8 76 FF              2980 	mov	@r0,#0xFF
                           2981 ;	../../../contiki-sensinode//core/loader/elfloader.c:351: unsigned short textoff = 0, textsize, textrelaoff = 0, textrelasize;
   09AA E5 81              2982 	mov	a,sp
   09AC 24 B8              2983 	add	a,#0xb8
   09AE F8                 2984 	mov	r0,a
   09AF E4                 2985 	clr	a
   09B0 F6                 2986 	mov	@r0,a
   09B1 08                 2987 	inc	r0
   09B2 F6                 2988 	mov	@r0,a
                           2989 ;	../../../contiki-sensinode//core/loader/elfloader.c:352: unsigned short dataoff = 0, datasize, datarelaoff = 0, datarelasize;
   09B3 E4                 2990 	clr	a
   09B4 FA                 2991 	mov	r2,a
   09B5 FD                 2992 	mov	r5,a
   09B6 E5 81              2993 	mov	a,sp
   09B8 24 BC              2994 	add	a,#0xbc
   09BA F8                 2995 	mov	r0,a
   09BB E4                 2996 	clr	a
   09BC F6                 2997 	mov	@r0,a
   09BD 08                 2998 	inc	r0
   09BE F6                 2999 	mov	@r0,a
   09BF E5 81              3000 	mov	a,sp
   09C1 24 C6              3001 	add	a,#0xc6
   09C3 F8                 3002 	mov	r0,a
   09C4 E4                 3003 	clr	a
   09C5 F6                 3004 	mov	@r0,a
   09C6 08                 3005 	inc	r0
   09C7 F6                 3006 	mov	@r0,a
                           3007 ;	../../../contiki-sensinode//core/loader/elfloader.c:353: unsigned short rodataoff = 0, rodatasize, rodatarelaoff = 0, rodatarelasize;
   09C8 E5 81              3008 	mov	a,sp
   09CA 24 BE              3009 	add	a,#0xbe
   09CC F8                 3010 	mov	r0,a
   09CD E4                 3011 	clr	a
   09CE F6                 3012 	mov	@r0,a
   09CF 08                 3013 	inc	r0
   09D0 F6                 3014 	mov	@r0,a
   09D1 E5 81              3015 	mov	a,sp
   09D3 24 C8              3016 	add	a,#0xc8
   09D5 F8                 3017 	mov	r0,a
   09D6 E4                 3018 	clr	a
   09D7 F6                 3019 	mov	@r0,a
   09D8 08                 3020 	inc	r0
   09D9 F6                 3021 	mov	@r0,a
                           3022 ;	../../../contiki-sensinode//core/loader/elfloader.c:354: unsigned short symtaboff = 0, symtabsize;
   09DA E5 81              3023 	mov	a,sp
   09DC 24 C0              3024 	add	a,#0xc0
   09DE F8                 3025 	mov	r0,a
   09DF E4                 3026 	clr	a
   09E0 F6                 3027 	mov	@r0,a
   09E1 08                 3028 	inc	r0
   09E2 F6                 3029 	mov	@r0,a
                           3030 ;	../../../contiki-sensinode//core/loader/elfloader.c:355: unsigned short strtaboff = 0, strtabsize;
   09E3 E5 81              3031 	mov	a,sp
   09E5 24 C4              3032 	add	a,#0xc4
   09E7 F8                 3033 	mov	r0,a
   09E8 E4                 3034 	clr	a
   09E9 F6                 3035 	mov	@r0,a
   09EA 08                 3036 	inc	r0
   09EB F6                 3037 	mov	@r0,a
                           3038 ;	../../../contiki-sensinode//core/loader/elfloader.c:356: unsigned short bsssize = 0;
   09EC E5 81              3039 	mov	a,sp
   09EE 24 CA              3040 	add	a,#0xca
   09F0 F8                 3041 	mov	r0,a
   09F1 E4                 3042 	clr	a
   09F2 F6                 3043 	mov	@r0,a
   09F3 08                 3044 	inc	r0
   09F4 F6                 3045 	mov	@r0,a
                           3046 ;	../../../contiki-sensinode//core/loader/elfloader.c:361: elfloader_unknown[0] = 0;
   09F5 90s00r00           3047 	mov	dptr,#_elfloader_unknown
   09F8 E4                 3048 	clr	a
   09F9 F0                 3049 	movx	@dptr,a
                           3050 ;	../../../contiki-sensinode//core/loader/elfloader.c:364: seek_read(fd, 0, (char *)&ehdr, sizeof(ehdr));
   09FA E5 81              3051 	mov	a,sp
   09FC 24 1D              3052 	add	a,#0x1D
   09FE FB                 3053 	mov	r3,a
   09FF 7C 00              3054 	mov	r4,#0x00
   0A01 7F 40              3055 	mov	r7,#0x40
   0A03 C0 05              3056 	push	ar5
   0A05 C0 02              3057 	push	ar2
   0A07 74 34              3058 	mov	a,#0x34
   0A09 C0 E0              3059 	push	acc
   0A0B E4                 3060 	clr	a
   0A0C C0 E0              3061 	push	acc
   0A0E C0 03              3062 	push	ar3
   0A10 C0 04              3063 	push	ar4
   0A12 C0 07              3064 	push	ar7
   0A14 E4                 3065 	clr	a
   0A15 C0 E0              3066 	push	acc
   0A17 C0 E0              3067 	push	acc
   0A19 E5 81              3068 	mov	a,sp
   0A1B 24 12              3069 	add	a,#0x12
   0A1D F8                 3070 	mov	r0,a
   0A1E 86 82              3071 	mov	dpl,@r0
   0A20 08                 3072 	inc	r0
   0A21 86 83              3073 	mov	dph,@r0
   0A23 78r00              3074 	mov	r0,#_seek_read
   0A25 79s00              3075 	mov	r1,#(_seek_read >> 8)
   0A27 7As00              3076 	mov	r2,#(_seek_read >> 16)
   0A29 12s00r00           3077 	lcall	__sdcc_banked_call
   0A2C E5 81              3078 	mov	a,sp
   0A2E 24 F9              3079 	add	a,#0xf9
   0A30 F5 81              3080 	mov	sp,a
   0A32 D0 02              3081 	pop	ar2
   0A34 D0 05              3082 	pop	ar5
                           3083 ;	../../../contiki-sensinode//core/loader/elfloader.c:369: if(memcmp(ehdr.e_ident, elf_magic_header, sizeof(elf_magic_header)) != 0) {
   0A36 E5 81              3084 	mov	a,sp
   0A38 24 1D              3085 	add	a,#0x1D
   0A3A FF                 3086 	mov	r7,a
   0A3B 7E 00              3087 	mov	r6,#0x00
   0A3D 7C 40              3088 	mov	r4,#0x40
   0A3F C0 05              3089 	push	ar5
   0A41 C0 02              3090 	push	ar2
   0A43 74 07              3091 	mov	a,#0x07
   0A45 C0 E0              3092 	push	acc
   0A47 E4                 3093 	clr	a
   0A48 C0 E0              3094 	push	acc
   0A4A 74r00              3095 	mov	a,#_elf_magic_header
   0A4C C0 E0              3096 	push	acc
   0A4E 74s00              3097 	mov	a,#(_elf_magic_header >> 8)
   0A50 C0 E0              3098 	push	acc
   0A52 74 80              3099 	mov	a,#0x80
   0A54 C0 E0              3100 	push	acc
   0A56 8F 82              3101 	mov	dpl,r7
   0A58 8E 83              3102 	mov	dph,r6
   0A5A 8C F0              3103 	mov	b,r4
   0A5C 78r00              3104 	mov	r0,#_memcmp
   0A5E 79s00              3105 	mov	r1,#(_memcmp >> 8)
   0A60 7As00              3106 	mov	r2,#(_memcmp >> 16)
   0A62 12s00r00           3107 	lcall	__sdcc_banked_call
   0A65 AE 82              3108 	mov	r6,dpl
   0A67 AF 83              3109 	mov	r7,dph
   0A69 E5 81              3110 	mov	a,sp
   0A6B 24 FB              3111 	add	a,#0xfb
   0A6D F5 81              3112 	mov	sp,a
   0A6F D0 02              3113 	pop	ar2
   0A71 D0 05              3114 	pop	ar5
   0A73 EE                 3115 	mov	a,r6
   0A74 4F                 3116 	orl	a,r7
   0A75 60 06              3117 	jz	00104$
                           3118 ;	../../../contiki-sensinode//core/loader/elfloader.c:371: return ELFLOADER_BAD_ELF_HEADER;
   0A77 90 00 01           3119 	mov	dptr,#0x0001
   0A7A 02s1Ar32           3120 	ljmp	00207$
   0A7D                    3121 00104$:
                           3122 ;	../../../contiki-sensinode//core/loader/elfloader.c:375: shdrptr = ehdr.e_shoff;
   0A7D C0 02              3123 	push	ar2
   0A7F C0 05              3124 	push	ar5
   0A81 E5 81              3125 	mov	a,sp
   0A83 24 1B              3126 	add	a,#0x1B
   0A85 24 20              3127 	add	a,#0x20
   0A87 F9                 3128 	mov	r1,a
   0A88 87 03              3129 	mov	ar3,@r1
   0A8A 09                 3130 	inc	r1
   0A8B 87 04              3131 	mov	ar4,@r1
   0A8D 09                 3132 	inc	r1
   0A8E 87 06              3133 	mov	ar6,@r1
   0A90 09                 3134 	inc	r1
   0A91 87 07              3135 	mov	ar7,@r1
   0A93 E5 81              3136 	mov	a,sp
   0A95 24 A1              3137 	add	a,#0xa1
   0A97 F8                 3138 	mov	r0,a
   0A98 A6 03              3139 	mov	@r0,ar3
   0A9A 08                 3140 	inc	r0
   0A9B A6 04              3141 	mov	@r0,ar4
                           3142 ;	../../../contiki-sensinode//core/loader/elfloader.c:376: seek_read(fd, shdrptr, (char *)&shdr, sizeof(shdr));
   0A9D E5 81              3143 	mov	a,sp
   0A9F 24 4F              3144 	add	a,#0x4F
   0AA1 FD                 3145 	mov	r5,a
   0AA2 7E 00              3146 	mov	r6,#0x00
   0AA4 7F 40              3147 	mov	r7,#0x40
   0AA6 C0 05              3148 	push	ar5
   0AA8 C0 02              3149 	push	ar2
   0AAA 74 28              3150 	mov	a,#0x28
   0AAC C0 E0              3151 	push	acc
   0AAE E4                 3152 	clr	a
   0AAF C0 E0              3153 	push	acc
   0AB1 C0 05              3154 	push	ar5
   0AB3 C0 06              3155 	push	ar6
   0AB5 C0 07              3156 	push	ar7
   0AB7 E5 81              3157 	mov	a,sp
   0AB9 24 9A              3158 	add	a,#0x9a
   0ABB F8                 3159 	mov	r0,a
   0ABC E6                 3160 	mov	a,@r0
   0ABD C0 E0              3161 	push	acc
   0ABF 08                 3162 	inc	r0
   0AC0 E6                 3163 	mov	a,@r0
   0AC1 C0 E0              3164 	push	acc
   0AC3 E5 81              3165 	mov	a,sp
   0AC5 24 10              3166 	add	a,#0x10
   0AC7 F8                 3167 	mov	r0,a
   0AC8 86 82              3168 	mov	dpl,@r0
   0ACA 08                 3169 	inc	r0
   0ACB 86 83              3170 	mov	dph,@r0
   0ACD 78r00              3171 	mov	r0,#_seek_read
   0ACF 79s00              3172 	mov	r1,#(_seek_read >> 8)
   0AD1 7As00              3173 	mov	r2,#(_seek_read >> 16)
   0AD3 12s00r00           3174 	lcall	__sdcc_banked_call
   0AD6 E5 81              3175 	mov	a,sp
   0AD8 24 F9              3176 	add	a,#0xf9
   0ADA F5 81              3177 	mov	sp,a
   0ADC D0 02              3178 	pop	ar2
   0ADE D0 05              3179 	pop	ar5
                           3180 ;	../../../contiki-sensinode//core/loader/elfloader.c:379: shdrsize = ehdr.e_shentsize;
   0AE0 E5 81              3181 	mov	a,sp
   0AE2 24 1B              3182 	add	a,#0x1B
   0AE4 FF                 3183 	mov	r7,a
   0AE5 24 2E              3184 	add	a,#0x2E
   0AE7 F9                 3185 	mov	r1,a
   0AE8 87 05              3186 	mov	ar5,@r1
   0AEA 09                 3187 	inc	r1
   0AEB 87 06              3188 	mov	ar6,@r1
   0AED E5 81              3189 	mov	a,sp
   0AEF 24 B3              3190 	add	a,#0xb3
   0AF1 F8                 3191 	mov	r0,a
   0AF2 A6 05              3192 	mov	@r0,ar5
   0AF4 08                 3193 	inc	r0
   0AF5 A6 06              3194 	mov	@r0,ar6
                           3195 ;	../../../contiki-sensinode//core/loader/elfloader.c:380: shdrnum = ehdr.e_shnum;
   0AF7 74 30              3196 	mov	a,#0x30
   0AF9 2F                 3197 	add	a,r7
   0AFA F9                 3198 	mov	r1,a
   0AFB 87 05              3199 	mov	ar5,@r1
   0AFD 09                 3200 	inc	r1
   0AFE 87 06              3201 	mov	ar6,@r1
   0B00 E5 81              3202 	mov	a,sp
   0B02 24 B1              3203 	add	a,#0xb1
   0B04 F8                 3204 	mov	r0,a
   0B05 A6 05              3205 	mov	@r0,ar5
   0B07 08                 3206 	inc	r0
   0B08 A6 06              3207 	mov	@r0,ar6
                           3208 ;	../../../contiki-sensinode//core/loader/elfloader.c:386: (char *)&strtable, sizeof(strtable));
   0B0A E5 81              3209 	mov	a,sp
   0B0C 24 77              3210 	add	a,#0x77
   0B0E FE                 3211 	mov	r6,a
   0B0F E5 81              3212 	mov	a,sp
   0B11 24 CA              3213 	add	a,#0xca
   0B13 F8                 3214 	mov	r0,a
   0B14 A6 06              3215 	mov	@r0,ar6
   0B16 08                 3216 	inc	r0
   0B17 76 00              3217 	mov	@r0,#0x00
   0B19 08                 3218 	inc	r0
   0B1A 76 40              3219 	mov	@r0,#0x40
                           3220 ;	../../../contiki-sensinode//core/loader/elfloader.c:385: seek_read(fd, ehdr.e_shoff + shdrsize * ehdr.e_shstrndx,
   0B1C 74 20              3221 	mov	a,#0x20
   0B1E 2F                 3222 	add	a,r7
   0B1F F9                 3223 	mov	r1,a
   0B20 E5 81              3224 	mov	a,sp
   0B22 24 CE              3225 	add	a,#0xce
   0B24 F8                 3226 	mov	r0,a
   0B25 E7                 3227 	mov	a,@r1
   0B26 F6                 3228 	mov	@r0,a
   0B27 09                 3229 	inc	r1
   0B28 E7                 3230 	mov	a,@r1
   0B29 08                 3231 	inc	r0
   0B2A F6                 3232 	mov	@r0,a
   0B2B 09                 3233 	inc	r1
   0B2C E7                 3234 	mov	a,@r1
   0B2D 08                 3235 	inc	r0
   0B2E F6                 3236 	mov	@r0,a
   0B2F 09                 3237 	inc	r1
   0B30 E7                 3238 	mov	a,@r1
   0B31 08                 3239 	inc	r0
   0B32 F6                 3240 	mov	@r0,a
   0B33 74 32              3241 	mov	a,#0x32
   0B35 2F                 3242 	add	a,r7
   0B36 F9                 3243 	mov	r1,a
   0B37 87 06              3244 	mov	ar6,@r1
   0B39 09                 3245 	inc	r1
   0B3A 87 07              3246 	mov	ar7,@r1
   0B3C C0 05              3247 	push	ar5
   0B3E C0 02              3248 	push	ar2
   0B40 C0 06              3249 	push	ar6
   0B42 C0 07              3250 	push	ar7
   0B44 E5 81              3251 	mov	a,sp
   0B46 24 AF              3252 	add	a,#0xaf
   0B48 F8                 3253 	mov	r0,a
   0B49 86 82              3254 	mov	dpl,@r0
   0B4B 08                 3255 	inc	r0
   0B4C 86 83              3256 	mov	dph,@r0
   0B4E 12s00r00           3257 	lcall	__mulint
   0B51 AE 82              3258 	mov	r6,dpl
   0B53 AF 83              3259 	mov	r7,dph
   0B55 15 81              3260 	dec	sp
   0B57 15 81              3261 	dec	sp
   0B59 D0 02              3262 	pop	ar2
   0B5B D0 05              3263 	pop	ar5
   0B5D E4                 3264 	clr	a
   0B5E FD                 3265 	mov	r5,a
   0B5F FA                 3266 	mov	r2,a
   0B60 E5 81              3267 	mov	a,sp
   0B62 24 CE              3268 	add	a,#0xce
   0B64 F8                 3269 	mov	r0,a
   0B65 EE                 3270 	mov	a,r6
   0B66 26                 3271 	add	a,@r0
   0B67 FE                 3272 	mov	r6,a
   0B68 EF                 3273 	mov	a,r7
   0B69 08                 3274 	inc	r0
   0B6A 36                 3275 	addc	a,@r0
   0B6B FF                 3276 	mov	r7,a
   0B6C ED                 3277 	mov	a,r5
   0B6D 08                 3278 	inc	r0
   0B6E 36                 3279 	addc	a,@r0
   0B6F FD                 3280 	mov	r5,a
   0B70 EA                 3281 	mov	a,r2
   0B71 08                 3282 	inc	r0
   0B72 36                 3283 	addc	a,@r0
   0B73 FA                 3284 	mov	r2,a
   0B74 C0 05              3285 	push	ar5
   0B76 C0 02              3286 	push	ar2
   0B78 74 28              3287 	mov	a,#0x28
   0B7A C0 E0              3288 	push	acc
   0B7C E4                 3289 	clr	a
   0B7D C0 E0              3290 	push	acc
   0B7F E5 81              3291 	mov	a,sp
   0B81 24 C6              3292 	add	a,#0xc6
   0B83 F8                 3293 	mov	r0,a
   0B84 E6                 3294 	mov	a,@r0
   0B85 C0 E0              3295 	push	acc
   0B87 08                 3296 	inc	r0
   0B88 E6                 3297 	mov	a,@r0
   0B89 C0 E0              3298 	push	acc
   0B8B 08                 3299 	inc	r0
   0B8C E6                 3300 	mov	a,@r0
   0B8D C0 E0              3301 	push	acc
   0B8F C0 06              3302 	push	ar6
   0B91 C0 07              3303 	push	ar7
   0B93 E5 81              3304 	mov	a,sp
   0B95 24 10              3305 	add	a,#0x10
   0B97 F8                 3306 	mov	r0,a
   0B98 86 82              3307 	mov	dpl,@r0
   0B9A 08                 3308 	inc	r0
   0B9B 86 83              3309 	mov	dph,@r0
   0B9D 78r00              3310 	mov	r0,#_seek_read
   0B9F 79s00              3311 	mov	r1,#(_seek_read >> 8)
   0BA1 7As00              3312 	mov	r2,#(_seek_read >> 16)
   0BA3 12s00r00           3313 	lcall	__sdcc_banked_call
   0BA6 E5 81              3314 	mov	a,sp
   0BA8 24 F9              3315 	add	a,#0xf9
   0BAA F5 81              3316 	mov	sp,a
   0BAC D0 02              3317 	pop	ar2
   0BAE D0 05              3318 	pop	ar5
                           3319 ;	../../../contiki-sensinode//core/loader/elfloader.c:391: strs = strtable.sh_offset;
   0BB0 E5 81              3320 	mov	a,sp
   0BB2 24 77              3321 	add	a,#0x77
   0BB4 24 10              3322 	add	a,#0x10
   0BB6 F9                 3323 	mov	r1,a
   0BB7 87 02              3324 	mov	ar2,@r1
   0BB9 09                 3325 	inc	r1
   0BBA 87 05              3326 	mov	ar5,@r1
   0BBC 09                 3327 	inc	r1
   0BBD 87 06              3328 	mov	ar6,@r1
   0BBF 09                 3329 	inc	r1
   0BC0 87 07              3330 	mov	ar7,@r1
   0BC2 E5 81              3331 	mov	a,sp
   0BC4 24 9F              3332 	add	a,#0x9f
   0BC6 F8                 3333 	mov	r0,a
   0BC7 A6 02              3334 	mov	@r0,ar2
   0BC9 08                 3335 	inc	r0
   0BCA A6 05              3336 	mov	@r0,ar5
                           3337 ;	../../../contiki-sensinode//core/loader/elfloader.c:414: rodatasize = rodatarelasize = symtabsize = strtabsize = 0;
   0BCC E5 81              3338 	mov	a,sp
   0BCE 24 CE              3339 	add	a,#0xce
   0BD0 F8                 3340 	mov	r0,a
   0BD1 E4                 3341 	clr	a
   0BD2 F6                 3342 	mov	@r0,a
   0BD3 08                 3343 	inc	r0
   0BD4 F6                 3344 	mov	@r0,a
   0BD5 E5 81              3345 	mov	a,sp
   0BD7 24 C0              3346 	add	a,#0xc0
   0BD9 F8                 3347 	mov	r0,a
   0BDA E4                 3348 	clr	a
   0BDB F6                 3349 	mov	@r0,a
   0BDC 08                 3350 	inc	r0
   0BDD F6                 3351 	mov	@r0,a
   0BDE E5 81              3352 	mov	a,sp
   0BE0 24 CA              3353 	add	a,#0xca
   0BE2 F8                 3354 	mov	r0,a
   0BE3 E4                 3355 	clr	a
   0BE4 F6                 3356 	mov	@r0,a
   0BE5 08                 3357 	inc	r0
   0BE6 F6                 3358 	mov	@r0,a
   0BE7 E5 81              3359 	mov	a,sp
   0BE9 24 D2              3360 	add	a,#0xd2
   0BEB F8                 3361 	mov	r0,a
   0BEC E4                 3362 	clr	a
   0BED F6                 3363 	mov	@r0,a
   0BEE 08                 3364 	inc	r0
   0BEF F6                 3365 	mov	@r0,a
   0BF0 E5 81              3366 	mov	a,sp
   0BF2 24 D4              3367 	add	a,#0xd4
   0BF4 F8                 3368 	mov	r0,a
   0BF5 E4                 3369 	clr	a
   0BF6 F6                 3370 	mov	@r0,a
   0BF7 08                 3371 	inc	r0
   0BF8 F6                 3372 	mov	@r0,a
   0BF9 E5 81              3373 	mov	a,sp
   0BFB 24 D6              3374 	add	a,#0xd6
   0BFD F8                 3375 	mov	r0,a
   0BFE E4                 3376 	clr	a
   0BFF F6                 3377 	mov	@r0,a
   0C00 08                 3378 	inc	r0
   0C01 F6                 3379 	mov	@r0,a
   0C02 E5 81              3380 	mov	a,sp
   0C04 24 D8              3381 	add	a,#0xd8
   0C06 F8                 3382 	mov	r0,a
   0C07 E4                 3383 	clr	a
   0C08 F6                 3384 	mov	@r0,a
   0C09 08                 3385 	inc	r0
   0C0A F6                 3386 	mov	@r0,a
   0C0B E5 81              3387 	mov	a,sp
   0C0D 24 B8              3388 	add	a,#0xb8
   0C0F F8                 3389 	mov	r0,a
   0C10 E4                 3390 	clr	a
   0C11 F6                 3391 	mov	@r0,a
   0C12 08                 3392 	inc	r0
   0C13 F6                 3393 	mov	@r0,a
                           3394 ;	../../../contiki-sensinode//core/loader/elfloader.c:416: bss.number = data.number = rodata.number = text.number = -1;
   0C14 90s00r33           3395 	mov	dptr,#_text
   0C17 74 FF              3396 	mov	a,#0xFF
   0C19 F0                 3397 	movx	@dptr,a
   0C1A 90s00r2D           3398 	mov	dptr,#_rodata
   0C1D 74 FF              3399 	mov	a,#0xFF
   0C1F F0                 3400 	movx	@dptr,a
   0C20 90s00r27           3401 	mov	dptr,#_data
   0C23 74 FF              3402 	mov	a,#0xFF
   0C25 F0                 3403 	movx	@dptr,a
   0C26 90s00r21           3404 	mov	dptr,#_bss
   0C29 74 FF              3405 	mov	a,#0xFF
   0C2B F0                 3406 	movx	@dptr,a
                           3407 ;	../../../contiki-sensinode//core/loader/elfloader.c:418: shdrptr = ehdr.e_shoff;
   0C2C E5 81              3408 	mov	a,sp
   0C2E 24 1B              3409 	add	a,#0x1B
   0C30 24 20              3410 	add	a,#0x20
   0C32 F9                 3411 	mov	r1,a
   0C33 87 02              3412 	mov	ar2,@r1
   0C35 09                 3413 	inc	r1
   0C36 87 05              3414 	mov	ar5,@r1
   0C38 09                 3415 	inc	r1
   0C39 87 06              3416 	mov	ar6,@r1
   0C3B 09                 3417 	inc	r1
   0C3C 87 07              3418 	mov	ar7,@r1
   0C3E E5 81              3419 	mov	a,sp
   0C40 24 A1              3420 	add	a,#0xa1
   0C42 F8                 3421 	mov	r0,a
   0C43 A6 02              3422 	mov	@r0,ar2
   0C45 08                 3423 	inc	r0
   0C46 A6 05              3424 	mov	@r0,ar5
                           3425 ;	../../../contiki-sensinode//core/loader/elfloader.c:419: for(i = 0; i < shdrnum; ++i) {
   0C48 E5 81              3426 	mov	a,sp
   0C4A 24 CD              3427 	add	a,#0xcd
   0C4C F8                 3428 	mov	r0,a
   0C4D E5 81              3429 	mov	a,sp
   0C4F 24 A3              3430 	add	a,#0xA3
   0C51 F6                 3431 	mov	@r0,a
   0C52 E5 81              3432 	mov	a,sp
   0C54 24 4F              3433 	add	a,#0x4F
   0C56 FF                 3434 	mov	r7,a
   0C57 24 04              3435 	add	a,#0x04
   0C59 F8                 3436 	mov	r0,a
   0C5A E5 81              3437 	mov	a,sp
   0C5C 24 CD              3438 	add	a,#0xcd
   0C5E F9                 3439 	mov	r1,a
   0C5F C0 00              3440 	push	ar0
   0C61 E5 81              3441 	mov	a,sp
   0C63 24 D9              3442 	add	a,#0xd9
   0C65 F8                 3443 	mov	r0,a
   0C66 E7                 3444 	mov	a,@r1
   0C67 F6                 3445 	mov	@r0,a
   0C68 D0 00              3446 	pop	ar0
   0C6A E5 81              3447 	mov	a,sp
   0C6C 24 CD              3448 	add	a,#0xcd
   0C6E F9                 3449 	mov	r1,a
   0C6F C0 00              3450 	push	ar0
   0C71 E5 81              3451 	mov	a,sp
   0C73 24 DA              3452 	add	a,#0xda
   0C75 F8                 3453 	mov	r0,a
   0C76 E7                 3454 	mov	a,@r1
   0C77 F6                 3455 	mov	@r0,a
   0C78 D0 00              3456 	pop	ar0
   0C7A E5 81              3457 	mov	a,sp
   0C7C 24 CD              3458 	add	a,#0xcd
   0C7E F9                 3459 	mov	r1,a
   0C7F C0 00              3460 	push	ar0
   0C81 E5 81              3461 	mov	a,sp
   0C83 24 DB              3462 	add	a,#0xdb
   0C85 F8                 3463 	mov	r0,a
   0C86 E7                 3464 	mov	a,@r1
   0C87 F6                 3465 	mov	@r0,a
   0C88 D0 00              3466 	pop	ar0
   0C8A E5 81              3467 	mov	a,sp
   0C8C 24 CD              3468 	add	a,#0xcd
   0C8E F9                 3469 	mov	r1,a
   0C8F C0 00              3470 	push	ar0
   0C91 E5 81              3471 	mov	a,sp
   0C93 24 DC              3472 	add	a,#0xdc
   0C95 F8                 3473 	mov	r0,a
   0C96 E7                 3474 	mov	a,@r1
   0C97 F6                 3475 	mov	@r0,a
   0C98 D0 00              3476 	pop	ar0
   0C9A E5 81              3477 	mov	a,sp
   0C9C 24 CD              3478 	add	a,#0xcd
   0C9E F9                 3479 	mov	r1,a
   0C9F C0 00              3480 	push	ar0
   0CA1 E5 81              3481 	mov	a,sp
   0CA3 24 DD              3482 	add	a,#0xdd
   0CA5 F8                 3483 	mov	r0,a
   0CA6 E7                 3484 	mov	a,@r1
   0CA7 F6                 3485 	mov	@r0,a
   0CA8 D0 00              3486 	pop	ar0
   0CAA E5 81              3487 	mov	a,sp
   0CAC 24 CD              3488 	add	a,#0xcd
   0CAE F9                 3489 	mov	r1,a
   0CAF C0 00              3490 	push	ar0
   0CB1 E5 81              3491 	mov	a,sp
   0CB3 24 DE              3492 	add	a,#0xde
   0CB5 F8                 3493 	mov	r0,a
   0CB6 E7                 3494 	mov	a,@r1
   0CB7 F6                 3495 	mov	@r0,a
   0CB8 D0 00              3496 	pop	ar0
   0CBA E5 81              3497 	mov	a,sp
   0CBC 24 CD              3498 	add	a,#0xcd
   0CBE F9                 3499 	mov	r1,a
   0CBF C0 00              3500 	push	ar0
   0CC1 E5 81              3501 	mov	a,sp
   0CC3 24 DF              3502 	add	a,#0xdf
   0CC5 F8                 3503 	mov	r0,a
   0CC6 E7                 3504 	mov	a,@r1
   0CC7 F6                 3505 	mov	@r0,a
   0CC8 D0 00              3506 	pop	ar0
   0CCA E5 81              3507 	mov	a,sp
   0CCC 24 CD              3508 	add	a,#0xcd
   0CCE F9                 3509 	mov	r1,a
   0CCF C0 00              3510 	push	ar0
   0CD1 E5 81              3511 	mov	a,sp
   0CD3 24 E0              3512 	add	a,#0xe0
   0CD5 F8                 3513 	mov	r0,a
   0CD6 E7                 3514 	mov	a,@r1
   0CD7 F6                 3515 	mov	@r0,a
   0CD8 D0 00              3516 	pop	ar0
   0CDA E5 81              3517 	mov	a,sp
   0CDC 24 CD              3518 	add	a,#0xcd
   0CDE F9                 3519 	mov	r1,a
   0CDF C0 00              3520 	push	ar0
   0CE1 E5 81              3521 	mov	a,sp
   0CE3 24 E1              3522 	add	a,#0xe1
   0CE5 F8                 3523 	mov	r0,a
   0CE6 E7                 3524 	mov	a,@r1
   0CE7 F6                 3525 	mov	@r0,a
   0CE8 D0 00              3526 	pop	ar0
   0CEA E5 81              3527 	mov	a,sp
   0CEC 24 E3              3528 	add	a,#0xe3
   0CEE F9                 3529 	mov	r1,a
   0CEF 74 14              3530 	mov	a,#0x14
   0CF1 2F                 3531 	add	a,r7
   0CF2 F7                 3532 	mov	@r1,a
   0CF3 E5 81              3533 	mov	a,sp
   0CF5 24 CD              3534 	add	a,#0xcd
   0CF7 F9                 3535 	mov	r1,a
   0CF8 C0 00              3536 	push	ar0
   0CFA E5 81              3537 	mov	a,sp
   0CFC 24 E3              3538 	add	a,#0xe3
   0CFE F8                 3539 	mov	r0,a
   0CFF E7                 3540 	mov	a,@r1
   0D00 F6                 3541 	mov	@r0,a
   0D01 D0 00              3542 	pop	ar0
   0D03 E5 81              3543 	mov	a,sp
   0D05 24 E5              3544 	add	a,#0xe5
   0D07 F9                 3545 	mov	r1,a
   0D08 74 10              3546 	mov	a,#0x10
   0D0A 2F                 3547 	add	a,r7
   0D0B F7                 3548 	mov	@r1,a
   0D0C E5 81              3549 	mov	a,sp
   0D0E 24 E3              3550 	add	a,#0xe3
   0D10 F9                 3551 	mov	r1,a
   0D11 C0 00              3552 	push	ar0
   0D13 E5 81              3553 	mov	a,sp
   0D15 24 E5              3554 	add	a,#0xe5
   0D17 F8                 3555 	mov	r0,a
   0D18 E7                 3556 	mov	a,@r1
   0D19 F6                 3557 	mov	@r0,a
   0D1A D0 00              3558 	pop	ar0
   0D1C E5 81              3559 	mov	a,sp
   0D1E 24 E5              3560 	add	a,#0xe5
   0D20 F9                 3561 	mov	r1,a
   0D21 C0 00              3562 	push	ar0
   0D23 E5 81              3563 	mov	a,sp
   0D25 24 E6              3564 	add	a,#0xe6
   0D27 F8                 3565 	mov	r0,a
   0D28 E7                 3566 	mov	a,@r1
   0D29 F6                 3567 	mov	@r0,a
   0D2A D0 00              3568 	pop	ar0
   0D2C E5 81              3569 	mov	a,sp
   0D2E 24 E3              3570 	add	a,#0xe3
   0D30 F9                 3571 	mov	r1,a
   0D31 C0 00              3572 	push	ar0
   0D33 E5 81              3573 	mov	a,sp
   0D35 24 E7              3574 	add	a,#0xe7
   0D37 F8                 3575 	mov	r0,a
   0D38 E7                 3576 	mov	a,@r1
   0D39 F6                 3577 	mov	@r0,a
   0D3A D0 00              3578 	pop	ar0
   0D3C E5 81              3579 	mov	a,sp
   0D3E 24 E5              3580 	add	a,#0xe5
   0D40 F9                 3581 	mov	r1,a
   0D41 C0 00              3582 	push	ar0
   0D43 E5 81              3583 	mov	a,sp
   0D45 24 E8              3584 	add	a,#0xe8
   0D47 F8                 3585 	mov	r0,a
   0D48 E7                 3586 	mov	a,@r1
   0D49 F6                 3587 	mov	@r0,a
   0D4A D0 00              3588 	pop	ar0
   0D4C E5 81              3589 	mov	a,sp
   0D4E 24 E3              3590 	add	a,#0xe3
   0D50 F9                 3591 	mov	r1,a
   0D51 C0 00              3592 	push	ar0
   0D53 E5 81              3593 	mov	a,sp
   0D55 24 E9              3594 	add	a,#0xe9
   0D57 F8                 3595 	mov	r0,a
   0D58 E7                 3596 	mov	a,@r1
   0D59 F6                 3597 	mov	@r0,a
   0D5A D0 00              3598 	pop	ar0
   0D5C E5 81              3599 	mov	a,sp
   0D5E 24 E5              3600 	add	a,#0xe5
   0D60 F9                 3601 	mov	r1,a
   0D61 C0 00              3602 	push	ar0
   0D63 E5 81              3603 	mov	a,sp
   0D65 24 EA              3604 	add	a,#0xea
   0D67 F8                 3605 	mov	r0,a
   0D68 E7                 3606 	mov	a,@r1
   0D69 F6                 3607 	mov	@r0,a
   0D6A D0 00              3608 	pop	ar0
   0D6C E5 81              3609 	mov	a,sp
   0D6E 24 E3              3610 	add	a,#0xe3
   0D70 F9                 3611 	mov	r1,a
   0D71 C0 00              3612 	push	ar0
   0D73 E5 81              3613 	mov	a,sp
   0D75 24 EB              3614 	add	a,#0xeb
   0D77 F8                 3615 	mov	r0,a
   0D78 E7                 3616 	mov	a,@r1
   0D79 F6                 3617 	mov	@r0,a
   0D7A D0 00              3618 	pop	ar0
   0D7C E5 81              3619 	mov	a,sp
   0D7E 24 E5              3620 	add	a,#0xe5
   0D80 F9                 3621 	mov	r1,a
   0D81 C0 00              3622 	push	ar0
   0D83 E5 81              3623 	mov	a,sp
   0D85 24 EC              3624 	add	a,#0xec
   0D87 F8                 3625 	mov	r0,a
   0D88 E7                 3626 	mov	a,@r1
   0D89 F6                 3627 	mov	@r0,a
   0D8A D0 00              3628 	pop	ar0
   0D8C E5 81              3629 	mov	a,sp
   0D8E 24 E3              3630 	add	a,#0xe3
   0D90 F9                 3631 	mov	r1,a
   0D91 C0 00              3632 	push	ar0
   0D93 E5 81              3633 	mov	a,sp
   0D95 24 ED              3634 	add	a,#0xed
   0D97 F8                 3635 	mov	r0,a
   0D98 E7                 3636 	mov	a,@r1
   0D99 F6                 3637 	mov	@r0,a
   0D9A D0 00              3638 	pop	ar0
   0D9C E5 81              3639 	mov	a,sp
   0D9E 24 E5              3640 	add	a,#0xe5
   0DA0 F9                 3641 	mov	r1,a
   0DA1 C0 00              3642 	push	ar0
   0DA3 E5 81              3643 	mov	a,sp
   0DA5 24 EE              3644 	add	a,#0xee
   0DA7 F8                 3645 	mov	r0,a
   0DA8 E7                 3646 	mov	a,@r1
   0DA9 F6                 3647 	mov	@r0,a
   0DAA D0 00              3648 	pop	ar0
   0DAC E5 81              3649 	mov	a,sp
   0DAE 24 E3              3650 	add	a,#0xe3
   0DB0 F9                 3651 	mov	r1,a
   0DB1 C0 00              3652 	push	ar0
   0DB3 E5 81              3653 	mov	a,sp
   0DB5 24 EF              3654 	add	a,#0xef
   0DB7 F8                 3655 	mov	r0,a
   0DB8 E7                 3656 	mov	a,@r1
   0DB9 F6                 3657 	mov	@r0,a
   0DBA D0 00              3658 	pop	ar0
   0DBC E5 81              3659 	mov	a,sp
   0DBE 24 E5              3660 	add	a,#0xe5
   0DC0 F9                 3661 	mov	r1,a
   0DC1 C0 00              3662 	push	ar0
   0DC3 E5 81              3663 	mov	a,sp
   0DC5 24 F0              3664 	add	a,#0xf0
   0DC7 F8                 3665 	mov	r0,a
   0DC8 E7                 3666 	mov	a,@r1
   0DC9 F6                 3667 	mov	@r0,a
   0DCA D0 00              3668 	pop	ar0
   0DCC E5 81              3669 	mov	a,sp
   0DCE 24 E3              3670 	add	a,#0xe3
   0DD0 F9                 3671 	mov	r1,a
   0DD1 C0 00              3672 	push	ar0
   0DD3 E5 81              3673 	mov	a,sp
   0DD5 24 F1              3674 	add	a,#0xf1
   0DD7 F8                 3675 	mov	r0,a
   0DD8 E7                 3676 	mov	a,@r1
   0DD9 F6                 3677 	mov	@r0,a
   0DDA D0 00              3678 	pop	ar0
   0DDC E5 81              3679 	mov	a,sp
   0DDE 24 E5              3680 	add	a,#0xe5
   0DE0 F9                 3681 	mov	r1,a
   0DE1 C0 00              3682 	push	ar0
   0DE3 E5 81              3683 	mov	a,sp
   0DE5 24 F2              3684 	add	a,#0xf2
   0DE7 F8                 3685 	mov	r0,a
   0DE8 E7                 3686 	mov	a,@r1
   0DE9 F6                 3687 	mov	@r0,a
   0DEA D0 00              3688 	pop	ar0
   0DEC E5 81              3689 	mov	a,sp
   0DEE 24 E3              3690 	add	a,#0xe3
   0DF0 F9                 3691 	mov	r1,a
   0DF1 C0 00              3692 	push	ar0
   0DF3 E5 81              3693 	mov	a,sp
   0DF5 24 F3              3694 	add	a,#0xf3
   0DF7 F8                 3695 	mov	r0,a
   0DF8 E7                 3696 	mov	a,@r1
   0DF9 F6                 3697 	mov	@r0,a
   0DFA D0 00              3698 	pop	ar0
   0DFC E5 81              3699 	mov	a,sp
   0DFE 24 E5              3700 	add	a,#0xe5
   0E00 F9                 3701 	mov	r1,a
   0E01 C0 00              3702 	push	ar0
   0E03 E5 81              3703 	mov	a,sp
   0E05 24 F4              3704 	add	a,#0xf4
   0E07 F8                 3705 	mov	r0,a
   0E08 E7                 3706 	mov	a,@r1
   0E09 F6                 3707 	mov	@r0,a
   0E0A D0 00              3708 	pop	ar0
   0E0C E5 81              3709 	mov	a,sp
   0E0E 24 E3              3710 	add	a,#0xe3
   0E10 F9                 3711 	mov	r1,a
   0E11 C0 00              3712 	push	ar0
   0E13 E5 81              3713 	mov	a,sp
   0E15 24 F5              3714 	add	a,#0xf5
   0E17 F8                 3715 	mov	r0,a
   0E18 E7                 3716 	mov	a,@r1
   0E19 F6                 3717 	mov	@r0,a
   0E1A D0 00              3718 	pop	ar0
   0E1C E5 81              3719 	mov	a,sp
   0E1E 24 E5              3720 	add	a,#0xe5
   0E20 F9                 3721 	mov	r1,a
   0E21 C0 00              3722 	push	ar0
   0E23 E5 81              3723 	mov	a,sp
   0E25 24 F6              3724 	add	a,#0xf6
   0E27 F8                 3725 	mov	r0,a
   0E28 E7                 3726 	mov	a,@r1
   0E29 F6                 3727 	mov	@r0,a
   0E2A D0 00              3728 	pop	ar0
   0E2C E5 81              3729 	mov	a,sp
   0E2E 24 E3              3730 	add	a,#0xe3
   0E30 F9                 3731 	mov	r1,a
   0E31 C0 00              3732 	push	ar0
   0E33 E5 81              3733 	mov	a,sp
   0E35 24 F7              3734 	add	a,#0xf7
   0E37 F8                 3735 	mov	r0,a
   0E38 E7                 3736 	mov	a,@r1
   0E39 F6                 3737 	mov	@r0,a
   0E3A D0 00              3738 	pop	ar0
   0E3C E5 81              3739 	mov	a,sp
   0E3E 24 E5              3740 	add	a,#0xe5
   0E40 F9                 3741 	mov	r1,a
   0E41 C0 00              3742 	push	ar0
   0E43 E5 81              3743 	mov	a,sp
   0E45 24 F8              3744 	add	a,#0xf8
   0E47 F8                 3745 	mov	r0,a
   0E48 E7                 3746 	mov	a,@r1
   0E49 F6                 3747 	mov	@r0,a
   0E4A D0 00              3748 	pop	ar0
   0E4C E5 81              3749 	mov	a,sp
   0E4E 24 E3              3750 	add	a,#0xe3
   0E50 F9                 3751 	mov	r1,a
   0E51 C0 00              3752 	push	ar0
   0E53 E5 81              3753 	mov	a,sp
   0E55 24 F9              3754 	add	a,#0xf9
   0E57 F8                 3755 	mov	r0,a
   0E58 E7                 3756 	mov	a,@r1
   0E59 F6                 3757 	mov	@r0,a
   0E5A D0 00              3758 	pop	ar0
   0E5C E5 81              3759 	mov	a,sp
   0E5E 24 AF              3760 	add	a,#0xaf
   0E60 F9                 3761 	mov	r1,a
   0E61 E4                 3762 	clr	a
   0E62 F7                 3763 	mov	@r1,a
   0E63 09                 3764 	inc	r1
   0E64 F7                 3765 	mov	@r1,a
                           3766 ;	../../../contiki-sensinode//core/loader/elfloader.c:585: return ELFLOADER_NO_STARTPOINT;
   0E65 D0 05              3767 	pop	ar5
   0E67 D0 02              3768 	pop	ar2
                           3769 ;	../../../contiki-sensinode//core/loader/elfloader.c:419: for(i = 0; i < shdrnum; ++i) {
   0E69                    3770 00203$:
   0E69 E5 81              3771 	mov	a,sp
   0E6B 24 B1              3772 	add	a,#0xb1
   0E6D F9                 3773 	mov	r1,a
   0E6E 87 06              3774 	mov	ar6,@r1
   0E70 09                 3775 	inc	r1
   0E71 87 07              3776 	mov	ar7,@r1
   0E73 E5 81              3777 	mov	a,sp
   0E75 24 B3              3778 	add	a,#0xb3
   0E77 F9                 3779 	mov	r1,a
   0E78 C3                 3780 	clr	c
   0E79 EE                 3781 	mov	a,r6
   0E7A 97                 3782 	subb	a,@r1
   0E7B EF                 3783 	mov	a,r7
   0E7C 09                 3784 	inc	r1
   0E7D 97                 3785 	subb	a,@r1
   0E7E 40 03              3786 	jc	00261$
   0E80 02s15rD1           3787 	ljmp	00206$
   0E83                    3788 00261$:
                           3789 ;	../../../contiki-sensinode//core/loader/elfloader.c:421: seek_read(fd, shdrptr, (char *)&shdr, sizeof(shdr));
   0E83 C0 02              3790 	push	ar2
   0E85 C0 05              3791 	push	ar5
   0E87 E5 81              3792 	mov	a,sp
   0E89 24 4F              3793 	add	a,#0x4F
   0E8B FD                 3794 	mov	r5,a
   0E8C 7E 00              3795 	mov	r6,#0x00
   0E8E 7F 40              3796 	mov	r7,#0x40
   0E90 C0 05              3797 	push	ar5
   0E92 C0 02              3798 	push	ar2
   0E94 C0 00              3799 	push	ar0
   0E96 74 28              3800 	mov	a,#0x28
   0E98 C0 E0              3801 	push	acc
   0E9A E4                 3802 	clr	a
   0E9B C0 E0              3803 	push	acc
   0E9D C0 05              3804 	push	ar5
   0E9F C0 06              3805 	push	ar6
   0EA1 C0 07              3806 	push	ar7
   0EA3 E5 81              3807 	mov	a,sp
   0EA5 24 99              3808 	add	a,#0x99
   0EA7 F9                 3809 	mov	r1,a
   0EA8 E7                 3810 	mov	a,@r1
   0EA9 C0 E0              3811 	push	acc
   0EAB 09                 3812 	inc	r1
   0EAC E7                 3813 	mov	a,@r1
   0EAD C0 E0              3814 	push	acc
   0EAF E5 81              3815 	mov	a,sp
   0EB1 24 0F              3816 	add	a,#0x0f
   0EB3 F9                 3817 	mov	r1,a
   0EB4 87 82              3818 	mov	dpl,@r1
   0EB6 09                 3819 	inc	r1
   0EB7 87 83              3820 	mov	dph,@r1
   0EB9 78r00              3821 	mov	r0,#_seek_read
   0EBB 79s00              3822 	mov	r1,#(_seek_read >> 8)
   0EBD 7As00              3823 	mov	r2,#(_seek_read >> 16)
   0EBF 12s00r00           3824 	lcall	__sdcc_banked_call
   0EC2 E5 81              3825 	mov	a,sp
   0EC4 24 F9              3826 	add	a,#0xf9
   0EC6 F5 81              3827 	mov	sp,a
   0EC8 D0 00              3828 	pop	ar0
   0ECA D0 02              3829 	pop	ar2
   0ECC D0 05              3830 	pop	ar5
                           3831 ;	../../../contiki-sensinode//core/loader/elfloader.c:424: nameptr = strs + shdr.sh_name;
   0ECE E5 81              3832 	mov	a,sp
   0ED0 24 4F              3833 	add	a,#0x4F
   0ED2 F9                 3834 	mov	r1,a
   0ED3 C0 00              3835 	push	ar0
   0ED5 E5 81              3836 	mov	a,sp
   0ED7 24 FA              3837 	add	a,#0xfa
   0ED9 F8                 3838 	mov	r0,a
   0EDA E7                 3839 	mov	a,@r1
   0EDB F6                 3840 	mov	@r0,a
   0EDC 09                 3841 	inc	r1
   0EDD E7                 3842 	mov	a,@r1
   0EDE 08                 3843 	inc	r0
   0EDF F6                 3844 	mov	@r0,a
   0EE0 09                 3845 	inc	r1
   0EE1 E7                 3846 	mov	a,@r1
   0EE2 08                 3847 	inc	r0
   0EE3 F6                 3848 	mov	@r0,a
   0EE4 09                 3849 	inc	r1
   0EE5 E7                 3850 	mov	a,@r1
   0EE6 08                 3851 	inc	r0
   0EE7 F6                 3852 	mov	@r0,a
   0EE8 19                 3853 	dec	r1
   0EE9 19                 3854 	dec	r1
   0EEA 19                 3855 	dec	r1
   0EEB D0 00              3856 	pop	ar0
   0EED E5 81              3857 	mov	a,sp
   0EEF 24 9F              3858 	add	a,#0x9f
   0EF1 F9                 3859 	mov	r1,a
   0EF2 87 03              3860 	mov	ar3,@r1
   0EF4 09                 3861 	inc	r1
   0EF5 87 04              3862 	mov	ar4,@r1
   0EF7 E4                 3863 	clr	a
   0EF8 FE                 3864 	mov	r6,a
   0EF9 FF                 3865 	mov	r7,a
   0EFA E5 81              3866 	mov	a,sp
   0EFC 24 FB              3867 	add	a,#0xfb
   0EFE F9                 3868 	mov	r1,a
   0EFF E7                 3869 	mov	a,@r1
   0F00 2B                 3870 	add	a,r3
   0F01 FB                 3871 	mov	r3,a
   0F02 09                 3872 	inc	r1
   0F03 E7                 3873 	mov	a,@r1
   0F04 3C                 3874 	addc	a,r4
   0F05 FC                 3875 	mov	r4,a
   0F06 09                 3876 	inc	r1
   0F07 E7                 3877 	mov	a,@r1
   0F08 3E                 3878 	addc	a,r6
   0F09 09                 3879 	inc	r1
   0F0A E7                 3880 	mov	a,@r1
   0F0B 3F                 3881 	addc	a,r7
                           3882 ;	../../../contiki-sensinode//core/loader/elfloader.c:425: seek_read(fd, nameptr, name, sizeof(name));
   0F0C E5 81              3883 	mov	a,sp
   0F0E 24 CD              3884 	add	a,#0xcd
   0F10 F9                 3885 	mov	r1,a
   0F11 87 05              3886 	mov	ar5,@r1
   0F13 7E 00              3887 	mov	r6,#0x00
   0F15 7F 40              3888 	mov	r7,#0x40
   0F17 C0 05              3889 	push	ar5
   0F19 C0 02              3890 	push	ar2
   0F1B C0 00              3891 	push	ar0
   0F1D 74 0C              3892 	mov	a,#0x0C
   0F1F C0 E0              3893 	push	acc
   0F21 E4                 3894 	clr	a
   0F22 C0 E0              3895 	push	acc
   0F24 C0 05              3896 	push	ar5
   0F26 C0 06              3897 	push	ar6
   0F28 C0 07              3898 	push	ar7
   0F2A C0 03              3899 	push	ar3
   0F2C C0 04              3900 	push	ar4
   0F2E E5 81              3901 	mov	a,sp
   0F30 24 0F              3902 	add	a,#0x0f
   0F32 F9                 3903 	mov	r1,a
   0F33 87 82              3904 	mov	dpl,@r1
   0F35 09                 3905 	inc	r1
   0F36 87 83              3906 	mov	dph,@r1
   0F38 78r00              3907 	mov	r0,#_seek_read
   0F3A 79s00              3908 	mov	r1,#(_seek_read >> 8)
   0F3C 7As00              3909 	mov	r2,#(_seek_read >> 16)
   0F3E 12s00r00           3910 	lcall	__sdcc_banked_call
   0F41 E5 81              3911 	mov	a,sp
   0F43 24 F9              3912 	add	a,#0xf9
   0F45 F5 81              3913 	mov	sp,a
   0F47 D0 00              3914 	pop	ar0
   0F49 D0 02              3915 	pop	ar2
   0F4B D0 05              3916 	pop	ar5
                           3917 ;	../../../contiki-sensinode//core/loader/elfloader.c:435: if(shdr.sh_type == SHT_SYMTAB/*strncmp(name, ".symtab", 7) == 0*/) {
   0F4D 86 07              3918 	mov	ar7,@r0
   0F4F 08                 3919 	inc	r0
   0F50 86 06              3920 	mov	ar6,@r0
   0F52 08                 3921 	inc	r0
   0F53 86 04              3922 	mov	ar4,@r0
   0F55 08                 3923 	inc	r0
   0F56 86 03              3924 	mov	ar3,@r0
   0F58 18                 3925 	dec	r0
   0F59 18                 3926 	dec	r0
   0F5A 18                 3927 	dec	r0
   0F5B BF 02 0B           3928 	cjne	r7,#0x02,00262$
   0F5E BE 00 08           3929 	cjne	r6,#0x00,00262$
   0F61 BC 00 05           3930 	cjne	r4,#0x00,00262$
   0F64 BB 00 02           3931 	cjne	r3,#0x00,00262$
   0F67 80 06              3932 	sjmp	00263$
   0F69                    3933 00262$:
   0F69 D0 05              3934 	pop	ar5
   0F6B D0 02              3935 	pop	ar2
   0F6D 80 45              3936 	sjmp	00148$
   0F6F                    3937 00263$:
   0F6F D0 05              3938 	pop	ar5
   0F71 D0 02              3939 	pop	ar2
                           3940 ;	../../../contiki-sensinode//core/loader/elfloader.c:437: symtaboff = shdr.sh_offset;
   0F73 E5 81              3941 	mov	a,sp
   0F75 24 FB              3942 	add	a,#0xfb
   0F77 F9                 3943 	mov	r1,a
   0F78 87 01              3944 	mov	ar1,@r1
   0F7A 87 03              3945 	mov	ar3,@r1
   0F7C 09                 3946 	inc	r1
   0F7D 87 04              3947 	mov	ar4,@r1
   0F7F 09                 3948 	inc	r1
   0F80 87 06              3949 	mov	ar6,@r1
   0F82 09                 3950 	inc	r1
   0F83 87 07              3951 	mov	ar7,@r1
   0F85 19                 3952 	dec	r1
   0F86 19                 3953 	dec	r1
   0F87 19                 3954 	dec	r1
   0F88 E5 81              3955 	mov	a,sp
   0F8A 24 C0              3956 	add	a,#0xc0
   0F8C F9                 3957 	mov	r1,a
   0F8D A7 03              3958 	mov	@r1,ar3
   0F8F 09                 3959 	inc	r1
   0F90 A7 04              3960 	mov	@r1,ar4
                           3961 ;	../../../contiki-sensinode//core/loader/elfloader.c:438: symtabsize = shdr.sh_size;
   0F92 E5 81              3962 	mov	a,sp
   0F94 24 FC              3963 	add	a,#0xfc
   0F96 F9                 3964 	mov	r1,a
   0F97 87 01              3965 	mov	ar1,@r1
   0F99 87 03              3966 	mov	ar3,@r1
   0F9B 09                 3967 	inc	r1
   0F9C 87 04              3968 	mov	ar4,@r1
   0F9E 09                 3969 	inc	r1
   0F9F 87 06              3970 	mov	ar6,@r1
   0FA1 09                 3971 	inc	r1
   0FA2 87 07              3972 	mov	ar7,@r1
   0FA4 19                 3973 	dec	r1
   0FA5 19                 3974 	dec	r1
   0FA6 19                 3975 	dec	r1
   0FA7 E5 81              3976 	mov	a,sp
   0FA9 24 C2              3977 	add	a,#0xc2
   0FAB F9                 3978 	mov	r1,a
   0FAC A7 03              3979 	mov	@r1,ar3
   0FAE 09                 3980 	inc	r1
   0FAF A7 04              3981 	mov	@r1,ar4
   0FB1 02s15rAD           3982 	ljmp	00149$
   0FB4                    3983 00148$:
                           3984 ;	../../../contiki-sensinode//core/loader/elfloader.c:439: } else if(shdr.sh_type == SHT_STRTAB/*strncmp(name, ".strtab", 7) == 0*/) {
   0FB4 BF 03 4A           3985 	cjne	r7,#0x03,00145$
   0FB7 BE 00 47           3986 	cjne	r6,#0x00,00145$
   0FBA BC 00 44           3987 	cjne	r4,#0x00,00145$
   0FBD BB 00 41           3988 	cjne	r3,#0x00,00145$
                           3989 ;	../../../contiki-sensinode//core/loader/elfloader.c:441: strtaboff = shdr.sh_offset;
   0FC0 E5 81              3990 	mov	a,sp
   0FC2 24 F9              3991 	add	a,#0xf9
   0FC4 F9                 3992 	mov	r1,a
   0FC5 87 01              3993 	mov	ar1,@r1
   0FC7 87 03              3994 	mov	ar3,@r1
   0FC9 09                 3995 	inc	r1
   0FCA 87 04              3996 	mov	ar4,@r1
   0FCC 09                 3997 	inc	r1
   0FCD 87 06              3998 	mov	ar6,@r1
   0FCF 09                 3999 	inc	r1
   0FD0 87 07              4000 	mov	ar7,@r1
   0FD2 19                 4001 	dec	r1
   0FD3 19                 4002 	dec	r1
   0FD4 19                 4003 	dec	r1
   0FD5 E5 81              4004 	mov	a,sp
   0FD7 24 C4              4005 	add	a,#0xc4
   0FD9 F9                 4006 	mov	r1,a
   0FDA A7 03              4007 	mov	@r1,ar3
   0FDC 09                 4008 	inc	r1
   0FDD A7 04              4009 	mov	@r1,ar4
                           4010 ;	../../../contiki-sensinode//core/loader/elfloader.c:442: strtabsize = shdr.sh_size;
   0FDF E5 81              4011 	mov	a,sp
   0FE1 24 FA              4012 	add	a,#0xfa
   0FE3 F9                 4013 	mov	r1,a
   0FE4 87 01              4014 	mov	ar1,@r1
   0FE6 87 03              4015 	mov	ar3,@r1
   0FE8 09                 4016 	inc	r1
   0FE9 87 04              4017 	mov	ar4,@r1
   0FEB 09                 4018 	inc	r1
   0FEC 87 06              4019 	mov	ar6,@r1
   0FEE 09                 4020 	inc	r1
   0FEF 87 07              4021 	mov	ar7,@r1
   0FF1 19                 4022 	dec	r1
   0FF2 19                 4023 	dec	r1
   0FF3 19                 4024 	dec	r1
   0FF4 E5 81              4025 	mov	a,sp
   0FF6 24 D0              4026 	add	a,#0xd0
   0FF8 F9                 4027 	mov	r1,a
   0FF9 A7 03              4028 	mov	@r1,ar3
   0FFB 09                 4029 	inc	r1
   0FFC A7 04              4030 	mov	@r1,ar4
   0FFE 02s15rAD           4031 	ljmp	00149$
   1001                    4032 00145$:
                           4033 ;	../../../contiki-sensinode//core/loader/elfloader.c:443: } else if(strncmp(name, ".text", 5) == 0) {
   1001 E5 81              4034 	mov	a,sp
   1003 24 DC              4035 	add	a,#0xdc
   1005 F9                 4036 	mov	r1,a
   1006 87 04              4037 	mov	ar4,@r1
   1008 7E 00              4038 	mov	r6,#0x00
   100A 7F 40              4039 	mov	r7,#0x40
   100C C0 05              4040 	push	ar5
   100E C0 02              4041 	push	ar2
   1010 C0 00              4042 	push	ar0
   1012 74 05              4043 	mov	a,#0x05
   1014 C0 E0              4044 	push	acc
   1016 E4                 4045 	clr	a
   1017 C0 E0              4046 	push	acc
   1019 74r1B              4047 	mov	a,#__str_1
   101B C0 E0              4048 	push	acc
   101D 74s00              4049 	mov	a,#(__str_1 >> 8)
   101F C0 E0              4050 	push	acc
   1021 74 80              4051 	mov	a,#0x80
   1023 C0 E0              4052 	push	acc
   1025 8C 82              4053 	mov	dpl,r4
   1027 8E 83              4054 	mov	dph,r6
   1029 8F F0              4055 	mov	b,r7
   102B 78r00              4056 	mov	r0,#_strncmp
   102D 79s00              4057 	mov	r1,#(_strncmp >> 8)
   102F 7As00              4058 	mov	r2,#(_strncmp >> 16)
   1031 12s00r00           4059 	lcall	__sdcc_banked_call
   1034 AE 82              4060 	mov	r6,dpl
   1036 AF 83              4061 	mov	r7,dph
   1038 E5 81              4062 	mov	a,sp
   103A 24 FB              4063 	add	a,#0xfb
   103C F5 81              4064 	mov	sp,a
   103E D0 00              4065 	pop	ar0
   1040 D0 02              4066 	pop	ar2
   1042 D0 05              4067 	pop	ar5
   1044 EE                 4068 	mov	a,r6
   1045 4F                 4069 	orl	a,r7
   1046 70 5B              4070 	jnz	00142$
                           4071 ;	../../../contiki-sensinode//core/loader/elfloader.c:444: textoff = shdr.sh_offset;
   1048 E5 81              4072 	mov	a,sp
   104A 24 F7              4073 	add	a,#0xf7
   104C F9                 4074 	mov	r1,a
   104D 87 01              4075 	mov	ar1,@r1
   104F 87 03              4076 	mov	ar3,@r1
   1051 09                 4077 	inc	r1
   1052 87 04              4078 	mov	ar4,@r1
   1054 09                 4079 	inc	r1
   1055 87 06              4080 	mov	ar6,@r1
   1057 09                 4081 	inc	r1
   1058 87 07              4082 	mov	ar7,@r1
   105A 19                 4083 	dec	r1
   105B 19                 4084 	dec	r1
   105C 19                 4085 	dec	r1
   105D E5 81              4086 	mov	a,sp
   105F 24 B8              4087 	add	a,#0xb8
   1061 F9                 4088 	mov	r1,a
   1062 A7 03              4089 	mov	@r1,ar3
   1064 09                 4090 	inc	r1
   1065 A7 04              4091 	mov	@r1,ar4
                           4092 ;	../../../contiki-sensinode//core/loader/elfloader.c:445: textsize = shdr.sh_size;
   1067 E5 81              4093 	mov	a,sp
   1069 24 F8              4094 	add	a,#0xf8
   106B F9                 4095 	mov	r1,a
   106C 87 01              4096 	mov	ar1,@r1
   106E 87 03              4097 	mov	ar3,@r1
   1070 09                 4098 	inc	r1
   1071 87 04              4099 	mov	ar4,@r1
   1073 09                 4100 	inc	r1
   1074 87 06              4101 	mov	ar6,@r1
   1076 09                 4102 	inc	r1
   1077 87 07              4103 	mov	ar7,@r1
   1079 19                 4104 	dec	r1
   107A 19                 4105 	dec	r1
   107B 19                 4106 	dec	r1
   107C E5 81              4107 	mov	a,sp
   107E 24 BA              4108 	add	a,#0xba
   1080 F9                 4109 	mov	r1,a
   1081 A7 03              4110 	mov	@r1,ar3
   1083 09                 4111 	inc	r1
   1084 A7 04              4112 	mov	@r1,ar4
                           4113 ;	../../../contiki-sensinode//core/loader/elfloader.c:446: text.number = i;
   1086 E5 81              4114 	mov	a,sp
   1088 24 B1              4115 	add	a,#0xb1
   108A F9                 4116 	mov	r1,a
   108B 87 07              4117 	mov	ar7,@r1
   108D 90s00r33           4118 	mov	dptr,#_text
   1090 EF                 4119 	mov	a,r7
   1091 F0                 4120 	movx	@dptr,a
                           4121 ;	../../../contiki-sensinode//core/loader/elfloader.c:447: text.offset = textoff;
   1092 90s00r34           4122 	mov	dptr,#(_text + 0x0001)
   1095 E5 81              4123 	mov	a,sp
   1097 24 B8              4124 	add	a,#0xb8
   1099 F9                 4125 	mov	r1,a
   109A E7                 4126 	mov	a,@r1
   109B F0                 4127 	movx	@dptr,a
   109C A3                 4128 	inc	dptr
   109D 09                 4129 	inc	r1
   109E E7                 4130 	mov	a,@r1
   109F F0                 4131 	movx	@dptr,a
   10A0 02s15rAD           4132 	ljmp	00149$
   10A3                    4133 00142$:
                           4134 ;	../../../contiki-sensinode//core/loader/elfloader.c:448: } else if(strncmp(name, ".rel.text", 9) == 0) {
   10A3 E5 81              4135 	mov	a,sp
   10A5 24 DD              4136 	add	a,#0xdd
   10A7 F9                 4137 	mov	r1,a
   10A8 87 04              4138 	mov	ar4,@r1
   10AA 7E 00              4139 	mov	r6,#0x00
   10AC 7F 40              4140 	mov	r7,#0x40
   10AE C0 05              4141 	push	ar5
   10B0 C0 02              4142 	push	ar2
   10B2 C0 00              4143 	push	ar0
   10B4 74 09              4144 	mov	a,#0x09
   10B6 C0 E0              4145 	push	acc
   10B8 E4                 4146 	clr	a
   10B9 C0 E0              4147 	push	acc
   10BB 74r21              4148 	mov	a,#__str_2
   10BD C0 E0              4149 	push	acc
   10BF 74s00              4150 	mov	a,#(__str_2 >> 8)
   10C1 C0 E0              4151 	push	acc
   10C3 74 80              4152 	mov	a,#0x80
   10C5 C0 E0              4153 	push	acc
   10C7 8C 82              4154 	mov	dpl,r4
   10C9 8E 83              4155 	mov	dph,r6
   10CB 8F F0              4156 	mov	b,r7
   10CD 78r00              4157 	mov	r0,#_strncmp
   10CF 79s00              4158 	mov	r1,#(_strncmp >> 8)
   10D1 7As00              4159 	mov	r2,#(_strncmp >> 16)
   10D3 12s00r00           4160 	lcall	__sdcc_banked_call
   10D6 AE 82              4161 	mov	r6,dpl
   10D8 AF 83              4162 	mov	r7,dph
   10DA E5 81              4163 	mov	a,sp
   10DC 24 FB              4164 	add	a,#0xfb
   10DE F5 81              4165 	mov	sp,a
   10E0 D0 00              4166 	pop	ar0
   10E2 D0 02              4167 	pop	ar2
   10E4 D0 05              4168 	pop	ar5
   10E6 EE                 4169 	mov	a,r6
   10E7 4F                 4170 	orl	a,r7
   10E8 70 42              4171 	jnz	00139$
                           4172 ;	../../../contiki-sensinode//core/loader/elfloader.c:449: using_relas = 0;
   10EA E5 81              4173 	mov	a,sp
   10EC 24 B7              4174 	add	a,#0xb7
   10EE F9                 4175 	mov	r1,a
   10EF 77 00              4176 	mov	@r1,#0x00
                           4177 ;	../../../contiki-sensinode//core/loader/elfloader.c:450: textrelaoff = shdr.sh_offset;
   10F1 E5 81              4178 	mov	a,sp
   10F3 24 F5              4179 	add	a,#0xf5
   10F5 F9                 4180 	mov	r1,a
   10F6 87 01              4181 	mov	ar1,@r1
   10F8 87 03              4182 	mov	ar3,@r1
   10FA 09                 4183 	inc	r1
   10FB 87 04              4184 	mov	ar4,@r1
   10FD 09                 4185 	inc	r1
   10FE 87 06              4186 	mov	ar6,@r1
   1100 09                 4187 	inc	r1
   1101 87 07              4188 	mov	ar7,@r1
   1103 19                 4189 	dec	r1
   1104 19                 4190 	dec	r1
   1105 19                 4191 	dec	r1
   1106 8B 02              4192 	mov	ar2,r3
   1108 8C 05              4193 	mov	ar5,r4
                           4194 ;	../../../contiki-sensinode//core/loader/elfloader.c:451: textrelasize = shdr.sh_size;
   110A E5 81              4195 	mov	a,sp
   110C 24 F6              4196 	add	a,#0xf6
   110E F9                 4197 	mov	r1,a
   110F 87 01              4198 	mov	ar1,@r1
   1111 87 03              4199 	mov	ar3,@r1
   1113 09                 4200 	inc	r1
   1114 87 04              4201 	mov	ar4,@r1
   1116 09                 4202 	inc	r1
   1117 87 06              4203 	mov	ar6,@r1
   1119 09                 4204 	inc	r1
   111A 87 07              4205 	mov	ar7,@r1
   111C 19                 4206 	dec	r1
   111D 19                 4207 	dec	r1
   111E 19                 4208 	dec	r1
   111F E5 81              4209 	mov	a,sp
   1121 24 DA              4210 	add	a,#0xda
   1123 F9                 4211 	mov	r1,a
   1124 A7 03              4212 	mov	@r1,ar3
   1126 09                 4213 	inc	r1
   1127 A7 04              4214 	mov	@r1,ar4
   1129 02s15rAD           4215 	ljmp	00149$
   112C                    4216 00139$:
                           4217 ;	../../../contiki-sensinode//core/loader/elfloader.c:452: } else if(strncmp(name, ".rela.text", 10) == 0) {
   112C E5 81              4218 	mov	a,sp
   112E 24 DE              4219 	add	a,#0xde
   1130 F9                 4220 	mov	r1,a
   1131 87 04              4221 	mov	ar4,@r1
   1133 7E 00              4222 	mov	r6,#0x00
   1135 7F 40              4223 	mov	r7,#0x40
   1137 C0 05              4224 	push	ar5
   1139 C0 02              4225 	push	ar2
   113B C0 00              4226 	push	ar0
   113D 74 0A              4227 	mov	a,#0x0A
   113F C0 E0              4228 	push	acc
   1141 E4                 4229 	clr	a
   1142 C0 E0              4230 	push	acc
   1144 74r2B              4231 	mov	a,#__str_3
   1146 C0 E0              4232 	push	acc
   1148 74s00              4233 	mov	a,#(__str_3 >> 8)
   114A C0 E0              4234 	push	acc
   114C 74 80              4235 	mov	a,#0x80
   114E C0 E0              4236 	push	acc
   1150 8C 82              4237 	mov	dpl,r4
   1152 8E 83              4238 	mov	dph,r6
   1154 8F F0              4239 	mov	b,r7
   1156 78r00              4240 	mov	r0,#_strncmp
   1158 79s00              4241 	mov	r1,#(_strncmp >> 8)
   115A 7As00              4242 	mov	r2,#(_strncmp >> 16)
   115C 12s00r00           4243 	lcall	__sdcc_banked_call
   115F AE 82              4244 	mov	r6,dpl
   1161 AF 83              4245 	mov	r7,dph
   1163 E5 81              4246 	mov	a,sp
   1165 24 FB              4247 	add	a,#0xfb
   1167 F5 81              4248 	mov	sp,a
   1169 D0 00              4249 	pop	ar0
   116B D0 02              4250 	pop	ar2
   116D D0 05              4251 	pop	ar5
   116F EE                 4252 	mov	a,r6
   1170 4F                 4253 	orl	a,r7
   1171 70 42              4254 	jnz	00136$
                           4255 ;	../../../contiki-sensinode//core/loader/elfloader.c:453: using_relas = 1;
   1173 E5 81              4256 	mov	a,sp
   1175 24 B7              4257 	add	a,#0xb7
   1177 F9                 4258 	mov	r1,a
   1178 77 01              4259 	mov	@r1,#0x01
                           4260 ;	../../../contiki-sensinode//core/loader/elfloader.c:454: textrelaoff = shdr.sh_offset;
   117A E5 81              4261 	mov	a,sp
   117C 24 F3              4262 	add	a,#0xf3
   117E F9                 4263 	mov	r1,a
   117F 87 01              4264 	mov	ar1,@r1
   1181 87 03              4265 	mov	ar3,@r1
   1183 09                 4266 	inc	r1
   1184 87 04              4267 	mov	ar4,@r1
   1186 09                 4268 	inc	r1
   1187 87 06              4269 	mov	ar6,@r1
   1189 09                 4270 	inc	r1
   118A 87 07              4271 	mov	ar7,@r1
   118C 19                 4272 	dec	r1
   118D 19                 4273 	dec	r1
   118E 19                 4274 	dec	r1
   118F 8B 02              4275 	mov	ar2,r3
   1191 8C 05              4276 	mov	ar5,r4
                           4277 ;	../../../contiki-sensinode//core/loader/elfloader.c:455: textrelasize = shdr.sh_size;
   1193 E5 81              4278 	mov	a,sp
   1195 24 F4              4279 	add	a,#0xf4
   1197 F9                 4280 	mov	r1,a
   1198 87 01              4281 	mov	ar1,@r1
   119A 87 03              4282 	mov	ar3,@r1
   119C 09                 4283 	inc	r1
   119D 87 04              4284 	mov	ar4,@r1
   119F 09                 4285 	inc	r1
   11A0 87 06              4286 	mov	ar6,@r1
   11A2 09                 4287 	inc	r1
   11A3 87 07              4288 	mov	ar7,@r1
   11A5 19                 4289 	dec	r1
   11A6 19                 4290 	dec	r1
   11A7 19                 4291 	dec	r1
   11A8 E5 81              4292 	mov	a,sp
   11AA 24 DA              4293 	add	a,#0xda
   11AC F9                 4294 	mov	r1,a
   11AD A7 03              4295 	mov	@r1,ar3
   11AF 09                 4296 	inc	r1
   11B0 A7 04              4297 	mov	@r1,ar4
   11B2 02s15rAD           4298 	ljmp	00149$
   11B5                    4299 00136$:
                           4300 ;	../../../contiki-sensinode//core/loader/elfloader.c:456: } else if(strncmp(name, ".data", 5) == 0) {
   11B5 E5 81              4301 	mov	a,sp
   11B7 24 DF              4302 	add	a,#0xdf
   11B9 F9                 4303 	mov	r1,a
   11BA 87 04              4304 	mov	ar4,@r1
   11BC 7E 00              4305 	mov	r6,#0x00
   11BE 7F 40              4306 	mov	r7,#0x40
   11C0 C0 05              4307 	push	ar5
   11C2 C0 02              4308 	push	ar2
   11C4 C0 00              4309 	push	ar0
   11C6 74 05              4310 	mov	a,#0x05
   11C8 C0 E0              4311 	push	acc
   11CA E4                 4312 	clr	a
   11CB C0 E0              4313 	push	acc
   11CD 74r36              4314 	mov	a,#__str_4
   11CF C0 E0              4315 	push	acc
   11D1 74s00              4316 	mov	a,#(__str_4 >> 8)
   11D3 C0 E0              4317 	push	acc
   11D5 74 80              4318 	mov	a,#0x80
   11D7 C0 E0              4319 	push	acc
   11D9 8C 82              4320 	mov	dpl,r4
   11DB 8E 83              4321 	mov	dph,r6
   11DD 8F F0              4322 	mov	b,r7
   11DF 78r00              4323 	mov	r0,#_strncmp
   11E1 79s00              4324 	mov	r1,#(_strncmp >> 8)
   11E3 7As00              4325 	mov	r2,#(_strncmp >> 16)
   11E5 12s00r00           4326 	lcall	__sdcc_banked_call
   11E8 AE 82              4327 	mov	r6,dpl
   11EA AF 83              4328 	mov	r7,dph
   11EC E5 81              4329 	mov	a,sp
   11EE 24 FB              4330 	add	a,#0xfb
   11F0 F5 81              4331 	mov	sp,a
   11F2 D0 00              4332 	pop	ar0
   11F4 D0 02              4333 	pop	ar2
   11F6 D0 05              4334 	pop	ar5
   11F8 EE                 4335 	mov	a,r6
   11F9 4F                 4336 	orl	a,r7
   11FA 70 5B              4337 	jnz	00133$
                           4338 ;	../../../contiki-sensinode//core/loader/elfloader.c:457: dataoff = shdr.sh_offset;
   11FC E5 81              4339 	mov	a,sp
   11FE 24 F1              4340 	add	a,#0xf1
   1200 F9                 4341 	mov	r1,a
   1201 87 01              4342 	mov	ar1,@r1
   1203 87 03              4343 	mov	ar3,@r1
   1205 09                 4344 	inc	r1
   1206 87 04              4345 	mov	ar4,@r1
   1208 09                 4346 	inc	r1
   1209 87 06              4347 	mov	ar6,@r1
   120B 09                 4348 	inc	r1
   120C 87 07              4349 	mov	ar7,@r1
   120E 19                 4350 	dec	r1
   120F 19                 4351 	dec	r1
   1210 19                 4352 	dec	r1
   1211 E5 81              4353 	mov	a,sp
   1213 24 BC              4354 	add	a,#0xbc
   1215 F9                 4355 	mov	r1,a
   1216 A7 03              4356 	mov	@r1,ar3
   1218 09                 4357 	inc	r1
   1219 A7 04              4358 	mov	@r1,ar4
                           4359 ;	../../../contiki-sensinode//core/loader/elfloader.c:458: datasize = shdr.sh_size;
   121B E5 81              4360 	mov	a,sp
   121D 24 F2              4361 	add	a,#0xf2
   121F F9                 4362 	mov	r1,a
   1220 87 01              4363 	mov	ar1,@r1
   1222 87 03              4364 	mov	ar3,@r1
   1224 09                 4365 	inc	r1
   1225 87 04              4366 	mov	ar4,@r1
   1227 09                 4367 	inc	r1
   1228 87 06              4368 	mov	ar6,@r1
   122A 09                 4369 	inc	r1
   122B 87 07              4370 	mov	ar7,@r1
   122D 19                 4371 	dec	r1
   122E 19                 4372 	dec	r1
   122F 19                 4373 	dec	r1
   1230 E5 81              4374 	mov	a,sp
   1232 24 D8              4375 	add	a,#0xd8
   1234 F9                 4376 	mov	r1,a
   1235 A7 03              4377 	mov	@r1,ar3
   1237 09                 4378 	inc	r1
   1238 A7 04              4379 	mov	@r1,ar4
                           4380 ;	../../../contiki-sensinode//core/loader/elfloader.c:459: data.number = i;
   123A E5 81              4381 	mov	a,sp
   123C 24 B1              4382 	add	a,#0xb1
   123E F9                 4383 	mov	r1,a
   123F 87 07              4384 	mov	ar7,@r1
   1241 90s00r27           4385 	mov	dptr,#_data
   1244 EF                 4386 	mov	a,r7
   1245 F0                 4387 	movx	@dptr,a
                           4388 ;	../../../contiki-sensinode//core/loader/elfloader.c:460: data.offset = dataoff;
   1246 90s00r28           4389 	mov	dptr,#(_data + 0x0001)
   1249 E5 81              4390 	mov	a,sp
   124B 24 BC              4391 	add	a,#0xbc
   124D F9                 4392 	mov	r1,a
   124E E7                 4393 	mov	a,@r1
   124F F0                 4394 	movx	@dptr,a
   1250 A3                 4395 	inc	dptr
   1251 09                 4396 	inc	r1
   1252 E7                 4397 	mov	a,@r1
   1253 F0                 4398 	movx	@dptr,a
   1254 02s15rAD           4399 	ljmp	00149$
   1257                    4400 00133$:
                           4401 ;	../../../contiki-sensinode//core/loader/elfloader.c:461: } else if(strncmp(name, ".rodata", 7) == 0) {
   1257 E5 81              4402 	mov	a,sp
   1259 24 E0              4403 	add	a,#0xe0
   125B F9                 4404 	mov	r1,a
   125C 87 04              4405 	mov	ar4,@r1
   125E 7E 00              4406 	mov	r6,#0x00
   1260 7F 40              4407 	mov	r7,#0x40
   1262 C0 05              4408 	push	ar5
   1264 C0 02              4409 	push	ar2
   1266 C0 00              4410 	push	ar0
   1268 74 07              4411 	mov	a,#0x07
   126A C0 E0              4412 	push	acc
   126C E4                 4413 	clr	a
   126D C0 E0              4414 	push	acc
   126F 74r3C              4415 	mov	a,#__str_5
   1271 C0 E0              4416 	push	acc
   1273 74s00              4417 	mov	a,#(__str_5 >> 8)
   1275 C0 E0              4418 	push	acc
   1277 74 80              4419 	mov	a,#0x80
   1279 C0 E0              4420 	push	acc
   127B 8C 82              4421 	mov	dpl,r4
   127D 8E 83              4422 	mov	dph,r6
   127F 8F F0              4423 	mov	b,r7
   1281 78r00              4424 	mov	r0,#_strncmp
   1283 79s00              4425 	mov	r1,#(_strncmp >> 8)
   1285 7As00              4426 	mov	r2,#(_strncmp >> 16)
   1287 12s00r00           4427 	lcall	__sdcc_banked_call
   128A AE 82              4428 	mov	r6,dpl
   128C AF 83              4429 	mov	r7,dph
   128E E5 81              4430 	mov	a,sp
   1290 24 FB              4431 	add	a,#0xfb
   1292 F5 81              4432 	mov	sp,a
   1294 D0 00              4433 	pop	ar0
   1296 D0 02              4434 	pop	ar2
   1298 D0 05              4435 	pop	ar5
   129A EE                 4436 	mov	a,r6
   129B 4F                 4437 	orl	a,r7
   129C 70 5B              4438 	jnz	00130$
                           4439 ;	../../../contiki-sensinode//core/loader/elfloader.c:463: rodataoff = shdr.sh_offset;
   129E E5 81              4440 	mov	a,sp
   12A0 24 EF              4441 	add	a,#0xef
   12A2 F9                 4442 	mov	r1,a
   12A3 87 01              4443 	mov	ar1,@r1
   12A5 87 03              4444 	mov	ar3,@r1
   12A7 09                 4445 	inc	r1
   12A8 87 04              4446 	mov	ar4,@r1
   12AA 09                 4447 	inc	r1
   12AB 87 06              4448 	mov	ar6,@r1
   12AD 09                 4449 	inc	r1
   12AE 87 07              4450 	mov	ar7,@r1
   12B0 19                 4451 	dec	r1
   12B1 19                 4452 	dec	r1
   12B2 19                 4453 	dec	r1
   12B3 E5 81              4454 	mov	a,sp
   12B5 24 BE              4455 	add	a,#0xbe
   12B7 F9                 4456 	mov	r1,a
   12B8 A7 03              4457 	mov	@r1,ar3
   12BA 09                 4458 	inc	r1
   12BB A7 04              4459 	mov	@r1,ar4
                           4460 ;	../../../contiki-sensinode//core/loader/elfloader.c:464: rodatasize = shdr.sh_size;
   12BD E5 81              4461 	mov	a,sp
   12BF 24 F0              4462 	add	a,#0xf0
   12C1 F9                 4463 	mov	r1,a
   12C2 87 01              4464 	mov	ar1,@r1
   12C4 87 03              4465 	mov	ar3,@r1
   12C6 09                 4466 	inc	r1
   12C7 87 04              4467 	mov	ar4,@r1
   12C9 09                 4468 	inc	r1
   12CA 87 06              4469 	mov	ar6,@r1
   12CC 09                 4470 	inc	r1
   12CD 87 07              4471 	mov	ar7,@r1
   12CF 19                 4472 	dec	r1
   12D0 19                 4473 	dec	r1
   12D1 19                 4474 	dec	r1
   12D2 E5 81              4475 	mov	a,sp
   12D4 24 D4              4476 	add	a,#0xd4
   12D6 F9                 4477 	mov	r1,a
   12D7 A7 03              4478 	mov	@r1,ar3
   12D9 09                 4479 	inc	r1
   12DA A7 04              4480 	mov	@r1,ar4
                           4481 ;	../../../contiki-sensinode//core/loader/elfloader.c:465: rodata.number = i;
   12DC E5 81              4482 	mov	a,sp
   12DE 24 B1              4483 	add	a,#0xb1
   12E0 F9                 4484 	mov	r1,a
   12E1 87 07              4485 	mov	ar7,@r1
   12E3 90s00r2D           4486 	mov	dptr,#_rodata
   12E6 EF                 4487 	mov	a,r7
   12E7 F0                 4488 	movx	@dptr,a
                           4489 ;	../../../contiki-sensinode//core/loader/elfloader.c:466: rodata.offset = rodataoff;
   12E8 90s00r2E           4490 	mov	dptr,#(_rodata + 0x0001)
   12EB E5 81              4491 	mov	a,sp
   12ED 24 BE              4492 	add	a,#0xbe
   12EF F9                 4493 	mov	r1,a
   12F0 E7                 4494 	mov	a,@r1
   12F1 F0                 4495 	movx	@dptr,a
   12F2 A3                 4496 	inc	dptr
   12F3 09                 4497 	inc	r1
   12F4 E7                 4498 	mov	a,@r1
   12F5 F0                 4499 	movx	@dptr,a
   12F6 02s15rAD           4500 	ljmp	00149$
   12F9                    4501 00130$:
                           4502 ;	../../../contiki-sensinode//core/loader/elfloader.c:467: } else if(strncmp(name, ".rel.rodata", 11) == 0) {
   12F9 E5 81              4503 	mov	a,sp
   12FB 24 E1              4504 	add	a,#0xe1
   12FD F9                 4505 	mov	r1,a
   12FE 87 04              4506 	mov	ar4,@r1
   1300 7E 00              4507 	mov	r6,#0x00
   1302 7F 40              4508 	mov	r7,#0x40
   1304 C0 05              4509 	push	ar5
   1306 C0 02              4510 	push	ar2
   1308 C0 00              4511 	push	ar0
   130A 74 0B              4512 	mov	a,#0x0B
   130C C0 E0              4513 	push	acc
   130E E4                 4514 	clr	a
   130F C0 E0              4515 	push	acc
   1311 74r44              4516 	mov	a,#__str_6
   1313 C0 E0              4517 	push	acc
   1315 74s00              4518 	mov	a,#(__str_6 >> 8)
   1317 C0 E0              4519 	push	acc
   1319 74 80              4520 	mov	a,#0x80
   131B C0 E0              4521 	push	acc
   131D 8C 82              4522 	mov	dpl,r4
   131F 8E 83              4523 	mov	dph,r6
   1321 8F F0              4524 	mov	b,r7
   1323 78r00              4525 	mov	r0,#_strncmp
   1325 79s00              4526 	mov	r1,#(_strncmp >> 8)
   1327 7As00              4527 	mov	r2,#(_strncmp >> 16)
   1329 12s00r00           4528 	lcall	__sdcc_banked_call
   132C AE 82              4529 	mov	r6,dpl
   132E AF 83              4530 	mov	r7,dph
   1330 E5 81              4531 	mov	a,sp
   1332 24 FB              4532 	add	a,#0xfb
   1334 F5 81              4533 	mov	sp,a
   1336 D0 00              4534 	pop	ar0
   1338 D0 02              4535 	pop	ar2
   133A D0 05              4536 	pop	ar5
   133C EE                 4537 	mov	a,r6
   133D 4F                 4538 	orl	a,r7
   133E 70 48              4539 	jnz	00127$
                           4540 ;	../../../contiki-sensinode//core/loader/elfloader.c:469: using_relas = 0;
   1340 E5 81              4541 	mov	a,sp
   1342 24 B7              4542 	add	a,#0xb7
   1344 F9                 4543 	mov	r1,a
   1345 77 00              4544 	mov	@r1,#0x00
                           4545 ;	../../../contiki-sensinode//core/loader/elfloader.c:470: rodatarelaoff = shdr.sh_offset;
   1347 E5 81              4546 	mov	a,sp
   1349 24 ED              4547 	add	a,#0xed
   134B F9                 4548 	mov	r1,a
   134C 87 01              4549 	mov	ar1,@r1
   134E 87 03              4550 	mov	ar3,@r1
   1350 09                 4551 	inc	r1
   1351 87 04              4552 	mov	ar4,@r1
   1353 09                 4553 	inc	r1
   1354 87 06              4554 	mov	ar6,@r1
   1356 09                 4555 	inc	r1
   1357 87 07              4556 	mov	ar7,@r1
   1359 19                 4557 	dec	r1
   135A 19                 4558 	dec	r1
   135B 19                 4559 	dec	r1
   135C E5 81              4560 	mov	a,sp
   135E 24 C8              4561 	add	a,#0xc8
   1360 F9                 4562 	mov	r1,a
   1361 A7 03              4563 	mov	@r1,ar3
   1363 09                 4564 	inc	r1
   1364 A7 04              4565 	mov	@r1,ar4
                           4566 ;	../../../contiki-sensinode//core/loader/elfloader.c:471: rodatarelasize = shdr.sh_size;
   1366 E5 81              4567 	mov	a,sp
   1368 24 EE              4568 	add	a,#0xee
   136A F9                 4569 	mov	r1,a
   136B 87 01              4570 	mov	ar1,@r1
   136D 87 03              4571 	mov	ar3,@r1
   136F 09                 4572 	inc	r1
   1370 87 04              4573 	mov	ar4,@r1
   1372 09                 4574 	inc	r1
   1373 87 06              4575 	mov	ar6,@r1
   1375 09                 4576 	inc	r1
   1376 87 07              4577 	mov	ar7,@r1
   1378 19                 4578 	dec	r1
   1379 19                 4579 	dec	r1
   137A 19                 4580 	dec	r1
   137B E5 81              4581 	mov	a,sp
   137D 24 CC              4582 	add	a,#0xcc
   137F F9                 4583 	mov	r1,a
   1380 A7 03              4584 	mov	@r1,ar3
   1382 09                 4585 	inc	r1
   1383 A7 04              4586 	mov	@r1,ar4
   1385 02s15rAD           4587 	ljmp	00149$
   1388                    4588 00127$:
                           4589 ;	../../../contiki-sensinode//core/loader/elfloader.c:472: } else if(strncmp(name, ".rela.rodata", 12) == 0) {
   1388 E5 81              4590 	mov	a,sp
   138A 24 E2              4591 	add	a,#0xe2
   138C F9                 4592 	mov	r1,a
   138D 87 04              4593 	mov	ar4,@r1
   138F 7E 00              4594 	mov	r6,#0x00
   1391 7F 40              4595 	mov	r7,#0x40
   1393 C0 05              4596 	push	ar5
   1395 C0 02              4597 	push	ar2
   1397 C0 00              4598 	push	ar0
   1399 74 0C              4599 	mov	a,#0x0C
   139B C0 E0              4600 	push	acc
   139D E4                 4601 	clr	a
   139E C0 E0              4602 	push	acc
   13A0 74r50              4603 	mov	a,#__str_7
   13A2 C0 E0              4604 	push	acc
   13A4 74s00              4605 	mov	a,#(__str_7 >> 8)
   13A6 C0 E0              4606 	push	acc
   13A8 74 80              4607 	mov	a,#0x80
   13AA C0 E0              4608 	push	acc
   13AC 8C 82              4609 	mov	dpl,r4
   13AE 8E 83              4610 	mov	dph,r6
   13B0 8F F0              4611 	mov	b,r7
   13B2 78r00              4612 	mov	r0,#_strncmp
   13B4 79s00              4613 	mov	r1,#(_strncmp >> 8)
   13B6 7As00              4614 	mov	r2,#(_strncmp >> 16)
   13B8 12s00r00           4615 	lcall	__sdcc_banked_call
   13BB AE 82              4616 	mov	r6,dpl
   13BD AF 83              4617 	mov	r7,dph
   13BF E5 81              4618 	mov	a,sp
   13C1 24 FB              4619 	add	a,#0xfb
   13C3 F5 81              4620 	mov	sp,a
   13C5 D0 00              4621 	pop	ar0
   13C7 D0 02              4622 	pop	ar2
   13C9 D0 05              4623 	pop	ar5
   13CB EE                 4624 	mov	a,r6
   13CC 4F                 4625 	orl	a,r7
   13CD 70 48              4626 	jnz	00124$
                           4627 ;	../../../contiki-sensinode//core/loader/elfloader.c:473: using_relas = 1;
   13CF E5 81              4628 	mov	a,sp
   13D1 24 B7              4629 	add	a,#0xb7
   13D3 F9                 4630 	mov	r1,a
   13D4 77 01              4631 	mov	@r1,#0x01
                           4632 ;	../../../contiki-sensinode//core/loader/elfloader.c:474: rodatarelaoff = shdr.sh_offset;
   13D6 E5 81              4633 	mov	a,sp
   13D8 24 EB              4634 	add	a,#0xeb
   13DA F9                 4635 	mov	r1,a
   13DB 87 01              4636 	mov	ar1,@r1
   13DD 87 03              4637 	mov	ar3,@r1
   13DF 09                 4638 	inc	r1
   13E0 87 04              4639 	mov	ar4,@r1
   13E2 09                 4640 	inc	r1
   13E3 87 06              4641 	mov	ar6,@r1
   13E5 09                 4642 	inc	r1
   13E6 87 07              4643 	mov	ar7,@r1
   13E8 19                 4644 	dec	r1
   13E9 19                 4645 	dec	r1
   13EA 19                 4646 	dec	r1
   13EB E5 81              4647 	mov	a,sp
   13ED 24 C8              4648 	add	a,#0xc8
   13EF F9                 4649 	mov	r1,a
   13F0 A7 03              4650 	mov	@r1,ar3
   13F2 09                 4651 	inc	r1
   13F3 A7 04              4652 	mov	@r1,ar4
                           4653 ;	../../../contiki-sensinode//core/loader/elfloader.c:475: rodatarelasize = shdr.sh_size;
   13F5 E5 81              4654 	mov	a,sp
   13F7 24 EC              4655 	add	a,#0xec
   13F9 F9                 4656 	mov	r1,a
   13FA 87 01              4657 	mov	ar1,@r1
   13FC 87 03              4658 	mov	ar3,@r1
   13FE 09                 4659 	inc	r1
   13FF 87 04              4660 	mov	ar4,@r1
   1401 09                 4661 	inc	r1
   1402 87 06              4662 	mov	ar6,@r1
   1404 09                 4663 	inc	r1
   1405 87 07              4664 	mov	ar7,@r1
   1407 19                 4665 	dec	r1
   1408 19                 4666 	dec	r1
   1409 19                 4667 	dec	r1
   140A E5 81              4668 	mov	a,sp
   140C 24 CC              4669 	add	a,#0xcc
   140E F9                 4670 	mov	r1,a
   140F A7 03              4671 	mov	@r1,ar3
   1411 09                 4672 	inc	r1
   1412 A7 04              4673 	mov	@r1,ar4
   1414 02s15rAD           4674 	ljmp	00149$
   1417                    4675 00124$:
                           4676 ;	../../../contiki-sensinode//core/loader/elfloader.c:476: } else if(strncmp(name, ".rel.data", 9) == 0) {
   1417 E5 81              4677 	mov	a,sp
   1419 24 E3              4678 	add	a,#0xe3
   141B F9                 4679 	mov	r1,a
   141C 87 04              4680 	mov	ar4,@r1
   141E 7E 00              4681 	mov	r6,#0x00
   1420 7F 40              4682 	mov	r7,#0x40
   1422 C0 05              4683 	push	ar5
   1424 C0 02              4684 	push	ar2
   1426 C0 00              4685 	push	ar0
   1428 74 09              4686 	mov	a,#0x09
   142A C0 E0              4687 	push	acc
   142C E4                 4688 	clr	a
   142D C0 E0              4689 	push	acc
   142F 74r5D              4690 	mov	a,#__str_8
   1431 C0 E0              4691 	push	acc
   1433 74s00              4692 	mov	a,#(__str_8 >> 8)
   1435 C0 E0              4693 	push	acc
   1437 74 80              4694 	mov	a,#0x80
   1439 C0 E0              4695 	push	acc
   143B 8C 82              4696 	mov	dpl,r4
   143D 8E 83              4697 	mov	dph,r6
   143F 8F F0              4698 	mov	b,r7
   1441 78r00              4699 	mov	r0,#_strncmp
   1443 79s00              4700 	mov	r1,#(_strncmp >> 8)
   1445 7As00              4701 	mov	r2,#(_strncmp >> 16)
   1447 12s00r00           4702 	lcall	__sdcc_banked_call
   144A AE 82              4703 	mov	r6,dpl
   144C AF 83              4704 	mov	r7,dph
   144E E5 81              4705 	mov	a,sp
   1450 24 FB              4706 	add	a,#0xfb
   1452 F5 81              4707 	mov	sp,a
   1454 D0 00              4708 	pop	ar0
   1456 D0 02              4709 	pop	ar2
   1458 D0 05              4710 	pop	ar5
   145A EE                 4711 	mov	a,r6
   145B 4F                 4712 	orl	a,r7
   145C 70 48              4713 	jnz	00121$
                           4714 ;	../../../contiki-sensinode//core/loader/elfloader.c:478: using_relas = 0;
   145E E5 81              4715 	mov	a,sp
   1460 24 B7              4716 	add	a,#0xb7
   1462 F9                 4717 	mov	r1,a
   1463 77 00              4718 	mov	@r1,#0x00
                           4719 ;	../../../contiki-sensinode//core/loader/elfloader.c:479: datarelaoff = shdr.sh_offset;
   1465 E5 81              4720 	mov	a,sp
   1467 24 E9              4721 	add	a,#0xe9
   1469 F9                 4722 	mov	r1,a
   146A 87 01              4723 	mov	ar1,@r1
   146C 87 03              4724 	mov	ar3,@r1
   146E 09                 4725 	inc	r1
   146F 87 04              4726 	mov	ar4,@r1
   1471 09                 4727 	inc	r1
   1472 87 06              4728 	mov	ar6,@r1
   1474 09                 4729 	inc	r1
   1475 87 07              4730 	mov	ar7,@r1
   1477 19                 4731 	dec	r1
   1478 19                 4732 	dec	r1
   1479 19                 4733 	dec	r1
   147A E5 81              4734 	mov	a,sp
   147C 24 C6              4735 	add	a,#0xc6
   147E F9                 4736 	mov	r1,a
   147F A7 03              4737 	mov	@r1,ar3
   1481 09                 4738 	inc	r1
   1482 A7 04              4739 	mov	@r1,ar4
                           4740 ;	../../../contiki-sensinode//core/loader/elfloader.c:480: datarelasize = shdr.sh_size;
   1484 E5 81              4741 	mov	a,sp
   1486 24 EA              4742 	add	a,#0xea
   1488 F9                 4743 	mov	r1,a
   1489 87 01              4744 	mov	ar1,@r1
   148B 87 03              4745 	mov	ar3,@r1
   148D 09                 4746 	inc	r1
   148E 87 04              4747 	mov	ar4,@r1
   1490 09                 4748 	inc	r1
   1491 87 06              4749 	mov	ar6,@r1
   1493 09                 4750 	inc	r1
   1494 87 07              4751 	mov	ar7,@r1
   1496 19                 4752 	dec	r1
   1497 19                 4753 	dec	r1
   1498 19                 4754 	dec	r1
   1499 E5 81              4755 	mov	a,sp
   149B 24 D6              4756 	add	a,#0xd6
   149D F9                 4757 	mov	r1,a
   149E A7 03              4758 	mov	@r1,ar3
   14A0 09                 4759 	inc	r1
   14A1 A7 04              4760 	mov	@r1,ar4
   14A3 02s15rAD           4761 	ljmp	00149$
   14A6                    4762 00121$:
                           4763 ;	../../../contiki-sensinode//core/loader/elfloader.c:481: } else if(strncmp(name, ".rela.data", 10) == 0) {
   14A6 E5 81              4764 	mov	a,sp
   14A8 24 E4              4765 	add	a,#0xe4
   14AA F9                 4766 	mov	r1,a
   14AB 87 04              4767 	mov	ar4,@r1
   14AD 7E 00              4768 	mov	r6,#0x00
   14AF 7F 40              4769 	mov	r7,#0x40
   14B1 C0 05              4770 	push	ar5
   14B3 C0 02              4771 	push	ar2
   14B5 C0 00              4772 	push	ar0
   14B7 74 0A              4773 	mov	a,#0x0A
   14B9 C0 E0              4774 	push	acc
   14BB E4                 4775 	clr	a
   14BC C0 E0              4776 	push	acc
   14BE 74r67              4777 	mov	a,#__str_9
   14C0 C0 E0              4778 	push	acc
   14C2 74s00              4779 	mov	a,#(__str_9 >> 8)
   14C4 C0 E0              4780 	push	acc
   14C6 74 80              4781 	mov	a,#0x80
   14C8 C0 E0              4782 	push	acc
   14CA 8C 82              4783 	mov	dpl,r4
   14CC 8E 83              4784 	mov	dph,r6
   14CE 8F F0              4785 	mov	b,r7
   14D0 78r00              4786 	mov	r0,#_strncmp
   14D2 79s00              4787 	mov	r1,#(_strncmp >> 8)
   14D4 7As00              4788 	mov	r2,#(_strncmp >> 16)
   14D6 12s00r00           4789 	lcall	__sdcc_banked_call
   14D9 AE 82              4790 	mov	r6,dpl
   14DB AF 83              4791 	mov	r7,dph
   14DD E5 81              4792 	mov	a,sp
   14DF 24 FB              4793 	add	a,#0xfb
   14E1 F5 81              4794 	mov	sp,a
   14E3 D0 00              4795 	pop	ar0
   14E5 D0 02              4796 	pop	ar2
   14E7 D0 05              4797 	pop	ar5
   14E9 EE                 4798 	mov	a,r6
   14EA 4F                 4799 	orl	a,r7
   14EB 70 47              4800 	jnz	00118$
                           4801 ;	../../../contiki-sensinode//core/loader/elfloader.c:482: using_relas = 1;
   14ED E5 81              4802 	mov	a,sp
   14EF 24 B7              4803 	add	a,#0xb7
   14F1 F9                 4804 	mov	r1,a
   14F2 77 01              4805 	mov	@r1,#0x01
                           4806 ;	../../../contiki-sensinode//core/loader/elfloader.c:483: datarelaoff = shdr.sh_offset;
   14F4 E5 81              4807 	mov	a,sp
   14F6 24 E7              4808 	add	a,#0xe7
   14F8 F9                 4809 	mov	r1,a
   14F9 87 01              4810 	mov	ar1,@r1
   14FB 87 03              4811 	mov	ar3,@r1
   14FD 09                 4812 	inc	r1
   14FE 87 04              4813 	mov	ar4,@r1
   1500 09                 4814 	inc	r1
   1501 87 06              4815 	mov	ar6,@r1
   1503 09                 4816 	inc	r1
   1504 87 07              4817 	mov	ar7,@r1
   1506 19                 4818 	dec	r1
   1507 19                 4819 	dec	r1
   1508 19                 4820 	dec	r1
   1509 E5 81              4821 	mov	a,sp
   150B 24 C6              4822 	add	a,#0xc6
   150D F9                 4823 	mov	r1,a
   150E A7 03              4824 	mov	@r1,ar3
   1510 09                 4825 	inc	r1
   1511 A7 04              4826 	mov	@r1,ar4
                           4827 ;	../../../contiki-sensinode//core/loader/elfloader.c:484: datarelasize = shdr.sh_size;
   1513 E5 81              4828 	mov	a,sp
   1515 24 E8              4829 	add	a,#0xe8
   1517 F9                 4830 	mov	r1,a
   1518 87 01              4831 	mov	ar1,@r1
   151A 87 03              4832 	mov	ar3,@r1
   151C 09                 4833 	inc	r1
   151D 87 04              4834 	mov	ar4,@r1
   151F 09                 4835 	inc	r1
   1520 87 06              4836 	mov	ar6,@r1
   1522 09                 4837 	inc	r1
   1523 87 07              4838 	mov	ar7,@r1
   1525 19                 4839 	dec	r1
   1526 19                 4840 	dec	r1
   1527 19                 4841 	dec	r1
   1528 E5 81              4842 	mov	a,sp
   152A 24 D6              4843 	add	a,#0xd6
   152C F9                 4844 	mov	r1,a
   152D A7 03              4845 	mov	@r1,ar3
   152F 09                 4846 	inc	r1
   1530 A7 04              4847 	mov	@r1,ar4
   1532 80 79              4848 	sjmp	00149$
   1534                    4849 00118$:
                           4850 ;	../../../contiki-sensinode//core/loader/elfloader.c:485: } else if(strncmp(name, ".bss", 4) == 0) {
   1534 E5 81              4851 	mov	a,sp
   1536 24 E6              4852 	add	a,#0xe6
   1538 F9                 4853 	mov	r1,a
   1539 87 04              4854 	mov	ar4,@r1
   153B 7E 00              4855 	mov	r6,#0x00
   153D 7F 40              4856 	mov	r7,#0x40
   153F C0 05              4857 	push	ar5
   1541 C0 02              4858 	push	ar2
   1543 C0 00              4859 	push	ar0
   1545 74 04              4860 	mov	a,#0x04
   1547 C0 E0              4861 	push	acc
   1549 E4                 4862 	clr	a
   154A C0 E0              4863 	push	acc
   154C 74r72              4864 	mov	a,#__str_10
   154E C0 E0              4865 	push	acc
   1550 74s00              4866 	mov	a,#(__str_10 >> 8)
   1552 C0 E0              4867 	push	acc
   1554 74 80              4868 	mov	a,#0x80
   1556 C0 E0              4869 	push	acc
   1558 8C 82              4870 	mov	dpl,r4
   155A 8E 83              4871 	mov	dph,r6
   155C 8F F0              4872 	mov	b,r7
   155E 78r00              4873 	mov	r0,#_strncmp
   1560 79s00              4874 	mov	r1,#(_strncmp >> 8)
   1562 7As00              4875 	mov	r2,#(_strncmp >> 16)
   1564 12s00r00           4876 	lcall	__sdcc_banked_call
   1567 AE 82              4877 	mov	r6,dpl
   1569 AF 83              4878 	mov	r7,dph
   156B E5 81              4879 	mov	a,sp
   156D 24 FB              4880 	add	a,#0xfb
   156F F5 81              4881 	mov	sp,a
   1571 D0 00              4882 	pop	ar0
   1573 D0 02              4883 	pop	ar2
   1575 D0 05              4884 	pop	ar5
   1577 EE                 4885 	mov	a,r6
   1578 4F                 4886 	orl	a,r7
   1579 70 32              4887 	jnz	00149$
                           4888 ;	../../../contiki-sensinode//core/loader/elfloader.c:486: bsssize = shdr.sh_size;
   157B E5 81              4889 	mov	a,sp
   157D 24 E5              4890 	add	a,#0xe5
   157F F9                 4891 	mov	r1,a
   1580 87 01              4892 	mov	ar1,@r1
   1582 87 03              4893 	mov	ar3,@r1
   1584 09                 4894 	inc	r1
   1585 87 04              4895 	mov	ar4,@r1
   1587 09                 4896 	inc	r1
   1588 87 06              4897 	mov	ar6,@r1
   158A 09                 4898 	inc	r1
   158B 87 07              4899 	mov	ar7,@r1
   158D 19                 4900 	dec	r1
   158E 19                 4901 	dec	r1
   158F 19                 4902 	dec	r1
   1590 E5 81              4903 	mov	a,sp
   1592 24 CA              4904 	add	a,#0xca
   1594 F9                 4905 	mov	r1,a
   1595 A7 03              4906 	mov	@r1,ar3
   1597 09                 4907 	inc	r1
   1598 A7 04              4908 	mov	@r1,ar4
                           4909 ;	../../../contiki-sensinode//core/loader/elfloader.c:487: bss.number = i;
   159A E5 81              4910 	mov	a,sp
   159C 24 B1              4911 	add	a,#0xb1
   159E F9                 4912 	mov	r1,a
   159F 87 07              4913 	mov	ar7,@r1
   15A1 90s00r21           4914 	mov	dptr,#_bss
   15A4 EF                 4915 	mov	a,r7
   15A5 F0                 4916 	movx	@dptr,a
                           4917 ;	../../../contiki-sensinode//core/loader/elfloader.c:488: bss.offset = 0;
   15A6 90s00r22           4918 	mov	dptr,#(_bss + 0x0001)
   15A9 E4                 4919 	clr	a
   15AA F0                 4920 	movx	@dptr,a
   15AB A3                 4921 	inc	dptr
   15AC F0                 4922 	movx	@dptr,a
   15AD                    4923 00149$:
                           4924 ;	../../../contiki-sensinode//core/loader/elfloader.c:492: shdrptr += shdrsize;
   15AD E5 81              4925 	mov	a,sp
   15AF 24 A3              4926 	add	a,#0xa3
   15B1 F9                 4927 	mov	r1,a
   15B2 C0 00              4928 	push	ar0
   15B4 E5 81              4929 	mov	a,sp
   15B6 24 B4              4930 	add	a,#0xb4
   15B8 F8                 4931 	mov	r0,a
   15B9 E6                 4932 	mov	a,@r0
   15BA 27                 4933 	add	a,@r1
   15BB F7                 4934 	mov	@r1,a
   15BC 08                 4935 	inc	r0
   15BD E6                 4936 	mov	a,@r0
   15BE 09                 4937 	inc	r1
   15BF 37                 4938 	addc	a,@r1
   15C0 F7                 4939 	mov	@r1,a
   15C1 D0 00              4940 	pop	ar0
                           4941 ;	../../../contiki-sensinode//core/loader/elfloader.c:419: for(i = 0; i < shdrnum; ++i) {
   15C3 E5 81              4942 	mov	a,sp
   15C5 24 B1              4943 	add	a,#0xb1
   15C7 F9                 4944 	mov	r1,a
   15C8 07                 4945 	inc	@r1
   15C9 B7 00 02           4946 	cjne	@r1,#0x00,00276$
   15CC 09                 4947 	inc	r1
   15CD 07                 4948 	inc	@r1
   15CE                    4949 00276$:
   15CE 02s0Er69           4950 	ljmp	00203$
   15D1                    4951 00206$:
                           4952 ;	../../../contiki-sensinode//core/loader/elfloader.c:495: if(symtabsize == 0) {
   15D1 E5 81              4953 	mov	a,sp
   15D3 24 C2              4954 	add	a,#0xc2
   15D5 F8                 4955 	mov	r0,a
   15D6 E6                 4956 	mov	a,@r0
   15D7 08                 4957 	inc	r0
   15D8 46                 4958 	orl	a,@r0
   15D9 70 06              4959 	jnz	00151$
                           4960 ;	../../../contiki-sensinode//core/loader/elfloader.c:496: return ELFLOADER_NO_SYMTAB;
   15DB 90 00 02           4961 	mov	dptr,#0x0002
   15DE 02s1Ar32           4962 	ljmp	00207$
   15E1                    4963 00151$:
                           4964 ;	../../../contiki-sensinode//core/loader/elfloader.c:498: if(strtabsize == 0) {
   15E1 E5 81              4965 	mov	a,sp
   15E3 24 D0              4966 	add	a,#0xd0
   15E5 F8                 4967 	mov	r0,a
   15E6 E6                 4968 	mov	a,@r0
   15E7 08                 4969 	inc	r0
   15E8 46                 4970 	orl	a,@r0
   15E9 70 06              4971 	jnz	00153$
                           4972 ;	../../../contiki-sensinode//core/loader/elfloader.c:499: return ELFLOADER_NO_STRTAB;
   15EB 90 00 03           4973 	mov	dptr,#0x0003
   15EE 02s1Ar32           4974 	ljmp	00207$
   15F1                    4975 00153$:
                           4976 ;	../../../contiki-sensinode//core/loader/elfloader.c:501: if(textsize == 0) {
   15F1 E5 81              4977 	mov	a,sp
   15F3 24 BA              4978 	add	a,#0xba
   15F5 F8                 4979 	mov	r0,a
   15F6 E6                 4980 	mov	a,@r0
   15F7 08                 4981 	inc	r0
   15F8 46                 4982 	orl	a,@r0
   15F9 70 06              4983 	jnz	00156$
                           4984 ;	../../../contiki-sensinode//core/loader/elfloader.c:502: return ELFLOADER_NO_TEXT;
   15FB 90 00 04           4985 	mov	dptr,#0x0004
   15FE 02s1Ar32           4986 	ljmp	00207$
                           4987 ;	../../../contiki-sensinode//core/loader/elfloader.c:505: PRINTF("before allocate ram\n");
   1601                    4988 00156$:
                           4989 ;	../../../contiki-sensinode//core/loader/elfloader.c:506: bss.address = (char *)elfloader_arch_allocate_ram(bsssize + datasize);
   1601 C0 02              4990 	push	ar2
   1603 C0 05              4991 	push	ar5
   1605 E5 81              4992 	mov	a,sp
   1607 24 C8              4993 	add	a,#0xc8
   1609 F8                 4994 	mov	r0,a
   160A E5 81              4995 	mov	a,sp
   160C 24 D6              4996 	add	a,#0xd6
   160E F9                 4997 	mov	r1,a
   160F E7                 4998 	mov	a,@r1
   1610 26                 4999 	add	a,@r0
   1611 FE                 5000 	mov	r6,a
   1612 09                 5001 	inc	r1
   1613 E7                 5002 	mov	a,@r1
   1614 08                 5003 	inc	r0
   1615 36                 5004 	addc	a,@r0
   1616 FF                 5005 	mov	r7,a
   1617 8E 82              5006 	mov	dpl,r6
   1619 8F 83              5007 	mov	dph,r7
   161B C0 05              5008 	push	ar5
   161D C0 02              5009 	push	ar2
   161F 78r00              5010 	mov	r0,#_elfloader_arch_allocate_ram
   1621 79s00              5011 	mov	r1,#(_elfloader_arch_allocate_ram >> 8)
   1623 7As00              5012 	mov	r2,#(_elfloader_arch_allocate_ram >> 16)
   1625 12s00r00           5013 	lcall	__sdcc_banked_call
   1628 AC 82              5014 	mov	r4,dpl
   162A AE 83              5015 	mov	r6,dph
   162C AF F0              5016 	mov	r7,b
   162E D0 02              5017 	pop	ar2
   1630 D0 05              5018 	pop	ar5
   1632 90s00r24           5019 	mov	dptr,#(_bss + 0x0003)
   1635 EC                 5020 	mov	a,r4
   1636 F0                 5021 	movx	@dptr,a
   1637 A3                 5022 	inc	dptr
   1638 EE                 5023 	mov	a,r6
   1639 F0                 5024 	movx	@dptr,a
   163A A3                 5025 	inc	dptr
   163B EF                 5026 	mov	a,r7
   163C F0                 5027 	movx	@dptr,a
                           5028 ;	../../../contiki-sensinode//core/loader/elfloader.c:507: data.address = (char *)bss.address + bsssize;
   163D 90s00r24           5029 	mov	dptr,#(_bss + 0x0003)
   1640 E0                 5030 	movx	a,@dptr
   1641 FC                 5031 	mov	r4,a
   1642 A3                 5032 	inc	dptr
   1643 E0                 5033 	movx	a,@dptr
   1644 FE                 5034 	mov	r6,a
   1645 A3                 5035 	inc	dptr
   1646 E0                 5036 	movx	a,@dptr
   1647 FF                 5037 	mov	r7,a
   1648 E5 81              5038 	mov	a,sp
   164A 24 C8              5039 	add	a,#0xc8
   164C F8                 5040 	mov	r0,a
   164D E6                 5041 	mov	a,@r0
   164E 2C                 5042 	add	a,r4
   164F FC                 5043 	mov	r4,a
   1650 08                 5044 	inc	r0
   1651 E6                 5045 	mov	a,@r0
   1652 3E                 5046 	addc	a,r6
   1653 FE                 5047 	mov	r6,a
   1654 90s00r2A           5048 	mov	dptr,#(_data + 0x0003)
   1657 EC                 5049 	mov	a,r4
   1658 F0                 5050 	movx	@dptr,a
   1659 A3                 5051 	inc	dptr
   165A EE                 5052 	mov	a,r6
   165B F0                 5053 	movx	@dptr,a
   165C A3                 5054 	inc	dptr
   165D EF                 5055 	mov	a,r7
   165E F0                 5056 	movx	@dptr,a
                           5057 ;	../../../contiki-sensinode//core/loader/elfloader.c:509: text.address = (char *)elfloader_arch_allocate_rom(textsize + rodatasize);
   165F E5 81              5058 	mov	a,sp
   1661 24 B8              5059 	add	a,#0xb8
   1663 F8                 5060 	mov	r0,a
   1664 E5 81              5061 	mov	a,sp
   1666 24 D2              5062 	add	a,#0xd2
   1668 F9                 5063 	mov	r1,a
   1669 E7                 5064 	mov	a,@r1
   166A 26                 5065 	add	a,@r0
   166B FE                 5066 	mov	r6,a
   166C 09                 5067 	inc	r1
   166D E7                 5068 	mov	a,@r1
   166E 08                 5069 	inc	r0
   166F 36                 5070 	addc	a,@r0
   1670 FF                 5071 	mov	r7,a
   1671 8E 82              5072 	mov	dpl,r6
   1673 8F 83              5073 	mov	dph,r7
   1675 C0 05              5074 	push	ar5
   1677 C0 02              5075 	push	ar2
   1679 78r00              5076 	mov	r0,#_elfloader_arch_allocate_rom
   167B 79s00              5077 	mov	r1,#(_elfloader_arch_allocate_rom >> 8)
   167D 7As00              5078 	mov	r2,#(_elfloader_arch_allocate_rom >> 16)
   167F 12s00r00           5079 	lcall	__sdcc_banked_call
   1682 AC 82              5080 	mov	r4,dpl
   1684 AE 83              5081 	mov	r6,dph
   1686 AF F0              5082 	mov	r7,b
   1688 D0 02              5083 	pop	ar2
   168A D0 05              5084 	pop	ar5
   168C 90s00r36           5085 	mov	dptr,#(_text + 0x0003)
   168F EC                 5086 	mov	a,r4
   1690 F0                 5087 	movx	@dptr,a
   1691 A3                 5088 	inc	dptr
   1692 EE                 5089 	mov	a,r6
   1693 F0                 5090 	movx	@dptr,a
   1694 A3                 5091 	inc	dptr
   1695 EF                 5092 	mov	a,r7
   1696 F0                 5093 	movx	@dptr,a
                           5094 ;	../../../contiki-sensinode//core/loader/elfloader.c:510: rodata.address = (char *)text.address + textsize;
   1697 90s00r36           5095 	mov	dptr,#(_text + 0x0003)
   169A E0                 5096 	movx	a,@dptr
   169B FC                 5097 	mov	r4,a
   169C A3                 5098 	inc	dptr
   169D E0                 5099 	movx	a,@dptr
   169E FE                 5100 	mov	r6,a
   169F A3                 5101 	inc	dptr
   16A0 E0                 5102 	movx	a,@dptr
   16A1 FF                 5103 	mov	r7,a
   16A2 E5 81              5104 	mov	a,sp
   16A4 24 B8              5105 	add	a,#0xb8
   16A6 F8                 5106 	mov	r0,a
   16A7 E6                 5107 	mov	a,@r0
   16A8 2C                 5108 	add	a,r4
   16A9 FA                 5109 	mov	r2,a
   16AA 08                 5110 	inc	r0
   16AB E6                 5111 	mov	a,@r0
   16AC 3E                 5112 	addc	a,r6
   16AD FB                 5113 	mov	r3,a
   16AE 8F 05              5114 	mov	ar5,r7
   16B0 90s00r30           5115 	mov	dptr,#(_rodata + 0x0003)
   16B3 EA                 5116 	mov	a,r2
   16B4 F0                 5117 	movx	@dptr,a
   16B5 A3                 5118 	inc	dptr
   16B6 EB                 5119 	mov	a,r3
   16B7 F0                 5120 	movx	@dptr,a
   16B8 A3                 5121 	inc	dptr
   16B9 ED                 5122 	mov	a,r5
   16BA F0                 5123 	movx	@dptr,a
                           5124 ;	../../../contiki-sensinode//core/loader/elfloader.c:521: if(textrelasize > 0) {
   16BB D0 05              5125 	pop	ar5
   16BD D0 02              5126 	pop	ar2
   16BF E5 81              5127 	mov	a,sp
   16C1 24 DA              5128 	add	a,#0xda
   16C3 F8                 5129 	mov	r0,a
   16C4 E6                 5130 	mov	a,@r0
   16C5 08                 5131 	inc	r0
   16C6 46                 5132 	orl	a,@r0
   16C7 70 03              5133 	jnz	00280$
   16C9 02s17r4E           5134 	ljmp	00174$
   16CC                    5135 00280$:
                           5136 ;	../../../contiki-sensinode//core/loader/elfloader.c:522: ret = relocate_section(fd,
   16CC E5 81              5137 	mov	a,sp
   16CE 24 B7              5138 	add	a,#0xb7
   16D0 F8                 5139 	mov	r0,a
   16D1 E6                 5140 	mov	a,@r0
   16D2 C0 E0              5141 	push	acc
   16D4 E5 81              5142 	mov	a,sp
   16D6 24 C1              5143 	add	a,#0xc1
   16D8 F8                 5144 	mov	r0,a
   16D9 E6                 5145 	mov	a,@r0
   16DA C0 E0              5146 	push	acc
   16DC 08                 5147 	inc	r0
   16DD E6                 5148 	mov	a,@r0
   16DE C0 E0              5149 	push	acc
   16E0 E5 81              5150 	mov	a,sp
   16E2 24 BD              5151 	add	a,#0xbd
   16E4 F8                 5152 	mov	r0,a
   16E5 E6                 5153 	mov	a,@r0
   16E6 C0 E0              5154 	push	acc
   16E8 08                 5155 	inc	r0
   16E9 E6                 5156 	mov	a,@r0
   16EA C0 E0              5157 	push	acc
   16EC E5 81              5158 	mov	a,sp
   16EE 24 BF              5159 	add	a,#0xbf
   16F0 F8                 5160 	mov	r0,a
   16F1 E6                 5161 	mov	a,@r0
   16F2 C0 E0              5162 	push	acc
   16F4 08                 5163 	inc	r0
   16F5 E6                 5164 	mov	a,@r0
   16F6 C0 E0              5165 	push	acc
   16F8 E5 81              5166 	mov	a,sp
   16FA 24 9A              5167 	add	a,#0x9a
   16FC F8                 5168 	mov	r0,a
   16FD E6                 5169 	mov	a,@r0
   16FE C0 E0              5170 	push	acc
   1700 08                 5171 	inc	r0
   1701 E6                 5172 	mov	a,@r0
   1702 C0 E0              5173 	push	acc
   1704 C0 04              5174 	push	ar4
   1706 C0 06              5175 	push	ar6
   1708 C0 07              5176 	push	ar7
   170A E5 81              5177 	mov	a,sp
   170C 24 AC              5178 	add	a,#0xac
   170E F8                 5179 	mov	r0,a
   170F E6                 5180 	mov	a,@r0
   1710 C0 E0              5181 	push	acc
   1712 08                 5182 	inc	r0
   1713 E6                 5183 	mov	a,@r0
   1714 C0 E0              5184 	push	acc
   1716 E5 81              5185 	mov	a,sp
   1718 24 CC              5186 	add	a,#0xcc
   171A F8                 5187 	mov	r0,a
   171B E6                 5188 	mov	a,@r0
   171C C0 E0              5189 	push	acc
   171E 08                 5190 	inc	r0
   171F E6                 5191 	mov	a,@r0
   1720 C0 E0              5192 	push	acc
   1722 C0 02              5193 	push	ar2
   1724 C0 05              5194 	push	ar5
   1726 E5 81              5195 	mov	a,sp
   1728 24 09              5196 	add	a,#0x09
   172A F8                 5197 	mov	r0,a
   172B 86 82              5198 	mov	dpl,@r0
   172D 08                 5199 	inc	r0
   172E 86 83              5200 	mov	dph,@r0
   1730 78r99              5201 	mov	r0,#_relocate_section
   1732 79s02              5202 	mov	r1,#(_relocate_section >> 8)
   1734 7As00              5203 	mov	r2,#(_relocate_section >> 16)
   1736 12s00r00           5204 	lcall	__sdcc_banked_call
   1739 AE 82              5205 	mov	r6,dpl
   173B AF 83              5206 	mov	r7,dph
   173D E5 81              5207 	mov	a,sp
   173F 24 EE              5208 	add	a,#0xee
   1741 F5 81              5209 	mov	sp,a
                           5210 ;	../../../contiki-sensinode//core/loader/elfloader.c:529: if(ret != ELFLOADER_OK) {
   1743 EE                 5211 	mov	a,r6
   1744 4F                 5212 	orl	a,r7
   1745 60 07              5213 	jz	00174$
                           5214 ;	../../../contiki-sensinode//core/loader/elfloader.c:530: return ret;
   1747 8E 82              5215 	mov	dpl,r6
   1749 8F 83              5216 	mov	dph,r7
   174B 02s1Ar32           5217 	ljmp	00207$
                           5218 ;	../../../contiki-sensinode//core/loader/elfloader.c:535: PRINTF("elfloader: relocate rodata\n");
   174E                    5219 00174$:
                           5220 ;	../../../contiki-sensinode//core/loader/elfloader.c:536: if(rodatarelasize > 0) {
   174E E5 81              5221 	mov	a,sp
   1750 24 CC              5222 	add	a,#0xcc
   1752 F8                 5223 	mov	r0,a
   1753 E6                 5224 	mov	a,@r0
   1754 08                 5225 	inc	r0
   1755 46                 5226 	orl	a,@r0
   1756 70 03              5227 	jnz	00282$
   1758 02s17rF4           5228 	ljmp	00182$
   175B                    5229 00282$:
                           5230 ;	../../../contiki-sensinode//core/loader/elfloader.c:540: rodata.address,
   175B 90s00r30           5231 	mov	dptr,#(_rodata + 0x0003)
   175E E0                 5232 	movx	a,@dptr
   175F FB                 5233 	mov	r3,a
   1760 A3                 5234 	inc	dptr
   1761 E0                 5235 	movx	a,@dptr
   1762 FC                 5236 	mov	r4,a
   1763 A3                 5237 	inc	dptr
   1764 E0                 5238 	movx	a,@dptr
   1765 FD                 5239 	mov	r5,a
                           5240 ;	../../../contiki-sensinode//core/loader/elfloader.c:537: ret = relocate_section(fd,
   1766 E5 81              5241 	mov	a,sp
   1768 24 B7              5242 	add	a,#0xb7
   176A F8                 5243 	mov	r0,a
   176B E6                 5244 	mov	a,@r0
   176C C0 E0              5245 	push	acc
   176E E5 81              5246 	mov	a,sp
   1770 24 C1              5247 	add	a,#0xc1
   1772 F8                 5248 	mov	r0,a
   1773 E6                 5249 	mov	a,@r0
   1774 C0 E0              5250 	push	acc
   1776 08                 5251 	inc	r0
   1777 E6                 5252 	mov	a,@r0
   1778 C0 E0              5253 	push	acc
   177A E5 81              5254 	mov	a,sp
   177C 24 BD              5255 	add	a,#0xbd
   177E F8                 5256 	mov	r0,a
   177F E6                 5257 	mov	a,@r0
   1780 C0 E0              5258 	push	acc
   1782 08                 5259 	inc	r0
   1783 E6                 5260 	mov	a,@r0
   1784 C0 E0              5261 	push	acc
   1786 E5 81              5262 	mov	a,sp
   1788 24 BF              5263 	add	a,#0xbf
   178A F8                 5264 	mov	r0,a
   178B E6                 5265 	mov	a,@r0
   178C C0 E0              5266 	push	acc
   178E 08                 5267 	inc	r0
   178F E6                 5268 	mov	a,@r0
   1790 C0 E0              5269 	push	acc
   1792 E5 81              5270 	mov	a,sp
   1794 24 9A              5271 	add	a,#0x9a
   1796 F8                 5272 	mov	r0,a
   1797 E6                 5273 	mov	a,@r0
   1798 C0 E0              5274 	push	acc
   179A 08                 5275 	inc	r0
   179B E6                 5276 	mov	a,@r0
   179C C0 E0              5277 	push	acc
   179E C0 03              5278 	push	ar3
   17A0 C0 04              5279 	push	ar4
   17A2 C0 05              5280 	push	ar5
   17A4 E5 81              5281 	mov	a,sp
   17A6 24 B2              5282 	add	a,#0xb2
   17A8 F8                 5283 	mov	r0,a
   17A9 E6                 5284 	mov	a,@r0
   17AA C0 E0              5285 	push	acc
   17AC 08                 5286 	inc	r0
   17AD E6                 5287 	mov	a,@r0
   17AE C0 E0              5288 	push	acc
   17B0 E5 81              5289 	mov	a,sp
   17B2 24 BE              5290 	add	a,#0xbe
   17B4 F8                 5291 	mov	r0,a
   17B5 E6                 5292 	mov	a,@r0
   17B6 C0 E0              5293 	push	acc
   17B8 08                 5294 	inc	r0
   17B9 E6                 5295 	mov	a,@r0
   17BA C0 E0              5296 	push	acc
   17BC E5 81              5297 	mov	a,sp
   17BE 24 B8              5298 	add	a,#0xb8
   17C0 F8                 5299 	mov	r0,a
   17C1 E6                 5300 	mov	a,@r0
   17C2 C0 E0              5301 	push	acc
   17C4 08                 5302 	inc	r0
   17C5 E6                 5303 	mov	a,@r0
   17C6 C0 E0              5304 	push	acc
   17C8 E5 81              5305 	mov	a,sp
   17CA 24 09              5306 	add	a,#0x09
   17CC F8                 5307 	mov	r0,a
   17CD 86 82              5308 	mov	dpl,@r0
   17CF 08                 5309 	inc	r0
   17D0 86 83              5310 	mov	dph,@r0
   17D2 78r99              5311 	mov	r0,#_relocate_section
   17D4 79s02              5312 	mov	r1,#(_relocate_section >> 8)
   17D6 7As00              5313 	mov	r2,#(_relocate_section >> 16)
   17D8 12s00r00           5314 	lcall	__sdcc_banked_call
   17DB AC 82              5315 	mov	r4,dpl
   17DD AD 83              5316 	mov	r5,dph
   17DF E5 81              5317 	mov	a,sp
   17E1 24 EE              5318 	add	a,#0xee
   17E3 F5 81              5319 	mov	sp,a
   17E5 8C 06              5320 	mov	ar6,r4
   17E7 8D 07              5321 	mov	ar7,r5
                           5322 ;	../../../contiki-sensinode//core/loader/elfloader.c:544: if(ret != ELFLOADER_OK) {
   17E9 EE                 5323 	mov	a,r6
   17EA 4F                 5324 	orl	a,r7
   17EB 60 07              5325 	jz	00182$
                           5326 ;	../../../contiki-sensinode//core/loader/elfloader.c:546: return ret;
   17ED 8E 82              5327 	mov	dpl,r6
   17EF 8F 83              5328 	mov	dph,r7
   17F1 02s1Ar32           5329 	ljmp	00207$
                           5330 ;	../../../contiki-sensinode//core/loader/elfloader.c:551: PRINTF("elfloader: relocate data\n");
   17F4                    5331 00182$:
                           5332 ;	../../../contiki-sensinode//core/loader/elfloader.c:552: if(datarelasize > 0) {
   17F4 E5 81              5333 	mov	a,sp
   17F6 24 D6              5334 	add	a,#0xd6
   17F8 F8                 5335 	mov	r0,a
   17F9 E6                 5336 	mov	a,@r0
   17FA 08                 5337 	inc	r0
   17FB 46                 5338 	orl	a,@r0
   17FC 70 03              5339 	jnz	00284$
   17FE 02s18r9A           5340 	ljmp	00189$
   1801                    5341 00284$:
                           5342 ;	../../../contiki-sensinode//core/loader/elfloader.c:556: data.address,
   1801 90s00r2A           5343 	mov	dptr,#(_data + 0x0003)
   1804 E0                 5344 	movx	a,@dptr
   1805 FB                 5345 	mov	r3,a
   1806 A3                 5346 	inc	dptr
   1807 E0                 5347 	movx	a,@dptr
   1808 FC                 5348 	mov	r4,a
   1809 A3                 5349 	inc	dptr
   180A E0                 5350 	movx	a,@dptr
   180B FD                 5351 	mov	r5,a
                           5352 ;	../../../contiki-sensinode//core/loader/elfloader.c:553: ret = relocate_section(fd,
   180C E5 81              5353 	mov	a,sp
   180E 24 B7              5354 	add	a,#0xb7
   1810 F8                 5355 	mov	r0,a
   1811 E6                 5356 	mov	a,@r0
   1812 C0 E0              5357 	push	acc
   1814 E5 81              5358 	mov	a,sp
   1816 24 C1              5359 	add	a,#0xc1
   1818 F8                 5360 	mov	r0,a
   1819 E6                 5361 	mov	a,@r0
   181A C0 E0              5362 	push	acc
   181C 08                 5363 	inc	r0
   181D E6                 5364 	mov	a,@r0
   181E C0 E0              5365 	push	acc
   1820 E5 81              5366 	mov	a,sp
   1822 24 BD              5367 	add	a,#0xbd
   1824 F8                 5368 	mov	r0,a
   1825 E6                 5369 	mov	a,@r0
   1826 C0 E0              5370 	push	acc
   1828 08                 5371 	inc	r0
   1829 E6                 5372 	mov	a,@r0
   182A C0 E0              5373 	push	acc
   182C E5 81              5374 	mov	a,sp
   182E 24 BF              5375 	add	a,#0xbf
   1830 F8                 5376 	mov	r0,a
   1831 E6                 5377 	mov	a,@r0
   1832 C0 E0              5378 	push	acc
   1834 08                 5379 	inc	r0
   1835 E6                 5380 	mov	a,@r0
   1836 C0 E0              5381 	push	acc
   1838 E5 81              5382 	mov	a,sp
   183A 24 9A              5383 	add	a,#0x9a
   183C F8                 5384 	mov	r0,a
   183D E6                 5385 	mov	a,@r0
   183E C0 E0              5386 	push	acc
   1840 08                 5387 	inc	r0
   1841 E6                 5388 	mov	a,@r0
   1842 C0 E0              5389 	push	acc
   1844 C0 03              5390 	push	ar3
   1846 C0 04              5391 	push	ar4
   1848 C0 05              5392 	push	ar5
   184A E5 81              5393 	mov	a,sp
   184C 24 B0              5394 	add	a,#0xb0
   184E F8                 5395 	mov	r0,a
   184F E6                 5396 	mov	a,@r0
   1850 C0 E0              5397 	push	acc
   1852 08                 5398 	inc	r0
   1853 E6                 5399 	mov	a,@r0
   1854 C0 E0              5400 	push	acc
   1856 E5 81              5401 	mov	a,sp
   1858 24 C8              5402 	add	a,#0xc8
   185A F8                 5403 	mov	r0,a
   185B E6                 5404 	mov	a,@r0
   185C C0 E0              5405 	push	acc
   185E 08                 5406 	inc	r0
   185F E6                 5407 	mov	a,@r0
   1860 C0 E0              5408 	push	acc
   1862 E5 81              5409 	mov	a,sp
   1864 24 B6              5410 	add	a,#0xb6
   1866 F8                 5411 	mov	r0,a
   1867 E6                 5412 	mov	a,@r0
   1868 C0 E0              5413 	push	acc
   186A 08                 5414 	inc	r0
   186B E6                 5415 	mov	a,@r0
   186C C0 E0              5416 	push	acc
   186E E5 81              5417 	mov	a,sp
   1870 24 09              5418 	add	a,#0x09
   1872 F8                 5419 	mov	r0,a
   1873 86 82              5420 	mov	dpl,@r0
   1875 08                 5421 	inc	r0
   1876 86 83              5422 	mov	dph,@r0
   1878 78r99              5423 	mov	r0,#_relocate_section
   187A 79s02              5424 	mov	r1,#(_relocate_section >> 8)
   187C 7As00              5425 	mov	r2,#(_relocate_section >> 16)
   187E 12s00r00           5426 	lcall	__sdcc_banked_call
   1881 AC 82              5427 	mov	r4,dpl
   1883 AD 83              5428 	mov	r5,dph
   1885 E5 81              5429 	mov	a,sp
   1887 24 EE              5430 	add	a,#0xee
   1889 F5 81              5431 	mov	sp,a
   188B 8C 06              5432 	mov	ar6,r4
   188D 8D 07              5433 	mov	ar7,r5
                           5434 ;	../../../contiki-sensinode//core/loader/elfloader.c:560: if(ret != ELFLOADER_OK) {
   188F EE                 5435 	mov	a,r6
   1890 4F                 5436 	orl	a,r7
   1891 60 07              5437 	jz	00189$
                           5438 ;	../../../contiki-sensinode//core/loader/elfloader.c:562: return ret;
   1893 8E 82              5439 	mov	dpl,r6
   1895 8F 83              5440 	mov	dph,r7
   1897 02s1Ar32           5441 	ljmp	00207$
   189A                    5442 00189$:
                           5443 ;	../../../contiki-sensinode//core/loader/elfloader.c:567: elfloader_arch_write_rom(fd, textoff, textsize, text.address);
   189A 90s00r36           5444 	mov	dptr,#(_text + 0x0003)
   189D E0                 5445 	movx	a,@dptr
   189E FD                 5446 	mov	r5,a
   189F A3                 5447 	inc	dptr
   18A0 E0                 5448 	movx	a,@dptr
   18A1 FE                 5449 	mov	r6,a
   18A2 A3                 5450 	inc	dptr
   18A3 E0                 5451 	movx	a,@dptr
   18A4 FF                 5452 	mov	r7,a
   18A5 C0 05              5453 	push	ar5
   18A7 C0 06              5454 	push	ar6
   18A9 C0 07              5455 	push	ar7
   18AB E5 81              5456 	mov	a,sp
   18AD 24 B7              5457 	add	a,#0xb7
   18AF F8                 5458 	mov	r0,a
   18B0 E6                 5459 	mov	a,@r0
   18B1 C0 E0              5460 	push	acc
   18B3 08                 5461 	inc	r0
   18B4 E6                 5462 	mov	a,@r0
   18B5 C0 E0              5463 	push	acc
   18B7 E5 81              5464 	mov	a,sp
   18B9 24 B3              5465 	add	a,#0xb3
   18BB F8                 5466 	mov	r0,a
   18BC E6                 5467 	mov	a,@r0
   18BD C0 E0              5468 	push	acc
   18BF 08                 5469 	inc	r0
   18C0 E6                 5470 	mov	a,@r0
   18C1 C0 E0              5471 	push	acc
   18C3 E5 81              5472 	mov	a,sp
   18C5 24 14              5473 	add	a,#0x14
   18C7 F8                 5474 	mov	r0,a
   18C8 86 82              5475 	mov	dpl,@r0
   18CA 08                 5476 	inc	r0
   18CB 86 83              5477 	mov	dph,@r0
   18CD 78r00              5478 	mov	r0,#_elfloader_arch_write_rom
   18CF 79s00              5479 	mov	r1,#(_elfloader_arch_write_rom >> 8)
   18D1 7As00              5480 	mov	r2,#(_elfloader_arch_write_rom >> 16)
   18D3 12s00r00           5481 	lcall	__sdcc_banked_call
   18D6 E5 81              5482 	mov	a,sp
   18D8 24 F9              5483 	add	a,#0xf9
   18DA F5 81              5484 	mov	sp,a
                           5485 ;	../../../contiki-sensinode//core/loader/elfloader.c:568: elfloader_arch_write_rom(fd, rodataoff, rodatasize, rodata.address);
   18DC 90s00r30           5486 	mov	dptr,#(_rodata + 0x0003)
   18DF E0                 5487 	movx	a,@dptr
   18E0 FD                 5488 	mov	r5,a
   18E1 A3                 5489 	inc	dptr
   18E2 E0                 5490 	movx	a,@dptr
   18E3 FE                 5491 	mov	r6,a
   18E4 A3                 5492 	inc	dptr
   18E5 E0                 5493 	movx	a,@dptr
   18E6 FF                 5494 	mov	r7,a
   18E7 C0 05              5495 	push	ar5
   18E9 C0 06              5496 	push	ar6
   18EB C0 07              5497 	push	ar7
   18ED E5 81              5498 	mov	a,sp
   18EF 24 D1              5499 	add	a,#0xd1
   18F1 F8                 5500 	mov	r0,a
   18F2 E6                 5501 	mov	a,@r0
   18F3 C0 E0              5502 	push	acc
   18F5 08                 5503 	inc	r0
   18F6 E6                 5504 	mov	a,@r0
   18F7 C0 E0              5505 	push	acc
   18F9 E5 81              5506 	mov	a,sp
   18FB 24 B9              5507 	add	a,#0xb9
   18FD F8                 5508 	mov	r0,a
   18FE E6                 5509 	mov	a,@r0
   18FF C0 E0              5510 	push	acc
   1901 08                 5511 	inc	r0
   1902 E6                 5512 	mov	a,@r0
   1903 C0 E0              5513 	push	acc
   1905 E5 81              5514 	mov	a,sp
   1907 24 14              5515 	add	a,#0x14
   1909 F8                 5516 	mov	r0,a
   190A 86 82              5517 	mov	dpl,@r0
   190C 08                 5518 	inc	r0
   190D 86 83              5519 	mov	dph,@r0
   190F 78r00              5520 	mov	r0,#_elfloader_arch_write_rom
   1911 79s00              5521 	mov	r1,#(_elfloader_arch_write_rom >> 8)
   1913 7As00              5522 	mov	r2,#(_elfloader_arch_write_rom >> 16)
   1915 12s00r00           5523 	lcall	__sdcc_banked_call
   1918 E5 81              5524 	mov	a,sp
   191A 24 F9              5525 	add	a,#0xf9
   191C F5 81              5526 	mov	sp,a
                           5527 ;	../../../contiki-sensinode//core/loader/elfloader.c:570: memset(bss.address, 0, bsssize);
   191E 90s00r24           5528 	mov	dptr,#(_bss + 0x0003)
   1921 E0                 5529 	movx	a,@dptr
   1922 FD                 5530 	mov	r5,a
   1923 A3                 5531 	inc	dptr
   1924 E0                 5532 	movx	a,@dptr
   1925 FE                 5533 	mov	r6,a
   1926 A3                 5534 	inc	dptr
   1927 E0                 5535 	movx	a,@dptr
   1928 FF                 5536 	mov	r7,a
   1929 E5 81              5537 	mov	a,sp
   192B 24 CA              5538 	add	a,#0xca
   192D F8                 5539 	mov	r0,a
   192E E6                 5540 	mov	a,@r0
   192F C0 E0              5541 	push	acc
   1931 08                 5542 	inc	r0
   1932 E6                 5543 	mov	a,@r0
   1933 C0 E0              5544 	push	acc
   1935 E4                 5545 	clr	a
   1936 C0 E0              5546 	push	acc
   1938 8D 82              5547 	mov	dpl,r5
   193A 8E 83              5548 	mov	dph,r6
   193C 8F F0              5549 	mov	b,r7
   193E 78r00              5550 	mov	r0,#_memset
   1940 79s00              5551 	mov	r1,#(_memset >> 8)
   1942 7As00              5552 	mov	r2,#(_memset >> 16)
   1944 12s00r00           5553 	lcall	__sdcc_banked_call
   1947 15 81              5554 	dec	sp
   1949 15 81              5555 	dec	sp
   194B 15 81              5556 	dec	sp
                           5557 ;	../../../contiki-sensinode//core/loader/elfloader.c:571: seek_read(fd, dataoff, data.address, datasize);
   194D E5 81              5558 	mov	a,sp
   194F 24 D8              5559 	add	a,#0xd8
   1951 F8                 5560 	mov	r0,a
   1952 86 06              5561 	mov	ar6,@r0
   1954 08                 5562 	inc	r0
   1955 86 07              5563 	mov	ar7,@r0
   1957 90s00r2A           5564 	mov	dptr,#(_data + 0x0003)
   195A E0                 5565 	movx	a,@dptr
   195B FB                 5566 	mov	r3,a
   195C A3                 5567 	inc	dptr
   195D E0                 5568 	movx	a,@dptr
   195E FC                 5569 	mov	r4,a
   195F A3                 5570 	inc	dptr
   1960 E0                 5571 	movx	a,@dptr
   1961 FD                 5572 	mov	r5,a
   1962 C0 06              5573 	push	ar6
   1964 C0 07              5574 	push	ar7
   1966 C0 03              5575 	push	ar3
   1968 C0 04              5576 	push	ar4
   196A C0 05              5577 	push	ar5
   196C E5 81              5578 	mov	a,sp
   196E 24 B7              5579 	add	a,#0xb7
   1970 F8                 5580 	mov	r0,a
   1971 E6                 5581 	mov	a,@r0
   1972 C0 E0              5582 	push	acc
   1974 08                 5583 	inc	r0
   1975 E6                 5584 	mov	a,@r0
   1976 C0 E0              5585 	push	acc
   1978 E5 81              5586 	mov	a,sp
   197A 24 14              5587 	add	a,#0x14
   197C F8                 5588 	mov	r0,a
   197D 86 82              5589 	mov	dpl,@r0
   197F 08                 5590 	inc	r0
   1980 86 83              5591 	mov	dph,@r0
   1982 78r00              5592 	mov	r0,#_seek_read
   1984 79s00              5593 	mov	r1,#(_seek_read >> 8)
   1986 7As00              5594 	mov	r2,#(_seek_read >> 16)
   1988 12s00r00           5595 	lcall	__sdcc_banked_call
   198B E5 81              5596 	mov	a,sp
   198D 24 F9              5597 	add	a,#0xf9
                           5598 ;	../../../contiki-sensinode//core/loader/elfloader.c:574: process = (struct process **) find_local_symbol(fd, "autostart_processes", symtaboff, symtabsize, strtaboff);
   198F F5 81              5599 	mov	sp,a
   1991 24 C4              5600 	add	a,#0xc4
   1993 F8                 5601 	mov	r0,a
   1994 E6                 5602 	mov	a,@r0
   1995 C0 E0              5603 	push	acc
   1997 08                 5604 	inc	r0
   1998 E6                 5605 	mov	a,@r0
   1999 C0 E0              5606 	push	acc
   199B E5 81              5607 	mov	a,sp
   199D 24 C0              5608 	add	a,#0xc0
   199F F8                 5609 	mov	r0,a
   19A0 E6                 5610 	mov	a,@r0
   19A1 C0 E0              5611 	push	acc
   19A3 08                 5612 	inc	r0
   19A4 E6                 5613 	mov	a,@r0
   19A5 C0 E0              5614 	push	acc
   19A7 E5 81              5615 	mov	a,sp
   19A9 24 BC              5616 	add	a,#0xbc
   19AB F8                 5617 	mov	r0,a
   19AC E6                 5618 	mov	a,@r0
   19AD C0 E0              5619 	push	acc
   19AF 08                 5620 	inc	r0
   19B0 E6                 5621 	mov	a,@r0
   19B1 C0 E0              5622 	push	acc
   19B3 74r07              5623 	mov	a,#__str_0
   19B5 C0 E0              5624 	push	acc
   19B7 74s00              5625 	mov	a,#(__str_0 >> 8)
   19B9 C0 E0              5626 	push	acc
   19BB 74 80              5627 	mov	a,#0x80
   19BD C0 E0              5628 	push	acc
   19BF E5 81              5629 	mov	a,sp
   19C1 24 12              5630 	add	a,#0x12
   19C3 F8                 5631 	mov	r0,a
   19C4 86 82              5632 	mov	dpl,@r0
   19C6 08                 5633 	inc	r0
   19C7 86 83              5634 	mov	dph,@r0
   19C9 78r6F              5635 	mov	r0,#_find_local_symbol
   19CB 79s00              5636 	mov	r1,#(_find_local_symbol >> 8)
   19CD 7As00              5637 	mov	r2,#(_find_local_symbol >> 16)
   19CF 12s00r00           5638 	lcall	__sdcc_banked_call
   19D2 AD 82              5639 	mov	r5,dpl
   19D4 AE 83              5640 	mov	r6,dph
   19D6 AF F0              5641 	mov	r7,b
   19D8 E5 81              5642 	mov	a,sp
   19DA 24 F7              5643 	add	a,#0xf7
   19DC F5 81              5644 	mov	sp,a
                           5645 ;	../../../contiki-sensinode//core/loader/elfloader.c:575: if(process != NULL) {
   19DE ED                 5646 	mov	a,r5
   19DF 4E                 5647 	orl	a,r6
   19E0 60 10              5648 	jz	00194$
                           5649 ;	../../../contiki-sensinode//core/loader/elfloader.c:577: elfloader_autostart_processes = process;
   19E2 90s00r1E           5650 	mov	dptr,#_elfloader_autostart_processes
   19E5 ED                 5651 	mov	a,r5
   19E6 F0                 5652 	movx	@dptr,a
   19E7 A3                 5653 	inc	dptr
   19E8 EE                 5654 	mov	a,r6
   19E9 F0                 5655 	movx	@dptr,a
   19EA A3                 5656 	inc	dptr
   19EB EF                 5657 	mov	a,r7
   19EC F0                 5658 	movx	@dptr,a
                           5659 ;	../../../contiki-sensinode//core/loader/elfloader.c:578: return ELFLOADER_OK;
   19ED 90 00 00           5660 	mov	dptr,#0x0000
                           5661 ;	../../../contiki-sensinode//core/loader/elfloader.c:580: PRINTF("elfloader: no autostart\n");
   19F0 80 40              5662 	sjmp	00207$
   19F2                    5663 00194$:
                           5664 ;	../../../contiki-sensinode//core/loader/elfloader.c:581: process = (struct process **) find_program_processes(fd, symtaboff, symtabsize, strtaboff);
   19F2 E5 81              5665 	mov	a,sp
   19F4 24 C4              5666 	add	a,#0xc4
   19F6 F8                 5667 	mov	r0,a
   19F7 E6                 5668 	mov	a,@r0
   19F8 C0 E0              5669 	push	acc
   19FA 08                 5670 	inc	r0
   19FB E6                 5671 	mov	a,@r0
   19FC C0 E0              5672 	push	acc
   19FE E5 81              5673 	mov	a,sp
   1A00 24 C0              5674 	add	a,#0xc0
   1A02 F8                 5675 	mov	r0,a
   1A03 E6                 5676 	mov	a,@r0
   1A04 C0 E0              5677 	push	acc
   1A06 08                 5678 	inc	r0
   1A07 E6                 5679 	mov	a,@r0
   1A08 C0 E0              5680 	push	acc
   1A0A E5 81              5681 	mov	a,sp
   1A0C 24 BC              5682 	add	a,#0xbc
   1A0E F8                 5683 	mov	r0,a
   1A0F E6                 5684 	mov	a,@r0
   1A10 C0 E0              5685 	push	acc
   1A12 08                 5686 	inc	r0
   1A13 E6                 5687 	mov	a,@r0
   1A14 C0 E0              5688 	push	acc
   1A16 E5 81              5689 	mov	a,sp
   1A18 24 15              5690 	add	a,#0x15
   1A1A F8                 5691 	mov	r0,a
   1A1B 86 82              5692 	mov	dpl,@r0
   1A1D 08                 5693 	inc	r0
   1A1E 86 83              5694 	mov	dph,@r0
   1A20 78rD3              5695 	mov	r0,#_find_program_processes
   1A22 79s07              5696 	mov	r1,#(_find_program_processes >> 8)
   1A24 7As00              5697 	mov	r2,#(_find_program_processes >> 16)
   1A26 12s00r00           5698 	lcall	__sdcc_banked_call
   1A29 E5 81              5699 	mov	a,sp
   1A2B 24 FA              5700 	add	a,#0xfa
   1A2D F5 81              5701 	mov	sp,a
                           5702 ;	../../../contiki-sensinode//core/loader/elfloader.c:585: return ELFLOADER_NO_STARTPOINT;
   1A2F 90 00 07           5703 	mov	dptr,#0x0007
   1A32                    5704 00207$:
   1A32 E5 81              5705 	mov	a,sp
   1A34 24 1A              5706 	add	a,#0x1A
   1A36 F5 81              5707 	mov	sp,a
   1A38 02s00r00           5708 	ljmp	__sdcc_banked_ret
                           5709 	.area CSEG    (CODE)
                           5710 	.area CONST   (CODE)
   0000                    5711 _elf_magic_header:
   0000 7F                 5712 	.db #0x7F	; 127
   0001 45                 5713 	.db #0x45	; 69	'E'
   0002 4C                 5714 	.db #0x4C	; 76	'L'
   0003 46                 5715 	.db #0x46	; 70	'F'
   0004 01                 5716 	.db #0x01	; 1
   0005 01                 5717 	.db #0x01	; 1
   0006 01                 5718 	.db #0x01	; 1
   0007                    5719 __str_0:
   0007 61 75 74 6F 73 74  5720 	.ascii "autostart_processes"
        61 72 74 5F 70 72
        6F 63 65 73 73 65
        73
   001A 00                 5721 	.db 0x00
   001B                    5722 __str_1:
   001B 2E 74 65 78 74     5723 	.ascii ".text"
   0020 00                 5724 	.db 0x00
   0021                    5725 __str_2:
   0021 2E 72 65 6C 2E 74  5726 	.ascii ".rel.text"
        65 78 74
   002A 00                 5727 	.db 0x00
   002B                    5728 __str_3:
   002B 2E 72 65 6C 61 2E  5729 	.ascii ".rela.text"
        74 65 78 74
   0035 00                 5730 	.db 0x00
   0036                    5731 __str_4:
   0036 2E 64 61 74 61     5732 	.ascii ".data"
   003B 00                 5733 	.db 0x00
   003C                    5734 __str_5:
   003C 2E 72 6F 64 61 74  5735 	.ascii ".rodata"
        61
   0043 00                 5736 	.db 0x00
   0044                    5737 __str_6:
   0044 2E 72 65 6C 2E 72  5738 	.ascii ".rel.rodata"
        6F 64 61 74 61
   004F 00                 5739 	.db 0x00
   0050                    5740 __str_7:
   0050 2E 72 65 6C 61 2E  5741 	.ascii ".rela.rodata"
        72 6F 64 61 74 61
   005C 00                 5742 	.db 0x00
   005D                    5743 __str_8:
   005D 2E 72 65 6C 2E 64  5744 	.ascii ".rel.data"
        61 74 61
   0066 00                 5745 	.db 0x00
   0067                    5746 __str_9:
   0067 2E 72 65 6C 61 2E  5747 	.ascii ".rela.data"
        64 61 74 61
   0071 00                 5748 	.db 0x00
   0072                    5749 __str_10:
   0072 2E 62 73 73        5750 	.ascii ".bss"
   0076 00                 5751 	.db 0x00
                           5752 	.area XINIT   (CODE)
                           5753 	.area CABS    (ABS,CODE)
