                              1 ;--------------------------------------------------------
                              2 ; File Created by SDCC : free open source ANSI-C Compiler
                              3 ; Version 3.1.1 #7100 (Oct 29 2014) (Linux)
                              4 ; This file was generated Wed Dec  2 18:10:50 2015
                              5 ;--------------------------------------------------------
                              6 	.module frame802154
                              7 	.optsdcc -mmcs51 --model-huge
                              8 	
                              9 ;--------------------------------------------------------
                             10 ; Public variables in this module
                             11 ;--------------------------------------------------------
                             12 	.globl _rimeaddr_copy
                             13 	.globl _memset
                             14 	.globl _memcpy
                             15 	.globl _frame802154_hdrlen
                             16 	.globl _frame802154_create
                             17 	.globl _frame802154_parse
                             18 ;--------------------------------------------------------
                             19 ; special function registers
                             20 ;--------------------------------------------------------
                             21 	.area RSEG    (ABS,DATA)
   0000                      22 	.org 0x0000
                             23 ;--------------------------------------------------------
                             24 ; special function bits
                             25 ;--------------------------------------------------------
                             26 	.area RSEG    (ABS,DATA)
   0000                      27 	.org 0x0000
                             28 ;--------------------------------------------------------
                             29 ; overlayable register banks
                             30 ;--------------------------------------------------------
                             31 	.area REG_BANK_0	(REL,OVR,DATA)
   0000                      32 	.ds 8
                             33 ;--------------------------------------------------------
                             34 ; internal ram data
                             35 ;--------------------------------------------------------
                             36 	.area DSEG    (DATA)
                             37 ;--------------------------------------------------------
                             38 ; overlayable items in internal ram 
                             39 ;--------------------------------------------------------
                             40 	.area OSEG    (OVR,DATA)
                             41 ;--------------------------------------------------------
                             42 ; indirectly addressable internal ram data
                             43 ;--------------------------------------------------------
                             44 	.area ISEG    (DATA)
                             45 ;--------------------------------------------------------
                             46 ; absolute internal ram data
                             47 ;--------------------------------------------------------
                             48 	.area IABS    (ABS,DATA)
                             49 	.area IABS    (ABS,DATA)
                             50 ;--------------------------------------------------------
                             51 ; bit data
                             52 ;--------------------------------------------------------
                             53 	.area BSEG    (BIT)
                             54 ;--------------------------------------------------------
                             55 ; paged external ram data
                             56 ;--------------------------------------------------------
                             57 	.area PSEG    (PAG,XDATA)
                             58 ;--------------------------------------------------------
                             59 ; external ram data
                             60 ;--------------------------------------------------------
                             61 	.area XSEG    (XDATA)
   0000                      62 _flen:
   0000                      63 	.ds 5
   0005                      64 _fcf:
   0005                      65 	.ds 8
                             66 ;--------------------------------------------------------
                             67 ; absolute external ram data
                             68 ;--------------------------------------------------------
                             69 	.area XABS    (ABS,XDATA)
                             70 ;--------------------------------------------------------
                             71 ; external initialized ram data
                             72 ;--------------------------------------------------------
                             73 	.area XISEG   (XDATA)
                             74 	.area HOME    (CODE)
                             75 	.area GSINIT0 (CODE)
                             76 	.area GSINIT1 (CODE)
                             77 	.area GSINIT2 (CODE)
                             78 	.area GSINIT3 (CODE)
                             79 	.area GSINIT4 (CODE)
                             80 	.area GSINIT5 (CODE)
                             81 	.area GSINIT  (CODE)
                             82 	.area GSFINAL (CODE)
                             83 	.area CSEG    (CODE)
                             84 ;--------------------------------------------------------
                             85 ; global & static initialisations
                             86 ;--------------------------------------------------------
                             87 	.area HOME    (CODE)
                             88 	.area GSINIT  (CODE)
                             89 	.area GSFINAL (CODE)
                             90 	.area GSINIT  (CODE)
                             91 ;--------------------------------------------------------
                             92 ; Home
                             93 ;--------------------------------------------------------
                             94 	.area HOME    (CODE)
                             95 	.area HOME    (CODE)
                             96 ;--------------------------------------------------------
                             97 ; code
                             98 ;--------------------------------------------------------
                             99 	.area BANK1   (CODE)
                            100 ;------------------------------------------------------------
                            101 ;Allocation info for local variables in function 'addr_len'
                            102 ;------------------------------------------------------------
                            103 ;mode                      Allocated to registers r7 
                            104 ;------------------------------------------------------------
                            105 ;	../../../contiki-sensinode//core/net/mac/frame802154.c:84: addr_len(uint8_t mode)
                            106 ;	-----------------------------------------
                            107 ;	 function addr_len
                            108 ;	-----------------------------------------
   0000                     109 _addr_len:
                    0007    110 	ar7 = 0x07
                    0006    111 	ar6 = 0x06
                    0005    112 	ar5 = 0x05
                    0004    113 	ar4 = 0x04
                    0003    114 	ar3 = 0x03
                    0002    115 	ar2 = 0x02
                    0001    116 	ar1 = 0x01
                    0000    117 	ar0 = 0x00
   0000 AF 82               118 	mov	r7,dpl
                            119 ;	../../../contiki-sensinode//core/net/mac/frame802154.c:86: switch(mode) {
   0002 BF 02 02            120 	cjne	r7,#0x02,00111$
   0005 80 05               121 	sjmp	00101$
   0007                     122 00111$:
                            123 ;	../../../contiki-sensinode//core/net/mac/frame802154.c:87: case FRAME802154_SHORTADDRMODE:  /* 16-bit address */
   0007 BF 03 0C            124 	cjne	r7,#0x03,00103$
   000A 80 05               125 	sjmp	00102$
   000C                     126 00101$:
                            127 ;	../../../contiki-sensinode//core/net/mac/frame802154.c:88: return 2;
   000C 75 82 02            128 	mov	dpl,#0x02
                            129 ;	../../../contiki-sensinode//core/net/mac/frame802154.c:89: case FRAME802154_LONGADDRMODE:   /* 64-bit address */
   000F 80 08               130 	sjmp	00105$
   0011                     131 00102$:
                            132 ;	../../../contiki-sensinode//core/net/mac/frame802154.c:90: return 8;
   0011 75 82 08            133 	mov	dpl,#0x08
                            134 ;	../../../contiki-sensinode//core/net/mac/frame802154.c:91: default:
   0014 80 03               135 	sjmp	00105$
   0016                     136 00103$:
                            137 ;	../../../contiki-sensinode//core/net/mac/frame802154.c:92: return 0;
   0016 75 82 00            138 	mov	dpl,#0x00
                            139 ;	../../../contiki-sensinode//core/net/mac/frame802154.c:93: }
   0019                     140 00105$:
   0019 02s00r00            141 	ljmp	__sdcc_banked_ret
                            142 ;------------------------------------------------------------
                            143 ;Allocation info for local variables in function 'field_len'
                            144 ;------------------------------------------------------------
                            145 ;flen                      Allocated to stack - sp -14
                            146 ;p                         Allocated to stack - sp -8
                            147 ;sloc0                     Allocated to stack - sp -5
                            148 ;sloc1                     Allocated to stack - sp -2
                            149 ;------------------------------------------------------------
                            150 ;	../../../contiki-sensinode//core/net/mac/frame802154.c:97: field_len(frame802154_t *p, field_length_t *flen)
                            151 ;	-----------------------------------------
                            152 ;	 function field_len
                            153 ;	-----------------------------------------
   001C                     154 _field_len:
   001C C0 82               155 	push	dpl
   001E C0 83               156 	push	dph
   0020 C0 F0               157 	push	b
   0022 E5 81               158 	mov	a,sp
   0024 24 06               159 	add	a,#0x06
                            160 ;	../../../contiki-sensinode//core/net/mac/frame802154.c:100: memset(flen, 0, sizeof(field_length_t));
   0026 F5 81               161 	mov	sp,a
   0028 24 F2               162 	add	a,#0xf2
   002A F8                  163 	mov	r0,a
   002B 86 02               164 	mov	ar2,@r0
   002D 08                  165 	inc	r0
   002E 86 03               166 	mov	ar3,@r0
   0030 08                  167 	inc	r0
   0031 86 04               168 	mov	ar4,@r0
   0033 74 05               169 	mov	a,#0x05
   0035 C0 E0               170 	push	acc
   0037 E4                  171 	clr	a
   0038 C0 E0               172 	push	acc
   003A E4                  173 	clr	a
   003B C0 E0               174 	push	acc
   003D 8A 82               175 	mov	dpl,r2
   003F 8B 83               176 	mov	dph,r3
   0041 8C F0               177 	mov	b,r4
   0043 78r00               178 	mov	r0,#_memset
   0045 79s00               179 	mov	r1,#(_memset >> 8)
   0047 7As00               180 	mov	r2,#(_memset >> 16)
   0049 12s00r00            181 	lcall	__sdcc_banked_call
   004C 15 81               182 	dec	sp
   004E 15 81               183 	dec	sp
   0050 15 81               184 	dec	sp
                            185 ;	../../../contiki-sensinode//core/net/mac/frame802154.c:103: if(p->fcf.dest_addr_mode & 3) {
   0052 E5 81               186 	mov	a,sp
   0054 24 F8               187 	add	a,#0xf8
   0056 F8                  188 	mov	r0,a
   0057 74 05               189 	mov	a,#0x05
   0059 26                  190 	add	a,@r0
   005A FA                  191 	mov	r2,a
   005B E4                  192 	clr	a
   005C 08                  193 	inc	r0
   005D 36                  194 	addc	a,@r0
   005E FB                  195 	mov	r3,a
   005F 08                  196 	inc	r0
   0060 86 04               197 	mov	ar4,@r0
   0062 8A 82               198 	mov	dpl,r2
   0064 8B 83               199 	mov	dph,r3
   0066 8C F0               200 	mov	b,r4
   0068 12s00r00            201 	lcall	__gptrget
   006B FC                  202 	mov	r4,a
   006C 54 03               203 	anl	a,#0x03
   006E 60 18               204 	jz	00102$
                            205 ;	../../../contiki-sensinode//core/net/mac/frame802154.c:104: flen->dest_pid_len = 2;
   0070 E5 81               206 	mov	a,sp
   0072 24 F2               207 	add	a,#0xf2
   0074 F8                  208 	mov	r0,a
   0075 86 02               209 	mov	ar2,@r0
   0077 08                  210 	inc	r0
   0078 86 03               211 	mov	ar3,@r0
   007A 08                  212 	inc	r0
   007B 86 07               213 	mov	ar7,@r0
   007D 8A 82               214 	mov	dpl,r2
   007F 8B 83               215 	mov	dph,r3
   0081 8F F0               216 	mov	b,r7
   0083 74 02               217 	mov	a,#0x02
   0085 12s00r00            218 	lcall	__gptrput
   0088                     219 00102$:
                            220 ;	../../../contiki-sensinode//core/net/mac/frame802154.c:106: if(p->fcf.src_addr_mode & 3) {
   0088 E5 81               221 	mov	a,sp
   008A 24 F8               222 	add	a,#0xf8
   008C F8                  223 	mov	r0,a
   008D E5 81               224 	mov	a,sp
   008F 24 FB               225 	add	a,#0xfb
   0091 F9                  226 	mov	r1,a
   0092 74 07               227 	mov	a,#0x07
   0094 26                  228 	add	a,@r0
   0095 F7                  229 	mov	@r1,a
   0096 E4                  230 	clr	a
   0097 08                  231 	inc	r0
   0098 36                  232 	addc	a,@r0
   0099 09                  233 	inc	r1
   009A F7                  234 	mov	@r1,a
   009B 08                  235 	inc	r0
   009C 09                  236 	inc	r1
   009D E6                  237 	mov	a,@r0
   009E F7                  238 	mov	@r1,a
   009F E5 81               239 	mov	a,sp
   00A1 24 FB               240 	add	a,#0xfb
   00A3 F8                  241 	mov	r0,a
   00A4 86 82               242 	mov	dpl,@r0
   00A6 08                  243 	inc	r0
   00A7 86 83               244 	mov	dph,@r0
   00A9 08                  245 	inc	r0
   00AA 86 F0               246 	mov	b,@r0
   00AC 12s00r00            247 	lcall	__gptrget
   00AF FB                  248 	mov	r3,a
   00B0 54 03               249 	anl	a,#0x03
   00B2 60 23               250 	jz	00104$
                            251 ;	../../../contiki-sensinode//core/net/mac/frame802154.c:107: flen->src_pid_len = 2;
   00B4 C0 03               252 	push	ar3
   00B6 E5 81               253 	mov	a,sp
   00B8 24 F1               254 	add	a,#0xf1
   00BA F8                  255 	mov	r0,a
   00BB 86 02               256 	mov	ar2,@r0
   00BD 08                  257 	inc	r0
   00BE 86 03               258 	mov	ar3,@r0
   00C0 08                  259 	inc	r0
   00C1 86 07               260 	mov	ar7,@r0
   00C3 74 02               261 	mov	a,#0x02
   00C5 2A                  262 	add	a,r2
   00C6 FA                  263 	mov	r2,a
   00C7 E4                  264 	clr	a
   00C8 3B                  265 	addc	a,r3
   00C9 FB                  266 	mov	r3,a
   00CA 8A 82               267 	mov	dpl,r2
   00CC 8B 83               268 	mov	dph,r3
   00CE 8F F0               269 	mov	b,r7
   00D0 74 02               270 	mov	a,#0x02
   00D2 12s00r00            271 	lcall	__gptrput
                            272 ;	../../../contiki-sensinode//core/net/mac/frame802154.c:126: if(p->fcf.security_enabled & 1) {
   00D5 D0 03               273 	pop	ar3
                            274 ;	../../../contiki-sensinode//core/net/mac/frame802154.c:107: flen->src_pid_len = 2;
   00D7                     275 00104$:
                            276 ;	../../../contiki-sensinode//core/net/mac/frame802154.c:111: if(p->fcf.dest_addr_mode & 3 && p->fcf.src_addr_mode & 3 &&
   00D7 EC                  277 	mov	a,r4
   00D8 54 03               278 	anl	a,#0x03
   00DA 70 03               279 	jnz	00124$
   00DC 02s01r68            280 	ljmp	00106$
   00DF                     281 00124$:
   00DF EB                  282 	mov	a,r3
   00E0 54 03               283 	anl	a,#0x03
   00E2 70 03               284 	jnz	00125$
   00E4 02s01r68            285 	ljmp	00106$
   00E7                     286 00125$:
                            287 ;	../../../contiki-sensinode//core/net/mac/frame802154.c:112: p->src_pid == p->dest_pid) {
   00E7 E5 81               288 	mov	a,sp
   00E9 24 F8               289 	add	a,#0xf8
   00EB F8                  290 	mov	r0,a
   00EC 74 13               291 	mov	a,#0x13
   00EE 26                  292 	add	a,@r0
   00EF FD                  293 	mov	r5,a
   00F0 E4                  294 	clr	a
   00F1 08                  295 	inc	r0
   00F2 36                  296 	addc	a,@r0
   00F3 FE                  297 	mov	r6,a
   00F4 08                  298 	inc	r0
   00F5 86 07               299 	mov	ar7,@r0
   00F7 8D 82               300 	mov	dpl,r5
   00F9 8E 83               301 	mov	dph,r6
   00FB 8F F0               302 	mov	b,r7
   00FD 12s00r00            303 	lcall	__gptrget
   0100 FD                  304 	mov	r5,a
   0101 A3                  305 	inc	dptr
   0102 12s00r00            306 	lcall	__gptrget
   0105 FE                  307 	mov	r6,a
   0106 E5 81               308 	mov	a,sp
   0108 24 F8               309 	add	a,#0xf8
   010A F8                  310 	mov	r0,a
   010B 74 09               311 	mov	a,#0x09
   010D 26                  312 	add	a,@r0
   010E FA                  313 	mov	r2,a
   010F E4                  314 	clr	a
   0110 08                  315 	inc	r0
   0111 36                  316 	addc	a,@r0
   0112 FB                  317 	mov	r3,a
   0113 08                  318 	inc	r0
   0114 86 07               319 	mov	ar7,@r0
   0116 8A 82               320 	mov	dpl,r2
   0118 8B 83               321 	mov	dph,r3
   011A 8F F0               322 	mov	b,r7
   011C 12s00r00            323 	lcall	__gptrget
   011F FA                  324 	mov	r2,a
   0120 A3                  325 	inc	dptr
   0121 12s00r00            326 	lcall	__gptrget
   0124 FB                  327 	mov	r3,a
   0125 ED                  328 	mov	a,r5
   0126 B5 02 3F            329 	cjne	a,ar2,00106$
   0129 EE                  330 	mov	a,r6
   012A B5 03 3B            331 	cjne	a,ar3,00106$
                            332 ;	../../../contiki-sensinode//core/net/mac/frame802154.c:113: p->fcf.panid_compression = 1;
   012D E5 81               333 	mov	a,sp
   012F 24 F8               334 	add	a,#0xf8
   0131 F8                  335 	mov	r0,a
   0132 74 04               336 	mov	a,#0x04
   0134 26                  337 	add	a,@r0
   0135 FD                  338 	mov	r5,a
   0136 E4                  339 	clr	a
   0137 08                  340 	inc	r0
   0138 36                  341 	addc	a,@r0
   0139 FE                  342 	mov	r6,a
   013A 08                  343 	inc	r0
   013B 86 07               344 	mov	ar7,@r0
   013D 8D 82               345 	mov	dpl,r5
   013F 8E 83               346 	mov	dph,r6
   0141 8F F0               347 	mov	b,r7
   0143 74 01               348 	mov	a,#0x01
   0145 12s00r00            349 	lcall	__gptrput
                            350 ;	../../../contiki-sensinode//core/net/mac/frame802154.c:116: flen->src_pid_len = 0;
   0148 E5 81               351 	mov	a,sp
   014A 24 F2               352 	add	a,#0xf2
   014C F8                  353 	mov	r0,a
   014D 86 05               354 	mov	ar5,@r0
   014F 08                  355 	inc	r0
   0150 86 06               356 	mov	ar6,@r0
   0152 08                  357 	inc	r0
   0153 86 07               358 	mov	ar7,@r0
   0155 74 02               359 	mov	a,#0x02
   0157 2D                  360 	add	a,r5
   0158 FD                  361 	mov	r5,a
   0159 E4                  362 	clr	a
   015A 3E                  363 	addc	a,r6
   015B FE                  364 	mov	r6,a
   015C 8D 82               365 	mov	dpl,r5
   015E 8E 83               366 	mov	dph,r6
   0160 8F F0               367 	mov	b,r7
   0162 E4                  368 	clr	a
   0163 12s00r00            369 	lcall	__gptrput
   0166 80 1A               370 	sjmp	00107$
   0168                     371 00106$:
                            372 ;	../../../contiki-sensinode//core/net/mac/frame802154.c:118: p->fcf.panid_compression = 0;
   0168 E5 81               373 	mov	a,sp
   016A 24 F8               374 	add	a,#0xf8
   016C F8                  375 	mov	r0,a
   016D 74 04               376 	mov	a,#0x04
   016F 26                  377 	add	a,@r0
   0170 FD                  378 	mov	r5,a
   0171 E4                  379 	clr	a
   0172 08                  380 	inc	r0
   0173 36                  381 	addc	a,@r0
   0174 FE                  382 	mov	r6,a
   0175 08                  383 	inc	r0
   0176 86 07               384 	mov	ar7,@r0
   0178 8D 82               385 	mov	dpl,r5
   017A 8E 83               386 	mov	dph,r6
   017C 8F F0               387 	mov	b,r7
   017E E4                  388 	clr	a
   017F 12s00r00            389 	lcall	__gptrput
   0182                     390 00107$:
                            391 ;	../../../contiki-sensinode//core/net/mac/frame802154.c:122: flen->dest_addr_len = addr_len(p->fcf.dest_addr_mode & 3);
   0182 E5 81               392 	mov	a,sp
   0184 24 F2               393 	add	a,#0xf2
   0186 F8                  394 	mov	r0,a
   0187 A9 81               395 	mov	r1,sp
   0189 19                  396 	dec	r1
   018A 19                  397 	dec	r1
   018B E6                  398 	mov	a,@r0
   018C F7                  399 	mov	@r1,a
   018D 08                  400 	inc	r0
   018E 09                  401 	inc	r1
   018F E6                  402 	mov	a,@r0
   0190 F7                  403 	mov	@r1,a
   0191 08                  404 	inc	r0
   0192 09                  405 	inc	r1
   0193 E6                  406 	mov	a,@r0
   0194 F7                  407 	mov	@r1,a
   0195 A8 81               408 	mov	r0,sp
   0197 18                  409 	dec	r0
   0198 18                  410 	dec	r0
   0199 74 01               411 	mov	a,#0x01
   019B 26                  412 	add	a,@r0
   019C FA                  413 	mov	r2,a
   019D E4                  414 	clr	a
   019E 08                  415 	inc	r0
   019F 36                  416 	addc	a,@r0
   01A0 FB                  417 	mov	r3,a
   01A1 08                  418 	inc	r0
   01A2 86 07               419 	mov	ar7,@r0
   01A4 53 04 03            420 	anl	ar4,#0x03
   01A7 8C 82               421 	mov	dpl,r4
   01A9 C0 07               422 	push	ar7
   01AB C0 03               423 	push	ar3
   01AD C0 02               424 	push	ar2
   01AF 78r00               425 	mov	r0,#_addr_len
   01B1 79s00               426 	mov	r1,#(_addr_len >> 8)
   01B3 7As00               427 	mov	r2,#(_addr_len >> 16)
   01B5 12s00r00            428 	lcall	__sdcc_banked_call
   01B8 AE 82               429 	mov	r6,dpl
   01BA D0 02               430 	pop	ar2
   01BC D0 03               431 	pop	ar3
   01BE D0 07               432 	pop	ar7
   01C0 8A 82               433 	mov	dpl,r2
   01C2 8B 83               434 	mov	dph,r3
   01C4 8F F0               435 	mov	b,r7
   01C6 EE                  436 	mov	a,r6
   01C7 12s00r00            437 	lcall	__gptrput
                            438 ;	../../../contiki-sensinode//core/net/mac/frame802154.c:123: flen->src_addr_len = addr_len(p->fcf.src_addr_mode & 3);
   01CA A8 81               439 	mov	r0,sp
   01CC 18                  440 	dec	r0
   01CD 18                  441 	dec	r0
   01CE 74 03               442 	mov	a,#0x03
   01D0 26                  443 	add	a,@r0
   01D1 FD                  444 	mov	r5,a
   01D2 E4                  445 	clr	a
   01D3 08                  446 	inc	r0
   01D4 36                  447 	addc	a,@r0
   01D5 FE                  448 	mov	r6,a
   01D6 08                  449 	inc	r0
   01D7 86 07               450 	mov	ar7,@r0
   01D9 E5 81               451 	mov	a,sp
   01DB 24 FB               452 	add	a,#0xfb
   01DD F8                  453 	mov	r0,a
   01DE 86 82               454 	mov	dpl,@r0
   01E0 08                  455 	inc	r0
   01E1 86 83               456 	mov	dph,@r0
   01E3 08                  457 	inc	r0
   01E4 86 F0               458 	mov	b,@r0
   01E6 12s00r00            459 	lcall	__gptrget
   01E9 FC                  460 	mov	r4,a
   01EA 53 04 03            461 	anl	ar4,#0x03
   01ED 8C 82               462 	mov	dpl,r4
   01EF C0 07               463 	push	ar7
   01F1 C0 06               464 	push	ar6
   01F3 C0 05               465 	push	ar5
   01F5 78r00               466 	mov	r0,#_addr_len
   01F7 79s00               467 	mov	r1,#(_addr_len >> 8)
   01F9 7As00               468 	mov	r2,#(_addr_len >> 16)
   01FB 12s00r00            469 	lcall	__sdcc_banked_call
   01FE AC 82               470 	mov	r4,dpl
   0200 D0 05               471 	pop	ar5
   0202 D0 06               472 	pop	ar6
   0204 D0 07               473 	pop	ar7
   0206 8D 82               474 	mov	dpl,r5
   0208 8E 83               475 	mov	dph,r6
   020A 8F F0               476 	mov	b,r7
   020C EC                  477 	mov	a,r4
   020D 12s00r00            478 	lcall	__gptrput
                            479 ;	../../../contiki-sensinode//core/net/mac/frame802154.c:126: if(p->fcf.security_enabled & 1) {
   0210 E5 81               480 	mov	a,sp
   0212 24 F7               481 	add	a,#0xF7
   0214 F5 81               482 	mov	sp,a
   0216 02s00r00            483 	ljmp	__sdcc_banked_ret
                            484 ;------------------------------------------------------------
                            485 ;Allocation info for local variables in function 'frame802154_hdrlen'
                            486 ;------------------------------------------------------------
                            487 ;p                         Allocated to registers r5 r6 r7 
                            488 ;------------------------------------------------------------
                            489 ;	../../../contiki-sensinode//core/net/mac/frame802154.c:159: frame802154_hdrlen(frame802154_t *p)
                            490 ;	-----------------------------------------
                            491 ;	 function frame802154_hdrlen
                            492 ;	-----------------------------------------
   0219                     493 _frame802154_hdrlen:
   0219 AD 82               494 	mov	r5,dpl
   021B AE 83               495 	mov	r6,dph
   021D AF F0               496 	mov	r7,b
                            497 ;	../../../contiki-sensinode//core/net/mac/frame802154.c:161: field_len(p, &flen);
   021F 74r00               498 	mov	a,#_flen
   0221 C0 E0               499 	push	acc
   0223 74s00               500 	mov	a,#(_flen >> 8)
   0225 C0 E0               501 	push	acc
   0227 E4                  502 	clr	a
   0228 C0 E0               503 	push	acc
   022A 8D 82               504 	mov	dpl,r5
   022C 8E 83               505 	mov	dph,r6
   022E 8F F0               506 	mov	b,r7
   0230 78r1C               507 	mov	r0,#_field_len
   0232 79s00               508 	mov	r1,#(_field_len >> 8)
   0234 7As00               509 	mov	r2,#(_field_len >> 16)
   0236 12s00r00            510 	lcall	__sdcc_banked_call
   0239 15 81               511 	dec	sp
   023B 15 81               512 	dec	sp
   023D 15 81               513 	dec	sp
                            514 ;	../../../contiki-sensinode//core/net/mac/frame802154.c:162: return 3 + flen.dest_pid_len + flen.dest_addr_len +
   023F 90s00r00            515 	mov	dptr,#_flen
   0242 E0                  516 	movx	a,@dptr
   0243 FF                  517 	mov	r7,a
   0244 0F                  518 	inc	r7
   0245 0F                  519 	inc	r7
   0246 0F                  520 	inc	r7
   0247 90s00r01            521 	mov	dptr,#(_flen + 0x0001)
   024A E0                  522 	movx	a,@dptr
   024B 2F                  523 	add	a,r7
   024C FF                  524 	mov	r7,a
                            525 ;	../../../contiki-sensinode//core/net/mac/frame802154.c:163: flen.src_pid_len + flen.src_addr_len + flen.aux_sec_len;
   024D 90s00r02            526 	mov	dptr,#(_flen + 0x0002)
   0250 E0                  527 	movx	a,@dptr
   0251 2F                  528 	add	a,r7
   0252 FF                  529 	mov	r7,a
   0253 90s00r03            530 	mov	dptr,#(_flen + 0x0003)
   0256 E0                  531 	movx	a,@dptr
   0257 2F                  532 	add	a,r7
   0258 FF                  533 	mov	r7,a
   0259 90s00r04            534 	mov	dptr,#(_flen + 0x0004)
   025C E0                  535 	movx	a,@dptr
   025D FE                  536 	mov	r6,a
   025E 2F                  537 	add	a,r7
   025F FF                  538 	mov	r7,a
   0260 F5 82               539 	mov	dpl,a
   0262 02s00r00            540 	ljmp	__sdcc_banked_ret
                            541 ;------------------------------------------------------------
                            542 ;Allocation info for local variables in function 'frame802154_create'
                            543 ;------------------------------------------------------------
                            544 ;buf                       Allocated to stack - sp -22
                            545 ;buf_len                   Allocated to stack - sp -23
                            546 ;p                         Allocated to stack - sp -16
                            547 ;c                         Allocated to registers r4 r5 
                            548 ;tx_frame_buffer           Allocated to stack - sp -13
                            549 ;pos                       Allocated to stack - sp -10
                            550 ;sloc0                     Allocated to stack - sp -9
                            551 ;sloc1                     Allocated to stack - sp -5
                            552 ;sloc2                     Allocated to stack - sp -7
                            553 ;sloc3                     Allocated to stack - sp -4
                            554 ;sloc4                     Allocated to stack - sp -2
                            555 ;------------------------------------------------------------
                            556 ;	../../../contiki-sensinode//core/net/mac/frame802154.c:181: frame802154_create(frame802154_t *p, uint8_t *buf, uint8_t buf_len)
                            557 ;	-----------------------------------------
                            558 ;	 function frame802154_create
                            559 ;	-----------------------------------------
   0265                     560 _frame802154_create:
   0265 C0 82               561 	push	dpl
   0267 C0 83               562 	push	dph
   0269 C0 F0               563 	push	b
   026B E5 81               564 	mov	a,sp
   026D 24 0E               565 	add	a,#0x0E
   026F F5 81               566 	mov	sp,a
                            567 ;	../../../contiki-sensinode//core/net/mac/frame802154.c:187: field_len(p, &flen);
   0271 74r00               568 	mov	a,#_flen
   0273 C0 E0               569 	push	acc
   0275 74s00               570 	mov	a,#(_flen >> 8)
   0277 C0 E0               571 	push	acc
   0279 E4                  572 	clr	a
   027A C0 E0               573 	push	acc
   027C E5 81               574 	mov	a,sp
   027E 24 ED               575 	add	a,#0xed
   0280 F8                  576 	mov	r0,a
   0281 86 82               577 	mov	dpl,@r0
   0283 08                  578 	inc	r0
   0284 86 83               579 	mov	dph,@r0
   0286 08                  580 	inc	r0
   0287 86 F0               581 	mov	b,@r0
   0289 78r1C               582 	mov	r0,#_field_len
   028B 79s00               583 	mov	r1,#(_field_len >> 8)
   028D 7As00               584 	mov	r2,#(_field_len >> 16)
   028F 12s00r00            585 	lcall	__sdcc_banked_call
   0292 15 81               586 	dec	sp
   0294 15 81               587 	dec	sp
   0296 15 81               588 	dec	sp
                            589 ;	../../../contiki-sensinode//core/net/mac/frame802154.c:189: if(3 + flen.dest_pid_len + flen.dest_addr_len +
   0298 90s00r00            590 	mov	dptr,#_flen
   029B E0                  591 	movx	a,@dptr
   029C FC                  592 	mov	r4,a
   029D 7B 00               593 	mov	r3,#0x00
   029F 74 03               594 	mov	a,#0x03
   02A1 2C                  595 	add	a,r4
   02A2 FC                  596 	mov	r4,a
   02A3 E4                  597 	clr	a
   02A4 3B                  598 	addc	a,r3
   02A5 FB                  599 	mov	r3,a
   02A6 90s00r01            600 	mov	dptr,#(_flen + 0x0001)
   02A9 E0                  601 	movx	a,@dptr
   02AA FA                  602 	mov	r2,a
   02AB E5 81               603 	mov	a,sp
   02AD 24 F7               604 	add	a,#0xf7
   02AF F8                  605 	mov	r0,a
   02B0 A6 02               606 	mov	@r0,ar2
   02B2 08                  607 	inc	r0
   02B3 76 00               608 	mov	@r0,#0x00
   02B5 E5 81               609 	mov	a,sp
   02B7 24 F7               610 	add	a,#0xf7
   02B9 F8                  611 	mov	r0,a
   02BA E6                  612 	mov	a,@r0
   02BB 2C                  613 	add	a,r4
   02BC FC                  614 	mov	r4,a
   02BD 08                  615 	inc	r0
   02BE E6                  616 	mov	a,@r0
   02BF 3B                  617 	addc	a,r3
   02C0 FB                  618 	mov	r3,a
                            619 ;	../../../contiki-sensinode//core/net/mac/frame802154.c:190: flen.src_pid_len + flen.src_addr_len + flen.aux_sec_len > buf_len) {
   02C1 90s00r02            620 	mov	dptr,#(_flen + 0x0002)
   02C4 E0                  621 	movx	a,@dptr
   02C5 FA                  622 	mov	r2,a
   02C6 7F 00               623 	mov	r7,#0x00
   02C8 2C                  624 	add	a,r4
   02C9 FC                  625 	mov	r4,a
   02CA EF                  626 	mov	a,r7
   02CB 3B                  627 	addc	a,r3
   02CC FB                  628 	mov	r3,a
   02CD 90s00r03            629 	mov	dptr,#(_flen + 0x0003)
   02D0 E0                  630 	movx	a,@dptr
   02D1 FF                  631 	mov	r7,a
   02D2 E5 81               632 	mov	a,sp
   02D4 24 FC               633 	add	a,#0xfc
   02D6 F8                  634 	mov	r0,a
   02D7 A6 07               635 	mov	@r0,ar7
   02D9 08                  636 	inc	r0
   02DA 76 00               637 	mov	@r0,#0x00
   02DC E5 81               638 	mov	a,sp
   02DE 24 FC               639 	add	a,#0xfc
   02E0 F8                  640 	mov	r0,a
   02E1 E6                  641 	mov	a,@r0
   02E2 2C                  642 	add	a,r4
   02E3 FF                  643 	mov	r7,a
   02E4 08                  644 	inc	r0
   02E5 E6                  645 	mov	a,@r0
   02E6 3B                  646 	addc	a,r3
   02E7 FE                  647 	mov	r6,a
   02E8 90s00r04            648 	mov	dptr,#(_flen + 0x0004)
   02EB E0                  649 	movx	a,@dptr
   02EC FC                  650 	mov	r4,a
   02ED 7D 00               651 	mov	r5,#0x00
   02EF 2F                  652 	add	a,r7
   02F0 FF                  653 	mov	r7,a
   02F1 ED                  654 	mov	a,r5
   02F2 3E                  655 	addc	a,r6
   02F3 FE                  656 	mov	r6,a
   02F4 E5 81               657 	mov	a,sp
   02F6 24 E9               658 	add	a,#0xe9
   02F8 F8                  659 	mov	r0,a
   02F9 86 03               660 	mov	ar3,@r0
   02FB 7D 00               661 	mov	r5,#0x00
   02FD C3                  662 	clr	c
   02FE EB                  663 	mov	a,r3
   02FF 9F                  664 	subb	a,r7
   0300 ED                  665 	mov	a,r5
   0301 64 80               666 	xrl	a,#0x80
   0303 8E F0               667 	mov	b,r6
   0305 63 F0 80            668 	xrl	b,#0x80
   0308 95 F0               669 	subb	a,b
   030A 50 06               670 	jnc	00102$
                            671 ;	../../../contiki-sensinode//core/net/mac/frame802154.c:192: return 0;
   030C 75 82 00            672 	mov	dpl,#0x00
   030F 02s06r9C            673 	ljmp	00115$
   0312                     674 00102$:
                            675 ;	../../../contiki-sensinode//core/net/mac/frame802154.c:197: tx_frame_buffer = buf;
   0312 C0 02               676 	push	ar2
   0314 E5 81               677 	mov	a,sp
   0316 24 E9               678 	add	a,#0xe9
   0318 F8                  679 	mov	r0,a
   0319 E5 81               680 	mov	a,sp
   031B 24 F2               681 	add	a,#0xf2
   031D F9                  682 	mov	r1,a
   031E E6                  683 	mov	a,@r0
   031F F7                  684 	mov	@r1,a
   0320 08                  685 	inc	r0
   0321 09                  686 	inc	r1
   0322 E6                  687 	mov	a,@r0
   0323 F7                  688 	mov	@r1,a
   0324 08                  689 	inc	r0
   0325 09                  690 	inc	r1
   0326 E6                  691 	mov	a,@r0
   0327 F7                  692 	mov	@r1,a
                            693 ;	../../../contiki-sensinode//core/net/mac/frame802154.c:198: tx_frame_buffer[0] = (p->fcf.frame_type & 7) |
   0328 E5 81               694 	mov	a,sp
   032A 24 EF               695 	add	a,#0xef
   032C F8                  696 	mov	r0,a
   032D 86 82               697 	mov	dpl,@r0
   032F 08                  698 	inc	r0
   0330 86 83               699 	mov	dph,@r0
   0332 08                  700 	inc	r0
   0333 86 F0               701 	mov	b,@r0
   0335 12s00r00            702 	lcall	__gptrget
   0338 FA                  703 	mov	r2,a
   0339 53 02 07            704 	anl	ar2,#0x07
                            705 ;	../../../contiki-sensinode//core/net/mac/frame802154.c:199: ((p->fcf.security_enabled & 1) << 3) |
   033C E5 81               706 	mov	a,sp
   033E 24 EF               707 	add	a,#0xef
   0340 F8                  708 	mov	r0,a
   0341 74 01               709 	mov	a,#0x01
   0343 26                  710 	add	a,@r0
   0344 FB                  711 	mov	r3,a
   0345 E4                  712 	clr	a
   0346 08                  713 	inc	r0
   0347 36                  714 	addc	a,@r0
   0348 FC                  715 	mov	r4,a
   0349 08                  716 	inc	r0
   034A 86 05               717 	mov	ar5,@r0
   034C 8B 82               718 	mov	dpl,r3
   034E 8C 83               719 	mov	dph,r4
   0350 8D F0               720 	mov	b,r5
   0352 12s00r00            721 	lcall	__gptrget
   0355 54 01               722 	anl	a,#0x01
   0357 C4                  723 	swap	a
   0358 03                  724 	rr	a
   0359 54 F8               725 	anl	a,#0xF8
   035B 42 02               726 	orl	ar2,a
                            727 ;	../../../contiki-sensinode//core/net/mac/frame802154.c:200: ((p->fcf.frame_pending & 1) << 4) |
   035D E5 81               728 	mov	a,sp
   035F 24 EF               729 	add	a,#0xef
   0361 F8                  730 	mov	r0,a
   0362 74 02               731 	mov	a,#0x02
   0364 26                  732 	add	a,@r0
   0365 FB                  733 	mov	r3,a
   0366 E4                  734 	clr	a
   0367 08                  735 	inc	r0
   0368 36                  736 	addc	a,@r0
   0369 FC                  737 	mov	r4,a
   036A 08                  738 	inc	r0
   036B 86 05               739 	mov	ar5,@r0
   036D 8B 82               740 	mov	dpl,r3
   036F 8C 83               741 	mov	dph,r4
   0371 8D F0               742 	mov	b,r5
   0373 12s00r00            743 	lcall	__gptrget
   0376 54 01               744 	anl	a,#0x01
   0378 C4                  745 	swap	a
   0379 54 F0               746 	anl	a,#0xF0
   037B 42 02               747 	orl	ar2,a
                            748 ;	../../../contiki-sensinode//core/net/mac/frame802154.c:201: ((p->fcf.ack_required & 1) << 5) |
   037D E5 81               749 	mov	a,sp
   037F 24 EF               750 	add	a,#0xef
   0381 F8                  751 	mov	r0,a
   0382 74 03               752 	mov	a,#0x03
   0384 26                  753 	add	a,@r0
   0385 FB                  754 	mov	r3,a
   0386 E4                  755 	clr	a
   0387 08                  756 	inc	r0
   0388 36                  757 	addc	a,@r0
   0389 FC                  758 	mov	r4,a
   038A 08                  759 	inc	r0
   038B 86 05               760 	mov	ar5,@r0
   038D 8B 82               761 	mov	dpl,r3
   038F 8C 83               762 	mov	dph,r4
   0391 8D F0               763 	mov	b,r5
   0393 12s00r00            764 	lcall	__gptrget
   0396 54 01               765 	anl	a,#0x01
   0398 C4                  766 	swap	a
   0399 23                  767 	rl	a
   039A 54 E0               768 	anl	a,#0xE0
   039C 42 02               769 	orl	ar2,a
                            770 ;	../../../contiki-sensinode//core/net/mac/frame802154.c:202: ((p->fcf.panid_compression & 1) << 6);
   039E E5 81               771 	mov	a,sp
   03A0 24 EF               772 	add	a,#0xef
   03A2 F8                  773 	mov	r0,a
   03A3 74 04               774 	mov	a,#0x04
   03A5 26                  775 	add	a,@r0
   03A6 FB                  776 	mov	r3,a
   03A7 E4                  777 	clr	a
   03A8 08                  778 	inc	r0
   03A9 36                  779 	addc	a,@r0
   03AA FC                  780 	mov	r4,a
   03AB 08                  781 	inc	r0
   03AC 86 05               782 	mov	ar5,@r0
   03AE 8B 82               783 	mov	dpl,r3
   03B0 8C 83               784 	mov	dph,r4
   03B2 8D F0               785 	mov	b,r5
   03B4 12s00r00            786 	lcall	__gptrget
   03B7 54 01               787 	anl	a,#0x01
   03B9 03                  788 	rr	a
   03BA 03                  789 	rr	a
   03BB 54 C0               790 	anl	a,#0xC0
   03BD 42 02               791 	orl	ar2,a
   03BF E5 81               792 	mov	a,sp
   03C1 24 F2               793 	add	a,#0xf2
   03C3 F8                  794 	mov	r0,a
   03C4 86 82               795 	mov	dpl,@r0
   03C6 08                  796 	inc	r0
   03C7 86 83               797 	mov	dph,@r0
   03C9 08                  798 	inc	r0
   03CA 86 F0               799 	mov	b,@r0
   03CC EA                  800 	mov	a,r2
   03CD 12s00r00            801 	lcall	__gptrput
                            802 ;	../../../contiki-sensinode//core/net/mac/frame802154.c:203: tx_frame_buffer[1] = ((p->fcf.dest_addr_mode & 3) << 2) |
   03D0 E5 81               803 	mov	a,sp
   03D2 24 F2               804 	add	a,#0xf2
   03D4 F8                  805 	mov	r0,a
   03D5 E5 81               806 	mov	a,sp
   03D7 24 F8               807 	add	a,#0xf8
   03D9 F9                  808 	mov	r1,a
   03DA 74 01               809 	mov	a,#0x01
   03DC 26                  810 	add	a,@r0
   03DD F7                  811 	mov	@r1,a
   03DE E4                  812 	clr	a
   03DF 08                  813 	inc	r0
   03E0 36                  814 	addc	a,@r0
   03E1 09                  815 	inc	r1
   03E2 F7                  816 	mov	@r1,a
   03E3 08                  817 	inc	r0
   03E4 09                  818 	inc	r1
   03E5 E6                  819 	mov	a,@r0
   03E6 F7                  820 	mov	@r1,a
   03E7 E5 81               821 	mov	a,sp
   03E9 24 EF               822 	add	a,#0xef
   03EB F8                  823 	mov	r0,a
   03EC 74 05               824 	mov	a,#0x05
   03EE 26                  825 	add	a,@r0
   03EF FA                  826 	mov	r2,a
   03F0 E4                  827 	clr	a
   03F1 08                  828 	inc	r0
   03F2 36                  829 	addc	a,@r0
   03F3 FC                  830 	mov	r4,a
   03F4 08                  831 	inc	r0
   03F5 86 05               832 	mov	ar5,@r0
   03F7 8A 82               833 	mov	dpl,r2
   03F9 8C 83               834 	mov	dph,r4
   03FB 8D F0               835 	mov	b,r5
   03FD 12s00r00            836 	lcall	__gptrget
   0400 54 03               837 	anl	a,#0x03
   0402 25 E0               838 	add	a,acc
   0404 25 E0               839 	add	a,acc
   0406 FA                  840 	mov	r2,a
                            841 ;	../../../contiki-sensinode//core/net/mac/frame802154.c:204: ((p->fcf.frame_version & 3) << 4) |
   0407 E5 81               842 	mov	a,sp
   0409 24 EF               843 	add	a,#0xef
   040B F8                  844 	mov	r0,a
   040C 74 06               845 	mov	a,#0x06
   040E 26                  846 	add	a,@r0
   040F FB                  847 	mov	r3,a
   0410 E4                  848 	clr	a
   0411 08                  849 	inc	r0
   0412 36                  850 	addc	a,@r0
   0413 FC                  851 	mov	r4,a
   0414 08                  852 	inc	r0
   0415 86 05               853 	mov	ar5,@r0
   0417 8B 82               854 	mov	dpl,r3
   0419 8C 83               855 	mov	dph,r4
   041B 8D F0               856 	mov	b,r5
   041D 12s00r00            857 	lcall	__gptrget
   0420 54 03               858 	anl	a,#0x03
   0422 C4                  859 	swap	a
   0423 54 F0               860 	anl	a,#0xF0
   0425 42 02               861 	orl	ar2,a
                            862 ;	../../../contiki-sensinode//core/net/mac/frame802154.c:205: ((p->fcf.src_addr_mode & 3) << 6);
   0427 E5 81               863 	mov	a,sp
   0429 24 EF               864 	add	a,#0xef
   042B F8                  865 	mov	r0,a
   042C 74 07               866 	mov	a,#0x07
   042E 26                  867 	add	a,@r0
   042F FB                  868 	mov	r3,a
   0430 E4                  869 	clr	a
   0431 08                  870 	inc	r0
   0432 36                  871 	addc	a,@r0
   0433 FC                  872 	mov	r4,a
   0434 08                  873 	inc	r0
   0435 86 05               874 	mov	ar5,@r0
   0437 8B 82               875 	mov	dpl,r3
   0439 8C 83               876 	mov	dph,r4
   043B 8D F0               877 	mov	b,r5
   043D 12s00r00            878 	lcall	__gptrget
   0440 54 03               879 	anl	a,#0x03
   0442 03                  880 	rr	a
   0443 03                  881 	rr	a
   0444 54 C0               882 	anl	a,#0xC0
   0446 42 02               883 	orl	ar2,a
   0448 E5 81               884 	mov	a,sp
   044A 24 F8               885 	add	a,#0xf8
   044C F8                  886 	mov	r0,a
   044D 86 82               887 	mov	dpl,@r0
   044F 08                  888 	inc	r0
   0450 86 83               889 	mov	dph,@r0
   0452 08                  890 	inc	r0
   0453 86 F0               891 	mov	b,@r0
   0455 EA                  892 	mov	a,r2
   0456 12s00r00            893 	lcall	__gptrput
                            894 ;	../../../contiki-sensinode//core/net/mac/frame802154.c:208: tx_frame_buffer[2] = p->seq;
   0459 E5 81               895 	mov	a,sp
   045B 24 F2               896 	add	a,#0xf2
   045D F8                  897 	mov	r0,a
   045E 74 02               898 	mov	a,#0x02
   0460 26                  899 	add	a,@r0
   0461 FF                  900 	mov	r7,a
   0462 E4                  901 	clr	a
   0463 08                  902 	inc	r0
   0464 36                  903 	addc	a,@r0
   0465 FE                  904 	mov	r6,a
   0466 08                  905 	inc	r0
   0467 86 03               906 	mov	ar3,@r0
   0469 E5 81               907 	mov	a,sp
   046B 24 EF               908 	add	a,#0xef
   046D F8                  909 	mov	r0,a
   046E 74 08               910 	mov	a,#0x08
   0470 26                  911 	add	a,@r0
   0471 FA                  912 	mov	r2,a
   0472 E4                  913 	clr	a
   0473 08                  914 	inc	r0
   0474 36                  915 	addc	a,@r0
   0475 FC                  916 	mov	r4,a
   0476 08                  917 	inc	r0
   0477 86 05               918 	mov	ar5,@r0
   0479 8A 82               919 	mov	dpl,r2
   047B 8C 83               920 	mov	dph,r4
   047D 8D F0               921 	mov	b,r5
   047F 12s00r00            922 	lcall	__gptrget
   0482 FA                  923 	mov	r2,a
   0483 8F 82               924 	mov	dpl,r7
   0485 8E 83               925 	mov	dph,r6
   0487 8B F0               926 	mov	b,r3
   0489 12s00r00            927 	lcall	__gptrput
                            928 ;	../../../contiki-sensinode//core/net/mac/frame802154.c:209: pos = 3;
   048C E5 81               929 	mov	a,sp
   048E 24 F5               930 	add	a,#0xf5
   0490 F8                  931 	mov	r0,a
   0491 76 03               932 	mov	@r0,#0x03
                            933 ;	../../../contiki-sensinode//core/net/mac/frame802154.c:212: if(flen.dest_pid_len == 2) {
   0493 90s00r00            934 	mov	dptr,#_flen
   0496 E0                  935 	movx	a,@dptr
   0497 FD                  936 	mov	r5,a
   0498 BD 02 02            937 	cjne	r5,#0x02,00134$
   049B 80 04               938 	sjmp	00135$
   049D                     939 00134$:
   049D D0 02               940 	pop	ar2
   049F 80 6E               941 	sjmp	00104$
   04A1                     942 00135$:
                            943 ;	../../../contiki-sensinode//core/net/mac/frame802154.c:213: tx_frame_buffer[pos++] = p->dest_pid & 0xff;
   04A1 E5 81               944 	mov	a,sp
   04A3 24 F2               945 	add	a,#0xf2
   04A5 F8                  946 	mov	r0,a
   04A6 E5 81               947 	mov	a,sp
   04A8 24 F8               948 	add	a,#0xf8
   04AA F9                  949 	mov	r1,a
   04AB 74 03               950 	mov	a,#0x03
   04AD 26                  951 	add	a,@r0
   04AE F7                  952 	mov	@r1,a
   04AF E4                  953 	clr	a
   04B0 08                  954 	inc	r0
   04B1 36                  955 	addc	a,@r0
   04B2 09                  956 	inc	r1
   04B3 F7                  957 	mov	@r1,a
   04B4 08                  958 	inc	r0
   04B5 09                  959 	inc	r1
   04B6 E6                  960 	mov	a,@r0
   04B7 F7                  961 	mov	@r1,a
   04B8 E5 81               962 	mov	a,sp
   04BA 24 EF               963 	add	a,#0xef
   04BC F8                  964 	mov	r0,a
   04BD 74 09               965 	mov	a,#0x09
   04BF 26                  966 	add	a,@r0
   04C0 FA                  967 	mov	r2,a
   04C1 E4                  968 	clr	a
   04C2 08                  969 	inc	r0
   04C3 36                  970 	addc	a,@r0
   04C4 FC                  971 	mov	r4,a
   04C5 08                  972 	inc	r0
   04C6 86 05               973 	mov	ar5,@r0
   04C8 8A 82               974 	mov	dpl,r2
   04CA 8C 83               975 	mov	dph,r4
   04CC 8D F0               976 	mov	b,r5
   04CE 12s00r00            977 	lcall	__gptrget
   04D1 FF                  978 	mov	r7,a
   04D2 A3                  979 	inc	dptr
   04D3 12s00r00            980 	lcall	__gptrget
   04D6 FE                  981 	mov	r6,a
   04D7 8F 03               982 	mov	ar3,r7
   04D9 E5 81               983 	mov	a,sp
   04DB 24 F8               984 	add	a,#0xf8
   04DD F8                  985 	mov	r0,a
   04DE 86 82               986 	mov	dpl,@r0
   04E0 08                  987 	inc	r0
   04E1 86 83               988 	mov	dph,@r0
   04E3 08                  989 	inc	r0
   04E4 86 F0               990 	mov	b,@r0
   04E6 EB                  991 	mov	a,r3
   04E7 12s00r00            992 	lcall	__gptrput
                            993 ;	../../../contiki-sensinode//core/net/mac/frame802154.c:214: tx_frame_buffer[pos++] = (p->dest_pid >> 8) & 0xff;
   04EA E5 81               994 	mov	a,sp
   04EC 24 F5               995 	add	a,#0xf5
   04EE F8                  996 	mov	r0,a
   04EF 76 05               997 	mov	@r0,#0x05
   04F1 E5 81               998 	mov	a,sp
   04F3 24 F2               999 	add	a,#0xf2
   04F5 F8                 1000 	mov	r0,a
   04F6 74 04              1001 	mov	a,#0x04
   04F8 26                 1002 	add	a,@r0
   04F9 FB                 1003 	mov	r3,a
   04FA E4                 1004 	clr	a
   04FB 08                 1005 	inc	r0
   04FC 36                 1006 	addc	a,@r0
   04FD FC                 1007 	mov	r4,a
   04FE 08                 1008 	inc	r0
   04FF 86 05              1009 	mov	ar5,@r0
   0501 8E 02              1010 	mov	ar2,r6
   0503 8B 82              1011 	mov	dpl,r3
   0505 8C 83              1012 	mov	dph,r4
   0507 8D F0              1013 	mov	b,r5
   0509 EA                 1014 	mov	a,r2
   050A 12s00r00           1015 	lcall	__gptrput
                           1016 ;	../../../contiki-sensinode//core/net/mac/frame802154.c:239: return pos;
   050D D0 02              1017 	pop	ar2
                           1018 ;	../../../contiki-sensinode//core/net/mac/frame802154.c:214: tx_frame_buffer[pos++] = (p->dest_pid >> 8) & 0xff;
   050F                    1019 00104$:
                           1020 ;	../../../contiki-sensinode//core/net/mac/frame802154.c:218: for(c = flen.dest_addr_len; c > 0; c--) {
   050F E5 81              1021 	mov	a,sp
   0511 24 F7              1022 	add	a,#0xf7
   0513 F8                 1023 	mov	r0,a
   0514 86 04              1024 	mov	ar4,@r0
   0516 08                 1025 	inc	r0
   0517 86 05              1026 	mov	ar5,@r0
   0519 E5 81              1027 	mov	a,sp
   051B 24 F0              1028 	add	a,#0xf0
   051D F8                 1029 	mov	r0,a
   051E E5 81              1030 	mov	a,sp
   0520 24 F9              1031 	add	a,#0xf9
   0522 F9                 1032 	mov	r1,a
   0523 74 0B              1033 	mov	a,#0x0B
   0525 26                 1034 	add	a,@r0
   0526 F7                 1035 	mov	@r1,a
   0527 E4                 1036 	clr	a
   0528 08                 1037 	inc	r0
   0529 36                 1038 	addc	a,@r0
   052A 09                 1039 	inc	r1
   052B F7                 1040 	mov	@r1,a
   052C 08                 1041 	inc	r0
   052D 09                 1042 	inc	r1
   052E E6                 1043 	mov	a,@r0
   052F F7                 1044 	mov	@r1,a
   0530 E5 81              1045 	mov	a,sp
   0532 24 F6              1046 	add	a,#0xf6
   0534 F8                 1047 	mov	r0,a
   0535 86 03              1048 	mov	ar3,@r0
   0537                    1049 00107$:
   0537 C3                 1050 	clr	c
   0538 E4                 1051 	clr	a
   0539 9C                 1052 	subb	a,r4
   053A E4                 1053 	clr	a
   053B 64 80              1054 	xrl	a,#0x80
   053D 8D F0              1055 	mov	b,r5
   053F 63 F0 80           1056 	xrl	b,#0x80
   0542 95 F0              1057 	subb	a,b
   0544 50 52              1058 	jnc	00124$
                           1059 ;	../../../contiki-sensinode//core/net/mac/frame802154.c:219: tx_frame_buffer[pos++] = p->dest_addr[c - 1];
   0546 C0 02              1060 	push	ar2
   0548 8B 02              1061 	mov	ar2,r3
   054A 0B                 1062 	inc	r3
   054B E5 81              1063 	mov	a,sp
   054D 24 F2              1064 	add	a,#0xf2
   054F F8                 1065 	mov	r0,a
   0550 E5 81              1066 	mov	a,sp
   0552 24 FD              1067 	add	a,#0xfd
   0554 F9                 1068 	mov	r1,a
   0555 EA                 1069 	mov	a,r2
   0556 26                 1070 	add	a,@r0
   0557 F7                 1071 	mov	@r1,a
   0558 E4                 1072 	clr	a
   0559 08                 1073 	inc	r0
   055A 36                 1074 	addc	a,@r0
   055B 09                 1075 	inc	r1
   055C F7                 1076 	mov	@r1,a
   055D 08                 1077 	inc	r0
   055E 09                 1078 	inc	r1
   055F E6                 1079 	mov	a,@r0
   0560 F7                 1080 	mov	@r1,a
   0561 8C 07              1081 	mov	ar7,r4
   0563 EF                 1082 	mov	a,r7
   0564 14                 1083 	dec	a
   0565 C8                 1084 	xch	a,r0
   0566 E5 81              1085 	mov	a,sp
   0568 24 F8              1086 	add	a,#0xf8
   056A C8                 1087 	xch	a,r0
   056B 26                 1088 	add	a,@r0
   056C FA                 1089 	mov	r2,a
   056D 08                 1090 	inc	r0
   056E E4                 1091 	clr	a
   056F 36                 1092 	addc	a,@r0
   0570 FE                 1093 	mov	r6,a
   0571 08                 1094 	inc	r0
   0572 86 07              1095 	mov	ar7,@r0
   0574 8A 82              1096 	mov	dpl,r2
   0576 8E 83              1097 	mov	dph,r6
   0578 8F F0              1098 	mov	b,r7
   057A 12s00r00           1099 	lcall	__gptrget
   057D FA                 1100 	mov	r2,a
   057E E5 81              1101 	mov	a,sp
   0580 24 FD              1102 	add	a,#0xfd
   0582 F8                 1103 	mov	r0,a
   0583 86 82              1104 	mov	dpl,@r0
   0585 08                 1105 	inc	r0
   0586 86 83              1106 	mov	dph,@r0
   0588 08                 1107 	inc	r0
   0589 86 F0              1108 	mov	b,@r0
   058B EA                 1109 	mov	a,r2
   058C 12s00r00           1110 	lcall	__gptrput
                           1111 ;	../../../contiki-sensinode//core/net/mac/frame802154.c:218: for(c = flen.dest_addr_len; c > 0; c--) {
   058F 1C                 1112 	dec	r4
   0590 BC FF 01           1113 	cjne	r4,#0xFF,00137$
   0593 1D                 1114 	dec	r5
   0594                    1115 00137$:
   0594 D0 02              1116 	pop	ar2
   0596 80 9F              1117 	sjmp	00107$
   0598                    1118 00124$:
   0598 E5 81              1119 	mov	a,sp
   059A 24 F6              1120 	add	a,#0xf6
   059C F8                 1121 	mov	r0,a
   059D A6 03              1122 	mov	@r0,ar3
                           1123 ;	../../../contiki-sensinode//core/net/mac/frame802154.c:223: if(flen.src_pid_len == 2) {
   059F BA 02 76           1124 	cjne	r2,#0x02,00106$
                           1125 ;	../../../contiki-sensinode//core/net/mac/frame802154.c:224: tx_frame_buffer[pos++] = p->src_pid & 0xff;
   05A2 E5 81              1126 	mov	a,sp
   05A4 24 F6              1127 	add	a,#0xf6
   05A6 F8                 1128 	mov	r0,a
   05A7 EB                 1129 	mov	a,r3
   05A8 04                 1130 	inc	a
   05A9 F6                 1131 	mov	@r0,a
   05AA E5 81              1132 	mov	a,sp
   05AC 24 F3              1133 	add	a,#0xf3
   05AE F8                 1134 	mov	r0,a
   05AF A9 81              1135 	mov	r1,sp
   05B1 19                 1136 	dec	r1
   05B2 19                 1137 	dec	r1
   05B3 EB                 1138 	mov	a,r3
   05B4 26                 1139 	add	a,@r0
   05B5 F7                 1140 	mov	@r1,a
   05B6 E4                 1141 	clr	a
   05B7 08                 1142 	inc	r0
   05B8 36                 1143 	addc	a,@r0
   05B9 09                 1144 	inc	r1
   05BA F7                 1145 	mov	@r1,a
   05BB 08                 1146 	inc	r0
   05BC 09                 1147 	inc	r1
   05BD E6                 1148 	mov	a,@r0
   05BE F7                 1149 	mov	@r1,a
   05BF E5 81              1150 	mov	a,sp
   05C1 24 F0              1151 	add	a,#0xf0
   05C3 F8                 1152 	mov	r0,a
   05C4 74 13              1153 	mov	a,#0x13
   05C6 26                 1154 	add	a,@r0
   05C7 FA                 1155 	mov	r2,a
   05C8 E4                 1156 	clr	a
   05C9 08                 1157 	inc	r0
   05CA 36                 1158 	addc	a,@r0
   05CB FC                 1159 	mov	r4,a
   05CC 08                 1160 	inc	r0
   05CD 86 05              1161 	mov	ar5,@r0
   05CF 8A 82              1162 	mov	dpl,r2
   05D1 8C 83              1163 	mov	dph,r4
   05D3 8D F0              1164 	mov	b,r5
   05D5 12s00r00           1165 	lcall	__gptrget
   05D8 FA                 1166 	mov	r2,a
   05D9 A3                 1167 	inc	dptr
   05DA 12s00r00           1168 	lcall	__gptrget
   05DD FC                 1169 	mov	r4,a
   05DE 8A 05              1170 	mov	ar5,r2
   05E0 A8 81              1171 	mov	r0,sp
   05E2 18                 1172 	dec	r0
   05E3 18                 1173 	dec	r0
   05E4 86 82              1174 	mov	dpl,@r0
   05E6 08                 1175 	inc	r0
   05E7 86 83              1176 	mov	dph,@r0
   05E9 08                 1177 	inc	r0
   05EA 86 F0              1178 	mov	b,@r0
   05EC ED                 1179 	mov	a,r5
   05ED 12s00r00           1180 	lcall	__gptrput
                           1181 ;	../../../contiki-sensinode//core/net/mac/frame802154.c:225: tx_frame_buffer[pos++] = (p->src_pid >> 8) & 0xff;
   05F0 E5 81              1182 	mov	a,sp
   05F2 24 F6              1183 	add	a,#0xf6
   05F4 F8                 1184 	mov	r0,a
   05F5 86 07              1185 	mov	ar7,@r0
   05F7 E5 81              1186 	mov	a,sp
   05F9 24 F6              1187 	add	a,#0xf6
   05FB F8                 1188 	mov	r0,a
   05FC 06                 1189 	inc	@r0
   05FD E5 81              1190 	mov	a,sp
   05FF 24 F3              1191 	add	a,#0xf3
   0601 F8                 1192 	mov	r0,a
   0602 EF                 1193 	mov	a,r7
   0603 26                 1194 	add	a,@r0
   0604 FF                 1195 	mov	r7,a
   0605 E4                 1196 	clr	a
   0606 08                 1197 	inc	r0
   0607 36                 1198 	addc	a,@r0
   0608 FE                 1199 	mov	r6,a
   0609 08                 1200 	inc	r0
   060A 86 05              1201 	mov	ar5,@r0
   060C 8C 02              1202 	mov	ar2,r4
   060E 8F 82              1203 	mov	dpl,r7
   0610 8E 83              1204 	mov	dph,r6
   0612 8D F0              1205 	mov	b,r5
   0614 EA                 1206 	mov	a,r2
   0615 12s00r00           1207 	lcall	__gptrput
   0618                    1208 00106$:
                           1209 ;	../../../contiki-sensinode//core/net/mac/frame802154.c:229: for(c = flen.src_addr_len; c > 0; c--) {
   0618 E5 81              1210 	mov	a,sp
   061A 24 FC              1211 	add	a,#0xfc
   061C F8                 1212 	mov	r0,a
   061D 86 06              1213 	mov	ar6,@r0
   061F 08                 1214 	inc	r0
   0620 86 07              1215 	mov	ar7,@r0
   0622 E5 81              1216 	mov	a,sp
   0624 24 F0              1217 	add	a,#0xf0
   0626 F8                 1218 	mov	r0,a
   0627 A9 81              1219 	mov	r1,sp
   0629 19                 1220 	dec	r1
   062A 19                 1221 	dec	r1
   062B 74 15              1222 	mov	a,#0x15
   062D 26                 1223 	add	a,@r0
   062E F7                 1224 	mov	@r1,a
   062F E4                 1225 	clr	a
   0630 08                 1226 	inc	r0
   0631 36                 1227 	addc	a,@r0
   0632 09                 1228 	inc	r1
   0633 F7                 1229 	mov	@r1,a
   0634 08                 1230 	inc	r0
   0635 09                 1231 	inc	r1
   0636 E6                 1232 	mov	a,@r0
   0637 F7                 1233 	mov	@r1,a
   0638 E5 81              1234 	mov	a,sp
   063A 24 F6              1235 	add	a,#0xf6
   063C F8                 1236 	mov	r0,a
   063D 86 02              1237 	mov	ar2,@r0
   063F                    1238 00111$:
   063F C3                 1239 	clr	c
   0640 E4                 1240 	clr	a
   0641 9E                 1241 	subb	a,r6
   0642 E4                 1242 	clr	a
   0643 64 80              1243 	xrl	a,#0x80
   0645 8F F0              1244 	mov	b,r7
   0647 63 F0 80           1245 	xrl	b,#0x80
   064A 95 F0              1246 	subb	a,b
   064C 50 4C              1247 	jnc	00114$
                           1248 ;	../../../contiki-sensinode//core/net/mac/frame802154.c:230: tx_frame_buffer[pos++] = p->src_addr[c - 1];
   064E 8A 05              1249 	mov	ar5,r2
   0650 0A                 1250 	inc	r2
   0651 E5 81              1251 	mov	a,sp
   0653 24 F3              1252 	add	a,#0xf3
   0655 F8                 1253 	mov	r0,a
   0656 E5 81              1254 	mov	a,sp
   0658 24 F9              1255 	add	a,#0xf9
   065A F9                 1256 	mov	r1,a
   065B ED                 1257 	mov	a,r5
   065C 26                 1258 	add	a,@r0
   065D F7                 1259 	mov	@r1,a
   065E E4                 1260 	clr	a
   065F 08                 1261 	inc	r0
   0660 36                 1262 	addc	a,@r0
   0661 09                 1263 	inc	r1
   0662 F7                 1264 	mov	@r1,a
   0663 08                 1265 	inc	r0
   0664 09                 1266 	inc	r1
   0665 E6                 1267 	mov	a,@r0
   0666 F7                 1268 	mov	@r1,a
   0667 8E 05              1269 	mov	ar5,r6
   0669 ED                 1270 	mov	a,r5
   066A 14                 1271 	dec	a
   066B A8 81              1272 	mov	r0,sp
   066D 18                 1273 	dec	r0
   066E 18                 1274 	dec	r0
   066F 26                 1275 	add	a,@r0
   0670 FB                 1276 	mov	r3,a
   0671 08                 1277 	inc	r0
   0672 E4                 1278 	clr	a
   0673 36                 1279 	addc	a,@r0
   0674 FC                 1280 	mov	r4,a
   0675 08                 1281 	inc	r0
   0676 86 05              1282 	mov	ar5,@r0
   0678 8B 82              1283 	mov	dpl,r3
   067A 8C 83              1284 	mov	dph,r4
   067C 8D F0              1285 	mov	b,r5
   067E 12s00r00           1286 	lcall	__gptrget
   0681 FB                 1287 	mov	r3,a
   0682 E5 81              1288 	mov	a,sp
   0684 24 F9              1289 	add	a,#0xf9
   0686 F8                 1290 	mov	r0,a
   0687 86 82              1291 	mov	dpl,@r0
   0689 08                 1292 	inc	r0
   068A 86 83              1293 	mov	dph,@r0
   068C 08                 1294 	inc	r0
   068D 86 F0              1295 	mov	b,@r0
   068F EB                 1296 	mov	a,r3
   0690 12s00r00           1297 	lcall	__gptrput
                           1298 ;	../../../contiki-sensinode//core/net/mac/frame802154.c:229: for(c = flen.src_addr_len; c > 0; c--) {
   0693 1E                 1299 	dec	r6
   0694 BE FF 01           1300 	cjne	r6,#0xFF,00141$
   0697 1F                 1301 	dec	r7
   0698                    1302 00141$:
   0698 80 A5              1303 	sjmp	00111$
   069A                    1304 00114$:
                           1305 ;	../../../contiki-sensinode//core/net/mac/frame802154.c:239: return pos;
   069A 8A 82              1306 	mov	dpl,r2
   069C                    1307 00115$:
   069C E5 81              1308 	mov	a,sp
   069E 24 EF              1309 	add	a,#0xEF
   06A0 F5 81              1310 	mov	sp,a
   06A2 02s00r00           1311 	ljmp	__sdcc_banked_ret
                           1312 ;------------------------------------------------------------
                           1313 ;Allocation info for local variables in function 'frame802154_parse'
                           1314 ;------------------------------------------------------------
                           1315 ;len                       Allocated to stack - sp -18
                           1316 ;pf                        Allocated to stack - sp -21
                           1317 ;data                      Allocated to stack - sp -14
                           1318 ;p                         Allocated to stack - sp -11
                           1319 ;c                         Allocated to stack - sp -8
                           1320 ;sloc0                     Allocated to stack - sp -7
                           1321 ;sloc1                     Allocated to stack - sp -4
                           1322 ;sloc2                     Allocated to stack - sp -2
                           1323 ;------------------------------------------------------------
                           1324 ;	../../../contiki-sensinode//core/net/mac/frame802154.c:252: frame802154_parse(uint8_t *data, uint8_t len, frame802154_t *pf)
                           1325 ;	-----------------------------------------
                           1326 ;	 function frame802154_parse
                           1327 ;	-----------------------------------------
   06A5                    1328 _frame802154_parse:
   06A5 C0 82              1329 	push	dpl
   06A7 C0 83              1330 	push	dph
   06A9 C0 F0              1331 	push	b
   06AB E5 81              1332 	mov	a,sp
   06AD 24 0C              1333 	add	a,#0x0C
                           1334 ;	../../../contiki-sensinode//core/net/mac/frame802154.c:257: if(len < 3) {
   06AF F5 81              1335 	mov	sp,a
   06B1 24 EE              1336 	add	a,#0xee
   06B3 F8                 1337 	mov	r0,a
   06B4 B6 03 00           1338 	cjne	@r0,#0x03,00162$
   06B7                    1339 00162$:
   06B7 50 06              1340 	jnc	00102$
                           1341 ;	../../../contiki-sensinode//core/net/mac/frame802154.c:258: return 0;
   06B9 75 82 00           1342 	mov	dpl,#0x00
   06BC 02s0CrFF           1343 	ljmp	00130$
   06BF                    1344 00102$:
                           1345 ;	../../../contiki-sensinode//core/net/mac/frame802154.c:263: memset(&fcf, 0, sizeof(fcf));
   06BF 74 08              1346 	mov	a,#0x08
   06C1 C0 E0              1347 	push	acc
   06C3 E4                 1348 	clr	a
   06C4 C0 E0              1349 	push	acc
   06C6 E4                 1350 	clr	a
   06C7 C0 E0              1351 	push	acc
   06C9 90s00r05           1352 	mov	dptr,#_fcf
   06CC 75 F0 00           1353 	mov	b,#0x00
   06CF 78r00              1354 	mov	r0,#_memset
   06D1 79s00              1355 	mov	r1,#(_memset >> 8)
   06D3 7As00              1356 	mov	r2,#(_memset >> 16)
   06D5 12s00r00           1357 	lcall	__sdcc_banked_call
   06D8 15 81              1358 	dec	sp
   06DA 15 81              1359 	dec	sp
   06DC 15 81              1360 	dec	sp
                           1361 ;	../../../contiki-sensinode//core/net/mac/frame802154.c:265: fcf.frame_type = p[0] & 7;
   06DE E5 81              1362 	mov	a,sp
   06E0 24 F2              1363 	add	a,#0xf2
   06E2 F8                 1364 	mov	r0,a
   06E3 86 82              1365 	mov	dpl,@r0
   06E5 08                 1366 	inc	r0
   06E6 86 83              1367 	mov	dph,@r0
   06E8 08                 1368 	inc	r0
   06E9 86 F0              1369 	mov	b,@r0
   06EB 12s00r00           1370 	lcall	__gptrget
   06EE FC                 1371 	mov	r4,a
   06EF 74 07              1372 	mov	a,#0x07
   06F1 5C                 1373 	anl	a,r4
   06F2 90s00r05           1374 	mov	dptr,#_fcf
   06F5 F0                 1375 	movx	@dptr,a
                           1376 ;	../../../contiki-sensinode//core/net/mac/frame802154.c:266: fcf.security_enabled = (p[0] >> 3) & 1;
   06F6 EC                 1377 	mov	a,r4
   06F7 A2 E3              1378 	mov	c,acc[3]
   06F9 E4                 1379 	clr	a
   06FA 33                 1380 	rlc	a
   06FB 90s00r06           1381 	mov	dptr,#(_fcf + 0x0001)
   06FE F0                 1382 	movx	@dptr,a
                           1383 ;	../../../contiki-sensinode//core/net/mac/frame802154.c:267: fcf.frame_pending = (p[0] >> 4) & 1;
   06FF EC                 1384 	mov	a,r4
   0700 C4                 1385 	swap	a
   0701 54 01              1386 	anl	a,#0x01
   0703 90s00r07           1387 	mov	dptr,#(_fcf + 0x0002)
   0706 F0                 1388 	movx	@dptr,a
                           1389 ;	../../../contiki-sensinode//core/net/mac/frame802154.c:268: fcf.ack_required = (p[0] >> 5) & 1;
   0707 EC                 1390 	mov	a,r4
   0708 A2 E5              1391 	mov	c,acc[5]
   070A E4                 1392 	clr	a
   070B 33                 1393 	rlc	a
   070C 90s00r08           1394 	mov	dptr,#(_fcf + 0x0003)
   070F F0                 1395 	movx	@dptr,a
                           1396 ;	../../../contiki-sensinode//core/net/mac/frame802154.c:269: fcf.panid_compression = (p[0] >> 6) & 1;
   0710 EC                 1397 	mov	a,r4
   0711 23                 1398 	rl	a
   0712 23                 1399 	rl	a
   0713 54 01              1400 	anl	a,#0x01
   0715 90s00r09           1401 	mov	dptr,#(_fcf + 0x0004)
   0718 F0                 1402 	movx	@dptr,a
                           1403 ;	../../../contiki-sensinode//core/net/mac/frame802154.c:271: fcf.dest_addr_mode = (p[1] >> 2) & 3;
   0719 E5 81              1404 	mov	a,sp
   071B 24 F2              1405 	add	a,#0xf2
   071D F8                 1406 	mov	r0,a
   071E 74 01              1407 	mov	a,#0x01
   0720 26                 1408 	add	a,@r0
   0721 FA                 1409 	mov	r2,a
   0722 E4                 1410 	clr	a
   0723 08                 1411 	inc	r0
   0724 36                 1412 	addc	a,@r0
   0725 FB                 1413 	mov	r3,a
   0726 08                 1414 	inc	r0
   0727 86 04              1415 	mov	ar4,@r0
   0729 8A 82              1416 	mov	dpl,r2
   072B 8B 83              1417 	mov	dph,r3
   072D 8C F0              1418 	mov	b,r4
   072F 12s00r00           1419 	lcall	__gptrget
   0732 FA                 1420 	mov	r2,a
   0733 03                 1421 	rr	a
   0734 03                 1422 	rr	a
   0735 54 3F              1423 	anl	a,#0x3F
   0737 FC                 1424 	mov	r4,a
   0738 53 04 03           1425 	anl	ar4,#0x03
   073B 90s00r0A           1426 	mov	dptr,#(_fcf + 0x0005)
   073E EC                 1427 	mov	a,r4
   073F F0                 1428 	movx	@dptr,a
                           1429 ;	../../../contiki-sensinode//core/net/mac/frame802154.c:272: fcf.frame_version = (p[1] >> 4) & 3;
   0740 EA                 1430 	mov	a,r2
   0741 C4                 1431 	swap	a
   0742 54 0F              1432 	anl	a,#0x0F
   0744 FC                 1433 	mov	r4,a
   0745 53 04 03           1434 	anl	ar4,#0x03
   0748 90s00r0B           1435 	mov	dptr,#(_fcf + 0x0006)
   074B EC                 1436 	mov	a,r4
   074C F0                 1437 	movx	@dptr,a
                           1438 ;	../../../contiki-sensinode//core/net/mac/frame802154.c:273: fcf.src_addr_mode = (p[1] >> 6) & 3;
   074D EA                 1439 	mov	a,r2
   074E 23                 1440 	rl	a
   074F 23                 1441 	rl	a
   0750 54 03              1442 	anl	a,#0x03
   0752 FA                 1443 	mov	r2,a
   0753 53 02 03           1444 	anl	ar2,#0x03
   0756 90s00r0C           1445 	mov	dptr,#(_fcf + 0x0007)
   0759 EA                 1446 	mov	a,r2
   075A F0                 1447 	movx	@dptr,a
                           1448 ;	../../../contiki-sensinode//core/net/mac/frame802154.c:276: memcpy(&pf->fcf, &fcf, sizeof(frame802154_fcf_t));
   075B E5 81              1449 	mov	a,sp
   075D 24 EB              1450 	add	a,#0xeb
   075F F8                 1451 	mov	r0,a
   0760 86 02              1452 	mov	ar2,@r0
   0762 08                 1453 	inc	r0
   0763 86 03              1454 	mov	ar3,@r0
   0765 08                 1455 	inc	r0
   0766 86 04              1456 	mov	ar4,@r0
   0768 8A 05              1457 	mov	ar5,r2
   076A 8B 06              1458 	mov	ar6,r3
   076C 8C 07              1459 	mov	ar7,r4
   076E C0 04              1460 	push	ar4
   0770 C0 03              1461 	push	ar3
   0772 C0 02              1462 	push	ar2
   0774 74 08              1463 	mov	a,#0x08
   0776 C0 E0              1464 	push	acc
   0778 E4                 1465 	clr	a
   0779 C0 E0              1466 	push	acc
   077B 74r05              1467 	mov	a,#_fcf
   077D C0 E0              1468 	push	acc
   077F 74s00              1469 	mov	a,#(_fcf >> 8)
   0781 C0 E0              1470 	push	acc
   0783 E4                 1471 	clr	a
   0784 C0 E0              1472 	push	acc
   0786 8D 82              1473 	mov	dpl,r5
   0788 8E 83              1474 	mov	dph,r6
   078A 8F F0              1475 	mov	b,r7
   078C 78r00              1476 	mov	r0,#_memcpy
   078E 79s00              1477 	mov	r1,#(_memcpy >> 8)
   0790 7As00              1478 	mov	r2,#(_memcpy >> 16)
   0792 12s00r00           1479 	lcall	__sdcc_banked_call
   0795 E5 81              1480 	mov	a,sp
   0797 24 FB              1481 	add	a,#0xfb
   0799 F5 81              1482 	mov	sp,a
   079B D0 02              1483 	pop	ar2
   079D D0 03              1484 	pop	ar3
   079F D0 04              1485 	pop	ar4
                           1486 ;	../../../contiki-sensinode//core/net/mac/frame802154.c:277: pf->seq = p[2];
   07A1 E5 81              1487 	mov	a,sp
   07A3 24 F9              1488 	add	a,#0xf9
   07A5 F8                 1489 	mov	r0,a
   07A6 74 08              1490 	mov	a,#0x08
   07A8 2A                 1491 	add	a,r2
   07A9 F6                 1492 	mov	@r0,a
   07AA E4                 1493 	clr	a
   07AB 3B                 1494 	addc	a,r3
   07AC 08                 1495 	inc	r0
   07AD F6                 1496 	mov	@r0,a
   07AE 08                 1497 	inc	r0
   07AF A6 04              1498 	mov	@r0,ar4
   07B1 E5 81              1499 	mov	a,sp
   07B3 24 F2              1500 	add	a,#0xf2
   07B5 F8                 1501 	mov	r0,a
   07B6 74 02              1502 	mov	a,#0x02
   07B8 26                 1503 	add	a,@r0
   07B9 FD                 1504 	mov	r5,a
   07BA E4                 1505 	clr	a
   07BB 08                 1506 	inc	r0
   07BC 36                 1507 	addc	a,@r0
   07BD FE                 1508 	mov	r6,a
   07BE 08                 1509 	inc	r0
   07BF 86 07              1510 	mov	ar7,@r0
   07C1 8D 82              1511 	mov	dpl,r5
   07C3 8E 83              1512 	mov	dph,r6
   07C5 8F F0              1513 	mov	b,r7
   07C7 12s00r00           1514 	lcall	__gptrget
   07CA FD                 1515 	mov	r5,a
   07CB E5 81              1516 	mov	a,sp
   07CD 24 F9              1517 	add	a,#0xf9
   07CF F8                 1518 	mov	r0,a
   07D0 86 82              1519 	mov	dpl,@r0
   07D2 08                 1520 	inc	r0
   07D3 86 83              1521 	mov	dph,@r0
   07D5 08                 1522 	inc	r0
   07D6 86 F0              1523 	mov	b,@r0
   07D8 ED                 1524 	mov	a,r5
   07D9 12s00r00           1525 	lcall	__gptrput
                           1526 ;	../../../contiki-sensinode//core/net/mac/frame802154.c:278: p += 3;                             /* Skip first three bytes */
   07DC E5 81              1527 	mov	a,sp
   07DE 24 F2              1528 	add	a,#0xf2
   07E0 F8                 1529 	mov	r0,a
   07E1 E5 81              1530 	mov	a,sp
   07E3 24 F5              1531 	add	a,#0xf5
   07E5 F9                 1532 	mov	r1,a
   07E6 74 03              1533 	mov	a,#0x03
   07E8 26                 1534 	add	a,@r0
   07E9 F7                 1535 	mov	@r1,a
   07EA E4                 1536 	clr	a
   07EB 08                 1537 	inc	r0
   07EC 36                 1538 	addc	a,@r0
   07ED 09                 1539 	inc	r1
   07EE F7                 1540 	mov	@r1,a
   07EF 08                 1541 	inc	r0
   07F0 09                 1542 	inc	r1
   07F1 E6                 1543 	mov	a,@r0
   07F2 F7                 1544 	mov	@r1,a
                           1545 ;	../../../contiki-sensinode//core/net/mac/frame802154.c:281: if(fcf.dest_addr_mode) {
   07F3 90s00r0A           1546 	mov	dptr,#(_fcf + 0x0005)
   07F6 E5 81              1547 	mov	a,sp
   07F8 24 F9              1548 	add	a,#0xf9
   07FA F8                 1549 	mov	r0,a
   07FB E0                 1550 	movx	a,@dptr
   07FC F6                 1551 	mov	@r0,a
   07FD E5 81              1552 	mov	a,sp
   07FF 24 F9              1553 	add	a,#0xf9
   0801 F8                 1554 	mov	r0,a
   0802 E6                 1555 	mov	a,@r0
   0803 70 03              1556 	jnz	00164$
   0805 02s09rD5           1557 	ljmp	00109$
   0808                    1558 00164$:
                           1559 ;	../../../contiki-sensinode//core/net/mac/frame802154.c:283: pf->dest_pid = p[0] + (p[1] << 8);
   0808 74 09              1560 	mov	a,#0x09
   080A 2A                 1561 	add	a,r2
   080B FD                 1562 	mov	r5,a
   080C E4                 1563 	clr	a
   080D 3B                 1564 	addc	a,r3
   080E FE                 1565 	mov	r6,a
   080F 8C 07              1566 	mov	ar7,r4
   0811 C0 02              1567 	push	ar2
   0813 C0 03              1568 	push	ar3
   0815 C0 04              1569 	push	ar4
   0817 E5 81              1570 	mov	a,sp
   0819 24 F2              1571 	add	a,#0xf2
   081B F8                 1572 	mov	r0,a
   081C 86 82              1573 	mov	dpl,@r0
   081E 08                 1574 	inc	r0
   081F 86 83              1575 	mov	dph,@r0
   0821 08                 1576 	inc	r0
   0822 86 F0              1577 	mov	b,@r0
   0824 12s00r00           1578 	lcall	__gptrget
   0827 FC                 1579 	mov	r4,a
   0828 E5 81              1580 	mov	a,sp
   082A 24 F9              1581 	add	a,#0xf9
   082C F8                 1582 	mov	r0,a
   082D A6 04              1583 	mov	@r0,ar4
   082F 08                 1584 	inc	r0
   0830 76 00              1585 	mov	@r0,#0x00
   0832 E5 81              1586 	mov	a,sp
   0834 24 F2              1587 	add	a,#0xf2
   0836 F8                 1588 	mov	r0,a
   0837 74 01              1589 	mov	a,#0x01
   0839 26                 1590 	add	a,@r0
   083A FA                 1591 	mov	r2,a
   083B E4                 1592 	clr	a
   083C 08                 1593 	inc	r0
   083D 36                 1594 	addc	a,@r0
   083E FB                 1595 	mov	r3,a
   083F 08                 1596 	inc	r0
   0840 86 04              1597 	mov	ar4,@r0
   0842 8A 82              1598 	mov	dpl,r2
   0844 8B 83              1599 	mov	dph,r3
   0846 8C F0              1600 	mov	b,r4
   0848 12s00r00           1601 	lcall	__gptrget
   084B FC                 1602 	mov	r4,a
   084C 7A 00              1603 	mov	r2,#0x00
   084E E5 81              1604 	mov	a,sp
   0850 24 F9              1605 	add	a,#0xf9
   0852 F8                 1606 	mov	r0,a
   0853 EA                 1607 	mov	a,r2
   0854 26                 1608 	add	a,@r0
   0855 FA                 1609 	mov	r2,a
   0856 EC                 1610 	mov	a,r4
   0857 08                 1611 	inc	r0
   0858 36                 1612 	addc	a,@r0
   0859 FC                 1613 	mov	r4,a
   085A 8D 82              1614 	mov	dpl,r5
   085C 8E 83              1615 	mov	dph,r6
   085E 8F F0              1616 	mov	b,r7
   0860 EA                 1617 	mov	a,r2
   0861 12s00r00           1618 	lcall	__gptrput
   0864 A3                 1619 	inc	dptr
   0865 EC                 1620 	mov	a,r4
   0866 12s00r00           1621 	lcall	__gptrput
                           1622 ;	../../../contiki-sensinode//core/net/mac/frame802154.c:284: p += 2;
   0869 E5 81              1623 	mov	a,sp
   086B 24 F2              1624 	add	a,#0xf2
   086D F8                 1625 	mov	r0,a
   086E 74 02              1626 	mov	a,#0x02
   0870 26                 1627 	add	a,@r0
   0871 F6                 1628 	mov	@r0,a
   0872 E4                 1629 	clr	a
   0873 08                 1630 	inc	r0
   0874 36                 1631 	addc	a,@r0
   0875 F6                 1632 	mov	@r0,a
                           1633 ;	../../../contiki-sensinode//core/net/mac/frame802154.c:292: if(fcf.dest_addr_mode == FRAME802154_SHORTADDRMODE) {
   0876 E5 81              1634 	mov	a,sp
   0878 24 F6              1635 	add	a,#0xf6
   087A F8                 1636 	mov	r0,a
   087B B6 02 02           1637 	cjne	@r0,#0x02,00165$
   087E 80 09              1638 	sjmp	00166$
   0880                    1639 00165$:
   0880 D0 04              1640 	pop	ar4
   0882 D0 03              1641 	pop	ar3
   0884 D0 02              1642 	pop	ar2
   0886 02s09r3F           1643 	ljmp	00106$
   0889                    1644 00166$:
   0889 D0 04              1645 	pop	ar4
   088B D0 03              1646 	pop	ar3
   088D D0 02              1647 	pop	ar2
                           1648 ;	../../../contiki-sensinode//core/net/mac/frame802154.c:293: rimeaddr_copy((rimeaddr_t *)&(pf->dest_addr), &rimeaddr_null);
   088F A8 81              1649 	mov	r0,sp
   0891 18                 1650 	dec	r0
   0892 18                 1651 	dec	r0
   0893 74 0B              1652 	mov	a,#0x0B
   0895 2A                 1653 	add	a,r2
   0896 F6                 1654 	mov	@r0,a
   0897 E4                 1655 	clr	a
   0898 3B                 1656 	addc	a,r3
   0899 08                 1657 	inc	r0
   089A F6                 1658 	mov	@r0,a
   089B 08                 1659 	inc	r0
   089C A6 04              1660 	mov	@r0,ar4
   089E A8 81              1661 	mov	r0,sp
   08A0 18                 1662 	dec	r0
   08A1 18                 1663 	dec	r0
   08A2 86 05              1664 	mov	ar5,@r0
   08A4 08                 1665 	inc	r0
   08A5 86 06              1666 	mov	ar6,@r0
   08A7 08                 1667 	inc	r0
   08A8 86 07              1668 	mov	ar7,@r0
   08AA C0 04              1669 	push	ar4
   08AC C0 03              1670 	push	ar3
   08AE C0 02              1671 	push	ar2
   08B0 74r00              1672 	mov	a,#_rimeaddr_null
   08B2 C0 E0              1673 	push	acc
   08B4 74s00              1674 	mov	a,#(_rimeaddr_null >> 8)
   08B6 C0 E0              1675 	push	acc
   08B8 74 80              1676 	mov	a,#0x80
   08BA C0 E0              1677 	push	acc
   08BC 8D 82              1678 	mov	dpl,r5
   08BE 8E 83              1679 	mov	dph,r6
   08C0 8F F0              1680 	mov	b,r7
   08C2 78r00              1681 	mov	r0,#_rimeaddr_copy
   08C4 79s00              1682 	mov	r1,#(_rimeaddr_copy >> 8)
   08C6 7As00              1683 	mov	r2,#(_rimeaddr_copy >> 16)
   08C8 12s00r00           1684 	lcall	__sdcc_banked_call
   08CB 15 81              1685 	dec	sp
   08CD 15 81              1686 	dec	sp
   08CF 15 81              1687 	dec	sp
   08D1 D0 02              1688 	pop	ar2
   08D3 D0 03              1689 	pop	ar3
   08D5 D0 04              1690 	pop	ar4
                           1691 ;	../../../contiki-sensinode//core/net/mac/frame802154.c:294: pf->dest_addr[0] = p[1];
   08D7 E5 81              1692 	mov	a,sp
   08D9 24 F5              1693 	add	a,#0xf5
   08DB F8                 1694 	mov	r0,a
   08DC 74 01              1695 	mov	a,#0x01
   08DE 26                 1696 	add	a,@r0
   08DF FD                 1697 	mov	r5,a
   08E0 E4                 1698 	clr	a
   08E1 08                 1699 	inc	r0
   08E2 36                 1700 	addc	a,@r0
   08E3 FE                 1701 	mov	r6,a
   08E4 08                 1702 	inc	r0
   08E5 86 07              1703 	mov	ar7,@r0
   08E7 8D 82              1704 	mov	dpl,r5
   08E9 8E 83              1705 	mov	dph,r6
   08EB 8F F0              1706 	mov	b,r7
   08ED 12s00r00           1707 	lcall	__gptrget
   08F0 FD                 1708 	mov	r5,a
   08F1 A8 81              1709 	mov	r0,sp
   08F3 18                 1710 	dec	r0
   08F4 18                 1711 	dec	r0
   08F5 86 82              1712 	mov	dpl,@r0
   08F7 08                 1713 	inc	r0
   08F8 86 83              1714 	mov	dph,@r0
   08FA 08                 1715 	inc	r0
   08FB 86 F0              1716 	mov	b,@r0
   08FD ED                 1717 	mov	a,r5
   08FE 12s00r00           1718 	lcall	__gptrput
                           1719 ;	../../../contiki-sensinode//core/net/mac/frame802154.c:295: pf->dest_addr[1] = p[0];
   0901 74 0C              1720 	mov	a,#0x0C
   0903 2A                 1721 	add	a,r2
   0904 FD                 1722 	mov	r5,a
   0905 E4                 1723 	clr	a
   0906 3B                 1724 	addc	a,r3
   0907 FE                 1725 	mov	r6,a
   0908 8C 07              1726 	mov	ar7,r4
   090A C0 02              1727 	push	ar2
   090C C0 03              1728 	push	ar3
   090E C0 04              1729 	push	ar4
   0910 E5 81              1730 	mov	a,sp
   0912 24 F2              1731 	add	a,#0xf2
   0914 F8                 1732 	mov	r0,a
   0915 86 82              1733 	mov	dpl,@r0
   0917 08                 1734 	inc	r0
   0918 86 83              1735 	mov	dph,@r0
   091A 08                 1736 	inc	r0
   091B 86 F0              1737 	mov	b,@r0
   091D 12s00r00           1738 	lcall	__gptrget
   0920 8D 82              1739 	mov	dpl,r5
   0922 8E 83              1740 	mov	dph,r6
   0924 8F F0              1741 	mov	b,r7
   0926 12s00r00           1742 	lcall	__gptrput
                           1743 ;	../../../contiki-sensinode//core/net/mac/frame802154.c:296: p += 2;
   0929 E5 81              1744 	mov	a,sp
   092B 24 F2              1745 	add	a,#0xf2
   092D F8                 1746 	mov	r0,a
   092E 74 02              1747 	mov	a,#0x02
   0930 26                 1748 	add	a,@r0
   0931 F6                 1749 	mov	@r0,a
   0932 E4                 1750 	clr	a
   0933 08                 1751 	inc	r0
   0934 36                 1752 	addc	a,@r0
   0935 F6                 1753 	mov	@r0,a
   0936 D0 04              1754 	pop	ar4
   0938 D0 03              1755 	pop	ar3
   093A D0 02              1756 	pop	ar2
   093C 02s0Ar23           1757 	ljmp	00110$
   093F                    1758 00106$:
                           1759 ;	../../../contiki-sensinode//core/net/mac/frame802154.c:297: } else if(fcf.dest_addr_mode == FRAME802154_LONGADDRMODE) {
   093F E5 81              1760 	mov	a,sp
   0941 24 F9              1761 	add	a,#0xf9
   0943 F8                 1762 	mov	r0,a
   0944 B6 03 02           1763 	cjne	@r0,#0x03,00167$
   0947 80 03              1764 	sjmp	00168$
   0949                    1765 00167$:
   0949 02s0Ar23           1766 	ljmp	00110$
   094C                    1767 00168$:
                           1768 ;	../../../contiki-sensinode//core/net/mac/frame802154.c:298: for(c = 0; c < 8; c++) {
   094C A8 81              1769 	mov	r0,sp
   094E 18                 1770 	dec	r0
   094F 18                 1771 	dec	r0
   0950 74 0B              1772 	mov	a,#0x0B
   0952 2A                 1773 	add	a,r2
   0953 F6                 1774 	mov	@r0,a
   0954 E4                 1775 	clr	a
   0955 3B                 1776 	addc	a,r3
   0956 08                 1777 	inc	r0
   0957 F6                 1778 	mov	@r0,a
   0958 08                 1779 	inc	r0
   0959 A6 04              1780 	mov	@r0,ar4
   095B E5 81              1781 	mov	a,sp
   095D 24 F8              1782 	add	a,#0xf8
   095F F8                 1783 	mov	r0,a
   0960 76 00              1784 	mov	@r0,#0x00
   0962                    1785 00122$:
   0962 E5 81              1786 	mov	a,sp
   0964 24 F8              1787 	add	a,#0xf8
   0966 F8                 1788 	mov	r0,a
   0967 B6 08 00           1789 	cjne	@r0,#0x08,00169$
   096A                    1790 00169$:
   096A 50 5A              1791 	jnc	00125$
                           1792 ;	../../../contiki-sensinode//core/net/mac/frame802154.c:299: pf->dest_addr[c] = p[7 - c];
   096C C0 02              1793 	push	ar2
   096E C0 03              1794 	push	ar3
   0970 C0 04              1795 	push	ar4
   0972 E5 81              1796 	mov	a,sp
   0974 24 FB              1797 	add	a,#0xfb
   0976 F8                 1798 	mov	r0,a
   0977 E5 81              1799 	mov	a,sp
   0979 24 F5              1800 	add	a,#0xf5
   097B F9                 1801 	mov	r1,a
   097C E7                 1802 	mov	a,@r1
   097D 26                 1803 	add	a,@r0
   097E FC                 1804 	mov	r4,a
   097F E4                 1805 	clr	a
   0980 08                 1806 	inc	r0
   0981 36                 1807 	addc	a,@r0
   0982 FD                 1808 	mov	r5,a
   0983 08                 1809 	inc	r0
   0984 86 06              1810 	mov	ar6,@r0
   0986 E5 81              1811 	mov	a,sp
   0988 24 F5              1812 	add	a,#0xf5
   098A F8                 1813 	mov	r0,a
   098B 86 02              1814 	mov	ar2,@r0
   098D 7B 00              1815 	mov	r3,#0x00
   098F 74 07              1816 	mov	a,#0x07
   0991 C3                 1817 	clr	c
   0992 9A                 1818 	subb	a,r2
   0993 FA                 1819 	mov	r2,a
   0994 E4                 1820 	clr	a
   0995 9B                 1821 	subb	a,r3
   0996 FB                 1822 	mov	r3,a
   0997 E5 81              1823 	mov	a,sp
   0999 24 F2              1824 	add	a,#0xf2
   099B F8                 1825 	mov	r0,a
   099C EA                 1826 	mov	a,r2
   099D 26                 1827 	add	a,@r0
   099E FA                 1828 	mov	r2,a
   099F EB                 1829 	mov	a,r3
   09A0 08                 1830 	inc	r0
   09A1 36                 1831 	addc	a,@r0
   09A2 FB                 1832 	mov	r3,a
   09A3 08                 1833 	inc	r0
   09A4 86 07              1834 	mov	ar7,@r0
   09A6 8A 82              1835 	mov	dpl,r2
   09A8 8B 83              1836 	mov	dph,r3
   09AA 8F F0              1837 	mov	b,r7
   09AC 12s00r00           1838 	lcall	__gptrget
   09AF 8C 82              1839 	mov	dpl,r4
   09B1 8D 83              1840 	mov	dph,r5
   09B3 8E F0              1841 	mov	b,r6
   09B5 12s00r00           1842 	lcall	__gptrput
                           1843 ;	../../../contiki-sensinode//core/net/mac/frame802154.c:298: for(c = 0; c < 8; c++) {
   09B8 E5 81              1844 	mov	a,sp
   09BA 24 F5              1845 	add	a,#0xf5
   09BC F8                 1846 	mov	r0,a
   09BD 06                 1847 	inc	@r0
   09BE D0 04              1848 	pop	ar4
   09C0 D0 03              1849 	pop	ar3
   09C2 D0 02              1850 	pop	ar2
   09C4 80 9C              1851 	sjmp	00122$
   09C6                    1852 00125$:
                           1853 ;	../../../contiki-sensinode//core/net/mac/frame802154.c:301: p += 8;
   09C6 E5 81              1854 	mov	a,sp
   09C8 24 F5              1855 	add	a,#0xf5
   09CA F8                 1856 	mov	r0,a
   09CB 74 08              1857 	mov	a,#0x08
   09CD 26                 1858 	add	a,@r0
   09CE F6                 1859 	mov	@r0,a
   09CF E4                 1860 	clr	a
   09D0 08                 1861 	inc	r0
   09D1 36                 1862 	addc	a,@r0
   09D2 F6                 1863 	mov	@r0,a
   09D3 80 4E              1864 	sjmp	00110$
   09D5                    1865 00109$:
                           1866 ;	../../../contiki-sensinode//core/net/mac/frame802154.c:304: rimeaddr_copy((rimeaddr_t *)&(pf->dest_addr), &rimeaddr_null);
   09D5 74 0B              1867 	mov	a,#0x0B
   09D7 2A                 1868 	add	a,r2
   09D8 FD                 1869 	mov	r5,a
   09D9 E4                 1870 	clr	a
   09DA 3B                 1871 	addc	a,r3
   09DB FE                 1872 	mov	r6,a
   09DC 8C 07              1873 	mov	ar7,r4
   09DE C0 04              1874 	push	ar4
   09E0 C0 03              1875 	push	ar3
   09E2 C0 02              1876 	push	ar2
   09E4 74r00              1877 	mov	a,#_rimeaddr_null
   09E6 C0 E0              1878 	push	acc
   09E8 74s00              1879 	mov	a,#(_rimeaddr_null >> 8)
   09EA C0 E0              1880 	push	acc
   09EC 74 80              1881 	mov	a,#0x80
   09EE C0 E0              1882 	push	acc
   09F0 8D 82              1883 	mov	dpl,r5
   09F2 8E 83              1884 	mov	dph,r6
   09F4 8F F0              1885 	mov	b,r7
   09F6 78r00              1886 	mov	r0,#_rimeaddr_copy
   09F8 79s00              1887 	mov	r1,#(_rimeaddr_copy >> 8)
   09FA 7As00              1888 	mov	r2,#(_rimeaddr_copy >> 16)
   09FC 12s00r00           1889 	lcall	__sdcc_banked_call
   09FF 15 81              1890 	dec	sp
   0A01 15 81              1891 	dec	sp
   0A03 15 81              1892 	dec	sp
   0A05 D0 02              1893 	pop	ar2
   0A07 D0 03              1894 	pop	ar3
   0A09 D0 04              1895 	pop	ar4
                           1896 ;	../../../contiki-sensinode//core/net/mac/frame802154.c:305: pf->dest_pid = 0;
   0A0B 74 09              1897 	mov	a,#0x09
   0A0D 2A                 1898 	add	a,r2
   0A0E FD                 1899 	mov	r5,a
   0A0F E4                 1900 	clr	a
   0A10 3B                 1901 	addc	a,r3
   0A11 FE                 1902 	mov	r6,a
   0A12 8C 07              1903 	mov	ar7,r4
   0A14 8D 82              1904 	mov	dpl,r5
   0A16 8E 83              1905 	mov	dph,r6
   0A18 8F F0              1906 	mov	b,r7
   0A1A E4                 1907 	clr	a
   0A1B 12s00r00           1908 	lcall	__gptrput
   0A1E A3                 1909 	inc	dptr
   0A1F E4                 1910 	clr	a
   0A20 12s00r00           1911 	lcall	__gptrput
   0A23                    1912 00110$:
                           1913 ;	../../../contiki-sensinode//core/net/mac/frame802154.c:309: if(fcf.src_addr_mode) {
   0A23 90s00r0C           1914 	mov	dptr,#(_fcf + 0x0007)
   0A26 E5 81              1915 	mov	a,sp
   0A28 24 F9              1916 	add	a,#0xf9
   0A2A F8                 1917 	mov	r0,a
   0A2B E0                 1918 	movx	a,@dptr
   0A2C F6                 1919 	mov	@r0,a
   0A2D E5 81              1920 	mov	a,sp
   0A2F 24 F9              1921 	add	a,#0xf9
   0A31 F8                 1922 	mov	r0,a
   0A32 E6                 1923 	mov	a,@r0
   0A33 70 03              1924 	jnz	00171$
   0A35 02s0Cr43           1925 	ljmp	00120$
   0A38                    1926 00171$:
                           1927 ;	../../../contiki-sensinode//core/net/mac/frame802154.c:311: if(!fcf.panid_compression) {
   0A38 90s00r09           1928 	mov	dptr,#(_fcf + 0x0004)
   0A3B E0                 1929 	movx	a,@dptr
   0A3C 70 76              1930 	jnz	00112$
                           1931 ;	../../../contiki-sensinode//core/net/mac/frame802154.c:312: pf->src_pid = p[0] + (p[1] << 8);
   0A3E A8 81              1932 	mov	r0,sp
   0A40 18                 1933 	dec	r0
   0A41 18                 1934 	dec	r0
   0A42 74 13              1935 	mov	a,#0x13
   0A44 2A                 1936 	add	a,r2
   0A45 F6                 1937 	mov	@r0,a
   0A46 E4                 1938 	clr	a
   0A47 3B                 1939 	addc	a,r3
   0A48 08                 1940 	inc	r0
   0A49 F6                 1941 	mov	@r0,a
   0A4A 08                 1942 	inc	r0
   0A4B A6 04              1943 	mov	@r0,ar4
   0A4D E5 81              1944 	mov	a,sp
   0A4F 24 F5              1945 	add	a,#0xf5
   0A51 F8                 1946 	mov	r0,a
   0A52 86 82              1947 	mov	dpl,@r0
   0A54 08                 1948 	inc	r0
   0A55 86 83              1949 	mov	dph,@r0
   0A57 08                 1950 	inc	r0
   0A58 86 F0              1951 	mov	b,@r0
   0A5A 12s00r00           1952 	lcall	__gptrget
   0A5D FF                 1953 	mov	r7,a
   0A5E E5 81              1954 	mov	a,sp
   0A60 24 FC              1955 	add	a,#0xfc
   0A62 F8                 1956 	mov	r0,a
   0A63 A6 07              1957 	mov	@r0,ar7
   0A65 08                 1958 	inc	r0
   0A66 76 00              1959 	mov	@r0,#0x00
   0A68 E5 81              1960 	mov	a,sp
   0A6A 24 F5              1961 	add	a,#0xf5
   0A6C F8                 1962 	mov	r0,a
   0A6D 74 01              1963 	mov	a,#0x01
   0A6F 26                 1964 	add	a,@r0
   0A70 FD                 1965 	mov	r5,a
   0A71 E4                 1966 	clr	a
   0A72 08                 1967 	inc	r0
   0A73 36                 1968 	addc	a,@r0
   0A74 FE                 1969 	mov	r6,a
   0A75 08                 1970 	inc	r0
   0A76 86 07              1971 	mov	ar7,@r0
   0A78 8D 82              1972 	mov	dpl,r5
   0A7A 8E 83              1973 	mov	dph,r6
   0A7C 8F F0              1974 	mov	b,r7
   0A7E 12s00r00           1975 	lcall	__gptrget
   0A81 FF                 1976 	mov	r7,a
   0A82 7D 00              1977 	mov	r5,#0x00
   0A84 E5 81              1978 	mov	a,sp
   0A86 24 FC              1979 	add	a,#0xfc
   0A88 F8                 1980 	mov	r0,a
   0A89 ED                 1981 	mov	a,r5
   0A8A 26                 1982 	add	a,@r0
   0A8B FD                 1983 	mov	r5,a
   0A8C EF                 1984 	mov	a,r7
   0A8D 08                 1985 	inc	r0
   0A8E 36                 1986 	addc	a,@r0
   0A8F FF                 1987 	mov	r7,a
   0A90 A8 81              1988 	mov	r0,sp
   0A92 18                 1989 	dec	r0
   0A93 18                 1990 	dec	r0
   0A94 86 82              1991 	mov	dpl,@r0
   0A96 08                 1992 	inc	r0
   0A97 86 83              1993 	mov	dph,@r0
   0A99 08                 1994 	inc	r0
   0A9A 86 F0              1995 	mov	b,@r0
   0A9C ED                 1996 	mov	a,r5
   0A9D 12s00r00           1997 	lcall	__gptrput
   0AA0 A3                 1998 	inc	dptr
   0AA1 EF                 1999 	mov	a,r7
   0AA2 12s00r00           2000 	lcall	__gptrput
                           2001 ;	../../../contiki-sensinode//core/net/mac/frame802154.c:313: p += 2;
   0AA5 E5 81              2002 	mov	a,sp
   0AA7 24 F5              2003 	add	a,#0xf5
   0AA9 F8                 2004 	mov	r0,a
   0AAA 74 02              2005 	mov	a,#0x02
   0AAC 26                 2006 	add	a,@r0
   0AAD F6                 2007 	mov	@r0,a
   0AAE E4                 2008 	clr	a
   0AAF 08                 2009 	inc	r0
   0AB0 36                 2010 	addc	a,@r0
   0AB1 F6                 2011 	mov	@r0,a
   0AB2 80 3C              2012 	sjmp	00113$
   0AB4                    2013 00112$:
                           2014 ;	../../../contiki-sensinode//core/net/mac/frame802154.c:315: pf->src_pid = pf->dest_pid;
   0AB4 A8 81              2015 	mov	r0,sp
   0AB6 18                 2016 	dec	r0
   0AB7 18                 2017 	dec	r0
   0AB8 74 13              2018 	mov	a,#0x13
   0ABA 2A                 2019 	add	a,r2
   0ABB F6                 2020 	mov	@r0,a
   0ABC E4                 2021 	clr	a
   0ABD 3B                 2022 	addc	a,r3
   0ABE 08                 2023 	inc	r0
   0ABF F6                 2024 	mov	@r0,a
   0AC0 08                 2025 	inc	r0
   0AC1 A6 04              2026 	mov	@r0,ar4
   0AC3 74 09              2027 	mov	a,#0x09
   0AC5 2A                 2028 	add	a,r2
   0AC6 FD                 2029 	mov	r5,a
   0AC7 E4                 2030 	clr	a
   0AC8 3B                 2031 	addc	a,r3
   0AC9 FE                 2032 	mov	r6,a
   0ACA 8C 07              2033 	mov	ar7,r4
   0ACC 8D 82              2034 	mov	dpl,r5
   0ACE 8E 83              2035 	mov	dph,r6
   0AD0 8F F0              2036 	mov	b,r7
   0AD2 12s00r00           2037 	lcall	__gptrget
   0AD5 FD                 2038 	mov	r5,a
   0AD6 A3                 2039 	inc	dptr
   0AD7 12s00r00           2040 	lcall	__gptrget
   0ADA FE                 2041 	mov	r6,a
   0ADB A8 81              2042 	mov	r0,sp
   0ADD 18                 2043 	dec	r0
   0ADE 18                 2044 	dec	r0
   0ADF 86 82              2045 	mov	dpl,@r0
   0AE1 08                 2046 	inc	r0
   0AE2 86 83              2047 	mov	dph,@r0
   0AE4 08                 2048 	inc	r0
   0AE5 86 F0              2049 	mov	b,@r0
   0AE7 ED                 2050 	mov	a,r5
   0AE8 12s00r00           2051 	lcall	__gptrput
   0AEB A3                 2052 	inc	dptr
   0AEC EE                 2053 	mov	a,r6
   0AED 12s00r00           2054 	lcall	__gptrput
   0AF0                    2055 00113$:
                           2056 ;	../../../contiki-sensinode//core/net/mac/frame802154.c:324: if(fcf.src_addr_mode == FRAME802154_SHORTADDRMODE) {
   0AF0 E5 81              2057 	mov	a,sp
   0AF2 24 F9              2058 	add	a,#0xf9
   0AF4 F8                 2059 	mov	r0,a
   0AF5 B6 02 02           2060 	cjne	@r0,#0x02,00173$
   0AF8 80 03              2061 	sjmp	00174$
   0AFA                    2062 00173$:
   0AFA 02s0BrAD           2063 	ljmp	00117$
   0AFD                    2064 00174$:
                           2065 ;	../../../contiki-sensinode//core/net/mac/frame802154.c:325: rimeaddr_copy((rimeaddr_t *)&(pf->src_addr), &rimeaddr_null);
   0AFD A8 81              2066 	mov	r0,sp
   0AFF 18                 2067 	dec	r0
   0B00 18                 2068 	dec	r0
   0B01 74 15              2069 	mov	a,#0x15
   0B03 2A                 2070 	add	a,r2
   0B04 F6                 2071 	mov	@r0,a
   0B05 E4                 2072 	clr	a
   0B06 3B                 2073 	addc	a,r3
   0B07 08                 2074 	inc	r0
   0B08 F6                 2075 	mov	@r0,a
   0B09 08                 2076 	inc	r0
   0B0A A6 04              2077 	mov	@r0,ar4
   0B0C A8 81              2078 	mov	r0,sp
   0B0E 18                 2079 	dec	r0
   0B0F 18                 2080 	dec	r0
   0B10 86 05              2081 	mov	ar5,@r0
   0B12 08                 2082 	inc	r0
   0B13 86 06              2083 	mov	ar6,@r0
   0B15 08                 2084 	inc	r0
   0B16 86 07              2085 	mov	ar7,@r0
   0B18 C0 04              2086 	push	ar4
   0B1A C0 03              2087 	push	ar3
   0B1C C0 02              2088 	push	ar2
   0B1E 74r00              2089 	mov	a,#_rimeaddr_null
   0B20 C0 E0              2090 	push	acc
   0B22 74s00              2091 	mov	a,#(_rimeaddr_null >> 8)
   0B24 C0 E0              2092 	push	acc
   0B26 74 80              2093 	mov	a,#0x80
   0B28 C0 E0              2094 	push	acc
   0B2A 8D 82              2095 	mov	dpl,r5
   0B2C 8E 83              2096 	mov	dph,r6
   0B2E 8F F0              2097 	mov	b,r7
   0B30 78r00              2098 	mov	r0,#_rimeaddr_copy
   0B32 79s00              2099 	mov	r1,#(_rimeaddr_copy >> 8)
   0B34 7As00              2100 	mov	r2,#(_rimeaddr_copy >> 16)
   0B36 12s00r00           2101 	lcall	__sdcc_banked_call
   0B39 15 81              2102 	dec	sp
   0B3B 15 81              2103 	dec	sp
   0B3D 15 81              2104 	dec	sp
   0B3F D0 02              2105 	pop	ar2
   0B41 D0 03              2106 	pop	ar3
   0B43 D0 04              2107 	pop	ar4
                           2108 ;	../../../contiki-sensinode//core/net/mac/frame802154.c:326: pf->src_addr[0] = p[1];
   0B45 E5 81              2109 	mov	a,sp
   0B47 24 F5              2110 	add	a,#0xf5
   0B49 F8                 2111 	mov	r0,a
   0B4A 74 01              2112 	mov	a,#0x01
   0B4C 26                 2113 	add	a,@r0
   0B4D FD                 2114 	mov	r5,a
   0B4E E4                 2115 	clr	a
   0B4F 08                 2116 	inc	r0
   0B50 36                 2117 	addc	a,@r0
   0B51 FE                 2118 	mov	r6,a
   0B52 08                 2119 	inc	r0
   0B53 86 07              2120 	mov	ar7,@r0
   0B55 8D 82              2121 	mov	dpl,r5
   0B57 8E 83              2122 	mov	dph,r6
   0B59 8F F0              2123 	mov	b,r7
   0B5B 12s00r00           2124 	lcall	__gptrget
   0B5E FD                 2125 	mov	r5,a
   0B5F A8 81              2126 	mov	r0,sp
   0B61 18                 2127 	dec	r0
   0B62 18                 2128 	dec	r0
   0B63 86 82              2129 	mov	dpl,@r0
   0B65 08                 2130 	inc	r0
   0B66 86 83              2131 	mov	dph,@r0
   0B68 08                 2132 	inc	r0
   0B69 86 F0              2133 	mov	b,@r0
   0B6B ED                 2134 	mov	a,r5
   0B6C 12s00r00           2135 	lcall	__gptrput
                           2136 ;	../../../contiki-sensinode//core/net/mac/frame802154.c:327: pf->src_addr[1] = p[0];
   0B6F 74 16              2137 	mov	a,#0x16
   0B71 2A                 2138 	add	a,r2
   0B72 FD                 2139 	mov	r5,a
   0B73 E4                 2140 	clr	a
   0B74 3B                 2141 	addc	a,r3
   0B75 FE                 2142 	mov	r6,a
   0B76 8C 07              2143 	mov	ar7,r4
   0B78 C0 02              2144 	push	ar2
   0B7A C0 03              2145 	push	ar3
   0B7C C0 04              2146 	push	ar4
   0B7E E5 81              2147 	mov	a,sp
   0B80 24 F2              2148 	add	a,#0xf2
   0B82 F8                 2149 	mov	r0,a
   0B83 86 82              2150 	mov	dpl,@r0
   0B85 08                 2151 	inc	r0
   0B86 86 83              2152 	mov	dph,@r0
   0B88 08                 2153 	inc	r0
   0B89 86 F0              2154 	mov	b,@r0
   0B8B 12s00r00           2155 	lcall	__gptrget
   0B8E 8D 82              2156 	mov	dpl,r5
   0B90 8E 83              2157 	mov	dph,r6
   0B92 8F F0              2158 	mov	b,r7
   0B94 12s00r00           2159 	lcall	__gptrput
                           2160 ;	../../../contiki-sensinode//core/net/mac/frame802154.c:328: p += 2;
   0B97 E5 81              2161 	mov	a,sp
   0B99 24 F2              2162 	add	a,#0xf2
   0B9B F8                 2163 	mov	r0,a
   0B9C 74 02              2164 	mov	a,#0x02
   0B9E 26                 2165 	add	a,@r0
   0B9F F6                 2166 	mov	@r0,a
   0BA0 E4                 2167 	clr	a
   0BA1 08                 2168 	inc	r0
   0BA2 36                 2169 	addc	a,@r0
   0BA3 F6                 2170 	mov	@r0,a
   0BA4 D0 04              2171 	pop	ar4
   0BA6 D0 03              2172 	pop	ar3
   0BA8 D0 02              2173 	pop	ar2
   0BAA 02s0Cr91           2174 	ljmp	00121$
   0BAD                    2175 00117$:
                           2176 ;	../../../contiki-sensinode//core/net/mac/frame802154.c:329: } else if(fcf.src_addr_mode == FRAME802154_LONGADDRMODE) {
   0BAD E5 81              2177 	mov	a,sp
   0BAF 24 F9              2178 	add	a,#0xf9
   0BB1 F8                 2179 	mov	r0,a
   0BB2 B6 03 02           2180 	cjne	@r0,#0x03,00175$
   0BB5 80 03              2181 	sjmp	00176$
   0BB7                    2182 00175$:
   0BB7 02s0Cr91           2183 	ljmp	00121$
   0BBA                    2184 00176$:
                           2185 ;	../../../contiki-sensinode//core/net/mac/frame802154.c:330: for(c = 0; c < 8; c++) {
   0BBA A8 81              2186 	mov	r0,sp
   0BBC 18                 2187 	dec	r0
   0BBD 18                 2188 	dec	r0
   0BBE 74 15              2189 	mov	a,#0x15
   0BC0 2A                 2190 	add	a,r2
   0BC1 F6                 2191 	mov	@r0,a
   0BC2 E4                 2192 	clr	a
   0BC3 3B                 2193 	addc	a,r3
   0BC4 08                 2194 	inc	r0
   0BC5 F6                 2195 	mov	@r0,a
   0BC6 08                 2196 	inc	r0
   0BC7 A6 04              2197 	mov	@r0,ar4
   0BC9 E5 81              2198 	mov	a,sp
   0BCB 24 F8              2199 	add	a,#0xf8
   0BCD F8                 2200 	mov	r0,a
   0BCE 76 00              2201 	mov	@r0,#0x00
   0BD0                    2202 00126$:
   0BD0 E5 81              2203 	mov	a,sp
   0BD2 24 F8              2204 	add	a,#0xf8
   0BD4 F8                 2205 	mov	r0,a
   0BD5 B6 08 00           2206 	cjne	@r0,#0x08,00177$
   0BD8                    2207 00177$:
   0BD8 50 5A              2208 	jnc	00129$
                           2209 ;	../../../contiki-sensinode//core/net/mac/frame802154.c:331: pf->src_addr[c] = p[7 - c];
   0BDA C0 02              2210 	push	ar2
   0BDC C0 03              2211 	push	ar3
   0BDE C0 04              2212 	push	ar4
   0BE0 E5 81              2213 	mov	a,sp
   0BE2 24 FB              2214 	add	a,#0xfb
   0BE4 F8                 2215 	mov	r0,a
   0BE5 E5 81              2216 	mov	a,sp
   0BE7 24 F5              2217 	add	a,#0xf5
   0BE9 F9                 2218 	mov	r1,a
   0BEA E7                 2219 	mov	a,@r1
   0BEB 26                 2220 	add	a,@r0
   0BEC FC                 2221 	mov	r4,a
   0BED E4                 2222 	clr	a
   0BEE 08                 2223 	inc	r0
   0BEF 36                 2224 	addc	a,@r0
   0BF0 FD                 2225 	mov	r5,a
   0BF1 08                 2226 	inc	r0
   0BF2 86 06              2227 	mov	ar6,@r0
   0BF4 E5 81              2228 	mov	a,sp
   0BF6 24 F5              2229 	add	a,#0xf5
   0BF8 F8                 2230 	mov	r0,a
   0BF9 86 02              2231 	mov	ar2,@r0
   0BFB 7B 00              2232 	mov	r3,#0x00
   0BFD 74 07              2233 	mov	a,#0x07
   0BFF C3                 2234 	clr	c
   0C00 9A                 2235 	subb	a,r2
   0C01 FA                 2236 	mov	r2,a
   0C02 E4                 2237 	clr	a
   0C03 9B                 2238 	subb	a,r3
   0C04 FB                 2239 	mov	r3,a
   0C05 E5 81              2240 	mov	a,sp
   0C07 24 F2              2241 	add	a,#0xf2
   0C09 F8                 2242 	mov	r0,a
   0C0A EA                 2243 	mov	a,r2
   0C0B 26                 2244 	add	a,@r0
   0C0C FA                 2245 	mov	r2,a
   0C0D EB                 2246 	mov	a,r3
   0C0E 08                 2247 	inc	r0
   0C0F 36                 2248 	addc	a,@r0
   0C10 FB                 2249 	mov	r3,a
   0C11 08                 2250 	inc	r0
   0C12 86 07              2251 	mov	ar7,@r0
   0C14 8A 82              2252 	mov	dpl,r2
   0C16 8B 83              2253 	mov	dph,r3
   0C18 8F F0              2254 	mov	b,r7
   0C1A 12s00r00           2255 	lcall	__gptrget
   0C1D 8C 82              2256 	mov	dpl,r4
   0C1F 8D 83              2257 	mov	dph,r5
   0C21 8E F0              2258 	mov	b,r6
   0C23 12s00r00           2259 	lcall	__gptrput
                           2260 ;	../../../contiki-sensinode//core/net/mac/frame802154.c:330: for(c = 0; c < 8; c++) {
   0C26 E5 81              2261 	mov	a,sp
   0C28 24 F5              2262 	add	a,#0xf5
   0C2A F8                 2263 	mov	r0,a
   0C2B 06                 2264 	inc	@r0
   0C2C D0 04              2265 	pop	ar4
   0C2E D0 03              2266 	pop	ar3
   0C30 D0 02              2267 	pop	ar2
   0C32 80 9C              2268 	sjmp	00126$
   0C34                    2269 00129$:
                           2270 ;	../../../contiki-sensinode//core/net/mac/frame802154.c:333: p += 8;
   0C34 E5 81              2271 	mov	a,sp
   0C36 24 F5              2272 	add	a,#0xf5
   0C38 F8                 2273 	mov	r0,a
   0C39 74 08              2274 	mov	a,#0x08
   0C3B 26                 2275 	add	a,@r0
   0C3C F6                 2276 	mov	@r0,a
   0C3D E4                 2277 	clr	a
   0C3E 08                 2278 	inc	r0
   0C3F 36                 2279 	addc	a,@r0
   0C40 F6                 2280 	mov	@r0,a
   0C41 80 4E              2281 	sjmp	00121$
   0C43                    2282 00120$:
                           2283 ;	../../../contiki-sensinode//core/net/mac/frame802154.c:336: rimeaddr_copy((rimeaddr_t *)&(pf->src_addr), &rimeaddr_null);
   0C43 74 15              2284 	mov	a,#0x15
   0C45 2A                 2285 	add	a,r2
   0C46 FD                 2286 	mov	r5,a
   0C47 E4                 2287 	clr	a
   0C48 3B                 2288 	addc	a,r3
   0C49 FE                 2289 	mov	r6,a
   0C4A 8C 07              2290 	mov	ar7,r4
   0C4C C0 04              2291 	push	ar4
   0C4E C0 03              2292 	push	ar3
   0C50 C0 02              2293 	push	ar2
   0C52 74r00              2294 	mov	a,#_rimeaddr_null
   0C54 C0 E0              2295 	push	acc
   0C56 74s00              2296 	mov	a,#(_rimeaddr_null >> 8)
   0C58 C0 E0              2297 	push	acc
   0C5A 74 80              2298 	mov	a,#0x80
   0C5C C0 E0              2299 	push	acc
   0C5E 8D 82              2300 	mov	dpl,r5
   0C60 8E 83              2301 	mov	dph,r6
   0C62 8F F0              2302 	mov	b,r7
   0C64 78r00              2303 	mov	r0,#_rimeaddr_copy
   0C66 79s00              2304 	mov	r1,#(_rimeaddr_copy >> 8)
   0C68 7As00              2305 	mov	r2,#(_rimeaddr_copy >> 16)
   0C6A 12s00r00           2306 	lcall	__sdcc_banked_call
   0C6D 15 81              2307 	dec	sp
   0C6F 15 81              2308 	dec	sp
   0C71 15 81              2309 	dec	sp
   0C73 D0 02              2310 	pop	ar2
   0C75 D0 03              2311 	pop	ar3
   0C77 D0 04              2312 	pop	ar4
                           2313 ;	../../../contiki-sensinode//core/net/mac/frame802154.c:337: pf->src_pid = 0;
   0C79 74 13              2314 	mov	a,#0x13
   0C7B 2A                 2315 	add	a,r2
   0C7C FD                 2316 	mov	r5,a
   0C7D E4                 2317 	clr	a
   0C7E 3B                 2318 	addc	a,r3
   0C7F FE                 2319 	mov	r6,a
   0C80 8C 07              2320 	mov	ar7,r4
   0C82 8D 82              2321 	mov	dpl,r5
   0C84 8E 83              2322 	mov	dph,r6
   0C86 8F F0              2323 	mov	b,r7
   0C88 E4                 2324 	clr	a
   0C89 12s00r00           2325 	lcall	__gptrput
   0C8C A3                 2326 	inc	dptr
   0C8D E4                 2327 	clr	a
   0C8E 12s00r00           2328 	lcall	__gptrput
   0C91                    2329 00121$:
                           2330 ;	../../../contiki-sensinode//core/net/mac/frame802154.c:346: c = p - data;
   0C91 E5 81              2331 	mov	a,sp
   0C93 24 F5              2332 	add	a,#0xf5
   0C95 F8                 2333 	mov	r0,a
   0C96 E5 81              2334 	mov	a,sp
   0C98 24 F2              2335 	add	a,#0xf2
   0C9A F9                 2336 	mov	r1,a
   0C9B E6                 2337 	mov	a,@r0
   0C9C C3                 2338 	clr	c
   0C9D 97                 2339 	subb	a,@r1
   0C9E FE                 2340 	mov	r6,a
   0C9F 08                 2341 	inc	r0
   0CA0 E6                 2342 	mov	a,@r0
   0CA1 09                 2343 	inc	r1
   0CA2 97                 2344 	subb	a,@r1
                           2345 ;	../../../contiki-sensinode//core/net/mac/frame802154.c:348: pf->payload_len = len - c;
   0CA3 A8 81              2346 	mov	r0,sp
   0CA5 18                 2347 	dec	r0
   0CA6 18                 2348 	dec	r0
   0CA7 74 30              2349 	mov	a,#0x30
   0CA9 2A                 2350 	add	a,r2
   0CAA F6                 2351 	mov	@r0,a
   0CAB E4                 2352 	clr	a
   0CAC 3B                 2353 	addc	a,r3
   0CAD 08                 2354 	inc	r0
   0CAE F6                 2355 	mov	@r0,a
   0CAF 08                 2356 	inc	r0
   0CB0 A6 04              2357 	mov	@r0,ar4
   0CB2 E5 81              2358 	mov	a,sp
   0CB4 24 EE              2359 	add	a,#0xee
   0CB6 F8                 2360 	mov	r0,a
   0CB7 E6                 2361 	mov	a,@r0
   0CB8 C3                 2362 	clr	c
   0CB9 9E                 2363 	subb	a,r6
   0CBA FF                 2364 	mov	r7,a
   0CBB A8 81              2365 	mov	r0,sp
   0CBD 18                 2366 	dec	r0
   0CBE 18                 2367 	dec	r0
   0CBF 86 82              2368 	mov	dpl,@r0
   0CC1 08                 2369 	inc	r0
   0CC2 86 83              2370 	mov	dph,@r0
   0CC4 08                 2371 	inc	r0
   0CC5 86 F0              2372 	mov	b,@r0
   0CC7 EF                 2373 	mov	a,r7
   0CC8 12s00r00           2374 	lcall	__gptrput
                           2375 ;	../../../contiki-sensinode//core/net/mac/frame802154.c:350: pf->payload = p;
   0CCB 74 2D              2376 	mov	a,#0x2D
   0CCD 2A                 2377 	add	a,r2
   0CCE FA                 2378 	mov	r2,a
   0CCF E4                 2379 	clr	a
   0CD0 3B                 2380 	addc	a,r3
   0CD1 FB                 2381 	mov	r3,a
   0CD2 8A 82              2382 	mov	dpl,r2
   0CD4 8B 83              2383 	mov	dph,r3
   0CD6 8C F0              2384 	mov	b,r4
   0CD8 E5 81              2385 	mov	a,sp
   0CDA 24 F5              2386 	add	a,#0xf5
   0CDC F8                 2387 	mov	r0,a
   0CDD E6                 2388 	mov	a,@r0
   0CDE 12s00r00           2389 	lcall	__gptrput
   0CE1 A3                 2390 	inc	dptr
   0CE2 08                 2391 	inc	r0
   0CE3 E6                 2392 	mov	a,@r0
   0CE4 12s00r00           2393 	lcall	__gptrput
   0CE7 A3                 2394 	inc	dptr
   0CE8 08                 2395 	inc	r0
   0CE9 E6                 2396 	mov	a,@r0
   0CEA 12s00r00           2397 	lcall	__gptrput
                           2398 ;	../../../contiki-sensinode//core/net/mac/frame802154.c:353: return c > len ? 0 : c;
   0CED E5 81              2399 	mov	a,sp
   0CEF 24 EE              2400 	add	a,#0xee
   0CF1 F8                 2401 	mov	r0,a
   0CF2 C3                 2402 	clr	c
   0CF3 E6                 2403 	mov	a,@r0
   0CF4 9E                 2404 	subb	a,r6
   0CF5 50 04              2405 	jnc	00132$
   0CF7 7F 00              2406 	mov	r7,#0x00
   0CF9 80 02              2407 	sjmp	00133$
   0CFB                    2408 00132$:
   0CFB 8E 07              2409 	mov	ar7,r6
   0CFD                    2410 00133$:
   0CFD 8F 82              2411 	mov	dpl,r7
   0CFF                    2412 00130$:
   0CFF E5 81              2413 	mov	a,sp
   0D01 24 F1              2414 	add	a,#0xF1
   0D03 F5 81              2415 	mov	sp,a
   0D05 02s00r00           2416 	ljmp	__sdcc_banked_ret
                           2417 	.area CSEG    (CODE)
                           2418 	.area CONST   (CODE)
                           2419 	.area XINIT   (CODE)
                           2420 	.area CABS    (ABS,CODE)
