                              1 ;--------------------------------------------------------
                              2 ; File Created by SDCC : free open source ANSI-C Compiler
                              3 ; Version 3.1.1 #7100 (Oct 29 2014) (Linux)
                              4 ; This file was generated Wed Dec  2 18:11:02 2015
                              5 ;--------------------------------------------------------
                              6 	.module nullradio
                              7 	.optsdcc -mmcs51 --model-huge
                              8 	
                              9 ;--------------------------------------------------------
                             10 ; Public variables in this module
                             11 ;--------------------------------------------------------
                             12 	.globl _nullradio_driver
                             13 ;--------------------------------------------------------
                             14 ; special function registers
                             15 ;--------------------------------------------------------
                             16 	.area RSEG    (ABS,DATA)
   0000                      17 	.org 0x0000
                             18 ;--------------------------------------------------------
                             19 ; special function bits
                             20 ;--------------------------------------------------------
                             21 	.area RSEG    (ABS,DATA)
   0000                      22 	.org 0x0000
                             23 ;--------------------------------------------------------
                             24 ; overlayable register banks
                             25 ;--------------------------------------------------------
                             26 	.area REG_BANK_0	(REL,OVR,DATA)
   0000                      27 	.ds 8
                             28 ;--------------------------------------------------------
                             29 ; internal ram data
                             30 ;--------------------------------------------------------
                             31 	.area DSEG    (DATA)
                             32 ;--------------------------------------------------------
                             33 ; overlayable items in internal ram 
                             34 ;--------------------------------------------------------
                             35 	.area OSEG    (OVR,DATA)
                             36 ;--------------------------------------------------------
                             37 ; indirectly addressable internal ram data
                             38 ;--------------------------------------------------------
                             39 	.area ISEG    (DATA)
                             40 ;--------------------------------------------------------
                             41 ; absolute internal ram data
                             42 ;--------------------------------------------------------
                             43 	.area IABS    (ABS,DATA)
                             44 	.area IABS    (ABS,DATA)
                             45 ;--------------------------------------------------------
                             46 ; bit data
                             47 ;--------------------------------------------------------
                             48 	.area BSEG    (BIT)
                             49 ;--------------------------------------------------------
                             50 ; paged external ram data
                             51 ;--------------------------------------------------------
                             52 	.area PSEG    (PAG,XDATA)
                             53 ;--------------------------------------------------------
                             54 ; external ram data
                             55 ;--------------------------------------------------------
                             56 	.area XSEG    (XDATA)
                             57 ;--------------------------------------------------------
                             58 ; absolute external ram data
                             59 ;--------------------------------------------------------
                             60 	.area XABS    (ABS,XDATA)
                             61 ;--------------------------------------------------------
                             62 ; external initialized ram data
                             63 ;--------------------------------------------------------
                             64 	.area XISEG   (XDATA)
                             65 	.area HOME    (CODE)
                             66 	.area GSINIT0 (CODE)
                             67 	.area GSINIT1 (CODE)
                             68 	.area GSINIT2 (CODE)
                             69 	.area GSINIT3 (CODE)
                             70 	.area GSINIT4 (CODE)
                             71 	.area GSINIT5 (CODE)
                             72 	.area GSINIT  (CODE)
                             73 	.area GSFINAL (CODE)
                             74 	.area CSEG    (CODE)
                             75 ;--------------------------------------------------------
                             76 ; global & static initialisations
                             77 ;--------------------------------------------------------
                             78 	.area HOME    (CODE)
                             79 	.area GSINIT  (CODE)
                             80 	.area GSFINAL (CODE)
                             81 	.area GSINIT  (CODE)
                             82 ;--------------------------------------------------------
                             83 ; Home
                             84 ;--------------------------------------------------------
                             85 	.area HOME    (CODE)
                             86 	.area HOME    (CODE)
                             87 ;--------------------------------------------------------
                             88 ; code
                             89 ;--------------------------------------------------------
                             90 	.area BANK1   (CODE)
                             91 ;------------------------------------------------------------
                             92 ;Allocation info for local variables in function 'init'
                             93 ;------------------------------------------------------------
                             94 ;	../../../contiki-sensinode//core/dev/nullradio.c:6: init(void)
                             95 ;	-----------------------------------------
                             96 ;	 function init
                             97 ;	-----------------------------------------
   0000                      98 _init:
                    0007     99 	ar7 = 0x07
                    0006    100 	ar6 = 0x06
                    0005    101 	ar5 = 0x05
                    0004    102 	ar4 = 0x04
                    0003    103 	ar3 = 0x03
                    0002    104 	ar2 = 0x02
                    0001    105 	ar1 = 0x01
                    0000    106 	ar0 = 0x00
                            107 ;	../../../contiki-sensinode//core/dev/nullradio.c:8: return 0;
   0000 90 00 00            108 	mov	dptr,#0x0000
   0003 02s00r00            109 	ljmp	__sdcc_banked_ret
                            110 ;------------------------------------------------------------
                            111 ;Allocation info for local variables in function 'prepare'
                            112 ;------------------------------------------------------------
                            113 ;payload_len               Allocated to stack - sp -4
                            114 ;payload                   Allocated to registers 
                            115 ;------------------------------------------------------------
                            116 ;	../../../contiki-sensinode//core/dev/nullradio.c:12: prepare(const void *payload, unsigned short payload_len)
                            117 ;	-----------------------------------------
                            118 ;	 function prepare
                            119 ;	-----------------------------------------
   0006                     120 _prepare:
                            121 ;	../../../contiki-sensinode//core/dev/nullradio.c:14: return 1;
   0006 90 00 01            122 	mov	dptr,#0x0001
   0009 02s00r00            123 	ljmp	__sdcc_banked_ret
                            124 ;------------------------------------------------------------
                            125 ;Allocation info for local variables in function 'transmit'
                            126 ;------------------------------------------------------------
                            127 ;transmit_len              Allocated to registers 
                            128 ;------------------------------------------------------------
                            129 ;	../../../contiki-sensinode//core/dev/nullradio.c:18: transmit(unsigned short transmit_len)
                            130 ;	-----------------------------------------
                            131 ;	 function transmit
                            132 ;	-----------------------------------------
   000C                     133 _transmit:
                            134 ;	../../../contiki-sensinode//core/dev/nullradio.c:20: return RADIO_TX_OK;
   000C 90 00 00            135 	mov	dptr,#0x0000
   000F 02s00r00            136 	ljmp	__sdcc_banked_ret
                            137 ;------------------------------------------------------------
                            138 ;Allocation info for local variables in function 'send'
                            139 ;------------------------------------------------------------
                            140 ;payload_len               Allocated to stack - sp -4
                            141 ;payload                   Allocated to registers r5 r6 r7 
                            142 ;------------------------------------------------------------
                            143 ;	../../../contiki-sensinode//core/dev/nullradio.c:24: send(const void *payload, unsigned short payload_len)
                            144 ;	-----------------------------------------
                            145 ;	 function send
                            146 ;	-----------------------------------------
   0012                     147 _send:
   0012 AD 82               148 	mov	r5,dpl
   0014 AE 83               149 	mov	r6,dph
   0016 AF F0               150 	mov	r7,b
                            151 ;	../../../contiki-sensinode//core/dev/nullradio.c:26: prepare(payload, payload_len);
   0018 E5 81               152 	mov	a,sp
   001A 24 FC               153 	add	a,#0xfc
   001C F8                  154 	mov	r0,a
   001D E6                  155 	mov	a,@r0
   001E C0 E0               156 	push	acc
   0020 08                  157 	inc	r0
   0021 E6                  158 	mov	a,@r0
   0022 C0 E0               159 	push	acc
   0024 8D 82               160 	mov	dpl,r5
   0026 8E 83               161 	mov	dph,r6
   0028 8F F0               162 	mov	b,r7
   002A 78r06               163 	mov	r0,#_prepare
   002C 79s00               164 	mov	r1,#(_prepare >> 8)
   002E 7As00               165 	mov	r2,#(_prepare >> 16)
   0030 12s00r00            166 	lcall	__sdcc_banked_call
   0033 15 81               167 	dec	sp
   0035 15 81               168 	dec	sp
                            169 ;	../../../contiki-sensinode//core/dev/nullradio.c:27: return transmit(payload_len);
   0037 E5 81               170 	mov	a,sp
   0039 24 FC               171 	add	a,#0xfc
   003B F8                  172 	mov	r0,a
   003C 86 82               173 	mov	dpl,@r0
   003E 08                  174 	inc	r0
   003F 86 83               175 	mov	dph,@r0
   0041 78r0C               176 	mov	r0,#_transmit
   0043 79s00               177 	mov	r1,#(_transmit >> 8)
   0045 7As00               178 	mov	r2,#(_transmit >> 16)
   0047 12s00r00            179 	lcall	__sdcc_banked_call
   004A AE 82               180 	mov	r6,dpl
   004C AF 83               181 	mov  r7,dph
   004E 02s00r00            182 	ljmp	__sdcc_banked_ret
                            183 ;------------------------------------------------------------
                            184 ;Allocation info for local variables in function 'read'
                            185 ;------------------------------------------------------------
                            186 ;buf_len                   Allocated to stack - sp -4
                            187 ;buf                       Allocated to registers 
                            188 ;------------------------------------------------------------
                            189 ;	../../../contiki-sensinode//core/dev/nullradio.c:31: read(void *buf, unsigned short buf_len)
                            190 ;	-----------------------------------------
                            191 ;	 function read
                            192 ;	-----------------------------------------
   0051                     193 _read:
                            194 ;	../../../contiki-sensinode//core/dev/nullradio.c:33: return 0;
   0051 90 00 00            195 	mov	dptr,#0x0000
   0054 02s00r00            196 	ljmp	__sdcc_banked_ret
                            197 ;------------------------------------------------------------
                            198 ;Allocation info for local variables in function 'channel_clear'
                            199 ;------------------------------------------------------------
                            200 ;	../../../contiki-sensinode//core/dev/nullradio.c:37: channel_clear(void)
                            201 ;	-----------------------------------------
                            202 ;	 function channel_clear
                            203 ;	-----------------------------------------
   0057                     204 _channel_clear:
                            205 ;	../../../contiki-sensinode//core/dev/nullradio.c:39: return 1;
   0057 90 00 01            206 	mov	dptr,#0x0001
   005A 02s00r00            207 	ljmp	__sdcc_banked_ret
                            208 ;------------------------------------------------------------
                            209 ;Allocation info for local variables in function 'receiving_packet'
                            210 ;------------------------------------------------------------
                            211 ;	../../../contiki-sensinode//core/dev/nullradio.c:43: receiving_packet(void)
                            212 ;	-----------------------------------------
                            213 ;	 function receiving_packet
                            214 ;	-----------------------------------------
   005D                     215 _receiving_packet:
                            216 ;	../../../contiki-sensinode//core/dev/nullradio.c:45: return 0;
   005D 90 00 00            217 	mov	dptr,#0x0000
   0060 02s00r00            218 	ljmp	__sdcc_banked_ret
                            219 ;------------------------------------------------------------
                            220 ;Allocation info for local variables in function 'pending_packet'
                            221 ;------------------------------------------------------------
                            222 ;	../../../contiki-sensinode//core/dev/nullradio.c:49: pending_packet(void)
                            223 ;	-----------------------------------------
                            224 ;	 function pending_packet
                            225 ;	-----------------------------------------
   0063                     226 _pending_packet:
                            227 ;	../../../contiki-sensinode//core/dev/nullradio.c:51: return 0;
   0063 90 00 00            228 	mov	dptr,#0x0000
   0066 02s00r00            229 	ljmp	__sdcc_banked_ret
                            230 ;------------------------------------------------------------
                            231 ;Allocation info for local variables in function 'on'
                            232 ;------------------------------------------------------------
                            233 ;	../../../contiki-sensinode//core/dev/nullradio.c:55: on(void)
                            234 ;	-----------------------------------------
                            235 ;	 function on
                            236 ;	-----------------------------------------
   0069                     237 _on:
                            238 ;	../../../contiki-sensinode//core/dev/nullradio.c:57: return 0;
   0069 90 00 00            239 	mov	dptr,#0x0000
   006C 02s00r00            240 	ljmp	__sdcc_banked_ret
                            241 ;------------------------------------------------------------
                            242 ;Allocation info for local variables in function 'off'
                            243 ;------------------------------------------------------------
                            244 ;	../../../contiki-sensinode//core/dev/nullradio.c:61: off(void)
                            245 ;	-----------------------------------------
                            246 ;	 function off
                            247 ;	-----------------------------------------
   006F                     248 _off:
                            249 ;	../../../contiki-sensinode//core/dev/nullradio.c:63: return 0;
   006F 90 00 00            250 	mov	dptr,#0x0000
   0072 02s00r00            251 	ljmp	__sdcc_banked_ret
                            252 	.area CSEG    (CODE)
                            253 	.area CONST   (CODE)
   0000                     254 _nullradio_driver:
   0000r00s00s00            255 	.byte _init,(_init >> 8),(_init >> 16)
   0003r06s00s00            256 	.byte _prepare,(_prepare >> 8),(_prepare >> 16)
   0006r0Cs00s00            257 	.byte _transmit,(_transmit >> 8),(_transmit >> 16)
   0009r12s00s00            258 	.byte _send,(_send >> 8),(_send >> 16)
   000Cr51s00s00            259 	.byte _read,(_read >> 8),(_read >> 16)
   000Fr57s00s00            260 	.byte _channel_clear,(_channel_clear >> 8),(_channel_clear >> 16)
   0012r5Ds00s00            261 	.byte _receiving_packet,(_receiving_packet >> 8),(_receiving_packet >> 16)
   0015r63s00s00            262 	.byte _pending_packet,(_pending_packet >> 8),(_pending_packet >> 16)
   0018r69s00s00            263 	.byte _on,(_on >> 8),(_on >> 16)
   001Br6Fs00s00            264 	.byte _off,(_off >> 8),(_off >> 16)
                            265 	.area XINIT   (CODE)
                            266 	.area CABS    (ABS,CODE)
