                              1 ;--------------------------------------------------------
                              2 ; File Created by SDCC : free open source ANSI-C Compiler
                              3 ; Version 3.1.1 #7100 (Oct 29 2014) (Linux)
                              4 ; This file was generated Wed Dec  2 18:10:57 2015
                              5 ;--------------------------------------------------------
                              6 	.module packetqueue
                              7 	.optsdcc -mmcs51 --model-huge
                              8 	
                              9 ;--------------------------------------------------------
                             10 ; Public variables in this module
                             11 ;--------------------------------------------------------
                             12 	.globl _queuebuf_free
                             13 	.globl _queuebuf_new_from_packetbuf
                             14 	.globl _memb_free
                             15 	.globl _memb_alloc
                             16 	.globl _memb_init
                             17 	.globl _list_length
                             18 	.globl _list_remove
                             19 	.globl _list_add
                             20 	.globl _list_head
                             21 	.globl _list_init
                             22 	.globl _ctimer_stop
                             23 	.globl _ctimer_set
                             24 	.globl _packetqueue_init
                             25 	.globl _packetqueue_enqueue_packetbuf
                             26 	.globl _packetqueue_first
                             27 	.globl _packetqueue_dequeue
                             28 	.globl _packetqueue_len
                             29 	.globl _packetqueue_queuebuf
                             30 	.globl _packetqueue_ptr
                             31 ;--------------------------------------------------------
                             32 ; special function registers
                             33 ;--------------------------------------------------------
                             34 	.area RSEG    (ABS,DATA)
   0000                      35 	.org 0x0000
                             36 ;--------------------------------------------------------
                             37 ; special function bits
                             38 ;--------------------------------------------------------
                             39 	.area RSEG    (ABS,DATA)
   0000                      40 	.org 0x0000
                             41 ;--------------------------------------------------------
                             42 ; overlayable register banks
                             43 ;--------------------------------------------------------
                             44 	.area REG_BANK_0	(REL,OVR,DATA)
   0000                      45 	.ds 8
                             46 ;--------------------------------------------------------
                             47 ; internal ram data
                             48 ;--------------------------------------------------------
                             49 	.area DSEG    (DATA)
                             50 ;--------------------------------------------------------
                             51 ; overlayable items in internal ram 
                             52 ;--------------------------------------------------------
                             53 	.area OSEG    (OVR,DATA)
                             54 ;--------------------------------------------------------
                             55 ; indirectly addressable internal ram data
                             56 ;--------------------------------------------------------
                             57 	.area ISEG    (DATA)
                             58 ;--------------------------------------------------------
                             59 ; absolute internal ram data
                             60 ;--------------------------------------------------------
                             61 	.area IABS    (ABS,DATA)
                             62 	.area IABS    (ABS,DATA)
                             63 ;--------------------------------------------------------
                             64 ; bit data
                             65 ;--------------------------------------------------------
                             66 	.area BSEG    (BIT)
                             67 ;--------------------------------------------------------
                             68 ; paged external ram data
                             69 ;--------------------------------------------------------
                             70 	.area PSEG    (PAG,XDATA)
                             71 ;--------------------------------------------------------
                             72 ; external ram data
                             73 ;--------------------------------------------------------
                             74 	.area XSEG    (XDATA)
                             75 ;--------------------------------------------------------
                             76 ; absolute external ram data
                             77 ;--------------------------------------------------------
                             78 	.area XABS    (ABS,XDATA)
                             79 ;--------------------------------------------------------
                             80 ; external initialized ram data
                             81 ;--------------------------------------------------------
                             82 	.area XISEG   (XDATA)
                             83 	.area HOME    (CODE)
                             84 	.area GSINIT0 (CODE)
                             85 	.area GSINIT1 (CODE)
                             86 	.area GSINIT2 (CODE)
                             87 	.area GSINIT3 (CODE)
                             88 	.area GSINIT4 (CODE)
                             89 	.area GSINIT5 (CODE)
                             90 	.area GSINIT  (CODE)
                             91 	.area GSFINAL (CODE)
                             92 	.area CSEG    (CODE)
                             93 ;--------------------------------------------------------
                             94 ; global & static initialisations
                             95 ;--------------------------------------------------------
                             96 	.area HOME    (CODE)
                             97 	.area GSINIT  (CODE)
                             98 	.area GSFINAL (CODE)
                             99 	.area GSINIT  (CODE)
                            100 ;--------------------------------------------------------
                            101 ; Home
                            102 ;--------------------------------------------------------
                            103 	.area HOME    (CODE)
                            104 	.area HOME    (CODE)
                            105 ;--------------------------------------------------------
                            106 ; code
                            107 ;--------------------------------------------------------
                            108 	.area BANK1   (CODE)
                            109 ;------------------------------------------------------------
                            110 ;Allocation info for local variables in function 'packetqueue_init'
                            111 ;------------------------------------------------------------
                            112 ;q                         Allocated to registers r5 r6 r7 
                            113 ;------------------------------------------------------------
                            114 ;	../../../contiki-sensinode//core/net/packetqueue.c:49: packetqueue_init(struct packetqueue *q)
                            115 ;	-----------------------------------------
                            116 ;	 function packetqueue_init
                            117 ;	-----------------------------------------
   0000                     118 _packetqueue_init:
                    0007    119 	ar7 = 0x07
                    0006    120 	ar6 = 0x06
                    0005    121 	ar5 = 0x05
                    0004    122 	ar4 = 0x04
                    0003    123 	ar3 = 0x03
                    0002    124 	ar2 = 0x02
                    0001    125 	ar1 = 0x01
                    0000    126 	ar0 = 0x00
                            127 ;	../../../contiki-sensinode//core/net/packetqueue.c:51: list_init(*q->list);
   0000 AD 82               128 	mov	r5,dpl
   0002 AE 83               129 	mov	r6,dph
   0004 AF F0               130 	mov	r7,b
   0006 12s00r00            131 	lcall	__gptrget
   0009 FA                  132 	mov	r2,a
   000A A3                  133 	inc	dptr
   000B 12s00r00            134 	lcall	__gptrget
   000E FB                  135 	mov	r3,a
   000F A3                  136 	inc	dptr
   0010 12s00r00            137 	lcall	__gptrget
   0013 FC                  138 	mov	r4,a
   0014 8A 82               139 	mov	dpl,r2
   0016 8B 83               140 	mov	dph,r3
   0018 8C F0               141 	mov	b,r4
   001A 12s00r00            142 	lcall	__gptrget
   001D FA                  143 	mov	r2,a
   001E A3                  144 	inc	dptr
   001F 12s00r00            145 	lcall	__gptrget
   0022 FB                  146 	mov	r3,a
   0023 A3                  147 	inc	dptr
   0024 12s00r00            148 	lcall	__gptrget
   0027 FC                  149 	mov	r4,a
   0028 8A 82               150 	mov	dpl,r2
   002A 8B 83               151 	mov	dph,r3
   002C 8C F0               152 	mov	b,r4
   002E C0 07               153 	push	ar7
   0030 C0 06               154 	push	ar6
   0032 C0 05               155 	push	ar5
   0034 78r00               156 	mov	r0,#_list_init
   0036 79s00               157 	mov	r1,#(_list_init >> 8)
   0038 7As00               158 	mov	r2,#(_list_init >> 16)
   003A 12s00r00            159 	lcall	__sdcc_banked_call
   003D D0 05               160 	pop	ar5
   003F D0 06               161 	pop	ar6
   0041 D0 07               162 	pop	ar7
                            163 ;	../../../contiki-sensinode//core/net/packetqueue.c:52: memb_init(q->memb);
   0043 74 03               164 	mov	a,#0x03
   0045 2D                  165 	add	a,r5
   0046 FD                  166 	mov	r5,a
   0047 E4                  167 	clr	a
   0048 3E                  168 	addc	a,r6
   0049 FE                  169 	mov	r6,a
   004A 8D 82               170 	mov	dpl,r5
   004C 8E 83               171 	mov	dph,r6
   004E 8F F0               172 	mov	b,r7
   0050 12s00r00            173 	lcall	__gptrget
   0053 FD                  174 	mov	r5,a
   0054 A3                  175 	inc	dptr
   0055 12s00r00            176 	lcall	__gptrget
   0058 FE                  177 	mov	r6,a
   0059 A3                  178 	inc	dptr
   005A 12s00r00            179 	lcall	__gptrget
   005D FF                  180 	mov	r7,a
   005E 8D 82               181 	mov	dpl,r5
   0060 8E 83               182 	mov	dph,r6
   0062 8F F0               183 	mov	b,r7
   0064 78r00               184 	mov	r0,#_memb_init
   0066 79s00               185 	mov	r1,#(_memb_init >> 8)
   0068 7As00               186 	mov	r2,#(_memb_init >> 16)
   006A 12s00r00            187 	lcall	__sdcc_banked_call
   006D 02s00r00            188 	ljmp	__sdcc_banked_ret
                            189 ;------------------------------------------------------------
                            190 ;Allocation info for local variables in function 'remove_queued_packet'
                            191 ;------------------------------------------------------------
                            192 ;item                      Allocated to registers r5 r6 r7 
                            193 ;i                         Allocated to stack - sp -5
                            194 ;q                         Allocated to stack - sp -2
                            195 ;------------------------------------------------------------
                            196 ;	../../../contiki-sensinode//core/net/packetqueue.c:56: remove_queued_packet(void *item)
                            197 ;	-----------------------------------------
                            198 ;	 function remove_queued_packet
                            199 ;	-----------------------------------------
   0070                     200 _remove_queued_packet:
   0070 E5 81               201 	mov	a,sp
   0072 24 06               202 	add	a,#0x06
   0074 F5 81               203 	mov	sp,a
   0076 AD 82               204 	mov	r5,dpl
   0078 AE 83               205 	mov	r6,dph
   007A AF F0               206 	mov	r7,b
                            207 ;	../../../contiki-sensinode//core/net/packetqueue.c:58: struct packetqueue_item *i = item;
   007C E5 81               208 	mov	a,sp
   007E 24 FB               209 	add	a,#0xfb
   0080 F8                  210 	mov	r0,a
   0081 A6 05               211 	mov	@r0,ar5
   0083 08                  212 	inc	r0
   0084 A6 06               213 	mov	@r0,ar6
   0086 08                  214 	inc	r0
   0087 A6 07               215 	mov	@r0,ar7
                            216 ;	../../../contiki-sensinode//core/net/packetqueue.c:59: struct packetqueue *q = i->queue;
   0089 E5 81               217 	mov	a,sp
   008B 24 FB               218 	add	a,#0xfb
   008D F8                  219 	mov	r0,a
   008E 74 06               220 	mov	a,#0x06
   0090 26                  221 	add	a,@r0
   0091 FA                  222 	mov	r2,a
   0092 E4                  223 	clr	a
   0093 08                  224 	inc	r0
   0094 36                  225 	addc	a,@r0
   0095 FB                  226 	mov	r3,a
   0096 08                  227 	inc	r0
   0097 86 04               228 	mov	ar4,@r0
   0099 8A 82               229 	mov	dpl,r2
   009B 8B 83               230 	mov	dph,r3
   009D 8C F0               231 	mov	b,r4
   009F 12s00r00            232 	lcall	__gptrget
   00A2 FA                  233 	mov	r2,a
   00A3 A3                  234 	inc	dptr
   00A4 12s00r00            235 	lcall	__gptrget
   00A7 FB                  236 	mov	r3,a
   00A8 A3                  237 	inc	dptr
   00A9 12s00r00            238 	lcall	__gptrget
   00AC FC                  239 	mov	r4,a
   00AD A8 81               240 	mov	r0,sp
   00AF 18                  241 	dec	r0
   00B0 18                  242 	dec	r0
   00B1 A6 02               243 	mov	@r0,ar2
   00B3 08                  244 	inc	r0
   00B4 A6 03               245 	mov	@r0,ar3
   00B6 08                  246 	inc	r0
   00B7 A6 04               247 	mov	@r0,ar4
                            248 ;	../../../contiki-sensinode//core/net/packetqueue.c:61: list_remove(*q->list, i);
   00B9 E5 81               249 	mov	a,sp
   00BB 24 FB               250 	add	a,#0xfb
   00BD F8                  251 	mov	r0,a
   00BE 86 05               252 	mov	ar5,@r0
   00C0 08                  253 	inc	r0
   00C1 86 06               254 	mov	ar6,@r0
   00C3 08                  255 	inc	r0
   00C4 86 07               256 	mov	ar7,@r0
   00C6 A8 81               257 	mov	r0,sp
   00C8 18                  258 	dec	r0
   00C9 18                  259 	dec	r0
   00CA 86 82               260 	mov	dpl,@r0
   00CC 08                  261 	inc	r0
   00CD 86 83               262 	mov	dph,@r0
   00CF 08                  263 	inc	r0
   00D0 86 F0               264 	mov	b,@r0
   00D2 12s00r00            265 	lcall	__gptrget
   00D5 FA                  266 	mov	r2,a
   00D6 A3                  267 	inc	dptr
   00D7 12s00r00            268 	lcall	__gptrget
   00DA FB                  269 	mov	r3,a
   00DB A3                  270 	inc	dptr
   00DC 12s00r00            271 	lcall	__gptrget
   00DF FC                  272 	mov	r4,a
   00E0 8A 82               273 	mov	dpl,r2
   00E2 8B 83               274 	mov	dph,r3
   00E4 8C F0               275 	mov	b,r4
   00E6 12s00r00            276 	lcall	__gptrget
   00E9 FA                  277 	mov	r2,a
   00EA A3                  278 	inc	dptr
   00EB 12s00r00            279 	lcall	__gptrget
   00EE FB                  280 	mov	r3,a
   00EF A3                  281 	inc	dptr
   00F0 12s00r00            282 	lcall	__gptrget
   00F3 FC                  283 	mov	r4,a
   00F4 C0 05               284 	push	ar5
   00F6 C0 06               285 	push	ar6
   00F8 C0 07               286 	push	ar7
   00FA 8A 82               287 	mov	dpl,r2
   00FC 8B 83               288 	mov	dph,r3
   00FE 8C F0               289 	mov	b,r4
   0100 78r00               290 	mov	r0,#_list_remove
   0102 79s00               291 	mov	r1,#(_list_remove >> 8)
   0104 7As00               292 	mov	r2,#(_list_remove >> 16)
   0106 12s00r00            293 	lcall	__sdcc_banked_call
   0109 15 81               294 	dec	sp
   010B 15 81               295 	dec	sp
   010D 15 81               296 	dec	sp
                            297 ;	../../../contiki-sensinode//core/net/packetqueue.c:62: queuebuf_free(i->buf);
   010F E5 81               298 	mov	a,sp
   0111 24 FB               299 	add	a,#0xfb
   0113 F8                  300 	mov	r0,a
   0114 74 03               301 	mov	a,#0x03
   0116 26                  302 	add	a,@r0
   0117 FD                  303 	mov	r5,a
   0118 E4                  304 	clr	a
   0119 08                  305 	inc	r0
   011A 36                  306 	addc	a,@r0
   011B FE                  307 	mov	r6,a
   011C 08                  308 	inc	r0
   011D 86 07               309 	mov	ar7,@r0
   011F 8D 82               310 	mov	dpl,r5
   0121 8E 83               311 	mov	dph,r6
   0123 8F F0               312 	mov	b,r7
   0125 12s00r00            313 	lcall	__gptrget
   0128 FD                  314 	mov	r5,a
   0129 A3                  315 	inc	dptr
   012A 12s00r00            316 	lcall	__gptrget
   012D FE                  317 	mov	r6,a
   012E A3                  318 	inc	dptr
   012F 12s00r00            319 	lcall	__gptrget
   0132 FF                  320 	mov	r7,a
   0133 8D 82               321 	mov	dpl,r5
   0135 8E 83               322 	mov	dph,r6
   0137 8F F0               323 	mov	b,r7
   0139 78r00               324 	mov	r0,#_queuebuf_free
   013B 79s00               325 	mov	r1,#(_queuebuf_free >> 8)
   013D 7As00               326 	mov	r2,#(_queuebuf_free >> 16)
   013F 12s00r00            327 	lcall	__sdcc_banked_call
                            328 ;	../../../contiki-sensinode//core/net/packetqueue.c:63: ctimer_stop(&i->lifetimer);
   0142 E5 81               329 	mov	a,sp
   0144 24 FB               330 	add	a,#0xfb
   0146 F8                  331 	mov	r0,a
   0147 74 09               332 	mov	a,#0x09
   0149 26                  333 	add	a,@r0
   014A FD                  334 	mov	r5,a
   014B E4                  335 	clr	a
   014C 08                  336 	inc	r0
   014D 36                  337 	addc	a,@r0
   014E FE                  338 	mov	r6,a
   014F 08                  339 	inc	r0
   0150 86 07               340 	mov	ar7,@r0
   0152 8D 82               341 	mov	dpl,r5
   0154 8E 83               342 	mov	dph,r6
   0156 8F F0               343 	mov	b,r7
   0158 78r00               344 	mov	r0,#_ctimer_stop
   015A 79s00               345 	mov	r1,#(_ctimer_stop >> 8)
   015C 7As00               346 	mov	r2,#(_ctimer_stop >> 16)
   015E 12s00r00            347 	lcall	__sdcc_banked_call
                            348 ;	../../../contiki-sensinode//core/net/packetqueue.c:64: memb_free(q->memb, i);
   0161 E5 81               349 	mov	a,sp
   0163 24 FB               350 	add	a,#0xfb
   0165 F8                  351 	mov	r0,a
   0166 86 05               352 	mov	ar5,@r0
   0168 08                  353 	inc	r0
   0169 86 06               354 	mov	ar6,@r0
   016B 08                  355 	inc	r0
   016C 86 07               356 	mov	ar7,@r0
   016E A8 81               357 	mov	r0,sp
   0170 18                  358 	dec	r0
   0171 18                  359 	dec	r0
   0172 74 03               360 	mov	a,#0x03
   0174 26                  361 	add	a,@r0
   0175 FA                  362 	mov	r2,a
   0176 E4                  363 	clr	a
   0177 08                  364 	inc	r0
   0178 36                  365 	addc	a,@r0
   0179 FB                  366 	mov	r3,a
   017A 08                  367 	inc	r0
   017B 86 04               368 	mov	ar4,@r0
   017D 8A 82               369 	mov	dpl,r2
   017F 8B 83               370 	mov	dph,r3
   0181 8C F0               371 	mov	b,r4
   0183 12s00r00            372 	lcall	__gptrget
   0186 FA                  373 	mov	r2,a
   0187 A3                  374 	inc	dptr
   0188 12s00r00            375 	lcall	__gptrget
   018B FB                  376 	mov	r3,a
   018C A3                  377 	inc	dptr
   018D 12s00r00            378 	lcall	__gptrget
   0190 FC                  379 	mov	r4,a
   0191 C0 05               380 	push	ar5
   0193 C0 06               381 	push	ar6
   0195 C0 07               382 	push	ar7
   0197 8A 82               383 	mov	dpl,r2
   0199 8B 83               384 	mov	dph,r3
   019B 8C F0               385 	mov	b,r4
   019D 78r00               386 	mov	r0,#_memb_free
   019F 79s00               387 	mov	r1,#(_memb_free >> 8)
   01A1 7As00               388 	mov	r2,#(_memb_free >> 16)
   01A3 12s00r00            389 	lcall	__sdcc_banked_call
   01A6 15 81               390 	dec	sp
   01A8 15 81               391 	dec	sp
   01AA 15 81               392 	dec	sp
   01AC E5 81               393 	mov	a,sp
   01AE 24 FA               394 	add	a,#0xFA
   01B0 F5 81               395 	mov	sp,a
   01B2 02s00r00            396 	ljmp	__sdcc_banked_ret
                            397 ;------------------------------------------------------------
                            398 ;Allocation info for local variables in function 'packetqueue_enqueue_packetbuf'
                            399 ;------------------------------------------------------------
                            400 ;lifetime                  Allocated to stack - sp -10
                            401 ;ptr                       Allocated to stack - sp -13
                            402 ;q                         Allocated to stack - sp -5
                            403 ;i                         Allocated to stack - sp -2
                            404 ;------------------------------------------------------------
                            405 ;	../../../contiki-sensinode//core/net/packetqueue.c:69: packetqueue_enqueue_packetbuf(struct packetqueue *q, clock_time_t lifetime,
                            406 ;	-----------------------------------------
                            407 ;	 function packetqueue_enqueue_packetbuf
                            408 ;	-----------------------------------------
   01B5                     409 _packetqueue_enqueue_packetbuf:
   01B5 C0 82               410 	push	dpl
   01B7 C0 83               411 	push	dph
   01B9 C0 F0               412 	push	b
   01BB 05 81               413 	inc	sp
   01BD 05 81               414 	inc	sp
   01BF 05 81               415 	inc	sp
                            416 ;	../../../contiki-sensinode//core/net/packetqueue.c:75: i = memb_alloc(q->memb);
   01C1 E5 81               417 	mov	a,sp
   01C3 24 FB               418 	add	a,#0xfb
   01C5 F8                  419 	mov	r0,a
   01C6 74 03               420 	mov	a,#0x03
   01C8 26                  421 	add	a,@r0
   01C9 FA                  422 	mov	r2,a
   01CA E4                  423 	clr	a
   01CB 08                  424 	inc	r0
   01CC 36                  425 	addc	a,@r0
   01CD FB                  426 	mov	r3,a
   01CE 08                  427 	inc	r0
   01CF 86 04               428 	mov	ar4,@r0
   01D1 8A 82               429 	mov	dpl,r2
   01D3 8B 83               430 	mov	dph,r3
   01D5 8C F0               431 	mov	b,r4
   01D7 12s00r00            432 	lcall	__gptrget
   01DA FD                  433 	mov	r5,a
   01DB A3                  434 	inc	dptr
   01DC 12s00r00            435 	lcall	__gptrget
   01DF FE                  436 	mov	r6,a
   01E0 A3                  437 	inc	dptr
   01E1 12s00r00            438 	lcall	__gptrget
   01E4 FF                  439 	mov	r7,a
   01E5 8D 82               440 	mov	dpl,r5
   01E7 8E 83               441 	mov	dph,r6
   01E9 8F F0               442 	mov	b,r7
   01EB C0 04               443 	push	ar4
   01ED C0 03               444 	push	ar3
   01EF C0 02               445 	push	ar2
   01F1 78r00               446 	mov	r0,#_memb_alloc
   01F3 79s00               447 	mov	r1,#(_memb_alloc >> 8)
   01F5 7As00               448 	mov	r2,#(_memb_alloc >> 16)
   01F7 12s00r00            449 	lcall	__sdcc_banked_call
   01FA AD 82               450 	mov	r5,dpl
   01FC AE 83               451 	mov	r6,dph
   01FE AF F0               452 	mov	r7,b
   0200 D0 02               453 	pop	ar2
   0202 D0 03               454 	pop	ar3
   0204 D0 04               455 	pop	ar4
   0206 A8 81               456 	mov	r0,sp
   0208 18                  457 	dec	r0
   0209 18                  458 	dec	r0
   020A A6 05               459 	mov	@r0,ar5
   020C 08                  460 	inc	r0
   020D A6 06               461 	mov	@r0,ar6
   020F 08                  462 	inc	r0
   0210 A6 07               463 	mov	@r0,ar7
                            464 ;	../../../contiki-sensinode//core/net/packetqueue.c:77: if(i == NULL) {
   0212 A8 81               465 	mov	r0,sp
   0214 18                  466 	dec	r0
   0215 18                  467 	dec	r0
   0216 E6                  468 	mov	a,@r0
   0217 08                  469 	inc	r0
   0218 46                  470 	orl	a,@r0
   0219 70 06               471 	jnz	00102$
                            472 ;	../../../contiki-sensinode//core/net/packetqueue.c:78: return 0;
   021B 90 00 00            473 	mov	dptr,#0x0000
   021E 02s03rB6            474 	ljmp	00107$
   0221                     475 00102$:
                            476 ;	../../../contiki-sensinode//core/net/packetqueue.c:82: i->buf = queuebuf_new_from_packetbuf();
   0221 C0 02               477 	push	ar2
   0223 C0 03               478 	push	ar3
   0225 C0 04               479 	push	ar4
   0227 E5 81               480 	mov	a,sp
   0229 24 FB               481 	add	a,#0xfb
   022B F8                  482 	mov	r0,a
   022C 74 03               483 	mov	a,#0x03
   022E 26                  484 	add	a,@r0
   022F FA                  485 	mov	r2,a
   0230 E4                  486 	clr	a
   0231 08                  487 	inc	r0
   0232 36                  488 	addc	a,@r0
   0233 FB                  489 	mov	r3,a
   0234 08                  490 	inc	r0
   0235 86 04               491 	mov	ar4,@r0
   0237 C0 04               492 	push	ar4
   0239 C0 03               493 	push	ar3
   023B C0 02               494 	push	ar2
   023D 78r00               495 	mov	r0,#_queuebuf_new_from_packetbuf
   023F 79s00               496 	mov	r1,#(_queuebuf_new_from_packetbuf >> 8)
   0241 7As00               497 	mov	r2,#(_queuebuf_new_from_packetbuf >> 16)
   0243 12s00r00            498 	lcall	__sdcc_banked_call
   0246 AD 82               499 	mov	r5,dpl
   0248 AE 83               500 	mov	r6,dph
   024A AF F0               501 	mov	r7,b
   024C D0 02               502 	pop	ar2
   024E D0 03               503 	pop	ar3
   0250 D0 04               504 	pop	ar4
   0252 8A 82               505 	mov	dpl,r2
   0254 8B 83               506 	mov	dph,r3
   0256 8C F0               507 	mov	b,r4
   0258 ED                  508 	mov	a,r5
   0259 12s00r00            509 	lcall	__gptrput
   025C A3                  510 	inc	dptr
   025D EE                  511 	mov	a,r6
   025E 12s00r00            512 	lcall	__gptrput
   0261 A3                  513 	inc	dptr
   0262 EF                  514 	mov	a,r7
   0263 12s00r00            515 	lcall	__gptrput
                            516 ;	../../../contiki-sensinode//core/net/packetqueue.c:84: if(i->buf == NULL) {
   0266 D0 04               517 	pop	ar4
   0268 D0 03               518 	pop	ar3
   026A D0 02               519 	pop	ar2
   026C ED                  520 	mov	a,r5
   026D 4E                  521 	orl	a,r6
   026E 70 41               522 	jnz	00104$
                            523 ;	../../../contiki-sensinode//core/net/packetqueue.c:85: memb_free(q->memb, i);
   0270 A8 81               524 	mov	r0,sp
   0272 18                  525 	dec	r0
   0273 18                  526 	dec	r0
   0274 86 05               527 	mov	ar5,@r0
   0276 08                  528 	inc	r0
   0277 86 06               529 	mov	ar6,@r0
   0279 08                  530 	inc	r0
   027A 86 07               531 	mov	ar7,@r0
   027C 8A 82               532 	mov	dpl,r2
   027E 8B 83               533 	mov	dph,r3
   0280 8C F0               534 	mov	b,r4
   0282 12s00r00            535 	lcall	__gptrget
   0285 FA                  536 	mov	r2,a
   0286 A3                  537 	inc	dptr
   0287 12s00r00            538 	lcall	__gptrget
   028A FB                  539 	mov	r3,a
   028B A3                  540 	inc	dptr
   028C 12s00r00            541 	lcall	__gptrget
   028F FC                  542 	mov	r4,a
   0290 C0 05               543 	push	ar5
   0292 C0 06               544 	push	ar6
   0294 C0 07               545 	push	ar7
   0296 8A 82               546 	mov	dpl,r2
   0298 8B 83               547 	mov	dph,r3
   029A 8C F0               548 	mov	b,r4
   029C 78r00               549 	mov	r0,#_memb_free
   029E 79s00               550 	mov	r1,#(_memb_free >> 8)
   02A0 7As00               551 	mov	r2,#(_memb_free >> 16)
   02A2 12s00r00            552 	lcall	__sdcc_banked_call
   02A5 15 81               553 	dec	sp
   02A7 15 81               554 	dec	sp
   02A9 15 81               555 	dec	sp
                            556 ;	../../../contiki-sensinode//core/net/packetqueue.c:86: return 0;
   02AB 90 00 00            557 	mov	dptr,#0x0000
   02AE 02s03rB6            558 	ljmp	00107$
   02B1                     559 00104$:
                            560 ;	../../../contiki-sensinode//core/net/packetqueue.c:89: i->queue = q;
   02B1 A8 81               561 	mov	r0,sp
   02B3 18                  562 	dec	r0
   02B4 18                  563 	dec	r0
   02B5 74 06               564 	mov	a,#0x06
   02B7 26                  565 	add	a,@r0
   02B8 FD                  566 	mov	r5,a
   02B9 E4                  567 	clr	a
   02BA 08                  568 	inc	r0
   02BB 36                  569 	addc	a,@r0
   02BC FE                  570 	mov	r6,a
   02BD 08                  571 	inc	r0
   02BE 86 07               572 	mov	ar7,@r0
   02C0 8D 82               573 	mov	dpl,r5
   02C2 8E 83               574 	mov	dph,r6
   02C4 8F F0               575 	mov	b,r7
   02C6 E5 81               576 	mov	a,sp
   02C8 24 FB               577 	add	a,#0xfb
   02CA F8                  578 	mov	r0,a
   02CB E6                  579 	mov	a,@r0
   02CC 12s00r00            580 	lcall	__gptrput
   02CF A3                  581 	inc	dptr
   02D0 08                  582 	inc	r0
   02D1 E6                  583 	mov	a,@r0
   02D2 12s00r00            584 	lcall	__gptrput
   02D5 A3                  585 	inc	dptr
   02D6 08                  586 	inc	r0
   02D7 E6                  587 	mov	a,@r0
   02D8 12s00r00            588 	lcall	__gptrput
                            589 ;	../../../contiki-sensinode//core/net/packetqueue.c:90: i->ptr = ptr;
   02DB A8 81               590 	mov	r0,sp
   02DD 18                  591 	dec	r0
   02DE 18                  592 	dec	r0
   02DF 74 1F               593 	mov	a,#0x1F
   02E1 26                  594 	add	a,@r0
   02E2 FD                  595 	mov	r5,a
   02E3 E4                  596 	clr	a
   02E4 08                  597 	inc	r0
   02E5 36                  598 	addc	a,@r0
   02E6 FE                  599 	mov	r6,a
   02E7 08                  600 	inc	r0
   02E8 86 07               601 	mov	ar7,@r0
   02EA 8D 82               602 	mov	dpl,r5
   02EC 8E 83               603 	mov	dph,r6
   02EE 8F F0               604 	mov	b,r7
   02F0 E5 81               605 	mov	a,sp
   02F2 24 F3               606 	add	a,#0xf3
   02F4 F8                  607 	mov	r0,a
   02F5 E6                  608 	mov	a,@r0
   02F6 12s00r00            609 	lcall	__gptrput
   02F9 A3                  610 	inc	dptr
   02FA 08                  611 	inc	r0
   02FB E6                  612 	mov	a,@r0
   02FC 12s00r00            613 	lcall	__gptrput
   02FF A3                  614 	inc	dptr
   0300 08                  615 	inc	r0
   0301 E6                  616 	mov	a,@r0
   0302 12s00r00            617 	lcall	__gptrput
                            618 ;	../../../contiki-sensinode//core/net/packetqueue.c:95: if(lifetime > 0) {
   0305 E5 81               619 	mov	a,sp
   0307 24 F6               620 	add	a,#0xf6
   0309 F8                  621 	mov	r0,a
   030A E6                  622 	mov	a,@r0
   030B 08                  623 	inc	r0
   030C 46                  624 	orl	a,@r0
   030D 60 4E               625 	jz	00106$
                            626 ;	../../../contiki-sensinode//core/net/packetqueue.c:96: ctimer_set(&i->lifetimer, lifetime, remove_queued_packet, i);
   030F A8 81               627 	mov	r0,sp
   0311 18                  628 	dec	r0
   0312 18                  629 	dec	r0
   0313 86 05               630 	mov	ar5,@r0
   0315 08                  631 	inc	r0
   0316 86 06               632 	mov	ar6,@r0
   0318 08                  633 	inc	r0
   0319 86 07               634 	mov	ar7,@r0
   031B A8 81               635 	mov	r0,sp
   031D 18                  636 	dec	r0
   031E 18                  637 	dec	r0
   031F 74 09               638 	mov	a,#0x09
   0321 26                  639 	add	a,@r0
   0322 FA                  640 	mov	r2,a
   0323 E4                  641 	clr	a
   0324 08                  642 	inc	r0
   0325 36                  643 	addc	a,@r0
   0326 FB                  644 	mov	r3,a
   0327 08                  645 	inc	r0
   0328 86 04               646 	mov	ar4,@r0
   032A C0 05               647 	push	ar5
   032C C0 06               648 	push	ar6
   032E C0 07               649 	push	ar7
   0330 74r70               650 	mov	a,#_remove_queued_packet
   0332 C0 E0               651 	push	acc
   0334 74s00               652 	mov	a,#(_remove_queued_packet >> 8)
   0336 C0 E0               653 	push	acc
   0338 74s00               654 	mov	a,#(_remove_queued_packet >> 16)
   033A C0 E0               655 	push	acc
   033C E5 81               656 	mov	a,sp
   033E 24 F0               657 	add	a,#0xf0
   0340 F8                  658 	mov	r0,a
   0341 E6                  659 	mov	a,@r0
   0342 C0 E0               660 	push	acc
   0344 08                  661 	inc	r0
   0345 E6                  662 	mov	a,@r0
   0346 C0 E0               663 	push	acc
   0348 8A 82               664 	mov	dpl,r2
   034A 8B 83               665 	mov	dph,r3
   034C 8C F0               666 	mov	b,r4
   034E 78r00               667 	mov	r0,#_ctimer_set
   0350 79s00               668 	mov	r1,#(_ctimer_set >> 8)
   0352 7As00               669 	mov	r2,#(_ctimer_set >> 16)
   0354 12s00r00            670 	lcall	__sdcc_banked_call
   0357 E5 81               671 	mov	a,sp
   0359 24 F8               672 	add	a,#0xf8
   035B F5 81               673 	mov	sp,a
   035D                     674 00106$:
                            675 ;	../../../contiki-sensinode//core/net/packetqueue.c:100: list_add(*q->list, i);
   035D A8 81               676 	mov	r0,sp
   035F 18                  677 	dec	r0
   0360 18                  678 	dec	r0
   0361 86 05               679 	mov	ar5,@r0
   0363 08                  680 	inc	r0
   0364 86 06               681 	mov	ar6,@r0
   0366 08                  682 	inc	r0
   0367 86 07               683 	mov	ar7,@r0
   0369 E5 81               684 	mov	a,sp
   036B 24 FB               685 	add	a,#0xfb
   036D F8                  686 	mov	r0,a
   036E 86 82               687 	mov	dpl,@r0
   0370 08                  688 	inc	r0
   0371 86 83               689 	mov	dph,@r0
   0373 08                  690 	inc	r0
   0374 86 F0               691 	mov	b,@r0
   0376 12s00r00            692 	lcall	__gptrget
   0379 FA                  693 	mov	r2,a
   037A A3                  694 	inc	dptr
   037B 12s00r00            695 	lcall	__gptrget
   037E FB                  696 	mov	r3,a
   037F A3                  697 	inc	dptr
   0380 12s00r00            698 	lcall	__gptrget
   0383 FC                  699 	mov	r4,a
   0384 8A 82               700 	mov	dpl,r2
   0386 8B 83               701 	mov	dph,r3
   0388 8C F0               702 	mov	b,r4
   038A 12s00r00            703 	lcall	__gptrget
   038D FA                  704 	mov	r2,a
   038E A3                  705 	inc	dptr
   038F 12s00r00            706 	lcall	__gptrget
   0392 FB                  707 	mov	r3,a
   0393 A3                  708 	inc	dptr
   0394 12s00r00            709 	lcall	__gptrget
   0397 FC                  710 	mov	r4,a
   0398 C0 05               711 	push	ar5
   039A C0 06               712 	push	ar6
   039C C0 07               713 	push	ar7
   039E 8A 82               714 	mov	dpl,r2
   03A0 8B 83               715 	mov	dph,r3
   03A2 8C F0               716 	mov	b,r4
   03A4 78r00               717 	mov	r0,#_list_add
   03A6 79s00               718 	mov	r1,#(_list_add >> 8)
   03A8 7As00               719 	mov	r2,#(_list_add >> 16)
   03AA 12s00r00            720 	lcall	__sdcc_banked_call
   03AD 15 81               721 	dec	sp
   03AF 15 81               722 	dec	sp
   03B1 15 81               723 	dec	sp
                            724 ;	../../../contiki-sensinode//core/net/packetqueue.c:102: return 1;
   03B3 90 00 01            725 	mov	dptr,#0x0001
   03B6                     726 00107$:
   03B6 E5 81               727 	mov	a,sp
   03B8 24 FA               728 	add	a,#0xFA
   03BA F5 81               729 	mov	sp,a
   03BC 02s00r00            730 	ljmp	__sdcc_banked_ret
                            731 ;------------------------------------------------------------
                            732 ;Allocation info for local variables in function 'packetqueue_first'
                            733 ;------------------------------------------------------------
                            734 ;q                         Allocated to registers r5 r6 r7 
                            735 ;------------------------------------------------------------
                            736 ;	../../../contiki-sensinode//core/net/packetqueue.c:106: packetqueue_first(struct packetqueue *q)
                            737 ;	-----------------------------------------
                            738 ;	 function packetqueue_first
                            739 ;	-----------------------------------------
   03BF                     740 _packetqueue_first:
                            741 ;	../../../contiki-sensinode//core/net/packetqueue.c:108: return list_head(*q->list);
   03BF 12s00r00            742 	lcall	__gptrget
   03C2 FD                  743 	mov	r5,a
   03C3 A3                  744 	inc	dptr
   03C4 12s00r00            745 	lcall	__gptrget
   03C7 FE                  746 	mov	r6,a
   03C8 A3                  747 	inc	dptr
   03C9 12s00r00            748 	lcall	__gptrget
   03CC FF                  749 	mov	r7,a
   03CD 8D 82               750 	mov	dpl,r5
   03CF 8E 83               751 	mov	dph,r6
   03D1 8F F0               752 	mov	b,r7
   03D3 12s00r00            753 	lcall	__gptrget
   03D6 FD                  754 	mov	r5,a
   03D7 A3                  755 	inc	dptr
   03D8 12s00r00            756 	lcall	__gptrget
   03DB FE                  757 	mov	r6,a
   03DC A3                  758 	inc	dptr
   03DD 12s00r00            759 	lcall	__gptrget
   03E0 FF                  760 	mov	r7,a
   03E1 8D 82               761 	mov	dpl,r5
   03E3 8E 83               762 	mov	dph,r6
   03E5 8F F0               763 	mov	b,r7
   03E7 78r00               764 	mov	r0,#_list_head
   03E9 79s00               765 	mov	r1,#(_list_head >> 8)
   03EB 7As00               766 	mov	r2,#(_list_head >> 16)
   03ED 12s00r00            767 	lcall	__sdcc_banked_call
   03F0 AD 82               768 	mov	r5,dpl
   03F2 AE 83               769 	mov	r6,dph
   03F4 AF F0               770 	mov	r7,b
   03F6 02s00r00            771 	ljmp	__sdcc_banked_ret
                            772 ;------------------------------------------------------------
                            773 ;Allocation info for local variables in function 'packetqueue_dequeue'
                            774 ;------------------------------------------------------------
                            775 ;q                         Allocated to stack - sp -5
                            776 ;i                         Allocated to stack - sp -2
                            777 ;------------------------------------------------------------
                            778 ;	../../../contiki-sensinode//core/net/packetqueue.c:112: packetqueue_dequeue(struct packetqueue *q)
                            779 ;	-----------------------------------------
                            780 ;	 function packetqueue_dequeue
                            781 ;	-----------------------------------------
   03F9                     782 _packetqueue_dequeue:
   03F9 C0 82               783 	push	dpl
   03FB C0 83               784 	push	dph
   03FD C0 F0               785 	push	b
   03FF 05 81               786 	inc	sp
   0401 05 81               787 	inc	sp
   0403 05 81               788 	inc	sp
                            789 ;	../../../contiki-sensinode//core/net/packetqueue.c:116: i = list_head(*q->list);
   0405 E5 81               790 	mov	a,sp
   0407 24 FB               791 	add	a,#0xfb
   0409 F8                  792 	mov	r0,a
   040A 86 82               793 	mov	dpl,@r0
   040C 08                  794 	inc	r0
   040D 86 83               795 	mov	dph,@r0
   040F 08                  796 	inc	r0
   0410 86 F0               797 	mov	b,@r0
   0412 12s00r00            798 	lcall	__gptrget
   0415 FA                  799 	mov	r2,a
   0416 A3                  800 	inc	dptr
   0417 12s00r00            801 	lcall	__gptrget
   041A FB                  802 	mov	r3,a
   041B A3                  803 	inc	dptr
   041C 12s00r00            804 	lcall	__gptrget
   041F FC                  805 	mov	r4,a
   0420 8A 82               806 	mov	dpl,r2
   0422 8B 83               807 	mov	dph,r3
   0424 8C F0               808 	mov	b,r4
   0426 12s00r00            809 	lcall	__gptrget
   0429 FA                  810 	mov	r2,a
   042A A3                  811 	inc	dptr
   042B 12s00r00            812 	lcall	__gptrget
   042E FB                  813 	mov	r3,a
   042F A3                  814 	inc	dptr
   0430 12s00r00            815 	lcall	__gptrget
   0433 FC                  816 	mov	r4,a
   0434 8A 82               817 	mov	dpl,r2
   0436 8B 83               818 	mov	dph,r3
   0438 8C F0               819 	mov	b,r4
   043A 78r00               820 	mov	r0,#_list_head
   043C 79s00               821 	mov	r1,#(_list_head >> 8)
   043E 7As00               822 	mov	r2,#(_list_head >> 16)
   0440 12s00r00            823 	lcall	__sdcc_banked_call
   0443 AA 82               824 	mov	r2,dpl
   0445 AB 83               825 	mov	r3,dph
   0447 AC F0               826 	mov	r4,b
   0449 A8 81               827 	mov	r0,sp
   044B 18                  828 	dec	r0
   044C 18                  829 	dec	r0
   044D A6 02               830 	mov	@r0,ar2
   044F 08                  831 	inc	r0
   0450 A6 03               832 	mov	@r0,ar3
   0452 08                  833 	inc	r0
   0453 A6 04               834 	mov	@r0,ar4
                            835 ;	../../../contiki-sensinode//core/net/packetqueue.c:117: if(i != NULL) {
   0455 A8 81               836 	mov	r0,sp
   0457 18                  837 	dec	r0
   0458 18                  838 	dec	r0
   0459 E6                  839 	mov	a,@r0
   045A 08                  840 	inc	r0
   045B 46                  841 	orl	a,@r0
   045C 70 03               842 	jnz	00107$
   045E 02s05r52            843 	ljmp	00103$
   0461                     844 00107$:
                            845 ;	../../../contiki-sensinode//core/net/packetqueue.c:118: list_remove(*q->list, i);
   0461 A8 81               846 	mov	r0,sp
   0463 18                  847 	dec	r0
   0464 18                  848 	dec	r0
   0465 86 02               849 	mov	ar2,@r0
   0467 08                  850 	inc	r0
   0468 86 03               851 	mov	ar3,@r0
   046A 08                  852 	inc	r0
   046B 86 04               853 	mov	ar4,@r0
   046D E5 81               854 	mov	a,sp
   046F 24 FB               855 	add	a,#0xfb
   0471 F8                  856 	mov	r0,a
   0472 86 82               857 	mov	dpl,@r0
   0474 08                  858 	inc	r0
   0475 86 83               859 	mov	dph,@r0
   0477 08                  860 	inc	r0
   0478 86 F0               861 	mov	b,@r0
   047A 12s00r00            862 	lcall	__gptrget
   047D FD                  863 	mov	r5,a
   047E A3                  864 	inc	dptr
   047F 12s00r00            865 	lcall	__gptrget
   0482 FE                  866 	mov	r6,a
   0483 A3                  867 	inc	dptr
   0484 12s00r00            868 	lcall	__gptrget
   0487 FF                  869 	mov	r7,a
   0488 8D 82               870 	mov	dpl,r5
   048A 8E 83               871 	mov	dph,r6
   048C 8F F0               872 	mov	b,r7
   048E 12s00r00            873 	lcall	__gptrget
   0491 FD                  874 	mov	r5,a
   0492 A3                  875 	inc	dptr
   0493 12s00r00            876 	lcall	__gptrget
   0496 FE                  877 	mov	r6,a
   0497 A3                  878 	inc	dptr
   0498 12s00r00            879 	lcall	__gptrget
   049B FF                  880 	mov	r7,a
   049C C0 02               881 	push	ar2
   049E C0 03               882 	push	ar3
   04A0 C0 04               883 	push	ar4
   04A2 8D 82               884 	mov	dpl,r5
   04A4 8E 83               885 	mov	dph,r6
   04A6 8F F0               886 	mov	b,r7
   04A8 78r00               887 	mov	r0,#_list_remove
   04AA 79s00               888 	mov	r1,#(_list_remove >> 8)
   04AC 7As00               889 	mov	r2,#(_list_remove >> 16)
   04AE 12s00r00            890 	lcall	__sdcc_banked_call
   04B1 15 81               891 	dec	sp
   04B3 15 81               892 	dec	sp
   04B5 15 81               893 	dec	sp
                            894 ;	../../../contiki-sensinode//core/net/packetqueue.c:119: queuebuf_free(i->buf);
   04B7 A8 81               895 	mov	r0,sp
   04B9 18                  896 	dec	r0
   04BA 18                  897 	dec	r0
   04BB 74 03               898 	mov	a,#0x03
   04BD 26                  899 	add	a,@r0
   04BE FD                  900 	mov	r5,a
   04BF E4                  901 	clr	a
   04C0 08                  902 	inc	r0
   04C1 36                  903 	addc	a,@r0
   04C2 FE                  904 	mov	r6,a
   04C3 08                  905 	inc	r0
   04C4 86 07               906 	mov	ar7,@r0
   04C6 8D 82               907 	mov	dpl,r5
   04C8 8E 83               908 	mov	dph,r6
   04CA 8F F0               909 	mov	b,r7
   04CC 12s00r00            910 	lcall	__gptrget
   04CF FD                  911 	mov	r5,a
   04D0 A3                  912 	inc	dptr
   04D1 12s00r00            913 	lcall	__gptrget
   04D4 FE                  914 	mov	r6,a
   04D5 A3                  915 	inc	dptr
   04D6 12s00r00            916 	lcall	__gptrget
   04D9 FF                  917 	mov	r7,a
   04DA 8D 82               918 	mov	dpl,r5
   04DC 8E 83               919 	mov	dph,r6
   04DE 8F F0               920 	mov	b,r7
   04E0 78r00               921 	mov	r0,#_queuebuf_free
   04E2 79s00               922 	mov	r1,#(_queuebuf_free >> 8)
   04E4 7As00               923 	mov	r2,#(_queuebuf_free >> 16)
   04E6 12s00r00            924 	lcall	__sdcc_banked_call
                            925 ;	../../../contiki-sensinode//core/net/packetqueue.c:120: ctimer_stop(&i->lifetimer);
   04E9 A8 81               926 	mov	r0,sp
   04EB 18                  927 	dec	r0
   04EC 18                  928 	dec	r0
   04ED 74 09               929 	mov	a,#0x09
   04EF 26                  930 	add	a,@r0
   04F0 FD                  931 	mov	r5,a
   04F1 E4                  932 	clr	a
   04F2 08                  933 	inc	r0
   04F3 36                  934 	addc	a,@r0
   04F4 FE                  935 	mov	r6,a
   04F5 08                  936 	inc	r0
   04F6 86 07               937 	mov	ar7,@r0
   04F8 8D 82               938 	mov	dpl,r5
   04FA 8E 83               939 	mov	dph,r6
   04FC 8F F0               940 	mov	b,r7
   04FE 78r00               941 	mov	r0,#_ctimer_stop
   0500 79s00               942 	mov	r1,#(_ctimer_stop >> 8)
   0502 7As00               943 	mov	r2,#(_ctimer_stop >> 16)
   0504 12s00r00            944 	lcall	__sdcc_banked_call
                            945 ;	../../../contiki-sensinode//core/net/packetqueue.c:121: memb_free(q->memb, i);
   0507 A8 81               946 	mov	r0,sp
   0509 18                  947 	dec	r0
   050A 18                  948 	dec	r0
   050B 86 02               949 	mov	ar2,@r0
   050D 08                  950 	inc	r0
   050E 86 03               951 	mov	ar3,@r0
   0510 08                  952 	inc	r0
   0511 86 04               953 	mov	ar4,@r0
   0513 E5 81               954 	mov	a,sp
   0515 24 FB               955 	add	a,#0xfb
   0517 F8                  956 	mov	r0,a
   0518 74 03               957 	mov	a,#0x03
   051A 26                  958 	add	a,@r0
   051B FD                  959 	mov	r5,a
   051C E4                  960 	clr	a
   051D 08                  961 	inc	r0
   051E 36                  962 	addc	a,@r0
   051F FE                  963 	mov	r6,a
   0520 08                  964 	inc	r0
   0521 86 07               965 	mov	ar7,@r0
   0523 8D 82               966 	mov	dpl,r5
   0525 8E 83               967 	mov	dph,r6
   0527 8F F0               968 	mov	b,r7
   0529 12s00r00            969 	lcall	__gptrget
   052C FD                  970 	mov	r5,a
   052D A3                  971 	inc	dptr
   052E 12s00r00            972 	lcall	__gptrget
   0531 FE                  973 	mov	r6,a
   0532 A3                  974 	inc	dptr
   0533 12s00r00            975 	lcall	__gptrget
   0536 FF                  976 	mov	r7,a
   0537 C0 02               977 	push	ar2
   0539 C0 03               978 	push	ar3
   053B C0 04               979 	push	ar4
   053D 8D 82               980 	mov	dpl,r5
   053F 8E 83               981 	mov	dph,r6
   0541 8F F0               982 	mov	b,r7
   0543 78r00               983 	mov	r0,#_memb_free
   0545 79s00               984 	mov	r1,#(_memb_free >> 8)
   0547 7As00               985 	mov	r2,#(_memb_free >> 16)
   0549 12s00r00            986 	lcall	__sdcc_banked_call
   054C 15 81               987 	dec	sp
   054E 15 81               988 	dec	sp
   0550 15 81               989 	dec	sp
   0552                     990 00103$:
   0552 E5 81               991 	mov	a,sp
   0554 24 FA               992 	add	a,#0xFA
   0556 F5 81               993 	mov	sp,a
   0558 02s00r00            994 	ljmp	__sdcc_banked_ret
                            995 ;------------------------------------------------------------
                            996 ;Allocation info for local variables in function 'packetqueue_len'
                            997 ;------------------------------------------------------------
                            998 ;q                         Allocated to registers r5 r6 r7 
                            999 ;------------------------------------------------------------
                           1000 ;	../../../contiki-sensinode//core/net/packetqueue.c:126: packetqueue_len(struct packetqueue *q)
                           1001 ;	-----------------------------------------
                           1002 ;	 function packetqueue_len
                           1003 ;	-----------------------------------------
   055B                    1004 _packetqueue_len:
                           1005 ;	../../../contiki-sensinode//core/net/packetqueue.c:128: return list_length(*q->list);
   055B 12s00r00           1006 	lcall	__gptrget
   055E FD                 1007 	mov	r5,a
   055F A3                 1008 	inc	dptr
   0560 12s00r00           1009 	lcall	__gptrget
   0563 FE                 1010 	mov	r6,a
   0564 A3                 1011 	inc	dptr
   0565 12s00r00           1012 	lcall	__gptrget
   0568 FF                 1013 	mov	r7,a
   0569 8D 82              1014 	mov	dpl,r5
   056B 8E 83              1015 	mov	dph,r6
   056D 8F F0              1016 	mov	b,r7
   056F 12s00r00           1017 	lcall	__gptrget
   0572 FD                 1018 	mov	r5,a
   0573 A3                 1019 	inc	dptr
   0574 12s00r00           1020 	lcall	__gptrget
   0577 FE                 1021 	mov	r6,a
   0578 A3                 1022 	inc	dptr
   0579 12s00r00           1023 	lcall	__gptrget
   057C FF                 1024 	mov	r7,a
   057D 8D 82              1025 	mov	dpl,r5
   057F 8E 83              1026 	mov	dph,r6
   0581 8F F0              1027 	mov	b,r7
   0583 78r00              1028 	mov	r0,#_list_length
   0585 79s00              1029 	mov	r1,#(_list_length >> 8)
   0587 7As00              1030 	mov	r2,#(_list_length >> 16)
   0589 12s00r00           1031 	lcall	__sdcc_banked_call
   058C AE 82              1032 	mov	r6,dpl
   058E AF 83              1033 	mov  r7,dph
   0590 02s00r00           1034 	ljmp	__sdcc_banked_ret
                           1035 ;------------------------------------------------------------
                           1036 ;Allocation info for local variables in function 'packetqueue_queuebuf'
                           1037 ;------------------------------------------------------------
                           1038 ;i                         Allocated to registers r5 r6 r7 
                           1039 ;------------------------------------------------------------
                           1040 ;	../../../contiki-sensinode//core/net/packetqueue.c:132: packetqueue_queuebuf(struct packetqueue_item *i)
                           1041 ;	-----------------------------------------
                           1042 ;	 function packetqueue_queuebuf
                           1043 ;	-----------------------------------------
   0593                    1044 _packetqueue_queuebuf:
   0593 AD 82              1045 	mov	r5,dpl
   0595 AE 83              1046 	mov	r6,dph
   0597 AF F0              1047 	mov	r7,b
                           1048 ;	../../../contiki-sensinode//core/net/packetqueue.c:134: if(i != NULL) {
   0599 ED                 1049 	mov	a,r5
   059A 4E                 1050 	orl	a,r6
   059B 60 23              1051 	jz	00102$
                           1052 ;	../../../contiki-sensinode//core/net/packetqueue.c:135: return i->buf;
   059D 74 03              1053 	mov	a,#0x03
   059F 2D                 1054 	add	a,r5
   05A0 FD                 1055 	mov	r5,a
   05A1 E4                 1056 	clr	a
   05A2 3E                 1057 	addc	a,r6
   05A3 FE                 1058 	mov	r6,a
   05A4 8D 82              1059 	mov	dpl,r5
   05A6 8E 83              1060 	mov	dph,r6
   05A8 8F F0              1061 	mov	b,r7
   05AA 12s00r00           1062 	lcall	__gptrget
   05AD FD                 1063 	mov	r5,a
   05AE A3                 1064 	inc	dptr
   05AF 12s00r00           1065 	lcall	__gptrget
   05B2 FE                 1066 	mov	r6,a
   05B3 A3                 1067 	inc	dptr
   05B4 12s00r00           1068 	lcall	__gptrget
   05B7 FF                 1069 	mov	r7,a
   05B8 8D 82              1070 	mov	dpl,r5
   05BA 8E 83              1071 	mov	dph,r6
   05BC 8F F0              1072 	mov	b,r7
   05BE 80 06              1073 	sjmp	00104$
   05C0                    1074 00102$:
                           1075 ;	../../../contiki-sensinode//core/net/packetqueue.c:137: return NULL;
   05C0 90 00 00           1076 	mov	dptr,#0x0000
   05C3 75 F0 00           1077 	mov	b,#0x00
   05C6                    1078 00104$:
   05C6 02s00r00           1079 	ljmp	__sdcc_banked_ret
                           1080 ;------------------------------------------------------------
                           1081 ;Allocation info for local variables in function 'packetqueue_ptr'
                           1082 ;------------------------------------------------------------
                           1083 ;i                         Allocated to registers r5 r6 r7 
                           1084 ;------------------------------------------------------------
                           1085 ;	../../../contiki-sensinode//core/net/packetqueue.c:142: packetqueue_ptr(struct packetqueue_item *i)
                           1086 ;	-----------------------------------------
                           1087 ;	 function packetqueue_ptr
                           1088 ;	-----------------------------------------
   05C9                    1089 _packetqueue_ptr:
   05C9 AD 82              1090 	mov	r5,dpl
   05CB AE 83              1091 	mov	r6,dph
   05CD AF F0              1092 	mov	r7,b
                           1093 ;	../../../contiki-sensinode//core/net/packetqueue.c:144: if(i != NULL) {
   05CF ED                 1094 	mov	a,r5
   05D0 4E                 1095 	orl	a,r6
   05D1 60 23              1096 	jz	00102$
                           1097 ;	../../../contiki-sensinode//core/net/packetqueue.c:145: return i->ptr;
   05D3 74 1F              1098 	mov	a,#0x1F
   05D5 2D                 1099 	add	a,r5
   05D6 FD                 1100 	mov	r5,a
   05D7 E4                 1101 	clr	a
   05D8 3E                 1102 	addc	a,r6
   05D9 FE                 1103 	mov	r6,a
   05DA 8D 82              1104 	mov	dpl,r5
   05DC 8E 83              1105 	mov	dph,r6
   05DE 8F F0              1106 	mov	b,r7
   05E0 12s00r00           1107 	lcall	__gptrget
   05E3 FD                 1108 	mov	r5,a
   05E4 A3                 1109 	inc	dptr
   05E5 12s00r00           1110 	lcall	__gptrget
   05E8 FE                 1111 	mov	r6,a
   05E9 A3                 1112 	inc	dptr
   05EA 12s00r00           1113 	lcall	__gptrget
   05ED FF                 1114 	mov	r7,a
   05EE 8D 82              1115 	mov	dpl,r5
   05F0 8E 83              1116 	mov	dph,r6
   05F2 8F F0              1117 	mov	b,r7
   05F4 80 06              1118 	sjmp	00104$
   05F6                    1119 00102$:
                           1120 ;	../../../contiki-sensinode//core/net/packetqueue.c:147: return NULL;
   05F6 90 00 00           1121 	mov	dptr,#0x0000
   05F9 75 F0 00           1122 	mov	b,#0x00
   05FC                    1123 00104$:
   05FC 02s00r00           1124 	ljmp	__sdcc_banked_ret
                           1125 	.area CSEG    (CODE)
                           1126 	.area CONST   (CODE)
                           1127 	.area XINIT   (CODE)
                           1128 	.area CABS    (ABS,CODE)
