                              1 ;--------------------------------------------------------
                              2 ; File Created by SDCC : free open source ANSI-C Compiler
                              3 ; Version 3.1.1 #7100 (Oct 29 2014) (Linux)
                              4 ; This file was generated Wed Dec  2 18:10:54 2015
                              5 ;--------------------------------------------------------
                              6 	.module process
                              7 	.optsdcc -mmcs51 --model-huge
                              8 	
                              9 ;--------------------------------------------------------
                             10 ; Public variables in this module
                             11 ;--------------------------------------------------------
                             12 	.globl _process_current
                             13 	.globl _process_list
                             14 	.globl _process_alloc_event
                             15 	.globl _process_start
                             16 	.globl _process_exit
                             17 	.globl _process_init
                             18 	.globl _process_run
                             19 	.globl _process_nevents
                             20 	.globl _process_post
                             21 	.globl _process_post_synch
                             22 	.globl _process_poll
                             23 	.globl _process_is_running
                             24 ;--------------------------------------------------------
                             25 ; special function registers
                             26 ;--------------------------------------------------------
                             27 	.area RSEG    (ABS,DATA)
   0000                      28 	.org 0x0000
                             29 ;--------------------------------------------------------
                             30 ; special function bits
                             31 ;--------------------------------------------------------
                             32 	.area RSEG    (ABS,DATA)
   0000                      33 	.org 0x0000
                             34 ;--------------------------------------------------------
                             35 ; overlayable register banks
                             36 ;--------------------------------------------------------
                             37 	.area REG_BANK_0	(REL,OVR,DATA)
   0000                      38 	.ds 8
                             39 ;--------------------------------------------------------
                             40 ; internal ram data
                             41 ;--------------------------------------------------------
                             42 	.area DSEG    (DATA)
                             43 ;--------------------------------------------------------
                             44 ; overlayable items in internal ram 
                             45 ;--------------------------------------------------------
                             46 	.area OSEG    (OVR,DATA)
                             47 ;--------------------------------------------------------
                             48 ; indirectly addressable internal ram data
                             49 ;--------------------------------------------------------
                             50 	.area ISEG    (DATA)
                             51 ;--------------------------------------------------------
                             52 ; absolute internal ram data
                             53 ;--------------------------------------------------------
                             54 	.area IABS    (ABS,DATA)
                             55 	.area IABS    (ABS,DATA)
                             56 ;--------------------------------------------------------
                             57 ; bit data
                             58 ;--------------------------------------------------------
                             59 	.area BSEG    (BIT)
                             60 ;--------------------------------------------------------
                             61 ; paged external ram data
                             62 ;--------------------------------------------------------
                             63 	.area PSEG    (PAG,XDATA)
                             64 ;--------------------------------------------------------
                             65 ; external ram data
                             66 ;--------------------------------------------------------
                             67 	.area XSEG    (XDATA)
   0000                      68 _lastevent:
   0000                      69 	.ds 1
   0001                      70 _nevents:
   0001                      71 	.ds 1
   0002                      72 _fevent:
   0002                      73 	.ds 1
   0003                      74 _events:
   0003                      75 	.ds 224
   00E3                      76 _poll_requested:
   00E3                      77 	.ds 1
   00E4                      78 _do_event_ev_1_1:
   00E4                      79 	.ds 1
   00E5                      80 _do_event_data_1_1:
   00E5                      81 	.ds 3
   00E8                      82 _do_event_receiver_1_1:
   00E8                      83 	.ds 3
   00EB                      84 _do_event_p_1_1:
   00EB                      85 	.ds 3
   00EE                      86 _process_post_snum_1_1:
   00EE                      87 	.ds 1
                             88 ;--------------------------------------------------------
                             89 ; absolute external ram data
                             90 ;--------------------------------------------------------
                             91 	.area XABS    (ABS,XDATA)
                             92 ;--------------------------------------------------------
                             93 ; external initialized ram data
                             94 ;--------------------------------------------------------
                             95 	.area XISEG   (XDATA)
   0000                      96 _process_list::
   0000                      97 	.ds 3
   0003                      98 _process_current::
   0003                      99 	.ds 3
                            100 	.area HOME    (CODE)
                            101 	.area GSINIT0 (CODE)
                            102 	.area GSINIT1 (CODE)
                            103 	.area GSINIT2 (CODE)
                            104 	.area GSINIT3 (CODE)
                            105 	.area GSINIT4 (CODE)
                            106 	.area GSINIT5 (CODE)
                            107 	.area GSINIT  (CODE)
                            108 	.area GSFINAL (CODE)
                            109 	.area CSEG    (CODE)
                            110 ;--------------------------------------------------------
                            111 ; global & static initialisations
                            112 ;--------------------------------------------------------
                            113 	.area HOME    (CODE)
                            114 	.area GSINIT  (CODE)
                            115 	.area GSFINAL (CODE)
                            116 	.area GSINIT  (CODE)
                            117 ;--------------------------------------------------------
                            118 ; Home
                            119 ;--------------------------------------------------------
                            120 	.area HOME    (CODE)
                            121 	.area HOME    (CODE)
                            122 ;--------------------------------------------------------
                            123 ; code
                            124 ;--------------------------------------------------------
                            125 	.area BANK1   (CODE)
                            126 ;------------------------------------------------------------
                            127 ;Allocation info for local variables in function 'process_alloc_event'
                            128 ;------------------------------------------------------------
                            129 ;	../../../contiki-sensinode//core/sys/process.c:93: process_alloc_event(void)
                            130 ;	-----------------------------------------
                            131 ;	 function process_alloc_event
                            132 ;	-----------------------------------------
   0000                     133 _process_alloc_event:
                    0007    134 	ar7 = 0x07
                    0006    135 	ar6 = 0x06
                    0005    136 	ar5 = 0x05
                    0004    137 	ar4 = 0x04
                    0003    138 	ar3 = 0x03
                    0002    139 	ar2 = 0x02
                    0001    140 	ar1 = 0x01
                    0000    141 	ar0 = 0x00
                            142 ;	../../../contiki-sensinode//core/sys/process.c:95: return lastevent++;
   0000 90s00r00            143 	mov	dptr,#_lastevent
   0003 E0                  144 	movx	a,@dptr
   0004 FF                  145 	mov	r7,a
   0005 90s00r00            146 	mov	dptr,#_lastevent
   0008 04                  147 	inc	a
   0009 F0                  148 	movx	@dptr,a
   000A 8F 82               149 	mov	dpl,r7
   000C 02s00r00            150 	ljmp	__sdcc_banked_ret
                            151 ;------------------------------------------------------------
                            152 ;Allocation info for local variables in function 'process_start'
                            153 ;------------------------------------------------------------
                            154 ;arg                       Allocated to stack - sp -8
                            155 ;p                         Allocated to stack - sp -2
                            156 ;q                         Allocated to registers r5 r6 r7 
                            157 ;------------------------------------------------------------
                            158 ;	../../../contiki-sensinode//core/sys/process.c:99: process_start(struct process *p, const char *arg)
                            159 ;	-----------------------------------------
                            160 ;	 function process_start
                            161 ;	-----------------------------------------
   000F                     162 _process_start:
   000F C0 82               163 	push	dpl
   0011 C0 83               164 	push	dph
   0013 C0 F0               165 	push	b
                            166 ;	../../../contiki-sensinode//core/sys/process.c:105: for(q = process_list; q != p && q != NULL; q = q->next);
   0015 90s00r00            167 	mov	dptr,#_process_list
   0018 E0                  168 	movx	a,@dptr
   0019 FA                  169 	mov	r2,a
   001A A3                  170 	inc	dptr
   001B E0                  171 	movx	a,@dptr
   001C FB                  172 	mov	r3,a
   001D A3                  173 	inc	dptr
   001E E0                  174 	movx	a,@dptr
   001F FC                  175 	mov	r4,a
   0020 8A 05               176 	mov	ar5,r2
   0022 8B 06               177 	mov	ar6,r3
   0024 8C 07               178 	mov	ar7,r4
   0026                     179 00104$:
   0026 A8 81               180 	mov	r0,sp
   0028 18                  181 	dec	r0
   0029 18                  182 	dec	r0
   002A C0 05               183 	push	ar5
   002C C0 06               184 	push	ar6
   002E C0 07               185 	push	ar7
   0030 86 82               186 	mov	dpl,@r0
   0032 08                  187 	inc	r0
   0033 86 83               188 	mov	dph,@r0
   0035 08                  189 	inc	r0
   0036 86 F0               190 	mov	b,@r0
   0038 12s00r00            191 	lcall	___gptr_cmp
   003B 15 81               192 	dec	sp
   003D 15 81               193 	dec	sp
   003F 15 81               194 	dec	sp
   0041 60 30               195 	jz	00107$
   0043 E4                  196 	clr	a
   0044 C0 E0               197 	push	acc
   0046 E4                  198 	clr	a
   0047 C0 E0               199 	push	acc
   0049 E4                  200 	clr	a
   004A C0 E0               201 	push	acc
   004C 8D 82               202 	mov	dpl,r5
   004E 8E 83               203 	mov	dph,r6
   0050 8F F0               204 	mov	b,r7
   0052 12s00r00            205 	lcall	___gptr_cmp
   0055 15 81               206 	dec	sp
   0057 15 81               207 	dec	sp
   0059 15 81               208 	dec	sp
   005B 60 16               209 	jz	00107$
   005D 8D 82               210 	mov	dpl,r5
   005F 8E 83               211 	mov	dph,r6
   0061 8F F0               212 	mov	b,r7
   0063 12s00r00            213 	lcall	__gptrget
   0066 FD                  214 	mov	r5,a
   0067 A3                  215 	inc	dptr
   0068 12s00r00            216 	lcall	__gptrget
   006B FE                  217 	mov	r6,a
   006C A3                  218 	inc	dptr
   006D 12s00r00            219 	lcall	__gptrget
   0070 FF                  220 	mov	r7,a
   0071 80 B3               221 	sjmp	00104$
   0073                     222 00107$:
                            223 ;	../../../contiki-sensinode//core/sys/process.c:108: if(q == p) {
   0073 A8 81               224 	mov	r0,sp
   0075 18                  225 	dec	r0
   0076 18                  226 	dec	r0
   0077 C0 05               227 	push	ar5
   0079 C0 06               228 	push	ar6
   007B C0 07               229 	push	ar7
   007D 86 82               230 	mov	dpl,@r0
   007F 08                  231 	inc	r0
   0080 86 83               232 	mov	dph,@r0
   0082 08                  233 	inc	r0
   0083 86 F0               234 	mov	b,@r0
   0085 12s00r00            235 	lcall	___gptr_cmp
   0088 15 81               236 	dec	sp
   008A 15 81               237 	dec	sp
   008C 15 81               238 	dec	sp
   008E 60 02               239 	jz	00121$
   0090 80 03               240 	sjmp	00102$
   0092                     241 00121$:
                            242 ;	../../../contiki-sensinode//core/sys/process.c:109: return;
   0092 02s01r2B            243 	ljmp	00108$
   0095                     244 00102$:
                            245 ;	../../../contiki-sensinode//core/sys/process.c:112: p->next = process_list;
   0095 A8 81               246 	mov	r0,sp
   0097 18                  247 	dec	r0
   0098 18                  248 	dec	r0
   0099 86 82               249 	mov	dpl,@r0
   009B 08                  250 	inc	r0
   009C 86 83               251 	mov	dph,@r0
   009E 08                  252 	inc	r0
   009F 86 F0               253 	mov	b,@r0
   00A1 EA                  254 	mov	a,r2
   00A2 12s00r00            255 	lcall	__gptrput
   00A5 A3                  256 	inc	dptr
   00A6 EB                  257 	mov	a,r3
   00A7 12s00r00            258 	lcall	__gptrput
   00AA A3                  259 	inc	dptr
   00AB EC                  260 	mov	a,r4
   00AC 12s00r00            261 	lcall	__gptrput
                            262 ;	../../../contiki-sensinode//core/sys/process.c:113: process_list = p;
   00AF A8 81               263 	mov	r0,sp
   00B1 18                  264 	dec	r0
   00B2 18                  265 	dec	r0
   00B3 90s00r00            266 	mov	dptr,#_process_list
   00B6 E6                  267 	mov	a,@r0
   00B7 F0                  268 	movx	@dptr,a
   00B8 08                  269 	inc	r0
   00B9 A3                  270 	inc	dptr
   00BA E6                  271 	mov	a,@r0
   00BB F0                  272 	movx	@dptr,a
   00BC 08                  273 	inc	r0
   00BD A3                  274 	inc	dptr
   00BE E6                  275 	mov	a,@r0
   00BF F0                  276 	movx	@dptr,a
                            277 ;	../../../contiki-sensinode//core/sys/process.c:114: p->state = PROCESS_STATE_RUNNING;
   00C0 A8 81               278 	mov	r0,sp
   00C2 18                  279 	dec	r0
   00C3 18                  280 	dec	r0
   00C4 74 08               281 	mov	a,#0x08
   00C6 26                  282 	add	a,@r0
   00C7 FD                  283 	mov	r5,a
   00C8 E4                  284 	clr	a
   00C9 08                  285 	inc	r0
   00CA 36                  286 	addc	a,@r0
   00CB FE                  287 	mov	r6,a
   00CC 08                  288 	inc	r0
   00CD 86 07               289 	mov	ar7,@r0
   00CF 8D 82               290 	mov	dpl,r5
   00D1 8E 83               291 	mov	dph,r6
   00D3 8F F0               292 	mov	b,r7
   00D5 74 01               293 	mov	a,#0x01
   00D7 12s00r00            294 	lcall	__gptrput
                            295 ;	../../../contiki-sensinode//core/sys/process.c:115: PT_INIT(&p->pt);
   00DA A8 81               296 	mov	r0,sp
   00DC 18                  297 	dec	r0
   00DD 18                  298 	dec	r0
   00DE 74 06               299 	mov	a,#0x06
   00E0 26                  300 	add	a,@r0
   00E1 FD                  301 	mov	r5,a
   00E2 E4                  302 	clr	a
   00E3 08                  303 	inc	r0
   00E4 36                  304 	addc	a,@r0
   00E5 FE                  305 	mov	r6,a
   00E6 08                  306 	inc	r0
   00E7 86 07               307 	mov	ar7,@r0
   00E9 8D 82               308 	mov	dpl,r5
   00EB 8E 83               309 	mov	dph,r6
   00ED 8F F0               310 	mov	b,r7
   00EF E4                  311 	clr	a
   00F0 12s00r00            312 	lcall	__gptrput
   00F3 A3                  313 	inc	dptr
   00F4 E4                  314 	clr	a
   00F5 12s00r00            315 	lcall	__gptrput
                            316 ;	../../../contiki-sensinode//core/sys/process.c:120: process_post_synch(p, PROCESS_EVENT_INIT, (process_data_t)arg);
   00F8 E5 81               317 	mov	a,sp
   00FA 24 F8               318 	add	a,#0xf8
   00FC F8                  319 	mov	r0,a
   00FD 86 05               320 	mov	ar5,@r0
   00FF 08                  321 	inc	r0
   0100 86 06               322 	mov	ar6,@r0
   0102 08                  323 	inc	r0
   0103 86 07               324 	mov	ar7,@r0
   0105 C0 05               325 	push	ar5
   0107 C0 06               326 	push	ar6
   0109 C0 07               327 	push	ar7
   010B 74 81               328 	mov	a,#0x81
   010D C0 E0               329 	push	acc
   010F E5 81               330 	mov	a,sp
   0111 24 FA               331 	add	a,#0xfa
   0113 F8                  332 	mov	r0,a
   0114 86 82               333 	mov	dpl,@r0
   0116 08                  334 	inc	r0
   0117 86 83               335 	mov	dph,@r0
   0119 08                  336 	inc	r0
   011A 86 F0               337 	mov	b,@r0
   011C 78r0B               338 	mov	r0,#_process_post_synch
   011E 79s09               339 	mov	r1,#(_process_post_synch >> 8)
   0120 7As00               340 	mov	r2,#(_process_post_synch >> 16)
   0122 12s00r00            341 	lcall	__sdcc_banked_call
   0125 E5 81               342 	mov	a,sp
   0127 24 FC               343 	add	a,#0xfc
   0129 F5 81               344 	mov	sp,a
   012B                     345 00108$:
   012B 15 81               346 	dec	sp
   012D 15 81               347 	dec	sp
   012F 15 81               348 	dec	sp
   0131 02s00r00            349 	ljmp	__sdcc_banked_ret
                            350 ;------------------------------------------------------------
                            351 ;Allocation info for local variables in function 'exit_process'
                            352 ;------------------------------------------------------------
                            353 ;fromprocess               Allocated to stack - sp -14
                            354 ;p                         Allocated to stack - sp -8
                            355 ;q                         Allocated to stack - sp -5
                            356 ;old_current               Allocated to stack - sp -2
                            357 ;sloc0                     Allocated to stack - sp +1
                            358 ;------------------------------------------------------------
                            359 ;	../../../contiki-sensinode//core/sys/process.c:124: exit_process(struct process *p, struct process *fromprocess)
                            360 ;	-----------------------------------------
                            361 ;	 function exit_process
                            362 ;	-----------------------------------------
   0134                     363 _exit_process:
   0134 C0 82               364 	push	dpl
   0136 C0 83               365 	push	dph
   0138 C0 F0               366 	push	b
   013A E5 81               367 	mov	a,sp
   013C 24 06               368 	add	a,#0x06
   013E F5 81               369 	mov	sp,a
                            370 ;	../../../contiki-sensinode//core/sys/process.c:127: struct process *old_current = process_current;
   0140 90s00r03            371 	mov	dptr,#_process_current
   0143 E0                  372 	movx	a,@dptr
   0144 FA                  373 	mov	r2,a
   0145 A3                  374 	inc	dptr
   0146 E0                  375 	movx	a,@dptr
   0147 FB                  376 	mov	r3,a
   0148 A3                  377 	inc	dptr
   0149 E0                  378 	movx	a,@dptr
   014A FC                  379 	mov	r4,a
   014B A8 81               380 	mov	r0,sp
   014D 18                  381 	dec	r0
   014E 18                  382 	dec	r0
   014F A6 02               383 	mov	@r0,ar2
   0151 08                  384 	inc	r0
   0152 A6 03               385 	mov	@r0,ar3
   0154 08                  386 	inc	r0
   0155 A6 04               387 	mov	@r0,ar4
                            388 ;	../../../contiki-sensinode//core/sys/process.c:133: for(q = process_list; q != p && q != NULL; q = q->next);
   0157 90s00r00            389 	mov	dptr,#_process_list
   015A E0                  390 	movx	a,@dptr
   015B FA                  391 	mov	r2,a
   015C A3                  392 	inc	dptr
   015D E0                  393 	movx	a,@dptr
   015E FB                  394 	mov	r3,a
   015F A3                  395 	inc	dptr
   0160 E0                  396 	movx	a,@dptr
   0161 FC                  397 	mov	r4,a
   0162 E5 81               398 	mov	a,sp
   0164 24 FB               399 	add	a,#0xfb
   0166 F8                  400 	mov	r0,a
   0167 A6 02               401 	mov	@r0,ar2
   0169 08                  402 	inc	r0
   016A A6 03               403 	mov	@r0,ar3
   016C 08                  404 	inc	r0
   016D A6 04               405 	mov	@r0,ar4
   016F                     406 00120$:
   016F E5 81               407 	mov	a,sp
   0171 24 FB               408 	add	a,#0xfb
   0173 F8                  409 	mov	r0,a
   0174 E5 81               410 	mov	a,sp
   0176 24 F8               411 	add	a,#0xf8
   0178 F9                  412 	mov	r1,a
   0179 E7                  413 	mov	a,@r1
   017A C0 E0               414 	push	acc
   017C 09                  415 	inc	r1
   017D E7                  416 	mov	a,@r1
   017E C0 E0               417 	push	acc
   0180 09                  418 	inc	r1
   0181 E7                  419 	mov	a,@r1
   0182 C0 E0               420 	push	acc
   0184 86 82               421 	mov	dpl,@r0
   0186 08                  422 	inc	r0
   0187 86 83               423 	mov	dph,@r0
   0189 08                  424 	inc	r0
   018A 86 F0               425 	mov	b,@r0
   018C 12s00r00            426 	lcall	___gptr_cmp
   018F 15 81               427 	dec	sp
   0191 15 81               428 	dec	sp
   0193 15 81               429 	dec	sp
   0195 60 42               430 	jz	00123$
   0197 E5 81               431 	mov	a,sp
   0199 24 FB               432 	add	a,#0xfb
   019B F8                  433 	mov	r0,a
   019C E4                  434 	clr	a
   019D C0 E0               435 	push	acc
   019F E4                  436 	clr	a
   01A0 C0 E0               437 	push	acc
   01A2 E4                  438 	clr	a
   01A3 C0 E0               439 	push	acc
   01A5 86 82               440 	mov	dpl,@r0
   01A7 08                  441 	inc	r0
   01A8 86 83               442 	mov	dph,@r0
   01AA 08                  443 	inc	r0
   01AB 86 F0               444 	mov	b,@r0
   01AD 12s00r00            445 	lcall	___gptr_cmp
   01B0 15 81               446 	dec	sp
   01B2 15 81               447 	dec	sp
   01B4 15 81               448 	dec	sp
   01B6 60 21               449 	jz	00123$
   01B8 E5 81               450 	mov	a,sp
   01BA 24 FB               451 	add	a,#0xfb
   01BC F8                  452 	mov	r0,a
   01BD 86 82               453 	mov	dpl,@r0
   01BF 08                  454 	inc	r0
   01C0 86 83               455 	mov	dph,@r0
   01C2 08                  456 	inc	r0
   01C3 86 F0               457 	mov	b,@r0
   01C5 12s00r00            458 	lcall	__gptrget
   01C8 18                  459 	dec	r0
   01C9 18                  460 	dec	r0
   01CA F6                  461 	mov	@r0,a
   01CB A3                  462 	inc	dptr
   01CC 12s00r00            463 	lcall	__gptrget
   01CF 08                  464 	inc	r0
   01D0 F6                  465 	mov	@r0,a
   01D1 A3                  466 	inc	dptr
   01D2 12s00r00            467 	lcall	__gptrget
   01D5 08                  468 	inc	r0
   01D6 F6                  469 	mov	@r0,a
   01D7 80 96               470 	sjmp	00120$
   01D9                     471 00123$:
                            472 ;	../../../contiki-sensinode//core/sys/process.c:134: if(q == NULL) {
   01D9 E5 81               473 	mov	a,sp
   01DB 24 FB               474 	add	a,#0xfb
   01DD F8                  475 	mov	r0,a
   01DE E6                  476 	mov	a,@r0
   01DF 08                  477 	inc	r0
   01E0 46                  478 	orl	a,@r0
   01E1 70 03               479 	jnz	00102$
                            480 ;	../../../contiki-sensinode//core/sys/process.c:135: return;
   01E3 02s04r80            481 	ljmp	00128$
   01E6                     482 00102$:
                            483 ;	../../../contiki-sensinode//core/sys/process.c:138: if(process_is_running(p)) {
   01E6 E5 81               484 	mov	a,sp
   01E8 24 F8               485 	add	a,#0xf8
   01EA F8                  486 	mov	r0,a
   01EB 86 82               487 	mov	dpl,@r0
   01ED 08                  488 	inc	r0
   01EE 86 83               489 	mov	dph,@r0
   01F0 08                  490 	inc	r0
   01F1 86 F0               491 	mov	b,@r0
   01F3 78rA3               492 	mov	r0,#_process_is_running
   01F5 79s09               493 	mov	r1,#(_process_is_running >> 8)
   01F7 7As00               494 	mov	r2,#(_process_is_running >> 16)
   01F9 12s00r00            495 	lcall	__sdcc_banked_call
   01FC E5 82               496 	mov	a,dpl
   01FE 85 83 F0            497 	mov	b,dph
   0201 45 F0               498 	orl	a,b
   0203 70 03               499 	jnz	00161$
   0205 02s03r7F            500 	ljmp	00109$
   0208                     501 00161$:
                            502 ;	../../../contiki-sensinode//core/sys/process.c:140: p->state = PROCESS_STATE_NONE;
   0208 E5 81               503 	mov	a,sp
   020A 24 F8               504 	add	a,#0xf8
   020C F8                  505 	mov	r0,a
   020D 74 08               506 	mov	a,#0x08
   020F 26                  507 	add	a,@r0
   0210 FD                  508 	mov	r5,a
   0211 E4                  509 	clr	a
   0212 08                  510 	inc	r0
   0213 36                  511 	addc	a,@r0
   0214 FE                  512 	mov	r6,a
   0215 08                  513 	inc	r0
   0216 86 07               514 	mov	ar7,@r0
   0218 8D 82               515 	mov	dpl,r5
   021A 8E 83               516 	mov	dph,r6
   021C 8F F0               517 	mov	b,r7
   021E E4                  518 	clr	a
   021F 12s00r00            519 	lcall	__gptrput
                            520 ;	../../../contiki-sensinode//core/sys/process.c:147: for(q = process_list; q != NULL; q = q->next) {
   0222 90s00r00            521 	mov	dptr,#_process_list
   0225 E0                  522 	movx	a,@dptr
   0226 FD                  523 	mov	r5,a
   0227 A3                  524 	inc	dptr
   0228 E0                  525 	movx	a,@dptr
   0229 FE                  526 	mov	r6,a
   022A A3                  527 	inc	dptr
   022B E0                  528 	movx	a,@dptr
   022C FF                  529 	mov	r7,a
   022D E5 81               530 	mov	a,sp
   022F 24 FB               531 	add	a,#0xfb
   0231 F8                  532 	mov	r0,a
   0232 A6 05               533 	mov	@r0,ar5
   0234 08                  534 	inc	r0
   0235 A6 06               535 	mov	@r0,ar6
   0237 08                  536 	inc	r0
   0238 A6 07               537 	mov	@r0,ar7
   023A                     538 00124$:
   023A E5 81               539 	mov	a,sp
   023C 24 FB               540 	add	a,#0xfb
   023E F8                  541 	mov	r0,a
   023F E4                  542 	clr	a
   0240 C0 E0               543 	push	acc
   0242 E4                  544 	clr	a
   0243 C0 E0               545 	push	acc
   0245 E4                  546 	clr	a
   0246 C0 E0               547 	push	acc
   0248 86 82               548 	mov	dpl,@r0
   024A 08                  549 	inc	r0
   024B 86 83               550 	mov	dph,@r0
   024D 08                  551 	inc	r0
   024E 86 F0               552 	mov	b,@r0
   0250 12s00r00            553 	lcall	___gptr_cmp
   0253 15 81               554 	dec	sp
   0255 15 81               555 	dec	sp
   0257 15 81               556 	dec	sp
   0259 70 03               557 	jnz	00162$
   025B 02s02rDB            558 	ljmp	00127$
   025E                     559 00162$:
                            560 ;	../../../contiki-sensinode//core/sys/process.c:148: if(p != q) {
   025E E5 81               561 	mov	a,sp
   0260 24 F8               562 	add	a,#0xf8
   0262 F8                  563 	mov	r0,a
   0263 E5 81               564 	mov	a,sp
   0265 24 FB               565 	add	a,#0xfb
   0267 F9                  566 	mov	r1,a
   0268 E7                  567 	mov	a,@r1
   0269 C0 E0               568 	push	acc
   026B 09                  569 	inc	r1
   026C E7                  570 	mov	a,@r1
   026D C0 E0               571 	push	acc
   026F 09                  572 	inc	r1
   0270 E7                  573 	mov	a,@r1
   0271 C0 E0               574 	push	acc
   0273 86 82               575 	mov	dpl,@r0
   0275 08                  576 	inc	r0
   0276 86 83               577 	mov	dph,@r0
   0278 08                  578 	inc	r0
   0279 86 F0               579 	mov	b,@r0
   027B 12s00r00            580 	lcall	___gptr_cmp
   027E 15 81               581 	dec	sp
   0280 15 81               582 	dec	sp
   0282 15 81               583 	dec	sp
   0284 60 33               584 	jz	00126$
                            585 ;	../../../contiki-sensinode//core/sys/process.c:149: call_process(q, PROCESS_EVENT_EXITED, (process_data_t)p);
   0286 E5 81               586 	mov	a,sp
   0288 24 F8               587 	add	a,#0xf8
   028A F8                  588 	mov	r0,a
   028B 86 05               589 	mov	ar5,@r0
   028D 08                  590 	inc	r0
   028E 86 06               591 	mov	ar6,@r0
   0290 08                  592 	inc	r0
   0291 86 07               593 	mov	ar7,@r0
   0293 C0 05               594 	push	ar5
   0295 C0 06               595 	push	ar6
   0297 C0 07               596 	push	ar7
   0299 74 87               597 	mov	a,#0x87
   029B C0 E0               598 	push	acc
   029D E5 81               599 	mov	a,sp
   029F 24 F7               600 	add	a,#0xf7
   02A1 F8                  601 	mov	r0,a
   02A2 86 82               602 	mov	dpl,@r0
   02A4 08                  603 	inc	r0
   02A5 86 83               604 	mov	dph,@r0
   02A7 08                  605 	inc	r0
   02A8 86 F0               606 	mov	b,@r0
   02AA 78r89               607 	mov	r0,#_call_process
   02AC 79s04               608 	mov	r1,#(_call_process >> 8)
   02AE 7As00               609 	mov	r2,#(_call_process >> 16)
   02B0 12s00r00            610 	lcall	__sdcc_banked_call
   02B3 E5 81               611 	mov	a,sp
   02B5 24 FC               612 	add	a,#0xfc
   02B7 F5 81               613 	mov	sp,a
   02B9                     614 00126$:
                            615 ;	../../../contiki-sensinode//core/sys/process.c:147: for(q = process_list; q != NULL; q = q->next) {
   02B9 E5 81               616 	mov	a,sp
   02BB 24 FB               617 	add	a,#0xfb
   02BD F8                  618 	mov	r0,a
   02BE 86 82               619 	mov	dpl,@r0
   02C0 08                  620 	inc	r0
   02C1 86 83               621 	mov	dph,@r0
   02C3 08                  622 	inc	r0
   02C4 86 F0               623 	mov	b,@r0
   02C6 12s00r00            624 	lcall	__gptrget
   02C9 18                  625 	dec	r0
   02CA 18                  626 	dec	r0
   02CB F6                  627 	mov	@r0,a
   02CC A3                  628 	inc	dptr
   02CD 12s00r00            629 	lcall	__gptrget
   02D0 08                  630 	inc	r0
   02D1 F6                  631 	mov	@r0,a
   02D2 A3                  632 	inc	dptr
   02D3 12s00r00            633 	lcall	__gptrget
   02D6 08                  634 	inc	r0
   02D7 F6                  635 	mov	@r0,a
   02D8 02s02r3A            636 	ljmp	00124$
   02DB                     637 00127$:
                            638 ;	../../../contiki-sensinode//core/sys/process.c:153: if(p->thread != NULL && p != fromprocess) {
   02DB E5 81               639 	mov	a,sp
   02DD 24 F8               640 	add	a,#0xf8
   02DF F8                  641 	mov	r0,a
   02E0 74 03               642 	mov	a,#0x03
   02E2 26                  643 	add	a,@r0
   02E3 FD                  644 	mov	r5,a
   02E4 E4                  645 	clr	a
   02E5 08                  646 	inc	r0
   02E6 36                  647 	addc	a,@r0
   02E7 FE                  648 	mov	r6,a
   02E8 08                  649 	inc	r0
   02E9 86 07               650 	mov	ar7,@r0
   02EB 8D 82               651 	mov	dpl,r5
   02ED 8E 83               652 	mov	dph,r6
   02EF 8F F0               653 	mov	b,r7
   02F1 12s00r00            654 	lcall	__gptrget
   02F4 FC                  655 	mov	r4,a
   02F5 A3                  656 	inc	dptr
   02F6 12s00r00            657 	lcall	__gptrget
   02F9 FB                  658 	mov	r3,a
   02FA A3                  659 	inc	dptr
   02FB 12s00r00            660 	lcall	__gptrget
   02FE FA                  661 	mov	r2,a
   02FF EC                  662 	mov	a,r4
   0300 4B                  663 	orl	a,r3
   0301 60 7C               664 	jz	00109$
   0303 E5 81               665 	mov	a,sp
   0305 24 F8               666 	add	a,#0xf8
   0307 F8                  667 	mov	r0,a
   0308 E5 81               668 	mov	a,sp
   030A 24 F2               669 	add	a,#0xf2
   030C F9                  670 	mov	r1,a
   030D E7                  671 	mov	a,@r1
   030E C0 E0               672 	push	acc
   0310 09                  673 	inc	r1
   0311 E7                  674 	mov	a,@r1
   0312 C0 E0               675 	push	acc
   0314 09                  676 	inc	r1
   0315 E7                  677 	mov	a,@r1
   0316 C0 E0               678 	push	acc
   0318 86 82               679 	mov	dpl,@r0
   031A 08                  680 	inc	r0
   031B 86 83               681 	mov	dph,@r0
   031D 08                  682 	inc	r0
   031E 86 F0               683 	mov	b,@r0
   0320 12s00r00            684 	lcall	___gptr_cmp
   0323 15 81               685 	dec	sp
   0325 15 81               686 	dec	sp
   0327 15 81               687 	dec	sp
   0329 60 54               688 	jz	00109$
                            689 ;	../../../contiki-sensinode//core/sys/process.c:155: process_current = p;
   032B E5 81               690 	mov	a,sp
   032D 24 F8               691 	add	a,#0xf8
   032F F8                  692 	mov	r0,a
   0330 90s00r03            693 	mov	dptr,#_process_current
   0333 E6                  694 	mov	a,@r0
   0334 F0                  695 	movx	@dptr,a
   0335 08                  696 	inc	r0
   0336 A3                  697 	inc	dptr
   0337 E6                  698 	mov	a,@r0
   0338 F0                  699 	movx	@dptr,a
   0339 08                  700 	inc	r0
   033A A3                  701 	inc	dptr
   033B E6                  702 	mov	a,@r0
   033C F0                  703 	movx	@dptr,a
                            704 ;	../../../contiki-sensinode//core/sys/process.c:156: p->thread(&p->pt, PROCESS_EVENT_EXIT, NULL);
   033D E5 81               705 	mov	a,sp
   033F 24 F8               706 	add	a,#0xf8
   0341 F8                  707 	mov	r0,a
   0342 74 06               708 	mov	a,#0x06
   0344 26                  709 	add	a,@r0
   0345 FD                  710 	mov	r5,a
   0346 E4                  711 	clr	a
   0347 08                  712 	inc	r0
   0348 36                  713 	addc	a,@r0
   0349 FE                  714 	mov	r6,a
   034A 08                  715 	inc	r0
   034B 86 07               716 	mov	ar7,@r0
   034D C0 04               717 	push	ar4
   034F C0 03               718 	push	ar3
   0351 C0 02               719 	push	ar2
   0353 E4                  720 	clr	a
   0354 C0 E0               721 	push	acc
   0356 C0 E0               722 	push	acc
   0358 C0 E0               723 	push	acc
   035A 74 83               724 	mov	a,#0x83
   035C C0 E0               725 	push	acc
   035E C0 04               726 	push	ar4
   0360 C0 03               727 	push	ar3
   0362 C0 02               728 	push	ar2
   0364 8D 82               729 	mov	dpl,r5
   0366 8E 83               730 	mov	dph,r6
   0368 8F F0               731 	mov	b,r7
   036A D0 02               732 	pop	ar2
   036C D0 01               733 	pop	ar1
   036E D0 00               734 	pop	ar0
   0370 12s00r00            735 	lcall	__sdcc_banked_call
   0373 E5 81               736 	mov	a,sp
   0375 24 FC               737 	add	a,#0xfc
   0377 F5 81               738 	mov	sp,a
   0379 D0 02               739 	pop	ar2
   037B D0 03               740 	pop	ar3
   037D D0 04               741 	pop	ar4
   037F                     742 00109$:
                            743 ;	../../../contiki-sensinode//core/sys/process.c:160: if(p == process_list) {
   037F 90s00r00            744 	mov	dptr,#_process_list
   0382 E0                  745 	movx	a,@dptr
   0383 FC                  746 	mov	r4,a
   0384 A3                  747 	inc	dptr
   0385 E0                  748 	movx	a,@dptr
   0386 FB                  749 	mov	r3,a
   0387 A3                  750 	inc	dptr
   0388 E0                  751 	movx	a,@dptr
   0389 FA                  752 	mov	r2,a
   038A E5 81               753 	mov	a,sp
   038C 24 F8               754 	add	a,#0xf8
   038E F8                  755 	mov	r0,a
   038F C0 04               756 	push	ar4
   0391 C0 03               757 	push	ar3
   0393 C0 02               758 	push	ar2
   0395 86 82               759 	mov	dpl,@r0
   0397 08                  760 	inc	r0
   0398 86 83               761 	mov	dph,@r0
   039A 08                  762 	inc	r0
   039B 86 F0               763 	mov	b,@r0
   039D 12s00r00            764 	lcall	___gptr_cmp
   03A0 15 81               765 	dec	sp
   03A2 15 81               766 	dec	sp
   03A4 15 81               767 	dec	sp
   03A6 60 02               768 	jz	00168$
   03A8 80 22               769 	sjmp	00117$
   03AA                     770 00168$:
                            771 ;	../../../contiki-sensinode//core/sys/process.c:161: process_list = process_list->next;
   03AA 8C 82               772 	mov	dpl,r4
   03AC 8B 83               773 	mov	dph,r3
   03AE 8A F0               774 	mov	b,r2
   03B0 12s00r00            775 	lcall	__gptrget
   03B3 FD                  776 	mov	r5,a
   03B4 A3                  777 	inc	dptr
   03B5 12s00r00            778 	lcall	__gptrget
   03B8 FE                  779 	mov	r6,a
   03B9 A3                  780 	inc	dptr
   03BA 12s00r00            781 	lcall	__gptrget
   03BD FF                  782 	mov	r7,a
   03BE 90s00r00            783 	mov	dptr,#_process_list
   03C1 ED                  784 	mov	a,r5
   03C2 F0                  785 	movx	@dptr,a
   03C3 A3                  786 	inc	dptr
   03C4 EE                  787 	mov	a,r6
   03C5 F0                  788 	movx	@dptr,a
   03C6 A3                  789 	inc	dptr
   03C7 EF                  790 	mov	a,r7
   03C8 F0                  791 	movx	@dptr,a
   03C9 02s04r6F            792 	ljmp	00118$
   03CC                     793 00117$:
                            794 ;	../../../contiki-sensinode//core/sys/process.c:163: for(q = process_list; q != NULL; q = q->next) {
   03CC 8C 05               795 	mov	ar5,r4
   03CE 8B 06               796 	mov	ar6,r3
   03D0 8A 07               797 	mov	ar7,r2
   03D2 E5 81               798 	mov	a,sp
   03D4 24 FB               799 	add	a,#0xfb
   03D6 F8                  800 	mov	r0,a
   03D7 A6 05               801 	mov	@r0,ar5
   03D9 08                  802 	inc	r0
   03DA A6 06               803 	mov	@r0,ar6
   03DC 08                  804 	inc	r0
   03DD A6 07               805 	mov	@r0,ar7
   03DF                     806 00112$:
   03DF E5 81               807 	mov	a,sp
   03E1 24 FB               808 	add	a,#0xfb
   03E3 F8                  809 	mov	r0,a
   03E4 E6                  810 	mov	a,@r0
   03E5 08                  811 	inc	r0
   03E6 46                  812 	orl	a,@r0
   03E7 70 03               813 	jnz	00169$
   03E9 02s04r6F            814 	ljmp	00118$
   03EC                     815 00169$:
                            816 ;	../../../contiki-sensinode//core/sys/process.c:164: if(q->next == p) {
   03EC E5 81               817 	mov	a,sp
   03EE 24 FB               818 	add	a,#0xfb
   03F0 F8                  819 	mov	r0,a
   03F1 86 82               820 	mov	dpl,@r0
   03F3 08                  821 	inc	r0
   03F4 86 83               822 	mov	dph,@r0
   03F6 08                  823 	inc	r0
   03F7 86 F0               824 	mov	b,@r0
   03F9 12s00r00            825 	lcall	__gptrget
   03FC FD                  826 	mov	r5,a
   03FD A3                  827 	inc	dptr
   03FE 12s00r00            828 	lcall	__gptrget
   0401 FE                  829 	mov	r6,a
   0402 A3                  830 	inc	dptr
   0403 12s00r00            831 	lcall	__gptrget
   0406 FF                  832 	mov	r7,a
   0407 E5 81               833 	mov	a,sp
   0409 24 F8               834 	add	a,#0xf8
   040B F8                  835 	mov	r0,a
   040C C0 05               836 	push	ar5
   040E C0 06               837 	push	ar6
   0410 C0 07               838 	push	ar7
   0412 86 82               839 	mov	dpl,@r0
   0414 08                  840 	inc	r0
   0415 86 83               841 	mov	dph,@r0
   0417 08                  842 	inc	r0
   0418 86 F0               843 	mov	b,@r0
   041A 12s00r00            844 	lcall	___gptr_cmp
   041D 15 81               845 	dec	sp
   041F 15 81               846 	dec	sp
   0421 15 81               847 	dec	sp
   0423 60 02               848 	jz	00171$
   0425 80 38               849 	sjmp	00114$
   0427                     850 00171$:
                            851 ;	../../../contiki-sensinode//core/sys/process.c:165: q->next = p->next;
   0427 E5 81               852 	mov	a,sp
   0429 24 F8               853 	add	a,#0xf8
   042B F8                  854 	mov	r0,a
   042C 86 82               855 	mov	dpl,@r0
   042E 08                  856 	inc	r0
   042F 86 83               857 	mov	dph,@r0
   0431 08                  858 	inc	r0
   0432 86 F0               859 	mov	b,@r0
   0434 12s00r00            860 	lcall	__gptrget
   0437 FA                  861 	mov	r2,a
   0438 A3                  862 	inc	dptr
   0439 12s00r00            863 	lcall	__gptrget
   043C FB                  864 	mov	r3,a
   043D A3                  865 	inc	dptr
   043E 12s00r00            866 	lcall	__gptrget
   0441 FC                  867 	mov	r4,a
   0442 E5 81               868 	mov	a,sp
   0444 24 FB               869 	add	a,#0xfb
   0446 F8                  870 	mov	r0,a
   0447 86 82               871 	mov	dpl,@r0
   0449 08                  872 	inc	r0
   044A 86 83               873 	mov	dph,@r0
   044C 08                  874 	inc	r0
   044D 86 F0               875 	mov	b,@r0
   044F EA                  876 	mov	a,r2
   0450 12s00r00            877 	lcall	__gptrput
   0453 A3                  878 	inc	dptr
   0454 EB                  879 	mov	a,r3
   0455 12s00r00            880 	lcall	__gptrput
   0458 A3                  881 	inc	dptr
   0459 EC                  882 	mov	a,r4
   045A 12s00r00            883 	lcall	__gptrput
                            884 ;	../../../contiki-sensinode//core/sys/process.c:166: break;
   045D 80 10               885 	sjmp	00118$
   045F                     886 00114$:
                            887 ;	../../../contiki-sensinode//core/sys/process.c:163: for(q = process_list; q != NULL; q = q->next) {
   045F E5 81               888 	mov	a,sp
   0461 24 FB               889 	add	a,#0xfb
   0463 F8                  890 	mov	r0,a
   0464 A6 05               891 	mov	@r0,ar5
   0466 08                  892 	inc	r0
   0467 A6 06               893 	mov	@r0,ar6
   0469 08                  894 	inc	r0
   046A A6 07               895 	mov	@r0,ar7
   046C 02s03rDF            896 	ljmp	00112$
   046F                     897 00118$:
                            898 ;	../../../contiki-sensinode//core/sys/process.c:171: process_current = old_current;
   046F A8 81               899 	mov	r0,sp
   0471 18                  900 	dec	r0
   0472 18                  901 	dec	r0
   0473 90s00r03            902 	mov	dptr,#_process_current
   0476 E6                  903 	mov	a,@r0
   0477 F0                  904 	movx	@dptr,a
   0478 08                  905 	inc	r0
   0479 A3                  906 	inc	dptr
   047A E6                  907 	mov	a,@r0
   047B F0                  908 	movx	@dptr,a
   047C 08                  909 	inc	r0
   047D A3                  910 	inc	dptr
   047E E6                  911 	mov	a,@r0
   047F F0                  912 	movx	@dptr,a
   0480                     913 00128$:
   0480 E5 81               914 	mov	a,sp
   0482 24 F7               915 	add	a,#0xF7
   0484 F5 81               916 	mov	sp,a
   0486 02s00r00            917 	ljmp	__sdcc_banked_ret
                            918 ;------------------------------------------------------------
                            919 ;Allocation info for local variables in function 'call_process'
                            920 ;------------------------------------------------------------
                            921 ;ev                        Allocated to stack - sp -6
                            922 ;data                      Allocated to stack - sp -9
                            923 ;p                         Allocated to stack - sp -2
                            924 ;ret                       Allocated to registers r5 r7 
                            925 ;------------------------------------------------------------
                            926 ;	../../../contiki-sensinode//core/sys/process.c:175: call_process(struct process *p, process_event_t ev, process_data_t data)
                            927 ;	-----------------------------------------
                            928 ;	 function call_process
                            929 ;	-----------------------------------------
   0489                     930 _call_process:
   0489 C0 82               931 	push	dpl
   048B C0 83               932 	push	dph
   048D C0 F0               933 	push	b
                            934 ;	../../../contiki-sensinode//core/sys/process.c:185: if((p->state & PROCESS_STATE_RUNNING) &&
   048F A8 81               935 	mov	r0,sp
   0491 18                  936 	dec	r0
   0492 18                  937 	dec	r0
   0493 74 08               938 	mov	a,#0x08
   0495 26                  939 	add	a,@r0
   0496 FA                  940 	mov	r2,a
   0497 E4                  941 	clr	a
   0498 08                  942 	inc	r0
   0499 36                  943 	addc	a,@r0
   049A FB                  944 	mov	r3,a
   049B 08                  945 	inc	r0
   049C 86 04               946 	mov	ar4,@r0
   049E 8A 82               947 	mov	dpl,r2
   04A0 8B 83               948 	mov	dph,r3
   04A2 8C F0               949 	mov	b,r4
   04A4 12s00r00            950 	lcall	__gptrget
   04A7 FF                  951 	mov	r7,a
   04A8 20 E0 03            952 	jb	acc.0,00119$
   04AB 02s05rB4            953 	ljmp	00109$
   04AE                     954 00119$:
                            955 ;	../../../contiki-sensinode//core/sys/process.c:186: p->thread != NULL) {
   04AE A8 81               956 	mov	r0,sp
   04B0 18                  957 	dec	r0
   04B1 18                  958 	dec	r0
   04B2 74 03               959 	mov	a,#0x03
   04B4 26                  960 	add	a,@r0
   04B5 FD                  961 	mov	r5,a
   04B6 E4                  962 	clr	a
   04B7 08                  963 	inc	r0
   04B8 36                  964 	addc	a,@r0
   04B9 FE                  965 	mov	r6,a
   04BA 08                  966 	inc	r0
   04BB 86 07               967 	mov	ar7,@r0
   04BD 8D 82               968 	mov	dpl,r5
   04BF 8E 83               969 	mov	dph,r6
   04C1 8F F0               970 	mov	b,r7
   04C3 12s00r00            971 	lcall	__gptrget
   04C6 FD                  972 	mov	r5,a
   04C7 A3                  973 	inc	dptr
   04C8 12s00r00            974 	lcall	__gptrget
   04CB FE                  975 	mov	r6,a
   04CC A3                  976 	inc	dptr
   04CD 12s00r00            977 	lcall	__gptrget
   04D0 FF                  978 	mov	r7,a
   04D1 ED                  979 	mov	a,r5
   04D2 4E                  980 	orl	a,r6
   04D3 70 03               981 	jnz	00120$
   04D5 02s05rB4            982 	ljmp	00109$
   04D8                     983 00120$:
                            984 ;	../../../contiki-sensinode//core/sys/process.c:188: process_current = p;
   04D8 A8 81               985 	mov	r0,sp
   04DA 18                  986 	dec	r0
   04DB 18                  987 	dec	r0
   04DC 90s00r03            988 	mov	dptr,#_process_current
   04DF E6                  989 	mov	a,@r0
   04E0 F0                  990 	movx	@dptr,a
   04E1 08                  991 	inc	r0
   04E2 A3                  992 	inc	dptr
   04E3 E6                  993 	mov	a,@r0
   04E4 F0                  994 	movx	@dptr,a
   04E5 08                  995 	inc	r0
   04E6 A3                  996 	inc	dptr
   04E7 E6                  997 	mov	a,@r0
   04E8 F0                  998 	movx	@dptr,a
                            999 ;	../../../contiki-sensinode//core/sys/process.c:189: p->state = PROCESS_STATE_CALLED;
   04E9 8A 82              1000 	mov	dpl,r2
   04EB 8B 83              1001 	mov	dph,r3
   04ED 8C F0              1002 	mov	b,r4
   04EF 74 02              1003 	mov	a,#0x02
   04F1 12s00r00           1004 	lcall	__gptrput
                           1005 ;	../../../contiki-sensinode//core/sys/process.c:190: ret = p->thread(&p->pt, ev, data);
   04F4 C0 02              1006 	push	ar2
   04F6 C0 03              1007 	push	ar3
   04F8 C0 04              1008 	push	ar4
   04FA E5 81              1009 	mov	a,sp
   04FC 24 FB              1010 	add	a,#0xfb
   04FE F8                 1011 	mov	r0,a
   04FF 74 06              1012 	mov	a,#0x06
   0501 26                 1013 	add	a,@r0
   0502 FA                 1014 	mov	r2,a
   0503 E4                 1015 	clr	a
   0504 08                 1016 	inc	r0
   0505 36                 1017 	addc	a,@r0
   0506 FB                 1018 	mov	r3,a
   0507 08                 1019 	inc	r0
   0508 86 04              1020 	mov	ar4,@r0
   050A C0 07              1021 	push	ar7
   050C C0 06              1022 	push	ar6
   050E C0 04              1023 	push	ar4
   0510 C0 03              1024 	push	ar3
   0512 C0 02              1025 	push	ar2
   0514 E5 81              1026 	mov	a,sp
   0516 24 EF              1027 	add	a,#0xef
   0518 F8                 1028 	mov	r0,a
   0519 E6                 1029 	mov	a,@r0
   051A C0 E0              1030 	push	acc
   051C 08                 1031 	inc	r0
   051D E6                 1032 	mov	a,@r0
   051E C0 E0              1033 	push	acc
   0520 08                 1034 	inc	r0
   0521 E6                 1035 	mov	a,@r0
   0522 C0 E0              1036 	push	acc
   0524 E5 81              1037 	mov	a,sp
   0526 24 EF              1038 	add	a,#0xef
   0528 F8                 1039 	mov	r0,a
   0529 E6                 1040 	mov	a,@r0
   052A C0 E0              1041 	push	acc
   052C C0 05              1042 	push	ar5
   052E C0 06              1043 	push	ar6
   0530 C0 07              1044 	push	ar7
   0532 8A 82              1045 	mov	dpl,r2
   0534 8B 83              1046 	mov	dph,r3
   0536 8C F0              1047 	mov	b,r4
   0538 D0 02              1048 	pop	ar2
   053A D0 01              1049 	pop	ar1
   053C D0 00              1050 	pop	ar0
   053E 12s00r00           1051 	lcall	__sdcc_banked_call
   0541 AD 82              1052 	mov	r5,dpl
   0543 E5 81              1053 	mov	a,sp
   0545 24 FC              1054 	add	a,#0xfc
   0547 F5 81              1055 	mov	sp,a
   0549 D0 02              1056 	pop	ar2
   054B D0 03              1057 	pop	ar3
   054D D0 04              1058 	pop	ar4
   054F D0 06              1059 	pop	ar6
   0551 D0 07              1060 	pop	ar7
   0553 ED                 1061 	mov	a,r5
   0554 33                 1062 	rlc	a
   0555 95 E0              1063 	subb	a,acc
   0557 FF                 1064 	mov	r7,a
                           1065 ;	../../../contiki-sensinode//core/sys/process.c:191: if(ret == PT_EXITED ||
   0558 BD 02 0B           1066 	cjne	r5,#0x02,00122$
   055B BF 00 08           1067 	cjne	r7,#0x00,00122$
   055E D0 04              1068 	pop	ar4
   0560 D0 03              1069 	pop	ar3
   0562 D0 02              1070 	pop	ar2
   0564 80 16              1071 	sjmp	00101$
   0566                    1072 00122$:
   0566 D0 04              1073 	pop	ar4
   0568 D0 03              1074 	pop	ar3
   056A D0 02              1075 	pop	ar2
                           1076 ;	../../../contiki-sensinode//core/sys/process.c:192: ret == PT_ENDED ||
   056C BD 03 05           1077 	cjne	r5,#0x03,00123$
   056F BF 00 02           1078 	cjne	r7,#0x00,00123$
   0572 80 08              1079 	sjmp	00101$
   0574                    1080 00123$:
                           1081 ;	../../../contiki-sensinode//core/sys/process.c:193: ev == PROCESS_EVENT_EXIT) {
   0574 E5 81              1082 	mov	a,sp
   0576 24 FA              1083 	add	a,#0xfa
   0578 F8                 1084 	mov	r0,a
   0579 B6 83 2D           1085 	cjne	@r0,#0x83,00102$
   057C                    1086 00101$:
                           1087 ;	../../../contiki-sensinode//core/sys/process.c:194: exit_process(p, p);
   057C A8 81              1088 	mov	r0,sp
   057E 18                 1089 	dec	r0
   057F 18                 1090 	dec	r0
   0580 E6                 1091 	mov	a,@r0
   0581 C0 E0              1092 	push	acc
   0583 08                 1093 	inc	r0
   0584 E6                 1094 	mov	a,@r0
   0585 C0 E0              1095 	push	acc
   0587 08                 1096 	inc	r0
   0588 E6                 1097 	mov	a,@r0
   0589 C0 E0              1098 	push	acc
   058B E5 81              1099 	mov	a,sp
   058D 24 FB              1100 	add	a,#0xfb
   058F F8                 1101 	mov	r0,a
   0590 86 82              1102 	mov	dpl,@r0
   0592 08                 1103 	inc	r0
   0593 86 83              1104 	mov	dph,@r0
   0595 08                 1105 	inc	r0
   0596 86 F0              1106 	mov	b,@r0
   0598 78r34              1107 	mov	r0,#_exit_process
   059A 79s01              1108 	mov	r1,#(_exit_process >> 8)
   059C 7As00              1109 	mov	r2,#(_exit_process >> 16)
   059E 12s00r00           1110 	lcall	__sdcc_banked_call
   05A1 15 81              1111 	dec	sp
   05A3 15 81              1112 	dec	sp
   05A5 15 81              1113 	dec	sp
   05A7 80 0B              1114 	sjmp	00109$
   05A9                    1115 00102$:
                           1116 ;	../../../contiki-sensinode//core/sys/process.c:196: p->state = PROCESS_STATE_RUNNING;
   05A9 8A 82              1117 	mov	dpl,r2
   05AB 8B 83              1118 	mov	dph,r3
   05AD 8C F0              1119 	mov	b,r4
   05AF 74 01              1120 	mov	a,#0x01
   05B1 12s00r00           1121 	lcall	__gptrput
   05B4                    1122 00109$:
   05B4 15 81              1123 	dec	sp
   05B6 15 81              1124 	dec	sp
   05B8 15 81              1125 	dec	sp
   05BA 02s00r00           1126 	ljmp	__sdcc_banked_ret
                           1127 ;------------------------------------------------------------
                           1128 ;Allocation info for local variables in function 'process_exit'
                           1129 ;------------------------------------------------------------
                           1130 ;p                         Allocated to registers r5 r6 r7 
                           1131 ;------------------------------------------------------------
                           1132 ;	../../../contiki-sensinode//core/sys/process.c:202: process_exit(struct process *p)
                           1133 ;	-----------------------------------------
                           1134 ;	 function process_exit
                           1135 ;	-----------------------------------------
   05BD                    1136 _process_exit:
   05BD AD 82              1137 	mov	r5,dpl
   05BF AE 83              1138 	mov	r6,dph
   05C1 AF F0              1139 	mov	r7,b
                           1140 ;	../../../contiki-sensinode//core/sys/process.c:204: exit_process(p, PROCESS_CURRENT());
   05C3 90s00r03           1141 	mov	dptr,#_process_current
   05C6 E0                 1142 	movx	a,@dptr
   05C7 C0 E0              1143 	push	acc
   05C9 A3                 1144 	inc	dptr
   05CA E0                 1145 	movx	a,@dptr
   05CB C0 E0              1146 	push	acc
   05CD A3                 1147 	inc	dptr
   05CE E0                 1148 	movx	a,@dptr
   05CF C0 E0              1149 	push	acc
   05D1 8D 82              1150 	mov	dpl,r5
   05D3 8E 83              1151 	mov	dph,r6
   05D5 8F F0              1152 	mov	b,r7
   05D7 78r34              1153 	mov	r0,#_exit_process
   05D9 79s01              1154 	mov	r1,#(_exit_process >> 8)
   05DB 7As00              1155 	mov	r2,#(_exit_process >> 16)
   05DD 12s00r00           1156 	lcall	__sdcc_banked_call
   05E0 15 81              1157 	dec	sp
   05E2 15 81              1158 	dec	sp
   05E4 15 81              1159 	dec	sp
   05E6 02s00r00           1160 	ljmp	__sdcc_banked_ret
                           1161 ;------------------------------------------------------------
                           1162 ;Allocation info for local variables in function 'process_init'
                           1163 ;------------------------------------------------------------
                           1164 ;	../../../contiki-sensinode//core/sys/process.c:208: process_init(void)
                           1165 ;	-----------------------------------------
                           1166 ;	 function process_init
                           1167 ;	-----------------------------------------
   05E9                    1168 _process_init:
                           1169 ;	../../../contiki-sensinode//core/sys/process.c:210: lastevent = PROCESS_EVENT_MAX;
   05E9 90s00r00           1170 	mov	dptr,#_lastevent
   05EC 74 8A              1171 	mov	a,#0x8A
   05EE F0                 1172 	movx	@dptr,a
                           1173 ;	../../../contiki-sensinode//core/sys/process.c:212: nevents = fevent = 0;
   05EF 90s00r02           1174 	mov	dptr,#_fevent
                           1175 ;	../../../contiki-sensinode//core/sys/process.c:217: process_current = process_list = NULL;
   05F2 E4                 1176 	clr	a
   05F3 F0                 1177 	movx	@dptr,a
   05F4 90s00r01           1178 	mov	dptr,#_nevents
   05F7 F0                 1179 	movx	@dptr,a
   05F8 90s00r00           1180 	mov	dptr,#_process_list
   05FB F0                 1181 	movx	@dptr,a
   05FC A3                 1182 	inc	dptr
   05FD E4                 1183 	clr	a
   05FE F0                 1184 	movx	@dptr,a
   05FF A3                 1185 	inc	dptr
   0600 F0                 1186 	movx	@dptr,a
   0601 90s00r03           1187 	mov	dptr,#_process_current
   0604 F0                 1188 	movx	@dptr,a
   0605 A3                 1189 	inc	dptr
   0606 E4                 1190 	clr	a
   0607 F0                 1191 	movx	@dptr,a
   0608 A3                 1192 	inc	dptr
   0609 F0                 1193 	movx	@dptr,a
   060A 02s00r00           1194 	ljmp	__sdcc_banked_ret
                           1195 ;------------------------------------------------------------
                           1196 ;Allocation info for local variables in function 'do_poll'
                           1197 ;------------------------------------------------------------
                           1198 ;p                         Allocated to stack - sp -2
                           1199 ;------------------------------------------------------------
                           1200 ;	../../../contiki-sensinode//core/sys/process.c:225: do_poll(void)
                           1201 ;	-----------------------------------------
                           1202 ;	 function do_poll
                           1203 ;	-----------------------------------------
   060D                    1204 _do_poll:
   060D 05 81              1205 	inc	sp
   060F 05 81              1206 	inc	sp
   0611 05 81              1207 	inc	sp
                           1208 ;	../../../contiki-sensinode//core/sys/process.c:229: poll_requested = 0;
   0613 90s00rE3           1209 	mov	dptr,#_poll_requested
   0616 E4                 1210 	clr	a
   0617 F0                 1211 	movx	@dptr,a
                           1212 ;	../../../contiki-sensinode//core/sys/process.c:231: for(p = process_list; p != NULL; p = p->next) {
   0618 90s00r00           1213 	mov	dptr,#_process_list
   061B E0                 1214 	movx	a,@dptr
   061C FD                 1215 	mov	r5,a
   061D A3                 1216 	inc	dptr
   061E E0                 1217 	movx	a,@dptr
   061F FE                 1218 	mov	r6,a
   0620 A3                 1219 	inc	dptr
   0621 E0                 1220 	movx	a,@dptr
   0622 FF                 1221 	mov	r7,a
   0623 A8 81              1222 	mov	r0,sp
   0625 18                 1223 	dec	r0
   0626 18                 1224 	dec	r0
   0627 A6 05              1225 	mov	@r0,ar5
   0629 08                 1226 	inc	r0
   062A A6 06              1227 	mov	@r0,ar6
   062C 08                 1228 	inc	r0
   062D A6 07              1229 	mov	@r0,ar7
   062F                    1230 00103$:
   062F A8 81              1231 	mov	r0,sp
   0631 18                 1232 	dec	r0
   0632 18                 1233 	dec	r0
   0633 E4                 1234 	clr	a
   0634 C0 E0              1235 	push	acc
   0636 E4                 1236 	clr	a
   0637 C0 E0              1237 	push	acc
   0639 E4                 1238 	clr	a
   063A C0 E0              1239 	push	acc
   063C 86 82              1240 	mov	dpl,@r0
   063E 08                 1241 	inc	r0
   063F 86 83              1242 	mov	dph,@r0
   0641 08                 1243 	inc	r0
   0642 86 F0              1244 	mov	b,@r0
   0644 12s00r00           1245 	lcall	___gptr_cmp
   0647 15 81              1246 	dec	sp
   0649 15 81              1247 	dec	sp
   064B 15 81              1248 	dec	sp
   064D 70 03              1249 	jnz	00115$
   064F 02s06rD8           1250 	ljmp	00107$
   0652                    1251 00115$:
                           1252 ;	../../../contiki-sensinode//core/sys/process.c:232: if(p->needspoll) {
   0652 A8 81              1253 	mov	r0,sp
   0654 18                 1254 	dec	r0
   0655 18                 1255 	dec	r0
   0656 74 09              1256 	mov	a,#0x09
   0658 26                 1257 	add	a,@r0
   0659 FA                 1258 	mov	r2,a
   065A E4                 1259 	clr	a
   065B 08                 1260 	inc	r0
   065C 36                 1261 	addc	a,@r0
   065D FB                 1262 	mov	r3,a
   065E 08                 1263 	inc	r0
   065F 86 04              1264 	mov	ar4,@r0
   0661 8A 82              1265 	mov	dpl,r2
   0663 8B 83              1266 	mov	dph,r3
   0665 8C F0              1267 	mov	b,r4
   0667 12s00r00           1268 	lcall	__gptrget
   066A 60 4B              1269 	jz	00105$
                           1270 ;	../../../contiki-sensinode//core/sys/process.c:233: p->state = PROCESS_STATE_RUNNING;
   066C A8 81              1271 	mov	r0,sp
   066E 18                 1272 	dec	r0
   066F 18                 1273 	dec	r0
   0670 74 08              1274 	mov	a,#0x08
   0672 26                 1275 	add	a,@r0
   0673 FD                 1276 	mov	r5,a
   0674 E4                 1277 	clr	a
   0675 08                 1278 	inc	r0
   0676 36                 1279 	addc	a,@r0
   0677 FE                 1280 	mov	r6,a
   0678 08                 1281 	inc	r0
   0679 86 07              1282 	mov	ar7,@r0
   067B 8D 82              1283 	mov	dpl,r5
   067D 8E 83              1284 	mov	dph,r6
   067F 8F F0              1285 	mov	b,r7
   0681 74 01              1286 	mov	a,#0x01
   0683 12s00r00           1287 	lcall	__gptrput
                           1288 ;	../../../contiki-sensinode//core/sys/process.c:234: p->needspoll = 0;
   0686 8A 82              1289 	mov	dpl,r2
   0688 8B 83              1290 	mov	dph,r3
   068A 8C F0              1291 	mov	b,r4
   068C E4                 1292 	clr	a
   068D 12s00r00           1293 	lcall	__gptrput
                           1294 ;	../../../contiki-sensinode//core/sys/process.c:235: call_process(p, PROCESS_EVENT_POLL, NULL);
   0690 E4                 1295 	clr	a
   0691 C0 E0              1296 	push	acc
   0693 C0 E0              1297 	push	acc
   0695 C0 E0              1298 	push	acc
   0697 74 82              1299 	mov	a,#0x82
   0699 C0 E0              1300 	push	acc
   069B E5 81              1301 	mov	a,sp
   069D 24 FA              1302 	add	a,#0xfa
   069F F8                 1303 	mov	r0,a
   06A0 86 82              1304 	mov	dpl,@r0
   06A2 08                 1305 	inc	r0
   06A3 86 83              1306 	mov	dph,@r0
   06A5 08                 1307 	inc	r0
   06A6 86 F0              1308 	mov	b,@r0
   06A8 78r89              1309 	mov	r0,#_call_process
   06AA 79s04              1310 	mov	r1,#(_call_process >> 8)
   06AC 7As00              1311 	mov	r2,#(_call_process >> 16)
   06AE 12s00r00           1312 	lcall	__sdcc_banked_call
   06B1 E5 81              1313 	mov	a,sp
   06B3 24 FC              1314 	add	a,#0xfc
   06B5 F5 81              1315 	mov	sp,a
   06B7                    1316 00105$:
                           1317 ;	../../../contiki-sensinode//core/sys/process.c:231: for(p = process_list; p != NULL; p = p->next) {
   06B7 A8 81              1318 	mov	r0,sp
   06B9 18                 1319 	dec	r0
   06BA 18                 1320 	dec	r0
   06BB 86 82              1321 	mov	dpl,@r0
   06BD 08                 1322 	inc	r0
   06BE 86 83              1323 	mov	dph,@r0
   06C0 08                 1324 	inc	r0
   06C1 86 F0              1325 	mov	b,@r0
   06C3 12s00r00           1326 	lcall	__gptrget
   06C6 18                 1327 	dec	r0
   06C7 18                 1328 	dec	r0
   06C8 F6                 1329 	mov	@r0,a
   06C9 A3                 1330 	inc	dptr
   06CA 12s00r00           1331 	lcall	__gptrget
   06CD 08                 1332 	inc	r0
   06CE F6                 1333 	mov	@r0,a
   06CF A3                 1334 	inc	dptr
   06D0 12s00r00           1335 	lcall	__gptrget
   06D3 08                 1336 	inc	r0
   06D4 F6                 1337 	mov	@r0,a
   06D5 02s06r2F           1338 	ljmp	00103$
   06D8                    1339 00107$:
   06D8 15 81              1340 	dec	sp
   06DA 15 81              1341 	dec	sp
   06DC 15 81              1342 	dec	sp
   06DE 02s00r00           1343 	ljmp	__sdcc_banked_ret
                           1344 ;------------------------------------------------------------
                           1345 ;Allocation info for local variables in function 'do_event'
                           1346 ;------------------------------------------------------------
                           1347 ;ev                        Allocated with name '_do_event_ev_1_1'
                           1348 ;data                      Allocated with name '_do_event_data_1_1'
                           1349 ;receiver                  Allocated with name '_do_event_receiver_1_1'
                           1350 ;p                         Allocated with name '_do_event_p_1_1'
                           1351 ;------------------------------------------------------------
                           1352 ;	../../../contiki-sensinode//core/sys/process.c:246: do_event(void)
                           1353 ;	-----------------------------------------
                           1354 ;	 function do_event
                           1355 ;	-----------------------------------------
   06E1                    1356 _do_event:
                           1357 ;	../../../contiki-sensinode//core/sys/process.c:261: if(nevents > 0) {
   06E1 90s00r01           1358 	mov	dptr,#_nevents
   06E4 E0                 1359 	movx	a,@dptr
   06E5 FF                 1360 	mov	r7,a
   06E6 70 03              1361 	jnz	00128$
   06E8 02s08r4E           1362 	ljmp	00114$
   06EB                    1363 00128$:
                           1364 ;	../../../contiki-sensinode//core/sys/process.c:264: ev = events[fevent].ev;
   06EB 90s00r02           1365 	mov	dptr,#_fevent
   06EE E0                 1366 	movx	a,@dptr
   06EF FE                 1367 	mov	r6,a
   06F0 75 F0 07           1368 	mov	b,#0x07
   06F3 A4                 1369 	mul	ab
   06F4 FD                 1370 	mov	r5,a
   06F5 24r03              1371 	add	a,#_events
   06F7 F5 82              1372 	mov	dpl,a
   06F9 E4                 1373 	clr	a
   06FA 34s00              1374 	addc	a,#(_events >> 8)
   06FC F5 83              1375 	mov	dph,a
   06FE E0                 1376 	movx	a,@dptr
   06FF 90s00rE4           1377 	mov	dptr,#_do_event_ev_1_1
   0702 F0                 1378 	movx	@dptr,a
                           1379 ;	../../../contiki-sensinode//core/sys/process.c:266: data = events[fevent].data;
   0703 ED                 1380 	mov	a,r5
   0704 24r03              1381 	add	a,#_events
   0706 FD                 1382 	mov	r5,a
   0707 E4                 1383 	clr	a
   0708 34s00              1384 	addc	a,#(_events >> 8)
   070A FC                 1385 	mov	r4,a
   070B 8D 82              1386 	mov	dpl,r5
   070D 8C 83              1387 	mov	dph,r4
   070F A3                 1388 	inc	dptr
   0710 E0                 1389 	movx	a,@dptr
   0711 F9                 1390 	mov	r1,a
   0712 A3                 1391 	inc	dptr
   0713 E0                 1392 	movx	a,@dptr
   0714 FA                 1393 	mov	r2,a
   0715 A3                 1394 	inc	dptr
   0716 E0                 1395 	movx	a,@dptr
   0717 FB                 1396 	mov	r3,a
   0718 90s00rE5           1397 	mov	dptr,#_do_event_data_1_1
   071B E9                 1398 	mov	a,r1
   071C F0                 1399 	movx	@dptr,a
   071D A3                 1400 	inc	dptr
   071E EA                 1401 	mov	a,r2
   071F F0                 1402 	movx	@dptr,a
   0720 A3                 1403 	inc	dptr
   0721 EB                 1404 	mov	a,r3
   0722 F0                 1405 	movx	@dptr,a
                           1406 ;	../../../contiki-sensinode//core/sys/process.c:267: receiver = events[fevent].p;
   0723 8D 82              1407 	mov	dpl,r5
   0725 8C 83              1408 	mov	dph,r4
   0727 A3                 1409 	inc	dptr
   0728 A3                 1410 	inc	dptr
   0729 A3                 1411 	inc	dptr
   072A A3                 1412 	inc	dptr
   072B E0                 1413 	movx	a,@dptr
   072C FB                 1414 	mov	r3,a
   072D A3                 1415 	inc	dptr
   072E E0                 1416 	movx	a,@dptr
   072F FC                 1417 	mov	r4,a
   0730 A3                 1418 	inc	dptr
   0731 E0                 1419 	movx	a,@dptr
   0732 FD                 1420 	mov	r5,a
   0733 90s00rE8           1421 	mov	dptr,#_do_event_receiver_1_1
   0736 EB                 1422 	mov	a,r3
   0737 F0                 1423 	movx	@dptr,a
   0738 A3                 1424 	inc	dptr
   0739 EC                 1425 	mov	a,r4
   073A F0                 1426 	movx	@dptr,a
   073B A3                 1427 	inc	dptr
   073C ED                 1428 	mov	a,r5
   073D F0                 1429 	movx	@dptr,a
                           1430 ;	../../../contiki-sensinode//core/sys/process.c:271: fevent = (process_num_events_t) (fevent + 1) % PROCESS_CONF_NUMEVENTS;
   073E EE                 1431 	mov	a,r6
   073F 04                 1432 	inc	a
   0740 90s00r02           1433 	mov	dptr,#_fevent
   0743 54 1F              1434 	anl	a,#0x1F
   0745 F0                 1435 	movx	@dptr,a
                           1436 ;	../../../contiki-sensinode//core/sys/process.c:272: --nevents;
   0746 EF                 1437 	mov	a,r7
   0747 14                 1438 	dec	a
   0748 90s00r01           1439 	mov	dptr,#_nevents
   074B F0                 1440 	movx	@dptr,a
                           1441 ;	../../../contiki-sensinode//core/sys/process.c:276: if(receiver == PROCESS_BROADCAST) {
   074C 90s00rE8           1442 	mov	dptr,#_do_event_receiver_1_1
   074F E0                 1443 	movx	a,@dptr
   0750 FD                 1444 	mov	r5,a
   0751 A3                 1445 	inc	dptr
   0752 E0                 1446 	movx	a,@dptr
   0753 FE                 1447 	mov	r6,a
   0754 A3                 1448 	inc	dptr
   0755 E0                 1449 	movx	a,@dptr
   0756 FF                 1450 	mov	r7,a
   0757 ED                 1451 	mov	a,r5
   0758 4E                 1452 	orl	a,r6
   0759 60 03              1453 	jz	00129$
   075B 02s08r0D           1454 	ljmp	00106$
   075E                    1455 00129$:
                           1456 ;	../../../contiki-sensinode//core/sys/process.c:277: for(p = process_list; p != NULL; p = p->next) {
   075E 90s00r00           1457 	mov	dptr,#_process_list
   0761 E0                 1458 	movx	a,@dptr
   0762 FA                 1459 	mov	r2,a
   0763 A3                 1460 	inc	dptr
   0764 E0                 1461 	movx	a,@dptr
   0765 FB                 1462 	mov	r3,a
   0766 A3                 1463 	inc	dptr
   0767 E0                 1464 	movx	a,@dptr
   0768 FC                 1465 	mov	r4,a
   0769 90s00rEB           1466 	mov	dptr,#_do_event_p_1_1
   076C EA                 1467 	mov	a,r2
   076D F0                 1468 	movx	@dptr,a
   076E A3                 1469 	inc	dptr
   076F EB                 1470 	mov	a,r3
   0770 F0                 1471 	movx	@dptr,a
   0771 A3                 1472 	inc	dptr
   0772 EC                 1473 	mov	a,r4
   0773 F0                 1474 	movx	@dptr,a
   0774                    1475 00110$:
   0774 90s00rEB           1476 	mov	dptr,#_do_event_p_1_1
   0777 E0                 1477 	movx	a,@dptr
   0778 FA                 1478 	mov	r2,a
   0779 A3                 1479 	inc	dptr
   077A E0                 1480 	movx	a,@dptr
   077B FB                 1481 	mov	r3,a
   077C A3                 1482 	inc	dptr
   077D E0                 1483 	movx	a,@dptr
   077E FC                 1484 	mov	r4,a
   077F E4                 1485 	clr	a
   0780 C0 E0              1486 	push	acc
   0782 E4                 1487 	clr	a
   0783 C0 E0              1488 	push	acc
   0785 E4                 1489 	clr	a
   0786 C0 E0              1490 	push	acc
   0788 8A 82              1491 	mov	dpl,r2
   078A 8B 83              1492 	mov	dph,r3
   078C 8C F0              1493 	mov	b,r4
   078E 12s00r00           1494 	lcall	___gptr_cmp
   0791 15 81              1495 	dec	sp
   0793 15 81              1496 	dec	sp
   0795 15 81              1497 	dec	sp
   0797 70 03              1498 	jnz	00130$
   0799 02s08r4E           1499 	ljmp	00114$
   079C                    1500 00130$:
                           1501 ;	../../../contiki-sensinode//core/sys/process.c:281: if(poll_requested) {
   079C 90s00rE3           1502 	mov	dptr,#_poll_requested
   079F E0                 1503 	movx	a,@dptr
   07A0 FC                 1504 	mov	r4,a
   07A1 60 09              1505 	jz	00102$
                           1506 ;	../../../contiki-sensinode//core/sys/process.c:282: do_poll();
   07A3 78r0D              1507 	mov	r0,#_do_poll
   07A5 79s06              1508 	mov	r1,#(_do_poll >> 8)
   07A7 7As00              1509 	mov	r2,#(_do_poll >> 16)
   07A9 12s00r00           1510 	lcall	__sdcc_banked_call
   07AC                    1511 00102$:
                           1512 ;	../../../contiki-sensinode//core/sys/process.c:284: call_process(p, ev, data);
   07AC 90s00rEB           1513 	mov	dptr,#_do_event_p_1_1
   07AF E0                 1514 	movx	a,@dptr
   07B0 FA                 1515 	mov	r2,a
   07B1 A3                 1516 	inc	dptr
   07B2 E0                 1517 	movx	a,@dptr
   07B3 FB                 1518 	mov	r3,a
   07B4 A3                 1519 	inc	dptr
   07B5 E0                 1520 	movx	a,@dptr
   07B6 FC                 1521 	mov	r4,a
   07B7 90s00rE5           1522 	mov	dptr,#_do_event_data_1_1
   07BA E0                 1523 	movx	a,@dptr
   07BB C0 E0              1524 	push	acc
   07BD A3                 1525 	inc	dptr
   07BE E0                 1526 	movx	a,@dptr
   07BF C0 E0              1527 	push	acc
   07C1 A3                 1528 	inc	dptr
   07C2 E0                 1529 	movx	a,@dptr
   07C3 C0 E0              1530 	push	acc
   07C5 90s00rE4           1531 	mov	dptr,#_do_event_ev_1_1
   07C8 E0                 1532 	movx	a,@dptr
   07C9 C0 E0              1533 	push	acc
   07CB 8A 82              1534 	mov	dpl,r2
   07CD 8B 83              1535 	mov	dph,r3
   07CF 8C F0              1536 	mov	b,r4
   07D1 78r89              1537 	mov	r0,#_call_process
   07D3 79s04              1538 	mov	r1,#(_call_process >> 8)
   07D5 7As00              1539 	mov	r2,#(_call_process >> 16)
   07D7 12s00r00           1540 	lcall	__sdcc_banked_call
   07DA E5 81              1541 	mov	a,sp
   07DC 24 FC              1542 	add	a,#0xfc
   07DE F5 81              1543 	mov	sp,a
                           1544 ;	../../../contiki-sensinode//core/sys/process.c:277: for(p = process_list; p != NULL; p = p->next) {
   07E0 90s00rEB           1545 	mov	dptr,#_do_event_p_1_1
   07E3 E0                 1546 	movx	a,@dptr
   07E4 FA                 1547 	mov	r2,a
   07E5 A3                 1548 	inc	dptr
   07E6 E0                 1549 	movx	a,@dptr
   07E7 FB                 1550 	mov	r3,a
   07E8 A3                 1551 	inc	dptr
   07E9 E0                 1552 	movx	a,@dptr
   07EA FC                 1553 	mov	r4,a
   07EB 8A 82              1554 	mov	dpl,r2
   07ED 8B 83              1555 	mov	dph,r3
   07EF 8C F0              1556 	mov	b,r4
   07F1 12s00r00           1557 	lcall	__gptrget
   07F4 FA                 1558 	mov	r2,a
   07F5 A3                 1559 	inc	dptr
   07F6 12s00r00           1560 	lcall	__gptrget
   07F9 FB                 1561 	mov	r3,a
   07FA A3                 1562 	inc	dptr
   07FB 12s00r00           1563 	lcall	__gptrget
   07FE FC                 1564 	mov	r4,a
   07FF 90s00rEB           1565 	mov	dptr,#_do_event_p_1_1
   0802 EA                 1566 	mov	a,r2
   0803 F0                 1567 	movx	@dptr,a
   0804 A3                 1568 	inc	dptr
   0805 EB                 1569 	mov	a,r3
   0806 F0                 1570 	movx	@dptr,a
   0807 A3                 1571 	inc	dptr
   0808 EC                 1572 	mov	a,r4
   0809 F0                 1573 	movx	@dptr,a
   080A 02s07r74           1574 	ljmp	00110$
   080D                    1575 00106$:
                           1576 ;	../../../contiki-sensinode//core/sys/process.c:291: if(ev == PROCESS_EVENT_INIT) {
   080D 90s00rE4           1577 	mov	dptr,#_do_event_ev_1_1
   0810 E0                 1578 	movx	a,@dptr
   0811 FC                 1579 	mov	r4,a
   0812 BC 81 14           1580 	cjne	r4,#0x81,00104$
                           1581 ;	../../../contiki-sensinode//core/sys/process.c:292: receiver->state = PROCESS_STATE_RUNNING;
   0815 74 08              1582 	mov	a,#0x08
   0817 2D                 1583 	add	a,r5
   0818 F9                 1584 	mov	r1,a
   0819 E4                 1585 	clr	a
   081A 3E                 1586 	addc	a,r6
   081B FA                 1587 	mov	r2,a
   081C 8F 03              1588 	mov	ar3,r7
   081E 89 82              1589 	mov	dpl,r1
   0820 8A 83              1590 	mov	dph,r2
   0822 8B F0              1591 	mov	b,r3
   0824 74 01              1592 	mov	a,#0x01
   0826 12s00r00           1593 	lcall	__gptrput
   0829                    1594 00104$:
                           1595 ;	../../../contiki-sensinode//core/sys/process.c:296: call_process(receiver, ev, data);
   0829 90s00rE5           1596 	mov	dptr,#_do_event_data_1_1
   082C E0                 1597 	movx	a,@dptr
   082D C0 E0              1598 	push	acc
   082F A3                 1599 	inc	dptr
   0830 E0                 1600 	movx	a,@dptr
   0831 C0 E0              1601 	push	acc
   0833 A3                 1602 	inc	dptr
   0834 E0                 1603 	movx	a,@dptr
   0835 C0 E0              1604 	push	acc
   0837 C0 04              1605 	push	ar4
   0839 8D 82              1606 	mov	dpl,r5
   083B 8E 83              1607 	mov	dph,r6
   083D 8F F0              1608 	mov	b,r7
   083F 78r89              1609 	mov	r0,#_call_process
   0841 79s04              1610 	mov	r1,#(_call_process >> 8)
   0843 7As00              1611 	mov	r2,#(_call_process >> 16)
   0845 12s00r00           1612 	lcall	__sdcc_banked_call
   0848 E5 81              1613 	mov	a,sp
   084A 24 FC              1614 	add	a,#0xfc
   084C F5 81              1615 	mov	sp,a
   084E                    1616 00114$:
   084E 02s00r00           1617 	ljmp	__sdcc_banked_ret
                           1618 ;------------------------------------------------------------
                           1619 ;Allocation info for local variables in function 'process_run'
                           1620 ;------------------------------------------------------------
                           1621 ;	../../../contiki-sensinode//core/sys/process.c:302: process_run(void)
                           1622 ;	-----------------------------------------
                           1623 ;	 function process_run
                           1624 ;	-----------------------------------------
   0851                    1625 _process_run:
                           1626 ;	../../../contiki-sensinode//core/sys/process.c:305: if(poll_requested) {
   0851 90s00rE3           1627 	mov	dptr,#_poll_requested
   0854 E0                 1628 	movx	a,@dptr
   0855 FF                 1629 	mov	r7,a
   0856 60 09              1630 	jz	00102$
                           1631 ;	../../../contiki-sensinode//core/sys/process.c:306: do_poll();
   0858 78r0D              1632 	mov	r0,#_do_poll
   085A 79s06              1633 	mov	r1,#(_do_poll >> 8)
   085C 7As00              1634 	mov	r2,#(_do_poll >> 16)
   085E 12s00r00           1635 	lcall	__sdcc_banked_call
   0861                    1636 00102$:
                           1637 ;	../../../contiki-sensinode//core/sys/process.c:310: do_event();
   0861 78rE1              1638 	mov	r0,#_do_event
   0863 79s06              1639 	mov	r1,#(_do_event >> 8)
   0865 7As00              1640 	mov	r2,#(_do_event >> 16)
   0867 12s00r00           1641 	lcall	__sdcc_banked_call
                           1642 ;	../../../contiki-sensinode//core/sys/process.c:312: return nevents + poll_requested;
   086A 90s00r01           1643 	mov	dptr,#_nevents
   086D E0                 1644 	movx	a,@dptr
   086E FF                 1645 	mov	r7,a
   086F 7E 00              1646 	mov	r6,#0x00
   0871 90s00rE3           1647 	mov	dptr,#_poll_requested
   0874 E0                 1648 	movx	a,@dptr
   0875 FD                 1649 	mov	r5,a
   0876 7C 00              1650 	mov	r4,#0x00
   0878 2F                 1651 	add	a,r7
   0879 FF                 1652 	mov	r7,a
   087A EC                 1653 	mov	a,r4
   087B 3E                 1654 	addc	a,r6
   087C FE                 1655 	mov	r6,a
   087D 8F 82              1656 	mov	dpl,r7
   087F 8E 83              1657 	mov	dph,r6
   0881 02s00r00           1658 	ljmp	__sdcc_banked_ret
                           1659 ;------------------------------------------------------------
                           1660 ;Allocation info for local variables in function 'process_nevents'
                           1661 ;------------------------------------------------------------
                           1662 ;	../../../contiki-sensinode//core/sys/process.c:316: process_nevents(void)
                           1663 ;	-----------------------------------------
                           1664 ;	 function process_nevents
                           1665 ;	-----------------------------------------
   0884                    1666 _process_nevents:
                           1667 ;	../../../contiki-sensinode//core/sys/process.c:318: return nevents + poll_requested;
   0884 90s00r01           1668 	mov	dptr,#_nevents
   0887 E0                 1669 	movx	a,@dptr
   0888 FF                 1670 	mov	r7,a
   0889 7E 00              1671 	mov	r6,#0x00
   088B 90s00rE3           1672 	mov	dptr,#_poll_requested
   088E E0                 1673 	movx	a,@dptr
   088F FD                 1674 	mov	r5,a
   0890 7C 00              1675 	mov	r4,#0x00
   0892 2F                 1676 	add	a,r7
   0893 FF                 1677 	mov	r7,a
   0894 EC                 1678 	mov	a,r4
   0895 3E                 1679 	addc	a,r6
   0896 FE                 1680 	mov	r6,a
   0897 8F 82              1681 	mov	dpl,r7
   0899 8E 83              1682 	mov	dph,r6
   089B 02s00r00           1683 	ljmp	__sdcc_banked_ret
                           1684 ;------------------------------------------------------------
                           1685 ;Allocation info for local variables in function 'process_post'
                           1686 ;------------------------------------------------------------
                           1687 ;ev                        Allocated to stack - sp -3
                           1688 ;data                      Allocated to stack - sp -6
                           1689 ;p                         Allocated to registers r5 r6 r7 
                           1690 ;snum                      Allocated with name '_process_post_snum_1_1'
                           1691 ;------------------------------------------------------------
                           1692 ;	../../../contiki-sensinode//core/sys/process.c:322: process_post(struct process *p, process_event_t ev, process_data_t data)
                           1693 ;	-----------------------------------------
                           1694 ;	 function process_post
                           1695 ;	-----------------------------------------
   089E                    1696 _process_post:
   089E AD 82              1697 	mov	r5,dpl
   08A0 AE 83              1698 	mov	r6,dph
   08A2 AF F0              1699 	mov	r7,b
                           1700 ;	../../../contiki-sensinode//core/sys/process.c:335: if(nevents == PROCESS_CONF_NUMEVENTS) {
   08A4 90s00r01           1701 	mov	dptr,#_nevents
   08A7 E0                 1702 	movx	a,@dptr
   08A8 FC                 1703 	mov	r4,a
   08A9 BC 20 05           1704 	cjne	r4,#0x20,00102$
                           1705 ;	../../../contiki-sensinode//core/sys/process.c:343: return PROCESS_ERR_FULL;
   08AC 90 00 01           1706 	mov	dptr,#0x0001
   08AF 80 57              1707 	sjmp	00103$
   08B1                    1708 00102$:
                           1709 ;	../../../contiki-sensinode//core/sys/process.c:346: snum = (process_num_events_t)(fevent + nevents) % PROCESS_CONF_NUMEVENTS;
   08B1 90s00r02           1710 	mov	dptr,#_fevent
   08B4 E0                 1711 	movx	a,@dptr
   08B5 2C                 1712 	add	a,r4
   08B6 54 1F              1713 	anl	a,#0x1F
   08B8 FB                 1714 	mov	r3,a
   08B9 90s00rEE           1715 	mov	dptr,#_process_post_snum_1_1
   08BC F0                 1716 	movx	@dptr,a
                           1717 ;	../../../contiki-sensinode//core/sys/process.c:347: events[snum].ev = ev;
   08BD EB                 1718 	mov	a,r3
   08BE 75 F0 07           1719 	mov	b,#0x07
   08C1 A4                 1720 	mul	ab
   08C2 FB                 1721 	mov	r3,a
   08C3 24r03              1722 	add	a,#_events
   08C5 F5 82              1723 	mov	dpl,a
   08C7 E4                 1724 	clr	a
   08C8 34s00              1725 	addc	a,#(_events >> 8)
   08CA F5 83              1726 	mov	dph,a
   08CC E5 81              1727 	mov	a,sp
   08CE 24 FD              1728 	add	a,#0xfd
   08D0 F8                 1729 	mov	r0,a
   08D1 E6                 1730 	mov	a,@r0
   08D2 F0                 1731 	movx	@dptr,a
                           1732 ;	../../../contiki-sensinode//core/sys/process.c:348: events[snum].data = data;
   08D3 EB                 1733 	mov	a,r3
   08D4 24r03              1734 	add	a,#_events
   08D6 FB                 1735 	mov	r3,a
   08D7 E4                 1736 	clr	a
   08D8 34s00              1737 	addc	a,#(_events >> 8)
   08DA FA                 1738 	mov	r2,a
   08DB 8B 82              1739 	mov	dpl,r3
   08DD 8A 83              1740 	mov	dph,r2
   08DF A3                 1741 	inc	dptr
   08E0 E5 81              1742 	mov	a,sp
   08E2 24 FA              1743 	add	a,#0xfa
   08E4 F8                 1744 	mov	r0,a
   08E5 E6                 1745 	mov	a,@r0
   08E6 F0                 1746 	movx	@dptr,a
   08E7 A3                 1747 	inc	dptr
   08E8 08                 1748 	inc	r0
   08E9 E6                 1749 	mov	a,@r0
   08EA F0                 1750 	movx	@dptr,a
   08EB A3                 1751 	inc	dptr
   08EC 08                 1752 	inc	r0
   08ED E6                 1753 	mov	a,@r0
   08EE F0                 1754 	movx	@dptr,a
                           1755 ;	../../../contiki-sensinode//core/sys/process.c:349: events[snum].p = p;
   08EF 8B 82              1756 	mov	dpl,r3
   08F1 8A 83              1757 	mov	dph,r2
   08F3 A3                 1758 	inc	dptr
   08F4 A3                 1759 	inc	dptr
   08F5 A3                 1760 	inc	dptr
   08F6 A3                 1761 	inc	dptr
   08F7 ED                 1762 	mov	a,r5
   08F8 F0                 1763 	movx	@dptr,a
   08F9 A3                 1764 	inc	dptr
   08FA EE                 1765 	mov	a,r6
   08FB F0                 1766 	movx	@dptr,a
   08FC A3                 1767 	inc	dptr
   08FD EF                 1768 	mov	a,r7
   08FE F0                 1769 	movx	@dptr,a
                           1770 ;	../../../contiki-sensinode//core/sys/process.c:350: ++nevents;
   08FF 90s00r01           1771 	mov	dptr,#_nevents
   0902 EC                 1772 	mov	a,r4
   0903 04                 1773 	inc	a
   0904 F0                 1774 	movx	@dptr,a
                           1775 ;	../../../contiki-sensinode//core/sys/process.c:358: return PROCESS_ERR_OK;
   0905 90 00 00           1776 	mov	dptr,#0x0000
   0908                    1777 00103$:
   0908 02s00r00           1778 	ljmp	__sdcc_banked_ret
                           1779 ;------------------------------------------------------------
                           1780 ;Allocation info for local variables in function 'process_post_synch'
                           1781 ;------------------------------------------------------------
                           1782 ;ev                        Allocated to stack - sp -3
                           1783 ;data                      Allocated to stack - sp -6
                           1784 ;p                         Allocated to registers r5 r6 r7 
                           1785 ;caller                    Allocated to registers r2 r3 r4 
                           1786 ;------------------------------------------------------------
                           1787 ;	../../../contiki-sensinode//core/sys/process.c:362: process_post_synch(struct process *p, process_event_t ev, process_data_t data)
                           1788 ;	-----------------------------------------
                           1789 ;	 function process_post_synch
                           1790 ;	-----------------------------------------
   090B                    1791 _process_post_synch:
   090B AD 82              1792 	mov	r5,dpl
   090D AE 83              1793 	mov	r6,dph
   090F AF F0              1794 	mov	r7,b
                           1795 ;	../../../contiki-sensinode//core/sys/process.c:364: struct process *caller = process_current;
   0911 90s00r03           1796 	mov	dptr,#_process_current
   0914 E0                 1797 	movx	a,@dptr
   0915 FA                 1798 	mov	r2,a
   0916 A3                 1799 	inc	dptr
   0917 E0                 1800 	movx	a,@dptr
   0918 FB                 1801 	mov	r3,a
   0919 A3                 1802 	inc	dptr
   091A E0                 1803 	movx	a,@dptr
   091B FC                 1804 	mov	r4,a
                           1805 ;	../../../contiki-sensinode//core/sys/process.c:366: call_process(p, ev, data);
   091C C0 04              1806 	push	ar4
   091E C0 03              1807 	push	ar3
   0920 C0 02              1808 	push	ar2
   0922 E5 81              1809 	mov	a,sp
   0924 24 F7              1810 	add	a,#0xf7
   0926 F8                 1811 	mov	r0,a
   0927 E6                 1812 	mov	a,@r0
   0928 C0 E0              1813 	push	acc
   092A 08                 1814 	inc	r0
   092B E6                 1815 	mov	a,@r0
   092C C0 E0              1816 	push	acc
   092E 08                 1817 	inc	r0
   092F E6                 1818 	mov	a,@r0
   0930 C0 E0              1819 	push	acc
   0932 E5 81              1820 	mov	a,sp
   0934 24 F7              1821 	add	a,#0xf7
   0936 F8                 1822 	mov	r0,a
   0937 E6                 1823 	mov	a,@r0
   0938 C0 E0              1824 	push	acc
   093A 8D 82              1825 	mov	dpl,r5
   093C 8E 83              1826 	mov	dph,r6
   093E 8F F0              1827 	mov	b,r7
   0940 78r89              1828 	mov	r0,#_call_process
   0942 79s04              1829 	mov	r1,#(_call_process >> 8)
   0944 7As00              1830 	mov	r2,#(_call_process >> 16)
   0946 12s00r00           1831 	lcall	__sdcc_banked_call
   0949 E5 81              1832 	mov	a,sp
   094B 24 FC              1833 	add	a,#0xfc
   094D F5 81              1834 	mov	sp,a
   094F D0 02              1835 	pop	ar2
   0951 D0 03              1836 	pop	ar3
   0953 D0 04              1837 	pop	ar4
                           1838 ;	../../../contiki-sensinode//core/sys/process.c:367: process_current = caller;
   0955 90s00r03           1839 	mov	dptr,#_process_current
   0958 EA                 1840 	mov	a,r2
   0959 F0                 1841 	movx	@dptr,a
   095A A3                 1842 	inc	dptr
   095B EB                 1843 	mov	a,r3
   095C F0                 1844 	movx	@dptr,a
   095D A3                 1845 	inc	dptr
   095E EC                 1846 	mov	a,r4
   095F F0                 1847 	movx	@dptr,a
   0960 02s00r00           1848 	ljmp	__sdcc_banked_ret
                           1849 ;------------------------------------------------------------
                           1850 ;Allocation info for local variables in function 'process_poll'
                           1851 ;------------------------------------------------------------
                           1852 ;p                         Allocated to registers r5 r6 r7 
                           1853 ;------------------------------------------------------------
                           1854 ;	../../../contiki-sensinode//core/sys/process.c:371: process_poll(struct process *p)
                           1855 ;	-----------------------------------------
                           1856 ;	 function process_poll
                           1857 ;	-----------------------------------------
   0963                    1858 _process_poll:
   0963 AD 82              1859 	mov	r5,dpl
   0965 AE 83              1860 	mov	r6,dph
   0967 AF F0              1861 	mov	r7,b
                           1862 ;	../../../contiki-sensinode//core/sys/process.c:373: if(p != NULL) {
   0969 ED                 1863 	mov	a,r5
   096A 4E                 1864 	orl	a,r6
   096B 60 33              1865 	jz	00106$
                           1866 ;	../../../contiki-sensinode//core/sys/process.c:374: if(p->state == PROCESS_STATE_RUNNING ||
   096D 74 08              1867 	mov	a,#0x08
   096F 2D                 1868 	add	a,r5
   0970 FA                 1869 	mov	r2,a
   0971 E4                 1870 	clr	a
   0972 3E                 1871 	addc	a,r6
   0973 FB                 1872 	mov	r3,a
   0974 8F 04              1873 	mov	ar4,r7
   0976 8A 82              1874 	mov	dpl,r2
   0978 8B 83              1875 	mov	dph,r3
   097A 8C F0              1876 	mov	b,r4
   097C 12s00r00           1877 	lcall	__gptrget
   097F FC                 1878 	mov	r4,a
   0980 BC 01 02           1879 	cjne	r4,#0x01,00113$
   0983 80 03              1880 	sjmp	00101$
   0985                    1881 00113$:
                           1882 ;	../../../contiki-sensinode//core/sys/process.c:375: p->state == PROCESS_STATE_CALLED) {
   0985 BC 02 18           1883 	cjne	r4,#0x02,00106$
   0988                    1884 00101$:
                           1885 ;	../../../contiki-sensinode//core/sys/process.c:376: p->needspoll = 1;
   0988 74 09              1886 	mov	a,#0x09
   098A 2D                 1887 	add	a,r5
   098B FD                 1888 	mov	r5,a
   098C E4                 1889 	clr	a
   098D 3E                 1890 	addc	a,r6
   098E FE                 1891 	mov	r6,a
   098F 8D 82              1892 	mov	dpl,r5
   0991 8E 83              1893 	mov	dph,r6
   0993 8F F0              1894 	mov	b,r7
   0995 74 01              1895 	mov	a,#0x01
   0997 12s00r00           1896 	lcall	__gptrput
                           1897 ;	../../../contiki-sensinode//core/sys/process.c:377: poll_requested = 1;
   099A 90s00rE3           1898 	mov	dptr,#_poll_requested
   099D 74 01              1899 	mov	a,#0x01
   099F F0                 1900 	movx	@dptr,a
   09A0                    1901 00106$:
   09A0 02s00r00           1902 	ljmp	__sdcc_banked_ret
                           1903 ;------------------------------------------------------------
                           1904 ;Allocation info for local variables in function 'process_is_running'
                           1905 ;------------------------------------------------------------
                           1906 ;p                         Allocated to registers r5 r6 r7 
                           1907 ;------------------------------------------------------------
                           1908 ;	../../../contiki-sensinode//core/sys/process.c:383: process_is_running(struct process *p)
                           1909 ;	-----------------------------------------
                           1910 ;	 function process_is_running
                           1911 ;	-----------------------------------------
   09A3                    1912 _process_is_running:
   09A3 AD 82              1913 	mov	r5,dpl
   09A5 AE 83              1914 	mov	r6,dph
   09A7 AF F0              1915 	mov	r7,b
                           1916 ;	../../../contiki-sensinode//core/sys/process.c:385: return p->state != PROCESS_STATE_NONE;
   09A9 74 08              1917 	mov	a,#0x08
   09AB 2D                 1918 	add	a,r5
   09AC FD                 1919 	mov	r5,a
   09AD E4                 1920 	clr	a
   09AE 3E                 1921 	addc	a,r6
   09AF FE                 1922 	mov	r6,a
   09B0 8D 82              1923 	mov	dpl,r5
   09B2 8E 83              1924 	mov	dph,r6
   09B4 8F F0              1925 	mov	b,r7
   09B6 12s00r00           1926 	lcall	__gptrget
   09B9 FD                 1927 	mov	r5,a
   09BA E4                 1928 	clr	a
   09BB BD 00 01           1929 	cjne	r5,#0x00,00103$
   09BE 04                 1930 	inc	a
   09BF                    1931 00103$:
   09BF FD                 1932 	mov	r5,a
   09C0 B4 01 00           1933 	cjne	a,#0x01,00105$
   09C3                    1934 00105$:
   09C3 E4                 1935 	clr	a
   09C4 33                 1936 	rlc	a
   09C5 FD                 1937 	mov	r5,a
   09C6 7F 00              1938 	mov	r7,#0x00
   09C8 8D 82              1939 	mov	dpl,r5
   09CA 8F 83              1940 	mov	dph,r7
   09CC 02s00r00           1941 	ljmp	__sdcc_banked_ret
                           1942 	.area CSEG    (CODE)
                           1943 	.area CONST   (CODE)
                           1944 	.area XINIT   (CODE)
   0000                    1945 __xinit__process_list:
                           1946 ; generic printIvalPtr
   0000 00 00 00           1947 	.byte #0x00,#0x00,#0x00
   0003                    1948 __xinit__process_current:
                           1949 ; generic printIvalPtr
   0003 00 00 00           1950 	.byte #0x00,#0x00,#0x00
                           1951 	.area CABS    (ABS,CODE)
