                              1 ;--------------------------------------------------------
                              2 ; File Created by SDCC : free open source ANSI-C Compiler
                              3 ; Version 3.1.1 #7100 (Oct 29 2014) (Linux)
                              4 ; This file was generated Wed Dec  2 18:10:54 2015
                              5 ;--------------------------------------------------------
                              6 	.module rpl_icmp6
                              7 	.optsdcc -mmcs51 --model-huge
                              8 	
                              9 ;--------------------------------------------------------
                             10 ; Public variables in this module
                             11 ;--------------------------------------------------------
                             12 	.globl _packetbuf_addr
                             13 	.globl _rpl_reset_dio_timer
                             14 	.globl _rpl_add_route
                             15 	.globl _rpl_find_parent
                             16 	.globl _rpl_process_dio
                             17 	.globl _rpl_get_instance
                             18 	.globl _uip_icmp6_send
                             19 	.globl _uip_ds6_nbr_lookup
                             20 	.globl _uip_ds6_nbr_add
                             21 	.globl _uip_ds6_route_lookup
                             22 	.globl _stimer_set
                             23 	.globl _memset
                             24 	.globl _memcmp
                             25 	.globl _memcpy
                             26 	.globl _ACTIVE
                             27 	.globl _TX_BYTE
                             28 	.globl _RX_BYTE
                             29 	.globl _ERR
                             30 	.globl _FE
                             31 	.globl _SLAVE
                             32 	.globl _RE
                             33 	.globl _MODE
                             34 	.globl _T3OVFIF
                             35 	.globl _T3CH0IF
                             36 	.globl _T3CH1IF
                             37 	.globl _T4OVFIF
                             38 	.globl _T4CH0IF
                             39 	.globl _T4CH1IF
                             40 	.globl _OVFIM
                             41 	.globl _B_0
                             42 	.globl _B_1
                             43 	.globl _B_2
                             44 	.globl _B_3
                             45 	.globl _B_4
                             46 	.globl _B_5
                             47 	.globl _B_6
                             48 	.globl _B_7
                             49 	.globl _P2IF
                             50 	.globl _UTX0IF
                             51 	.globl _UTX1IF
                             52 	.globl _P1IF
                             53 	.globl _WDTIF
                             54 	.globl _ACC_0
                             55 	.globl _ACC_1
                             56 	.globl _ACC_2
                             57 	.globl _ACC_3
                             58 	.globl _ACC_4
                             59 	.globl _ACC_5
                             60 	.globl _ACC_6
                             61 	.globl _ACC_7
                             62 	.globl _P
                             63 	.globl _F1
                             64 	.globl _OV
                             65 	.globl _RS0
                             66 	.globl _RS1
                             67 	.globl _F0
                             68 	.globl _AC
                             69 	.globl _CY
                             70 	.globl _DMAIF
                             71 	.globl _T1IF
                             72 	.globl _T2IF
                             73 	.globl _T3IF
                             74 	.globl _T4IF
                             75 	.globl _P0IF
                             76 	.globl _STIF
                             77 	.globl _DMAIE
                             78 	.globl _T1IE
                             79 	.globl _T2IE
                             80 	.globl _T3IE
                             81 	.globl _T4IE
                             82 	.globl _P0IE
                             83 	.globl _RFERRIE
                             84 	.globl _ADCIE
                             85 	.globl _URX0IE
                             86 	.globl _URX1IE
                             87 	.globl _ENCIE
                             88 	.globl _STIE
                             89 	.globl _EA
                             90 	.globl _P2_0
                             91 	.globl _P2_1
                             92 	.globl _P2_2
                             93 	.globl _P2_3
                             94 	.globl _P2_4
                             95 	.globl _P2_5
                             96 	.globl _P2_6
                             97 	.globl _P2_7
                             98 	.globl _ENCIF_0
                             99 	.globl _ENCIF_1
                            100 	.globl _P1_0
                            101 	.globl _P1_1
                            102 	.globl _P1_2
                            103 	.globl _P1_3
                            104 	.globl _P1_4
                            105 	.globl _P1_5
                            106 	.globl _P1_6
                            107 	.globl _P1_7
                            108 	.globl _IT0
                            109 	.globl _RFERRIF
                            110 	.globl _IT1
                            111 	.globl _URX0IF
                            112 	.globl _ADCIF
                            113 	.globl _URX1IF
                            114 	.globl _P0_0
                            115 	.globl _P0_1
                            116 	.globl _P0_2
                            117 	.globl _P0_3
                            118 	.globl _P0_4
                            119 	.globl _P0_5
                            120 	.globl _P0_6
                            121 	.globl _P0_7
                            122 	.globl _WDCTL
                            123 	.globl _U1GCR
                            124 	.globl _U1UCR
                            125 	.globl _U1BAUD
                            126 	.globl _U1DBUF
                            127 	.globl _U1CSR
                            128 	.globl _U0GCR
                            129 	.globl _U0UCR
                            130 	.globl _U0BAUD
                            131 	.globl _U0DBUF
                            132 	.globl _U0CSR
                            133 	.globl _TIMIF
                            134 	.globl _T4CC1
                            135 	.globl _T4CCTL1
                            136 	.globl _T4CC0
                            137 	.globl _T4CCTL0
                            138 	.globl _T4CTL
                            139 	.globl _T4CNT
                            140 	.globl _T3CC1
                            141 	.globl _T3CCTL1
                            142 	.globl _T3CC0
                            143 	.globl _T3CCTL0
                            144 	.globl _T3CTL
                            145 	.globl _T3CNT
                            146 	.globl _T2MSEL
                            147 	.globl _T2IRQM
                            148 	.globl _T2MOVF2
                            149 	.globl _T2MOVF1
                            150 	.globl _T2MOVF0
                            151 	.globl _T2M1
                            152 	.globl _T2M0
                            153 	.globl _T2IRQF
                            154 	.globl _T2EVTCFG
                            155 	.globl _T2CTRL
                            156 	.globl _T1STAT
                            157 	.globl _T1CCTL2
                            158 	.globl _T1CCTL1
                            159 	.globl _T1CCTL0
                            160 	.globl _T1CTL
                            161 	.globl _T1CNTH
                            162 	.globl _T1CNTL
                            163 	.globl _T1CC2H
                            164 	.globl _T1CC2L
                            165 	.globl _T1CC1H
                            166 	.globl _T1CC1L
                            167 	.globl _T1CC0H
                            168 	.globl _T1CC0L
                            169 	.globl _CLKCONSTA
                            170 	.globl _CLKCONCMD
                            171 	.globl _SLEEPSTA
                            172 	.globl _SLEEPCMD
                            173 	.globl _STLOAD
                            174 	.globl _ST2
                            175 	.globl _ST1
                            176 	.globl _ST0
                            177 	.globl _RFERRF
                            178 	.globl _RFIRQF0
                            179 	.globl _RFST
                            180 	.globl _RFD
                            181 	.globl _RFIRQF1
                            182 	.globl _PSBANK
                            183 	.globl _FMAP
                            184 	.globl _MEMCTR
                            185 	.globl __XPAGE
                            186 	.globl _MPAGE
                            187 	.globl _PMUX
                            188 	.globl _P2DIR
                            189 	.globl _P1DIR
                            190 	.globl _P0DIR
                            191 	.globl _P2INP
                            192 	.globl _P1INP
                            193 	.globl _P2SEL
                            194 	.globl _P1SEL
                            195 	.globl _P0SEL
                            196 	.globl _APCFG
                            197 	.globl _PERCFG
                            198 	.globl _P0INP
                            199 	.globl _P2IEN
                            200 	.globl _P1IEN
                            201 	.globl _P0IEN
                            202 	.globl _PICTL
                            203 	.globl _P2IFG
                            204 	.globl _P1IFG
                            205 	.globl _P0IFG
                            206 	.globl _DMAREQ
                            207 	.globl _DMAARM
                            208 	.globl _DMA0CFGH
                            209 	.globl _DMA0CFGL
                            210 	.globl _DMA1CFGH
                            211 	.globl _DMA1CFGL
                            212 	.globl _DMAIRQ
                            213 	.globl _ENCCS
                            214 	.globl _ENCDO
                            215 	.globl _ENCDI
                            216 	.globl _RNDH
                            217 	.globl _RNDL
                            218 	.globl _ADCH
                            219 	.globl _ADCL
                            220 	.globl _ADCCON3
                            221 	.globl _ADCCON2
                            222 	.globl _ADCCON1
                            223 	.globl _B
                            224 	.globl _IRCON2
                            225 	.globl _ACC
                            226 	.globl _PSW
                            227 	.globl _IRCON
                            228 	.globl _IP1
                            229 	.globl _IEN1
                            230 	.globl _IP0
                            231 	.globl _IEN0
                            232 	.globl _P2
                            233 	.globl _S1CON
                            234 	.globl _IEN2
                            235 	.globl _S0CON
                            236 	.globl _DPS
                            237 	.globl _P1
                            238 	.globl _TCON
                            239 	.globl _PCON
                            240 	.globl _DPH1
                            241 	.globl _DPL1
                            242 	.globl _DPH0
                            243 	.globl _DPL0
                            244 	.globl _SP
                            245 	.globl _P0
                            246 	.globl _X_IEEE_ADDR
                            247 	.globl _X_INFOPAGE
                            248 	.globl _X_P2DIR
                            249 	.globl _X_P1DIR
                            250 	.globl _X_P0DIR
                            251 	.globl _X_U1GCR
                            252 	.globl _X_U1UCR
                            253 	.globl _X_U1BAUD
                            254 	.globl _X_U1DBUF
                            255 	.globl _X_U1CSR
                            256 	.globl _X_P2INP
                            257 	.globl _X_P1INP
                            258 	.globl _X_P2SEL
                            259 	.globl _X_P1SEL
                            260 	.globl _X_P0SEL
                            261 	.globl _X_APCFG
                            262 	.globl _X_PERCFG
                            263 	.globl _X_T4CC1
                            264 	.globl _X_T4CCTL1
                            265 	.globl _X_T4CC0
                            266 	.globl _X_T4CCTL0
                            267 	.globl _X_T4CTL
                            268 	.globl _X_T4CNT
                            269 	.globl _X_RFIRQF0
                            270 	.globl _X_T1CCTL2
                            271 	.globl _X_T1CCTL1
                            272 	.globl _X_T1CCTL0
                            273 	.globl _X_T1CTL
                            274 	.globl _X_T1CNTH
                            275 	.globl _X_T1CNTL
                            276 	.globl _X_RFST
                            277 	.globl _X_T1CC2H
                            278 	.globl _X_T1CC2L
                            279 	.globl _X_T1CC1H
                            280 	.globl _X_T1CC1L
                            281 	.globl _X_T1CC0H
                            282 	.globl _X_T1CC0L
                            283 	.globl _X_RFD
                            284 	.globl _X_TIMIF
                            285 	.globl _X_DMAREQ
                            286 	.globl _X_DMAARM
                            287 	.globl _X_DMA0CFGH
                            288 	.globl _X_DMA0CFGL
                            289 	.globl _X_DMA1CFGH
                            290 	.globl _X_DMA1CFGL
                            291 	.globl _X_DMAIRQ
                            292 	.globl _X_T3CC1
                            293 	.globl _X_T3CCTL1
                            294 	.globl _X_T3CC0
                            295 	.globl _X_T3CCTL0
                            296 	.globl _X_T3CTL
                            297 	.globl _X_T3CNT
                            298 	.globl _X_WDCTL
                            299 	.globl _X_MEMCTR
                            300 	.globl _X_CLKCONCMD
                            301 	.globl _X_U0GCR
                            302 	.globl _X_U0UCR
                            303 	.globl _X_T2MSEL
                            304 	.globl _X_U0BAUD
                            305 	.globl _X_U0DBUF
                            306 	.globl _X_RFERRF
                            307 	.globl _X_SLEEPCMD
                            308 	.globl _X_RNDH
                            309 	.globl _X_RNDL
                            310 	.globl _X_ADCH
                            311 	.globl _X_ADCL
                            312 	.globl _X_ADCCON3
                            313 	.globl _X_ADCCON2
                            314 	.globl _X_ADCCON1
                            315 	.globl _X_ENCCS
                            316 	.globl _X_ENCDO
                            317 	.globl _X_ENCDI
                            318 	.globl _X_T1STAT
                            319 	.globl _X_PMUX
                            320 	.globl _X_STLOAD
                            321 	.globl _X_P2IEN
                            322 	.globl _X_P0IEN
                            323 	.globl _X_T2IRQM
                            324 	.globl _X_T2MOVF2
                            325 	.globl _X_T2MOVF1
                            326 	.globl _X_T2MOVF0
                            327 	.globl _X_T2M1
                            328 	.globl _X_T2M0
                            329 	.globl _X_T2IRQF
                            330 	.globl _X_P2
                            331 	.globl _X_PSBANK
                            332 	.globl _X_FMAP
                            333 	.globl _X_CLKCONSTA
                            334 	.globl _X_SLEEPSTA
                            335 	.globl _X_T2EVTCFG
                            336 	.globl _X_ST2
                            337 	.globl _X_ST1
                            338 	.globl _X_ST0
                            339 	.globl _X_T2CTRL
                            340 	.globl _X__XPAGE
                            341 	.globl _X_MPAGE
                            342 	.globl _X_RFIRQF1
                            343 	.globl _X_P1
                            344 	.globl _X_P0INP
                            345 	.globl _X_P1IEN
                            346 	.globl _X_PICTL
                            347 	.globl _X_P2IFG
                            348 	.globl _X_P1IFG
                            349 	.globl _X_P0IFG
                            350 	.globl _X_U0CSR
                            351 	.globl _X_P0
                            352 	.globl _USBF5
                            353 	.globl _USBF4
                            354 	.globl _USBF3
                            355 	.globl _USBF2
                            356 	.globl _USBF1
                            357 	.globl _USBF0
                            358 	.globl _USBCNTH
                            359 	.globl _USBCNTL
                            360 	.globl _USBCNT0
                            361 	.globl _USBCSOH
                            362 	.globl _USBCSOL
                            363 	.globl _USBMAXO
                            364 	.globl _USBCSIH
                            365 	.globl _USBCSIL
                            366 	.globl _USBCS0
                            367 	.globl _USBMAXI
                            368 	.globl _USBCTRL
                            369 	.globl _USBINDEX
                            370 	.globl _USBFRMH
                            371 	.globl _USBFRML
                            372 	.globl _USBCIE
                            373 	.globl _USBOIE
                            374 	.globl _USBIIE
                            375 	.globl _USBCIF
                            376 	.globl _USBOIF
                            377 	.globl _USBIIF
                            378 	.globl _USBPOW
                            379 	.globl _USBADDR
                            380 	.globl _CSPT
                            381 	.globl _CSPZ
                            382 	.globl _CSPY
                            383 	.globl _CSPX
                            384 	.globl _CSPSTAT
                            385 	.globl _CSPCTRL
                            386 	.globl _CSPPROG23
                            387 	.globl _CSPPROG22
                            388 	.globl _CSPPROG21
                            389 	.globl _CSPPROG20
                            390 	.globl _CSPPROG19
                            391 	.globl _CSPPROG18
                            392 	.globl _CSPPROG17
                            393 	.globl _CSPPROG16
                            394 	.globl _CSPPROG15
                            395 	.globl _CSPPROG14
                            396 	.globl _CSPPROG13
                            397 	.globl _CSPPROG12
                            398 	.globl _CSPPROG11
                            399 	.globl _CSPPROG10
                            400 	.globl _CSPPROG9
                            401 	.globl _CSPPROG8
                            402 	.globl _CSPPROG7
                            403 	.globl _CSPPROG6
                            404 	.globl _CSPPROG5
                            405 	.globl _CSPPROG4
                            406 	.globl _CSPPROG3
                            407 	.globl _CSPPROG2
                            408 	.globl _CSPPROG1
                            409 	.globl _CSPPROG0
                            410 	.globl _RFC_OBS_CTRL2
                            411 	.globl _RFC_OBS_CTRL1
                            412 	.globl _RFC_OBS_CTRL0
                            413 	.globl _TXFILTCFG
                            414 	.globl _PTEST1
                            415 	.globl _PTEST0
                            416 	.globl _ATEST
                            417 	.globl _DACTEST2
                            418 	.globl _DACTEST1
                            419 	.globl _DACTEST0
                            420 	.globl _MDMTEST1
                            421 	.globl _MDMTEST0
                            422 	.globl _ADCTEST2
                            423 	.globl _ADCTEST1
                            424 	.globl _ADCTEST0
                            425 	.globl _AGCCTRL3
                            426 	.globl _AGCCTRL2
                            427 	.globl _AGCCTRL1
                            428 	.globl _AGCCTRL0
                            429 	.globl _FSCAL3
                            430 	.globl _FSCAL2
                            431 	.globl _FSCAL1
                            432 	.globl _FSCAL0
                            433 	.globl _FSCTRL
                            434 	.globl _RXCTRL
                            435 	.globl _FREQEST
                            436 	.globl _MDMCTRL1
                            437 	.globl _MDMCTRL0
                            438 	.globl _RFRND
                            439 	.globl _RFERRM
                            440 	.globl _RFIRQM1
                            441 	.globl _RFIRQM0
                            442 	.globl _TXLAST_PTR
                            443 	.globl _TXFIRST_PTR
                            444 	.globl _RXP1_PTR
                            445 	.globl _RXLAST_PTR
                            446 	.globl _RXFIRST_PTR
                            447 	.globl _TXFIFOCNT
                            448 	.globl _RXFIFOCNT
                            449 	.globl _RXFIRST
                            450 	.globl _RSSISTAT
                            451 	.globl _RSSI
                            452 	.globl _CCACTRL1
                            453 	.globl _CCACTRL0
                            454 	.globl _FSMCTRL
                            455 	.globl _FIFOPCTRL
                            456 	.globl _FSMSTAT1
                            457 	.globl _FSMSTAT0
                            458 	.globl _TXCTRL
                            459 	.globl _TXPOWER
                            460 	.globl _FREQCTRL
                            461 	.globl _FREQTUNE
                            462 	.globl _RXMASKCLR
                            463 	.globl _RXMASKSET
                            464 	.globl _RXENABLE
                            465 	.globl _FRMCTRL1
                            466 	.globl _FRMCTRL0
                            467 	.globl _SRCEXTEN2
                            468 	.globl _SRCEXTEN1
                            469 	.globl _SRCEXTEN0
                            470 	.globl _SRCSHORTEN2
                            471 	.globl _SRCSHORTEN1
                            472 	.globl _SRCSHORTEN0
                            473 	.globl _SRCMATCH
                            474 	.globl _FRMFILT1
                            475 	.globl _FRMFILT0
                            476 	.globl _SHORT_ADDR1
                            477 	.globl _SHORT_ADDR0
                            478 	.globl _PAN_ID1
                            479 	.globl _PAN_ID0
                            480 	.globl _EXT_ADDR7
                            481 	.globl _EXT_ADDR6
                            482 	.globl _EXT_ADDR5
                            483 	.globl _EXT_ADDR4
                            484 	.globl _EXT_ADDR3
                            485 	.globl _EXT_ADDR2
                            486 	.globl _EXT_ADDR1
                            487 	.globl _EXT_ADDR0
                            488 	.globl _SRCSHORTPENDEN2
                            489 	.globl _SRCSHORTPENDEN1
                            490 	.globl _SRCSHORTPENDEN0
                            491 	.globl _SRCEXTPENDEN2
                            492 	.globl _SRCEXTPENDEN1
                            493 	.globl _SRCEXTPENDEN0
                            494 	.globl _SRCRESINDEX
                            495 	.globl _SRCRESMASK2
                            496 	.globl _SRCRESMASK1
                            497 	.globl _SRCRESMASK0
                            498 	.globl _SRC_ADDR_TABLE
                            499 	.globl _TXFIFO
                            500 	.globl _RXFIFO
                            501 	.globl _RFCORE_RAM
                            502 	.globl _CMPCTL
                            503 	.globl _OPAMPS
                            504 	.globl _OPAMPC
                            505 	.globl _STCV2
                            506 	.globl _STCV1
                            507 	.globl _STCV0
                            508 	.globl _STCS
                            509 	.globl _STCC
                            510 	.globl _T1CC4H
                            511 	.globl _T1CC4L
                            512 	.globl _T1CC3H
                            513 	.globl _T1CC3L
                            514 	.globl _XX_T1CC2H
                            515 	.globl _XX_T1CC2L
                            516 	.globl _XX_T1CC1H
                            517 	.globl _XX_T1CC1L
                            518 	.globl _XX_T1CC0H
                            519 	.globl _XX_T1CC0L
                            520 	.globl _T1CCTL4
                            521 	.globl _T1CCTL3
                            522 	.globl _XX_T1CCTL2
                            523 	.globl _XX_T1CCTL1
                            524 	.globl _XX_T1CCTL0
                            525 	.globl _CLD
                            526 	.globl _IRCTL
                            527 	.globl _CHIPINFO1
                            528 	.globl _CHIPINFO0
                            529 	.globl _FWDATA
                            530 	.globl _FADDRH
                            531 	.globl _FADDRL
                            532 	.globl _FCTL
                            533 	.globl _IVCTRL
                            534 	.globl _BATTMON
                            535 	.globl _SRCRC
                            536 	.globl _DBGDATA
                            537 	.globl _TESTREG0
                            538 	.globl _CHIPID
                            539 	.globl _CHVER
                            540 	.globl _OBSSEL5
                            541 	.globl _OBSSEL4
                            542 	.globl _OBSSEL3
                            543 	.globl _OBSSEL2
                            544 	.globl _OBSSEL1
                            545 	.globl _OBSSEL0
                            546 	.globl _I2CIO
                            547 	.globl _I2CWC
                            548 	.globl _I2CADDR
                            549 	.globl _I2CDATA
                            550 	.globl _I2CSTAT
                            551 	.globl _I2CCFG
                            552 	.globl _OPAMPMC
                            553 	.globl _MONMUX
                            554 	.globl _dis_output
                            555 	.globl _dio_output
                            556 	.globl _dao_output
                            557 	.globl _dao_ack_output
                            558 	.globl _uip_rpl_input
                            559 ;--------------------------------------------------------
                            560 ; special function registers
                            561 ;--------------------------------------------------------
                            562 	.area RSEG    (ABS,DATA)
   0000                     563 	.org 0x0000
                    0080    564 _P0	=	0x0080
                    0081    565 _SP	=	0x0081
                    0082    566 _DPL0	=	0x0082
                    0083    567 _DPH0	=	0x0083
                    0084    568 _DPL1	=	0x0084
                    0085    569 _DPH1	=	0x0085
                    0087    570 _PCON	=	0x0087
                    0088    571 _TCON	=	0x0088
                    0090    572 _P1	=	0x0090
                    0092    573 _DPS	=	0x0092
                    0098    574 _S0CON	=	0x0098
                    009A    575 _IEN2	=	0x009a
                    009B    576 _S1CON	=	0x009b
                    00A0    577 _P2	=	0x00a0
                    00A8    578 _IEN0	=	0x00a8
                    00A9    579 _IP0	=	0x00a9
                    00B8    580 _IEN1	=	0x00b8
                    00B9    581 _IP1	=	0x00b9
                    00C0    582 _IRCON	=	0x00c0
                    00D0    583 _PSW	=	0x00d0
                    00E0    584 _ACC	=	0x00e0
                    00E8    585 _IRCON2	=	0x00e8
                    00F0    586 _B	=	0x00f0
                    00B4    587 _ADCCON1	=	0x00b4
                    00B5    588 _ADCCON2	=	0x00b5
                    00B6    589 _ADCCON3	=	0x00b6
                    00BA    590 _ADCL	=	0x00ba
                    00BB    591 _ADCH	=	0x00bb
                    00BC    592 _RNDL	=	0x00bc
                    00BD    593 _RNDH	=	0x00bd
                    00B1    594 _ENCDI	=	0x00b1
                    00B2    595 _ENCDO	=	0x00b2
                    00B3    596 _ENCCS	=	0x00b3
                    00D1    597 _DMAIRQ	=	0x00d1
                    00D2    598 _DMA1CFGL	=	0x00d2
                    00D3    599 _DMA1CFGH	=	0x00d3
                    00D4    600 _DMA0CFGL	=	0x00d4
                    00D5    601 _DMA0CFGH	=	0x00d5
                    00D6    602 _DMAARM	=	0x00d6
                    00D7    603 _DMAREQ	=	0x00d7
                    0089    604 _P0IFG	=	0x0089
                    008A    605 _P1IFG	=	0x008a
                    008B    606 _P2IFG	=	0x008b
                    008C    607 _PICTL	=	0x008c
                    00AB    608 _P0IEN	=	0x00ab
                    008D    609 _P1IEN	=	0x008d
                    00AC    610 _P2IEN	=	0x00ac
                    008F    611 _P0INP	=	0x008f
                    00F1    612 _PERCFG	=	0x00f1
                    00F2    613 _APCFG	=	0x00f2
                    00F3    614 _P0SEL	=	0x00f3
                    00F4    615 _P1SEL	=	0x00f4
                    00F5    616 _P2SEL	=	0x00f5
                    00F6    617 _P1INP	=	0x00f6
                    00F7    618 _P2INP	=	0x00f7
                    00FD    619 _P0DIR	=	0x00fd
                    00FE    620 _P1DIR	=	0x00fe
                    00FF    621 _P2DIR	=	0x00ff
                    00AE    622 _PMUX	=	0x00ae
                    0093    623 _MPAGE	=	0x0093
                    0093    624 __XPAGE	=	0x0093
                    00C7    625 _MEMCTR	=	0x00c7
                    009F    626 _FMAP	=	0x009f
                    009F    627 _PSBANK	=	0x009f
                    0091    628 _RFIRQF1	=	0x0091
                    00D9    629 _RFD	=	0x00d9
                    00E1    630 _RFST	=	0x00e1
                    00E9    631 _RFIRQF0	=	0x00e9
                    00BF    632 _RFERRF	=	0x00bf
                    0095    633 _ST0	=	0x0095
                    0096    634 _ST1	=	0x0096
                    0097    635 _ST2	=	0x0097
                    00AD    636 _STLOAD	=	0x00ad
                    00BE    637 _SLEEPCMD	=	0x00be
                    009D    638 _SLEEPSTA	=	0x009d
                    00C6    639 _CLKCONCMD	=	0x00c6
                    009E    640 _CLKCONSTA	=	0x009e
                    00DA    641 _T1CC0L	=	0x00da
                    00DB    642 _T1CC0H	=	0x00db
                    00DC    643 _T1CC1L	=	0x00dc
                    00DD    644 _T1CC1H	=	0x00dd
                    00DE    645 _T1CC2L	=	0x00de
                    00DF    646 _T1CC2H	=	0x00df
                    00E2    647 _T1CNTL	=	0x00e2
                    00E3    648 _T1CNTH	=	0x00e3
                    00E4    649 _T1CTL	=	0x00e4
                    00E5    650 _T1CCTL0	=	0x00e5
                    00E6    651 _T1CCTL1	=	0x00e6
                    00E7    652 _T1CCTL2	=	0x00e7
                    00AF    653 _T1STAT	=	0x00af
                    0094    654 _T2CTRL	=	0x0094
                    009C    655 _T2EVTCFG	=	0x009c
                    00A1    656 _T2IRQF	=	0x00a1
                    00A2    657 _T2M0	=	0x00a2
                    00A3    658 _T2M1	=	0x00a3
                    00A4    659 _T2MOVF0	=	0x00a4
                    00A5    660 _T2MOVF1	=	0x00a5
                    00A6    661 _T2MOVF2	=	0x00a6
                    00A7    662 _T2IRQM	=	0x00a7
                    00C3    663 _T2MSEL	=	0x00c3
                    00CA    664 _T3CNT	=	0x00ca
                    00CB    665 _T3CTL	=	0x00cb
                    00CC    666 _T3CCTL0	=	0x00cc
                    00CD    667 _T3CC0	=	0x00cd
                    00CE    668 _T3CCTL1	=	0x00ce
                    00CF    669 _T3CC1	=	0x00cf
                    00EA    670 _T4CNT	=	0x00ea
                    00EB    671 _T4CTL	=	0x00eb
                    00EC    672 _T4CCTL0	=	0x00ec
                    00ED    673 _T4CC0	=	0x00ed
                    00EE    674 _T4CCTL1	=	0x00ee
                    00EF    675 _T4CC1	=	0x00ef
                    00D8    676 _TIMIF	=	0x00d8
                    0086    677 _U0CSR	=	0x0086
                    00C1    678 _U0DBUF	=	0x00c1
                    00C2    679 _U0BAUD	=	0x00c2
                    00C4    680 _U0UCR	=	0x00c4
                    00C5    681 _U0GCR	=	0x00c5
                    00F8    682 _U1CSR	=	0x00f8
                    00F9    683 _U1DBUF	=	0x00f9
                    00FA    684 _U1BAUD	=	0x00fa
                    00FB    685 _U1UCR	=	0x00fb
                    00FC    686 _U1GCR	=	0x00fc
                    00C9    687 _WDCTL	=	0x00c9
                            688 ;--------------------------------------------------------
                            689 ; special function bits
                            690 ;--------------------------------------------------------
                            691 	.area RSEG    (ABS,DATA)
   0000                     692 	.org 0x0000
                    0087    693 _P0_7	=	0x0087
                    0086    694 _P0_6	=	0x0086
                    0085    695 _P0_5	=	0x0085
                    0084    696 _P0_4	=	0x0084
                    0083    697 _P0_3	=	0x0083
                    0082    698 _P0_2	=	0x0082
                    0081    699 _P0_1	=	0x0081
                    0080    700 _P0_0	=	0x0080
                    008F    701 _URX1IF	=	0x008f
                    008D    702 _ADCIF	=	0x008d
                    008B    703 _URX0IF	=	0x008b
                    008A    704 _IT1	=	0x008a
                    0089    705 _RFERRIF	=	0x0089
                    0088    706 _IT0	=	0x0088
                    0097    707 _P1_7	=	0x0097
                    0096    708 _P1_6	=	0x0096
                    0095    709 _P1_5	=	0x0095
                    0094    710 _P1_4	=	0x0094
                    0093    711 _P1_3	=	0x0093
                    0092    712 _P1_2	=	0x0092
                    0091    713 _P1_1	=	0x0091
                    0090    714 _P1_0	=	0x0090
                    0099    715 _ENCIF_1	=	0x0099
                    0098    716 _ENCIF_0	=	0x0098
                    00A7    717 _P2_7	=	0x00a7
                    00A6    718 _P2_6	=	0x00a6
                    00A5    719 _P2_5	=	0x00a5
                    00A4    720 _P2_4	=	0x00a4
                    00A3    721 _P2_3	=	0x00a3
                    00A2    722 _P2_2	=	0x00a2
                    00A1    723 _P2_1	=	0x00a1
                    00A0    724 _P2_0	=	0x00a0
                    00AF    725 _EA	=	0x00af
                    00AD    726 _STIE	=	0x00ad
                    00AC    727 _ENCIE	=	0x00ac
                    00AB    728 _URX1IE	=	0x00ab
                    00AA    729 _URX0IE	=	0x00aa
                    00A9    730 _ADCIE	=	0x00a9
                    00A8    731 _RFERRIE	=	0x00a8
                    00BD    732 _P0IE	=	0x00bd
                    00BC    733 _T4IE	=	0x00bc
                    00BB    734 _T3IE	=	0x00bb
                    00BA    735 _T2IE	=	0x00ba
                    00B9    736 _T1IE	=	0x00b9
                    00B8    737 _DMAIE	=	0x00b8
                    00C7    738 _STIF	=	0x00c7
                    00C5    739 _P0IF	=	0x00c5
                    00C4    740 _T4IF	=	0x00c4
                    00C3    741 _T3IF	=	0x00c3
                    00C2    742 _T2IF	=	0x00c2
                    00C1    743 _T1IF	=	0x00c1
                    00C0    744 _DMAIF	=	0x00c0
                    00D7    745 _CY	=	0x00d7
                    00D6    746 _AC	=	0x00d6
                    00D5    747 _F0	=	0x00d5
                    00D4    748 _RS1	=	0x00d4
                    00D3    749 _RS0	=	0x00d3
                    00D2    750 _OV	=	0x00d2
                    00D1    751 _F1	=	0x00d1
                    00D0    752 _P	=	0x00d0
                    00E7    753 _ACC_7	=	0x00e7
                    00E6    754 _ACC_6	=	0x00e6
                    00E5    755 _ACC_5	=	0x00e5
                    00E4    756 _ACC_4	=	0x00e4
                    00E3    757 _ACC_3	=	0x00e3
                    00E2    758 _ACC_2	=	0x00e2
                    00E1    759 _ACC_1	=	0x00e1
                    00E0    760 _ACC_0	=	0x00e0
                    00EC    761 _WDTIF	=	0x00ec
                    00EB    762 _P1IF	=	0x00eb
                    00EA    763 _UTX1IF	=	0x00ea
                    00E9    764 _UTX0IF	=	0x00e9
                    00E8    765 _P2IF	=	0x00e8
                    00F7    766 _B_7	=	0x00f7
                    00F6    767 _B_6	=	0x00f6
                    00F5    768 _B_5	=	0x00f5
                    00F4    769 _B_4	=	0x00f4
                    00F3    770 _B_3	=	0x00f3
                    00F2    771 _B_2	=	0x00f2
                    00F1    772 _B_1	=	0x00f1
                    00F0    773 _B_0	=	0x00f0
                    00DE    774 _OVFIM	=	0x00de
                    00DD    775 _T4CH1IF	=	0x00dd
                    00DC    776 _T4CH0IF	=	0x00dc
                    00DB    777 _T4OVFIF	=	0x00db
                    00DA    778 _T3CH1IF	=	0x00da
                    00D9    779 _T3CH0IF	=	0x00d9
                    00D8    780 _T3OVFIF	=	0x00d8
                    00FF    781 _MODE	=	0x00ff
                    00FE    782 _RE	=	0x00fe
                    00FD    783 _SLAVE	=	0x00fd
                    00FC    784 _FE	=	0x00fc
                    00FB    785 _ERR	=	0x00fb
                    00FA    786 _RX_BYTE	=	0x00fa
                    00F9    787 _TX_BYTE	=	0x00f9
                    00F8    788 _ACTIVE	=	0x00f8
                            789 ;--------------------------------------------------------
                            790 ; overlayable register banks
                            791 ;--------------------------------------------------------
                            792 	.area REG_BANK_0	(REL,OVR,DATA)
   0000                     793 	.ds 8
                            794 ;--------------------------------------------------------
                            795 ; internal ram data
                            796 ;--------------------------------------------------------
                            797 	.area DSEG    (DATA)
                            798 ;--------------------------------------------------------
                            799 ; overlayable items in internal ram 
                            800 ;--------------------------------------------------------
                            801 	.area OSEG    (OVR,DATA)
                            802 ;--------------------------------------------------------
                            803 ; indirectly addressable internal ram data
                            804 ;--------------------------------------------------------
                            805 	.area ISEG    (DATA)
                            806 ;--------------------------------------------------------
                            807 ; absolute internal ram data
                            808 ;--------------------------------------------------------
                            809 	.area IABS    (ABS,DATA)
                            810 	.area IABS    (ABS,DATA)
                            811 ;--------------------------------------------------------
                            812 ; bit data
                            813 ;--------------------------------------------------------
                            814 	.area BSEG    (BIT)
                            815 ;--------------------------------------------------------
                            816 ; paged external ram data
                            817 ;--------------------------------------------------------
                            818 	.area PSEG    (PAG,XDATA)
                            819 ;--------------------------------------------------------
                            820 ; external ram data
                            821 ;--------------------------------------------------------
                            822 	.area XSEG    (XDATA)
                    61A6    823 _MONMUX	=	0x61a6
                    61A6    824 _OPAMPMC	=	0x61a6
                    6230    825 _I2CCFG	=	0x6230
                    6231    826 _I2CSTAT	=	0x6231
                    6232    827 _I2CDATA	=	0x6232
                    6233    828 _I2CADDR	=	0x6233
                    6234    829 _I2CWC	=	0x6234
                    6235    830 _I2CIO	=	0x6235
                    6243    831 _OBSSEL0	=	0x6243
                    6244    832 _OBSSEL1	=	0x6244
                    6245    833 _OBSSEL2	=	0x6245
                    6246    834 _OBSSEL3	=	0x6246
                    6247    835 _OBSSEL4	=	0x6247
                    6248    836 _OBSSEL5	=	0x6248
                    6249    837 _CHVER	=	0x6249
                    624A    838 _CHIPID	=	0x624a
                    624B    839 _TESTREG0	=	0x624b
                    6260    840 _DBGDATA	=	0x6260
                    6262    841 _SRCRC	=	0x6262
                    6264    842 _BATTMON	=	0x6264
                    6265    843 _IVCTRL	=	0x6265
                    6270    844 _FCTL	=	0x6270
                    6271    845 _FADDRL	=	0x6271
                    6272    846 _FADDRH	=	0x6272
                    6273    847 _FWDATA	=	0x6273
                    6276    848 _CHIPINFO0	=	0x6276
                    6277    849 _CHIPINFO1	=	0x6277
                    6281    850 _IRCTL	=	0x6281
                    6290    851 _CLD	=	0x6290
                    62A0    852 _XX_T1CCTL0	=	0x62a0
                    62A1    853 _XX_T1CCTL1	=	0x62a1
                    62A2    854 _XX_T1CCTL2	=	0x62a2
                    62A3    855 _T1CCTL3	=	0x62a3
                    62A4    856 _T1CCTL4	=	0x62a4
                    62A6    857 _XX_T1CC0L	=	0x62a6
                    62A7    858 _XX_T1CC0H	=	0x62a7
                    62A8    859 _XX_T1CC1L	=	0x62a8
                    62A9    860 _XX_T1CC1H	=	0x62a9
                    62AA    861 _XX_T1CC2L	=	0x62aa
                    62AB    862 _XX_T1CC2H	=	0x62ab
                    62AC    863 _T1CC3L	=	0x62ac
                    62AD    864 _T1CC3H	=	0x62ad
                    62AE    865 _T1CC4L	=	0x62ae
                    62AF    866 _T1CC4H	=	0x62af
                    62B0    867 _STCC	=	0x62b0
                    62B1    868 _STCS	=	0x62b1
                    62B2    869 _STCV0	=	0x62b2
                    62B3    870 _STCV1	=	0x62b3
                    62B4    871 _STCV2	=	0x62b4
                    62C0    872 _OPAMPC	=	0x62c0
                    62C1    873 _OPAMPS	=	0x62c1
                    62D0    874 _CMPCTL	=	0x62d0
                    6000    875 _RFCORE_RAM	=	0x6000
                    6000    876 _RXFIFO	=	0x6000
                    6080    877 _TXFIFO	=	0x6080
                    6100    878 _SRC_ADDR_TABLE	=	0x6100
                    6160    879 _SRCRESMASK0	=	0x6160
                    6161    880 _SRCRESMASK1	=	0x6161
                    6162    881 _SRCRESMASK2	=	0x6162
                    6163    882 _SRCRESINDEX	=	0x6163
                    6164    883 _SRCEXTPENDEN0	=	0x6164
                    6165    884 _SRCEXTPENDEN1	=	0x6165
                    6166    885 _SRCEXTPENDEN2	=	0x6166
                    6167    886 _SRCSHORTPENDEN0	=	0x6167
                    6168    887 _SRCSHORTPENDEN1	=	0x6168
                    6169    888 _SRCSHORTPENDEN2	=	0x6169
                    616A    889 _EXT_ADDR0	=	0x616a
                    616B    890 _EXT_ADDR1	=	0x616b
                    616C    891 _EXT_ADDR2	=	0x616c
                    616D    892 _EXT_ADDR3	=	0x616d
                    616E    893 _EXT_ADDR4	=	0x616e
                    616F    894 _EXT_ADDR5	=	0x616f
                    6170    895 _EXT_ADDR6	=	0x6170
                    6171    896 _EXT_ADDR7	=	0x6171
                    6172    897 _PAN_ID0	=	0x6172
                    6173    898 _PAN_ID1	=	0x6173
                    6174    899 _SHORT_ADDR0	=	0x6174
                    6175    900 _SHORT_ADDR1	=	0x6175
                    6180    901 _FRMFILT0	=	0x6180
                    6181    902 _FRMFILT1	=	0x6181
                    6182    903 _SRCMATCH	=	0x6182
                    6183    904 _SRCSHORTEN0	=	0x6183
                    6184    905 _SRCSHORTEN1	=	0x6184
                    6185    906 _SRCSHORTEN2	=	0x6185
                    6186    907 _SRCEXTEN0	=	0x6186
                    6187    908 _SRCEXTEN1	=	0x6187
                    6188    909 _SRCEXTEN2	=	0x6188
                    6189    910 _FRMCTRL0	=	0x6189
                    618A    911 _FRMCTRL1	=	0x618a
                    618B    912 _RXENABLE	=	0x618b
                    618C    913 _RXMASKSET	=	0x618c
                    618D    914 _RXMASKCLR	=	0x618d
                    618E    915 _FREQTUNE	=	0x618e
                    618F    916 _FREQCTRL	=	0x618f
                    6190    917 _TXPOWER	=	0x6190
                    6191    918 _TXCTRL	=	0x6191
                    6192    919 _FSMSTAT0	=	0x6192
                    6193    920 _FSMSTAT1	=	0x6193
                    6194    921 _FIFOPCTRL	=	0x6194
                    6195    922 _FSMCTRL	=	0x6195
                    6196    923 _CCACTRL0	=	0x6196
                    6197    924 _CCACTRL1	=	0x6197
                    6198    925 _RSSI	=	0x6198
                    6199    926 _RSSISTAT	=	0x6199
                    619A    927 _RXFIRST	=	0x619a
                    619B    928 _RXFIFOCNT	=	0x619b
                    619C    929 _TXFIFOCNT	=	0x619c
                    619D    930 _RXFIRST_PTR	=	0x619d
                    619E    931 _RXLAST_PTR	=	0x619e
                    619F    932 _RXP1_PTR	=	0x619f
                    61A1    933 _TXFIRST_PTR	=	0x61a1
                    61A2    934 _TXLAST_PTR	=	0x61a2
                    61A3    935 _RFIRQM0	=	0x61a3
                    61A4    936 _RFIRQM1	=	0x61a4
                    61A5    937 _RFERRM	=	0x61a5
                    61A7    938 _RFRND	=	0x61a7
                    61A8    939 _MDMCTRL0	=	0x61a8
                    61A9    940 _MDMCTRL1	=	0x61a9
                    61AA    941 _FREQEST	=	0x61aa
                    61AB    942 _RXCTRL	=	0x61ab
                    61AC    943 _FSCTRL	=	0x61ac
                    61AD    944 _FSCAL0	=	0x61ad
                    61AE    945 _FSCAL1	=	0x61ae
                    61AF    946 _FSCAL2	=	0x61af
                    61B0    947 _FSCAL3	=	0x61b0
                    61B1    948 _AGCCTRL0	=	0x61b1
                    61B2    949 _AGCCTRL1	=	0x61b2
                    61B3    950 _AGCCTRL2	=	0x61b3
                    61B4    951 _AGCCTRL3	=	0x61b4
                    61B5    952 _ADCTEST0	=	0x61b5
                    61B6    953 _ADCTEST1	=	0x61b6
                    61B7    954 _ADCTEST2	=	0x61b7
                    61B8    955 _MDMTEST0	=	0x61b8
                    61B9    956 _MDMTEST1	=	0x61b9
                    61BA    957 _DACTEST0	=	0x61ba
                    61BB    958 _DACTEST1	=	0x61bb
                    61BC    959 _DACTEST2	=	0x61bc
                    61BD    960 _ATEST	=	0x61bd
                    61BE    961 _PTEST0	=	0x61be
                    61BF    962 _PTEST1	=	0x61bf
                    61FA    963 _TXFILTCFG	=	0x61fa
                    61EB    964 _RFC_OBS_CTRL0	=	0x61eb
                    61EC    965 _RFC_OBS_CTRL1	=	0x61ec
                    61ED    966 _RFC_OBS_CTRL2	=	0x61ed
                    61C0    967 _CSPPROG0	=	0x61c0
                    61C1    968 _CSPPROG1	=	0x61c1
                    61C2    969 _CSPPROG2	=	0x61c2
                    61C3    970 _CSPPROG3	=	0x61c3
                    61C4    971 _CSPPROG4	=	0x61c4
                    61C5    972 _CSPPROG5	=	0x61c5
                    61C6    973 _CSPPROG6	=	0x61c6
                    61C7    974 _CSPPROG7	=	0x61c7
                    61C8    975 _CSPPROG8	=	0x61c8
                    61C9    976 _CSPPROG9	=	0x61c9
                    61CA    977 _CSPPROG10	=	0x61ca
                    61CB    978 _CSPPROG11	=	0x61cb
                    61CC    979 _CSPPROG12	=	0x61cc
                    61CD    980 _CSPPROG13	=	0x61cd
                    61CE    981 _CSPPROG14	=	0x61ce
                    61CF    982 _CSPPROG15	=	0x61cf
                    61D0    983 _CSPPROG16	=	0x61d0
                    61D1    984 _CSPPROG17	=	0x61d1
                    61D2    985 _CSPPROG18	=	0x61d2
                    61D3    986 _CSPPROG19	=	0x61d3
                    61D4    987 _CSPPROG20	=	0x61d4
                    61D5    988 _CSPPROG21	=	0x61d5
                    61D6    989 _CSPPROG22	=	0x61d6
                    61D7    990 _CSPPROG23	=	0x61d7
                    61E0    991 _CSPCTRL	=	0x61e0
                    61E1    992 _CSPSTAT	=	0x61e1
                    61E2    993 _CSPX	=	0x61e2
                    61E3    994 _CSPY	=	0x61e3
                    61E4    995 _CSPZ	=	0x61e4
                    61E5    996 _CSPT	=	0x61e5
                    6200    997 _USBADDR	=	0x6200
                    6201    998 _USBPOW	=	0x6201
                    6202    999 _USBIIF	=	0x6202
                    6204   1000 _USBOIF	=	0x6204
                    6206   1001 _USBCIF	=	0x6206
                    6207   1002 _USBIIE	=	0x6207
                    6209   1003 _USBOIE	=	0x6209
                    620B   1004 _USBCIE	=	0x620b
                    620C   1005 _USBFRML	=	0x620c
                    620D   1006 _USBFRMH	=	0x620d
                    620E   1007 _USBINDEX	=	0x620e
                    620F   1008 _USBCTRL	=	0x620f
                    6210   1009 _USBMAXI	=	0x6210
                    6211   1010 _USBCS0	=	0x6211
                    6211   1011 _USBCSIL	=	0x6211
                    6212   1012 _USBCSIH	=	0x6212
                    6213   1013 _USBMAXO	=	0x6213
                    6214   1014 _USBCSOL	=	0x6214
                    6215   1015 _USBCSOH	=	0x6215
                    6216   1016 _USBCNT0	=	0x6216
                    6216   1017 _USBCNTL	=	0x6216
                    6217   1018 _USBCNTH	=	0x6217
                    6220   1019 _USBF0	=	0x6220
                    6222   1020 _USBF1	=	0x6222
                    6224   1021 _USBF2	=	0x6224
                    6226   1022 _USBF3	=	0x6226
                    6228   1023 _USBF4	=	0x6228
                    622A   1024 _USBF5	=	0x622a
                    7080   1025 _X_P0	=	0x7080
                    7086   1026 _X_U0CSR	=	0x7086
                    7089   1027 _X_P0IFG	=	0x7089
                    708A   1028 _X_P1IFG	=	0x708a
                    708B   1029 _X_P2IFG	=	0x708b
                    708C   1030 _X_PICTL	=	0x708c
                    708D   1031 _X_P1IEN	=	0x708d
                    708F   1032 _X_P0INP	=	0x708f
                    7090   1033 _X_P1	=	0x7090
                    7091   1034 _X_RFIRQF1	=	0x7091
                    7093   1035 _X_MPAGE	=	0x7093
                    7093   1036 _X__XPAGE	=	0x7093
                    7094   1037 _X_T2CTRL	=	0x7094
                    7095   1038 _X_ST0	=	0x7095
                    7096   1039 _X_ST1	=	0x7096
                    7097   1040 _X_ST2	=	0x7097
                    709C   1041 _X_T2EVTCFG	=	0x709c
                    709D   1042 _X_SLEEPSTA	=	0x709d
                    709E   1043 _X_CLKCONSTA	=	0x709e
                    709F   1044 _X_FMAP	=	0x709f
                    709F   1045 _X_PSBANK	=	0x709f
                    70A0   1046 _X_P2	=	0x70a0
                    70A1   1047 _X_T2IRQF	=	0x70a1
                    70A2   1048 _X_T2M0	=	0x70a2
                    70A3   1049 _X_T2M1	=	0x70a3
                    70A4   1050 _X_T2MOVF0	=	0x70a4
                    70A5   1051 _X_T2MOVF1	=	0x70a5
                    70A6   1052 _X_T2MOVF2	=	0x70a6
                    70A7   1053 _X_T2IRQM	=	0x70a7
                    70AB   1054 _X_P0IEN	=	0x70ab
                    70AC   1055 _X_P2IEN	=	0x70ac
                    70AD   1056 _X_STLOAD	=	0x70ad
                    70AE   1057 _X_PMUX	=	0x70ae
                    70AF   1058 _X_T1STAT	=	0x70af
                    70B1   1059 _X_ENCDI	=	0x70b1
                    70B2   1060 _X_ENCDO	=	0x70b2
                    70B3   1061 _X_ENCCS	=	0x70b3
                    70B4   1062 _X_ADCCON1	=	0x70b4
                    70B5   1063 _X_ADCCON2	=	0x70b5
                    70B6   1064 _X_ADCCON3	=	0x70b6
                    70BA   1065 _X_ADCL	=	0x70ba
                    70BB   1066 _X_ADCH	=	0x70bb
                    70BC   1067 _X_RNDL	=	0x70bc
                    70BD   1068 _X_RNDH	=	0x70bd
                    70BE   1069 _X_SLEEPCMD	=	0x70be
                    70BF   1070 _X_RFERRF	=	0x70bf
                    70C1   1071 _X_U0DBUF	=	0x70c1
                    70C2   1072 _X_U0BAUD	=	0x70c2
                    70C3   1073 _X_T2MSEL	=	0x70c3
                    70C4   1074 _X_U0UCR	=	0x70c4
                    70C5   1075 _X_U0GCR	=	0x70c5
                    70C6   1076 _X_CLKCONCMD	=	0x70c6
                    70C7   1077 _X_MEMCTR	=	0x70c7
                    70C9   1078 _X_WDCTL	=	0x70c9
                    70CA   1079 _X_T3CNT	=	0x70ca
                    70CB   1080 _X_T3CTL	=	0x70cb
                    70CC   1081 _X_T3CCTL0	=	0x70cc
                    70CD   1082 _X_T3CC0	=	0x70cd
                    70CE   1083 _X_T3CCTL1	=	0x70ce
                    70CF   1084 _X_T3CC1	=	0x70cf
                    70D1   1085 _X_DMAIRQ	=	0x70d1
                    70D2   1086 _X_DMA1CFGL	=	0x70d2
                    70D3   1087 _X_DMA1CFGH	=	0x70d3
                    70D4   1088 _X_DMA0CFGL	=	0x70d4
                    70D5   1089 _X_DMA0CFGH	=	0x70d5
                    70D6   1090 _X_DMAARM	=	0x70d6
                    70D7   1091 _X_DMAREQ	=	0x70d7
                    70D8   1092 _X_TIMIF	=	0x70d8
                    70D9   1093 _X_RFD	=	0x70d9
                    70DA   1094 _X_T1CC0L	=	0x70da
                    70DB   1095 _X_T1CC0H	=	0x70db
                    70DC   1096 _X_T1CC1L	=	0x70dc
                    70DD   1097 _X_T1CC1H	=	0x70dd
                    70DE   1098 _X_T1CC2L	=	0x70de
                    70DF   1099 _X_T1CC2H	=	0x70df
                    70E1   1100 _X_RFST	=	0x70e1
                    70E2   1101 _X_T1CNTL	=	0x70e2
                    70E3   1102 _X_T1CNTH	=	0x70e3
                    70E4   1103 _X_T1CTL	=	0x70e4
                    70E5   1104 _X_T1CCTL0	=	0x70e5
                    70E6   1105 _X_T1CCTL1	=	0x70e6
                    70E7   1106 _X_T1CCTL2	=	0x70e7
                    70E9   1107 _X_RFIRQF0	=	0x70e9
                    70EA   1108 _X_T4CNT	=	0x70ea
                    70EB   1109 _X_T4CTL	=	0x70eb
                    70EC   1110 _X_T4CCTL0	=	0x70ec
                    70ED   1111 _X_T4CC0	=	0x70ed
                    70EE   1112 _X_T4CCTL1	=	0x70ee
                    70EF   1113 _X_T4CC1	=	0x70ef
                    70F1   1114 _X_PERCFG	=	0x70f1
                    70F2   1115 _X_APCFG	=	0x70f2
                    70F3   1116 _X_P0SEL	=	0x70f3
                    70F4   1117 _X_P1SEL	=	0x70f4
                    70F5   1118 _X_P2SEL	=	0x70f5
                    70F6   1119 _X_P1INP	=	0x70f6
                    70F7   1120 _X_P2INP	=	0x70f7
                    70F8   1121 _X_U1CSR	=	0x70f8
                    70F9   1122 _X_U1DBUF	=	0x70f9
                    70FA   1123 _X_U1BAUD	=	0x70fa
                    70FB   1124 _X_U1UCR	=	0x70fb
                    70FC   1125 _X_U1GCR	=	0x70fc
                    70FD   1126 _X_P0DIR	=	0x70fd
                    70FE   1127 _X_P1DIR	=	0x70fe
                    70FF   1128 _X_P2DIR	=	0x70ff
                    7800   1129 _X_INFOPAGE	=	0x7800
                    780C   1130 _X_IEEE_ADDR	=	0x780c
   0000                    1131 _addr:
   0000                    1132 	.ds 16
   0010                    1133 _prefix:
   0010                    1134 	.ds 16
   0020                    1135 _dio:
   0020                    1136 	.ds 87
   0077                    1137 _from:
   0077                    1138 	.ds 16
   0087                    1139 _dao_sender_addr:
   0087                    1140 	.ds 16
   0097                    1141 _dis_output_tmpaddr_1_1:
   0097                    1142 	.ds 16
   00A7                    1143 _dio_output_pos_1_1:
   00A7                    1144 	.ds 2
   00A9                    1145 _dao_input_sequence_1_1:
   00A9                    1146 	.ds 2
   00AB                    1147 _dao_input_instance_id_1_1:
   00AB                    1148 	.ds 1
   00AC                    1149 _dao_input_lifetime_1_1:
   00AC                    1150 	.ds 1
   00AD                    1151 _dao_input_prefixlen_1_1:
   00AD                    1152 	.ds 1
   00AE                    1153 _dao_input_buffer_length_1_1:
   00AE                    1154 	.ds 1
   00AF                    1155 _dao_input_pos_1_1:
   00AF                    1156 	.ds 2
                           1157 ;--------------------------------------------------------
                           1158 ; absolute external ram data
                           1159 ;--------------------------------------------------------
                           1160 	.area XABS    (ABS,XDATA)
                           1161 ;--------------------------------------------------------
                           1162 ; external initialized ram data
                           1163 ;--------------------------------------------------------
                           1164 	.area XISEG   (XDATA)
   0000                    1165 _dao_sequence:
   0000                    1166 	.ds 1
                           1167 	.area HOME    (CODE)
                           1168 	.area GSINIT0 (CODE)
                           1169 	.area GSINIT1 (CODE)
                           1170 	.area GSINIT2 (CODE)
                           1171 	.area GSINIT3 (CODE)
                           1172 	.area GSINIT4 (CODE)
                           1173 	.area GSINIT5 (CODE)
                           1174 	.area GSINIT  (CODE)
                           1175 	.area GSFINAL (CODE)
                           1176 	.area CSEG    (CODE)
                           1177 ;--------------------------------------------------------
                           1178 ; global & static initialisations
                           1179 ;--------------------------------------------------------
                           1180 	.area HOME    (CODE)
                           1181 	.area GSINIT  (CODE)
                           1182 	.area GSFINAL (CODE)
                           1183 	.area GSINIT  (CODE)
                           1184 ;--------------------------------------------------------
                           1185 ; Home
                           1186 ;--------------------------------------------------------
                           1187 	.area HOME    (CODE)
                           1188 	.area HOME    (CODE)
                           1189 ;--------------------------------------------------------
                           1190 ; code
                           1191 ;--------------------------------------------------------
                           1192 	.area BANK1   (CODE)
                           1193 ;------------------------------------------------------------
                           1194 ;Allocation info for local variables in function 'get_global_addr'
                           1195 ;------------------------------------------------------------
                           1196 ;addr                      Allocated to stack - sp -6
                           1197 ;i                         Allocated to registers r3 r4 
                           1198 ;state                     Allocated to registers r7 r2 
                           1199 ;sloc0                     Allocated to stack - sp -3
                           1200 ;sloc1                     Allocated to stack - sp -1
                           1201 ;sloc2                     Allocated to stack - sp +5
                           1202 ;sloc3                     Allocated to stack - sp +8
                           1203 ;------------------------------------------------------------
                           1204 ;	../../../contiki-sensinode//core/net/rpl/rpl-icmp6.c:106: get_global_addr(uip_ipaddr_t *addr)
                           1205 ;	-----------------------------------------
                           1206 ;	 function get_global_addr
                           1207 ;	-----------------------------------------
   0000                    1208 _get_global_addr:
                    0007   1209 	ar7 = 0x07
                    0006   1210 	ar6 = 0x06
                    0005   1211 	ar5 = 0x05
                    0004   1212 	ar4 = 0x04
                    0003   1213 	ar3 = 0x03
                    0002   1214 	ar2 = 0x02
                    0001   1215 	ar1 = 0x01
                    0000   1216 	ar0 = 0x00
   0000 C0 82              1217 	push	dpl
   0002 C0 83              1218 	push	dph
   0004 C0 F0              1219 	push	b
   0006 E5 81              1220 	mov	a,sp
   0008 24 04              1221 	add	a,#0x04
   000A F5 81              1222 	mov	sp,a
                           1223 ;	../../../contiki-sensinode//core/net/rpl/rpl-icmp6.c:111: for(i = 0; i < UIP_DS6_ADDR_NB; i++) {
   000C 7B 00              1224 	mov	r3,#0x00
   000E 7C 00              1225 	mov	r4,#0x00
   0010 A8 81              1226 	mov	r0,sp
   0012 18                 1227 	dec	r0
   0013 E4                 1228 	clr	a
   0014 F6                 1229 	mov	@r0,a
   0015 08                 1230 	inc	r0
   0016 F6                 1231 	mov	@r0,a
   0017 7D 00              1232 	mov	r5,#0x00
   0019 7E 00              1233 	mov	r6,#0x00
   001B                    1234 00108$:
   001B C3                 1235 	clr	c
   001C EB                 1236 	mov	a,r3
   001D 94 03              1237 	subb	a,#0x03
   001F EC                 1238 	mov	a,r4
   0020 64 80              1239 	xrl	a,#0x80
   0022 94 80              1240 	subb	a,#0x80
   0024 40 03              1241 	jc	00124$
   0026 02s01r19           1242 	ljmp	00111$
   0029                    1243 00124$:
                           1244 ;	../../../contiki-sensinode//core/net/rpl/rpl-icmp6.c:112: state = uip_ds6_if.addr_list[i].state;
   0029 C0 03              1245 	push	ar3
   002B C0 04              1246 	push	ar4
   002D E5 81              1247 	mov	a,sp
   002F 24 FB              1248 	add	a,#0xfb
   0031 F8                 1249 	mov	r0,a
   0032 ED                 1250 	mov	a,r5
   0033 24r12              1251 	add	a,#(_uip_ds6_if + 0x0012)
   0035 F6                 1252 	mov	@r0,a
   0036 EE                 1253 	mov	a,r6
   0037 34s00              1254 	addc	a,#((_uip_ds6_if + 0x0012) >> 8)
   0039 08                 1255 	inc	r0
   003A F6                 1256 	mov	@r0,a
   003B E5 81              1257 	mov	a,sp
   003D 24 FB              1258 	add	a,#0xfb
   003F F8                 1259 	mov	r0,a
   0040 74 11              1260 	mov	a,#0x11
   0042 26                 1261 	add	a,@r0
   0043 F5 82              1262 	mov	dpl,a
   0045 E4                 1263 	clr	a
   0046 08                 1264 	inc	r0
   0047 36                 1265 	addc	a,@r0
   0048 F5 83              1266 	mov	dph,a
   004A E0                 1267 	movx	a,@dptr
   004B FF                 1268 	mov	r7,a
   004C 7A 00              1269 	mov	r2,#0x00
                           1270 ;	../../../contiki-sensinode//core/net/rpl/rpl-icmp6.c:113: if(uip_ds6_if.addr_list[i].isused &&
   004E E5 81              1271 	mov	a,sp
   0050 24 FB              1272 	add	a,#0xfb
   0052 F8                 1273 	mov	r0,a
   0053 86 82              1274 	mov	dpl,@r0
   0055 08                 1275 	inc	r0
   0056 86 83              1276 	mov	dph,@r0
   0058 E0                 1277 	movx	a,@dptr
   0059 D0 04              1278 	pop	ar4
   005B D0 03              1279 	pop	ar3
   005D 70 03              1280 	jnz	00125$
   005F 02s00rFF           1281 	ljmp	00110$
   0062                    1282 00125$:
                           1283 ;	../../../contiki-sensinode//core/net/rpl/rpl-icmp6.c:114: (state == ADDR_TENTATIVE || state == ADDR_PREFERRED)) {
   0062 EF                 1284 	mov	a,r7
   0063 4A                 1285 	orl	a,r2
   0064 60 0B              1286 	jz	00104$
   0066 BF 01 05           1287 	cjne	r7,#0x01,00127$
   0069 BA 00 02           1288 	cjne	r2,#0x00,00127$
   006C 80 03              1289 	sjmp	00128$
   006E                    1290 00127$:
   006E 02s00rFF           1291 	ljmp	00110$
   0071                    1292 00128$:
   0071                    1293 00104$:
                           1294 ;	../../../contiki-sensinode//core/net/rpl/rpl-icmp6.c:115: if(!uip_is_addr_link_local(&uip_ds6_if.addr_list[i].ipaddr)) {
   0071 C0 03              1295 	push	ar3
   0073 C0 04              1296 	push	ar4
   0075 E5 81              1297 	mov	a,sp
   0077 24 FD              1298 	add	a,#0xfd
   0079 F8                 1299 	mov	r0,a
   007A E6                 1300 	mov	a,@r0
   007B 24r12              1301 	add	a,#(_uip_ds6_if + 0x0012)
   007D FB                 1302 	mov	r3,a
   007E 08                 1303 	inc	r0
   007F E6                 1304 	mov	a,@r0
   0080 34s00              1305 	addc	a,#((_uip_ds6_if + 0x0012) >> 8)
   0082 FC                 1306 	mov	r4,a
   0083 8B 82              1307 	mov	dpl,r3
   0085 8C 83              1308 	mov	dph,r4
   0087 A3                 1309 	inc	dptr
   0088 E0                 1310 	movx	a,@dptr
   0089 FC                 1311 	mov	r4,a
   008A BC FE 02           1312 	cjne	r4,#0xFE,00129$
   008D 80 06              1313 	sjmp	00130$
   008F                    1314 00129$:
   008F D0 04              1315 	pop	ar4
   0091 D0 03              1316 	pop	ar3
   0093 80 23              1317 	sjmp	00101$
   0095                    1318 00130$:
   0095 E5 81              1319 	mov	a,sp
   0097 24 FD              1320 	add	a,#0xfd
   0099 F8                 1321 	mov	r0,a
   009A E6                 1322 	mov	a,@r0
   009B 24r12              1323 	add	a,#(_uip_ds6_if + 0x0012)
   009D FB                 1324 	mov	r3,a
   009E 08                 1325 	inc	r0
   009F E6                 1326 	mov	a,@r0
   00A0 34s00              1327 	addc	a,#((_uip_ds6_if + 0x0012) >> 8)
   00A2 FC                 1328 	mov	r4,a
   00A3 8B 82              1329 	mov	dpl,r3
   00A5 8C 83              1330 	mov	dph,r4
   00A7 A3                 1331 	inc	dptr
   00A8 A3                 1332 	inc	dptr
   00A9 E0                 1333 	movx	a,@dptr
   00AA FC                 1334 	mov	r4,a
   00AB BC 80 06           1335 	cjne	r4,#0x80,00131$
   00AE D0 04              1336 	pop	ar4
   00B0 D0 03              1337 	pop	ar3
   00B2 80 4B              1338 	sjmp	00110$
   00B4                    1339 00131$:
   00B4 D0 04              1340 	pop	ar4
   00B6 D0 03              1341 	pop	ar3
   00B8                    1342 00101$:
                           1343 ;	../../../contiki-sensinode//core/net/rpl/rpl-icmp6.c:116: memcpy(addr, &uip_ds6_if.addr_list[i].ipaddr, sizeof(uip_ipaddr_t));
   00B8 A8 81              1344 	mov	r0,sp
   00BA 18                 1345 	dec	r0
   00BB E6                 1346 	mov	a,@r0
   00BC 24r12              1347 	add	a,#(_uip_ds6_if + 0x0012)
   00BE FA                 1348 	mov	r2,a
   00BF 08                 1349 	inc	r0
   00C0 E6                 1350 	mov	a,@r0
   00C1 34s00              1351 	addc	a,#((_uip_ds6_if + 0x0012) >> 8)
   00C3 FF                 1352 	mov	r7,a
   00C4 0A                 1353 	inc	r2
   00C5 BA 00 01           1354 	cjne	r2,#0x00,00132$
   00C8 0F                 1355 	inc	r7
   00C9                    1356 00132$:
   00C9 7E 00              1357 	mov	r6,#0x00
   00CB E5 81              1358 	mov	a,sp
   00CD 24 FA              1359 	add	a,#0xfa
   00CF F8                 1360 	mov	r0,a
   00D0 86 05              1361 	mov	ar5,@r0
   00D2 08                 1362 	inc	r0
   00D3 86 04              1363 	mov	ar4,@r0
   00D5 08                 1364 	inc	r0
   00D6 86 03              1365 	mov	ar3,@r0
   00D8 74 10              1366 	mov	a,#0x10
   00DA C0 E0              1367 	push	acc
   00DC E4                 1368 	clr	a
   00DD C0 E0              1369 	push	acc
   00DF C0 02              1370 	push	ar2
   00E1 C0 07              1371 	push	ar7
   00E3 C0 06              1372 	push	ar6
   00E5 8D 82              1373 	mov	dpl,r5
   00E7 8C 83              1374 	mov	dph,r4
   00E9 8B F0              1375 	mov	b,r3
   00EB 78r00              1376 	mov	r0,#_memcpy
   00ED 79s00              1377 	mov	r1,#(_memcpy >> 8)
   00EF 7As00              1378 	mov	r2,#(_memcpy >> 16)
   00F1 12s00r00           1379 	lcall	__sdcc_banked_call
   00F4 E5 81              1380 	mov	a,sp
   00F6 24 FB              1381 	add	a,#0xfb
   00F8 F5 81              1382 	mov	sp,a
                           1383 ;	../../../contiki-sensinode//core/net/rpl/rpl-icmp6.c:117: return 1;
   00FA 90 00 01           1384 	mov	dptr,#0x0001
   00FD 80 1D              1385 	sjmp	00112$
   00FF                    1386 00110$:
                           1387 ;	../../../contiki-sensinode//core/net/rpl/rpl-icmp6.c:111: for(i = 0; i < UIP_DS6_ADDR_NB; i++) {
   00FF A8 81              1388 	mov	r0,sp
   0101 18                 1389 	dec	r0
   0102 74 1C              1390 	mov	a,#0x1C
   0104 26                 1391 	add	a,@r0
   0105 F6                 1392 	mov	@r0,a
   0106 E4                 1393 	clr	a
   0107 08                 1394 	inc	r0
   0108 36                 1395 	addc	a,@r0
   0109 F6                 1396 	mov	@r0,a
   010A 74 1C              1397 	mov	a,#0x1C
   010C 2D                 1398 	add	a,r5
   010D FD                 1399 	mov	r5,a
   010E E4                 1400 	clr	a
   010F 3E                 1401 	addc	a,r6
   0110 FE                 1402 	mov	r6,a
   0111 0B                 1403 	inc	r3
   0112 BB 00 01           1404 	cjne	r3,#0x00,00133$
   0115 0C                 1405 	inc	r4
   0116                    1406 00133$:
   0116 02s00r1B           1407 	ljmp	00108$
   0119                    1408 00111$:
                           1409 ;	../../../contiki-sensinode//core/net/rpl/rpl-icmp6.c:121: return 0;
   0119 90 00 00           1410 	mov	dptr,#0x0000
   011C                    1411 00112$:
   011C E5 81              1412 	mov	a,sp
   011E 24 F9              1413 	add	a,#0xF9
   0120 F5 81              1414 	mov	sp,a
   0122 02s00r00           1415 	ljmp	__sdcc_banked_ret
                           1416 ;------------------------------------------------------------
                           1417 ;Allocation info for local variables in function 'get32'
                           1418 ;------------------------------------------------------------
                           1419 ;pos                       Allocated to stack - sp -11
                           1420 ;buffer                    Allocated to stack - sp -6
                           1421 ;sloc0                     Allocated to stack - sp -3
                           1422 ;------------------------------------------------------------
                           1423 ;	../../../contiki-sensinode//core/net/rpl/rpl-icmp6.c:125: get32(uint8_t *buffer, int pos)
                           1424 ;	-----------------------------------------
                           1425 ;	 function get32
                           1426 ;	-----------------------------------------
   0125                    1427 _get32:
   0125 C0 82              1428 	push	dpl
   0127 C0 83              1429 	push	dph
   0129 C0 F0              1430 	push	b
   012B E5 81              1431 	mov	a,sp
   012D 24 04              1432 	add	a,#0x04
                           1433 ;	../../../contiki-sensinode//core/net/rpl/rpl-icmp6.c:127: return (uint32_t)buffer[pos] << 24 | (uint32_t)buffer[pos + 1] << 16 |
   012F F5 81              1434 	mov	sp,a
   0131 24 FA              1435 	add	a,#0xfa
   0133 F8                 1436 	mov	r0,a
   0134 E5 81              1437 	mov	a,sp
   0136 24 F5              1438 	add	a,#0xf5
   0138 F9                 1439 	mov	r1,a
   0139 E7                 1440 	mov	a,@r1
   013A 26                 1441 	add	a,@r0
   013B FA                 1442 	mov	r2,a
   013C 09                 1443 	inc	r1
   013D E7                 1444 	mov	a,@r1
   013E 08                 1445 	inc	r0
   013F 36                 1446 	addc	a,@r0
   0140 FB                 1447 	mov	r3,a
   0141 08                 1448 	inc	r0
   0142 86 04              1449 	mov	ar4,@r0
   0144 8A 82              1450 	mov	dpl,r2
   0146 8B 83              1451 	mov	dph,r3
   0148 8C F0              1452 	mov	b,r4
   014A 12s00r00           1453 	lcall	__gptrget
   014D FA                 1454 	mov	r2,a
   014E E4                 1455 	clr	a
   014F E5 81              1456 	mov	a,sp
   0151 24 FD              1457 	add	a,#0xfd
   0153 F8                 1458 	mov	r0,a
   0154 08                 1459 	inc	r0
   0155 08                 1460 	inc	r0
   0156 08                 1461 	inc	r0
   0157 A6 02              1462 	mov	@r0,ar2
   0159 18                 1463 	dec	r0
   015A 18                 1464 	dec	r0
   015B 18                 1465 	dec	r0
   015C 76 00              1466 	mov	@r0,#0x00
   015E 08                 1467 	inc	r0
   015F 76 00              1468 	mov	@r0,#0x00
   0161 08                 1469 	inc	r0
   0162 76 00              1470 	mov	@r0,#0x00
   0164 E5 81              1471 	mov	a,sp
   0166 24 F5              1472 	add	a,#0xf5
   0168 F8                 1473 	mov	r0,a
   0169 74 01              1474 	mov	a,#0x01
   016B 26                 1475 	add	a,@r0
   016C FD                 1476 	mov	r5,a
   016D E4                 1477 	clr	a
   016E 08                 1478 	inc	r0
   016F 36                 1479 	addc	a,@r0
   0170 FE                 1480 	mov	r6,a
   0171 E5 81              1481 	mov	a,sp
   0173 24 FA              1482 	add	a,#0xfa
   0175 F8                 1483 	mov	r0,a
   0176 ED                 1484 	mov	a,r5
   0177 26                 1485 	add	a,@r0
   0178 FD                 1486 	mov	r5,a
   0179 EE                 1487 	mov	a,r6
   017A 08                 1488 	inc	r0
   017B 36                 1489 	addc	a,@r0
   017C FE                 1490 	mov	r6,a
   017D 08                 1491 	inc	r0
   017E 86 07              1492 	mov	ar7,@r0
   0180 8D 82              1493 	mov	dpl,r5
   0182 8E 83              1494 	mov	dph,r6
   0184 8F F0              1495 	mov	b,r7
   0186 12s00r00           1496 	lcall	__gptrget
   0189 FD                 1497 	mov	r5,a
   018A 7F 00              1498 	mov	r7,#0x00
   018C 8F 04              1499 	mov	ar4,r7
   018E 8D 06              1500 	mov	ar6,r5
   0190 E4                 1501 	clr	a
   0191 FF                 1502 	mov	r7,a
   0192 FD                 1503 	mov	r5,a
   0193 E5 81              1504 	mov	a,sp
   0195 24 FD              1505 	add	a,#0xfd
   0197 F8                 1506 	mov	r0,a
   0198 ED                 1507 	mov	a,r5
   0199 46                 1508 	orl	a,@r0
   019A F6                 1509 	mov	@r0,a
   019B EF                 1510 	mov	a,r7
   019C 08                 1511 	inc	r0
   019D 46                 1512 	orl	a,@r0
   019E F6                 1513 	mov	@r0,a
   019F EE                 1514 	mov	a,r6
   01A0 08                 1515 	inc	r0
   01A1 46                 1516 	orl	a,@r0
   01A2 F6                 1517 	mov	@r0,a
   01A3 EC                 1518 	mov	a,r4
   01A4 08                 1519 	inc	r0
   01A5 46                 1520 	orl	a,@r0
   01A6 F6                 1521 	mov	@r0,a
                           1522 ;	../../../contiki-sensinode//core/net/rpl/rpl-icmp6.c:128: (uint32_t)buffer[pos + 2] << 8 | buffer[pos + 3];
   01A7 E5 81              1523 	mov	a,sp
   01A9 24 F5              1524 	add	a,#0xf5
   01AB F8                 1525 	mov	r0,a
   01AC 74 02              1526 	mov	a,#0x02
   01AE 26                 1527 	add	a,@r0
   01AF FA                 1528 	mov	r2,a
   01B0 E4                 1529 	clr	a
   01B1 08                 1530 	inc	r0
   01B2 36                 1531 	addc	a,@r0
   01B3 FB                 1532 	mov	r3,a
   01B4 E5 81              1533 	mov	a,sp
   01B6 24 FA              1534 	add	a,#0xfa
   01B8 F8                 1535 	mov	r0,a
   01B9 EA                 1536 	mov	a,r2
   01BA 26                 1537 	add	a,@r0
   01BB FA                 1538 	mov	r2,a
   01BC EB                 1539 	mov	a,r3
   01BD 08                 1540 	inc	r0
   01BE 36                 1541 	addc	a,@r0
   01BF FB                 1542 	mov	r3,a
   01C0 08                 1543 	inc	r0
   01C1 86 07              1544 	mov	ar7,@r0
   01C3 8A 82              1545 	mov	dpl,r2
   01C5 8B 83              1546 	mov	dph,r3
   01C7 8F F0              1547 	mov	b,r7
   01C9 12s00r00           1548 	lcall	__gptrget
   01CC FA                 1549 	mov	r2,a
   01CD 7F 00              1550 	mov	r7,#0x00
   01CF 7E 00              1551 	mov	r6,#0x00
   01D1 8E 05              1552 	mov	ar5,r6
   01D3 8F 06              1553 	mov	ar6,r7
   01D5 8A 07              1554 	mov	ar7,r2
   01D7 7A 00              1555 	mov	r2,#0x00
   01D9 E5 81              1556 	mov	a,sp
   01DB 24 FD              1557 	add	a,#0xfd
   01DD F8                 1558 	mov	r0,a
   01DE EA                 1559 	mov	a,r2
   01DF 46                 1560 	orl	a,@r0
   01E0 F6                 1561 	mov	@r0,a
   01E1 EF                 1562 	mov	a,r7
   01E2 08                 1563 	inc	r0
   01E3 46                 1564 	orl	a,@r0
   01E4 F6                 1565 	mov	@r0,a
   01E5 EE                 1566 	mov	a,r6
   01E6 08                 1567 	inc	r0
   01E7 46                 1568 	orl	a,@r0
   01E8 F6                 1569 	mov	@r0,a
   01E9 ED                 1570 	mov	a,r5
   01EA 08                 1571 	inc	r0
   01EB 46                 1572 	orl	a,@r0
   01EC F6                 1573 	mov	@r0,a
   01ED E5 81              1574 	mov	a,sp
   01EF 24 F5              1575 	add	a,#0xf5
   01F1 F8                 1576 	mov	r0,a
   01F2 74 03              1577 	mov	a,#0x03
   01F4 26                 1578 	add	a,@r0
   01F5 FB                 1579 	mov	r3,a
   01F6 E4                 1580 	clr	a
   01F7 08                 1581 	inc	r0
   01F8 36                 1582 	addc	a,@r0
   01F9 FC                 1583 	mov	r4,a
   01FA E5 81              1584 	mov	a,sp
   01FC 24 FA              1585 	add	a,#0xfa
   01FE F8                 1586 	mov	r0,a
   01FF EB                 1587 	mov	a,r3
   0200 26                 1588 	add	a,@r0
   0201 FB                 1589 	mov	r3,a
   0202 EC                 1590 	mov	a,r4
   0203 08                 1591 	inc	r0
   0204 36                 1592 	addc	a,@r0
   0205 FC                 1593 	mov	r4,a
   0206 08                 1594 	inc	r0
   0207 86 07              1595 	mov	ar7,@r0
   0209 8B 82              1596 	mov	dpl,r3
   020B 8C 83              1597 	mov	dph,r4
   020D 8F F0              1598 	mov	b,r7
   020F 12s00r00           1599 	lcall	__gptrget
   0212 FB                 1600 	mov	r3,a
   0213 E4                 1601 	clr	a
   0214 FF                 1602 	mov	r7,a
   0215 FE                 1603 	mov	r6,a
   0216 FD                 1604 	mov	r5,a
   0217 E5 81              1605 	mov	a,sp
   0219 24 FD              1606 	add	a,#0xfd
   021B F8                 1607 	mov	r0,a
   021C E6                 1608 	mov	a,@r0
   021D 42 03              1609 	orl	ar3,a
   021F 08                 1610 	inc	r0
   0220 E6                 1611 	mov	a,@r0
   0221 42 07              1612 	orl	ar7,a
   0223 08                 1613 	inc	r0
   0224 E6                 1614 	mov	a,@r0
   0225 42 06              1615 	orl	ar6,a
   0227 08                 1616 	inc	r0
   0228 E6                 1617 	mov	a,@r0
   0229 42 05              1618 	orl	ar5,a
   022B 8B 82              1619 	mov	dpl,r3
   022D 8F 83              1620 	mov	dph,r7
   022F 8E F0              1621 	mov	b,r6
   0231 ED                 1622 	mov	a,r5
   0232 C8                 1623 	xch	a,r0
   0233 E5 81              1624 	mov	a,sp
   0235 24 F9              1625 	add	a,#0xF9
   0237 F5 81              1626 	mov	sp,a
   0239 C8                 1627 	xch	a,r0
   023A 02s00r00           1628 	ljmp	__sdcc_banked_ret
                           1629 ;------------------------------------------------------------
                           1630 ;Allocation info for local variables in function 'set32'
                           1631 ;------------------------------------------------------------
                           1632 ;pos                       Allocated to stack - sp -10
                           1633 ;value                     Allocated to stack - sp -14
                           1634 ;buffer                    Allocated to stack - sp -5
                           1635 ;sloc0                     Allocated to stack - sp -2
                           1636 ;------------------------------------------------------------
                           1637 ;	../../../contiki-sensinode//core/net/rpl/rpl-icmp6.c:132: set32(uint8_t *buffer, int pos, uint32_t value)
                           1638 ;	-----------------------------------------
                           1639 ;	 function set32
                           1640 ;	-----------------------------------------
   023D                    1641 _set32:
   023D C0 82              1642 	push	dpl
   023F C0 83              1643 	push	dph
   0241 C0 F0              1644 	push	b
   0243 05 81              1645 	inc	sp
   0245 05 81              1646 	inc	sp
   0247 05 81              1647 	inc	sp
                           1648 ;	../../../contiki-sensinode//core/net/rpl/rpl-icmp6.c:134: buffer[pos++] = value >> 24;
   0249 E5 81              1649 	mov	a,sp
   024B 24 F6              1650 	add	a,#0xf6
   024D F8                 1651 	mov	r0,a
   024E 86 03              1652 	mov	ar3,@r0
   0250 08                 1653 	inc	r0
   0251 86 04              1654 	mov	ar4,@r0
   0253 E5 81              1655 	mov	a,sp
   0255 24 F6              1656 	add	a,#0xf6
   0257 F8                 1657 	mov	r0,a
   0258 74 01              1658 	mov	a,#0x01
   025A 2B                 1659 	add	a,r3
   025B F6                 1660 	mov	@r0,a
   025C E4                 1661 	clr	a
   025D 3C                 1662 	addc	a,r4
   025E 08                 1663 	inc	r0
   025F F6                 1664 	mov	@r0,a
   0260 E5 81              1665 	mov	a,sp
   0262 24 FB              1666 	add	a,#0xfb
   0264 F8                 1667 	mov	r0,a
   0265 EB                 1668 	mov	a,r3
   0266 26                 1669 	add	a,@r0
   0267 FB                 1670 	mov	r3,a
   0268 EC                 1671 	mov	a,r4
   0269 08                 1672 	inc	r0
   026A 36                 1673 	addc	a,@r0
   026B FC                 1674 	mov	r4,a
   026C 08                 1675 	inc	r0
   026D 86 02              1676 	mov	ar2,@r0
   026F E5 81              1677 	mov	a,sp
   0271 24 F2              1678 	add	a,#0xf2
   0273 F8                 1679 	mov	r0,a
   0274 08                 1680 	inc	r0
   0275 08                 1681 	inc	r0
   0276 08                 1682 	inc	r0
   0277 86 07              1683 	mov	ar7,@r0
   0279 8B 82              1684 	mov	dpl,r3
   027B 8C 83              1685 	mov	dph,r4
   027D 8A F0              1686 	mov	b,r2
   027F EF                 1687 	mov	a,r7
   0280 12s00r00           1688 	lcall	__gptrput
                           1689 ;	../../../contiki-sensinode//core/net/rpl/rpl-icmp6.c:135: buffer[pos++] = (value >> 16) & 0xff;
   0283 E5 81              1690 	mov	a,sp
   0285 24 F6              1691 	add	a,#0xf6
   0287 F8                 1692 	mov	r0,a
   0288 86 06              1693 	mov	ar6,@r0
   028A 08                 1694 	inc	r0
   028B 86 07              1695 	mov	ar7,@r0
   028D E5 81              1696 	mov	a,sp
   028F 24 F6              1697 	add	a,#0xf6
   0291 F8                 1698 	mov	r0,a
   0292 74 01              1699 	mov	a,#0x01
   0294 2E                 1700 	add	a,r6
   0295 F6                 1701 	mov	@r0,a
   0296 E4                 1702 	clr	a
   0297 3F                 1703 	addc	a,r7
   0298 08                 1704 	inc	r0
   0299 F6                 1705 	mov	@r0,a
   029A E5 81              1706 	mov	a,sp
   029C 24 FB              1707 	add	a,#0xfb
   029E F8                 1708 	mov	r0,a
   029F EE                 1709 	mov	a,r6
   02A0 26                 1710 	add	a,@r0
   02A1 FE                 1711 	mov	r6,a
   02A2 EF                 1712 	mov	a,r7
   02A3 08                 1713 	inc	r0
   02A4 36                 1714 	addc	a,@r0
   02A5 FF                 1715 	mov	r7,a
   02A6 08                 1716 	inc	r0
   02A7 86 05              1717 	mov	ar5,@r0
   02A9 E5 81              1718 	mov	a,sp
   02AB 24 F2              1719 	add	a,#0xf2
   02AD F8                 1720 	mov	r0,a
   02AE 08                 1721 	inc	r0
   02AF 08                 1722 	inc	r0
   02B0 86 04              1723 	mov	ar4,@r0
   02B2 8E 82              1724 	mov	dpl,r6
   02B4 8F 83              1725 	mov	dph,r7
   02B6 8D F0              1726 	mov	b,r5
   02B8 EC                 1727 	mov	a,r4
   02B9 12s00r00           1728 	lcall	__gptrput
                           1729 ;	../../../contiki-sensinode//core/net/rpl/rpl-icmp6.c:136: buffer[pos++] = (value >> 8) & 0xff;
   02BC E5 81              1730 	mov	a,sp
   02BE 24 F6              1731 	add	a,#0xf6
   02C0 F8                 1732 	mov	r0,a
   02C1 86 06              1733 	mov	ar6,@r0
   02C3 08                 1734 	inc	r0
   02C4 86 07              1735 	mov	ar7,@r0
   02C6 E5 81              1736 	mov	a,sp
   02C8 24 F6              1737 	add	a,#0xf6
   02CA F8                 1738 	mov	r0,a
   02CB 74 01              1739 	mov	a,#0x01
   02CD 2E                 1740 	add	a,r6
   02CE F6                 1741 	mov	@r0,a
   02CF E4                 1742 	clr	a
   02D0 3F                 1743 	addc	a,r7
   02D1 08                 1744 	inc	r0
   02D2 F6                 1745 	mov	@r0,a
   02D3 E5 81              1746 	mov	a,sp
   02D5 24 FB              1747 	add	a,#0xfb
   02D7 F8                 1748 	mov	r0,a
   02D8 EE                 1749 	mov	a,r6
   02D9 26                 1750 	add	a,@r0
   02DA FE                 1751 	mov	r6,a
   02DB EF                 1752 	mov	a,r7
   02DC 08                 1753 	inc	r0
   02DD 36                 1754 	addc	a,@r0
   02DE FF                 1755 	mov	r7,a
   02DF 08                 1756 	inc	r0
   02E0 86 05              1757 	mov	ar5,@r0
   02E2 E5 81              1758 	mov	a,sp
   02E4 24 F2              1759 	add	a,#0xf2
   02E6 F8                 1760 	mov	r0,a
   02E7 08                 1761 	inc	r0
   02E8 86 04              1762 	mov	ar4,@r0
   02EA 8E 82              1763 	mov	dpl,r6
   02EC 8F 83              1764 	mov	dph,r7
   02EE 8D F0              1765 	mov	b,r5
   02F0 EC                 1766 	mov	a,r4
   02F1 12s00r00           1767 	lcall	__gptrput
                           1768 ;	../../../contiki-sensinode//core/net/rpl/rpl-icmp6.c:137: buffer[pos++] = value & 0xff;
   02F4 E5 81              1769 	mov	a,sp
   02F6 24 F6              1770 	add	a,#0xf6
   02F8 F8                 1771 	mov	r0,a
   02F9 86 06              1772 	mov	ar6,@r0
   02FB 08                 1773 	inc	r0
   02FC 86 07              1774 	mov	ar7,@r0
   02FE E5 81              1775 	mov	a,sp
   0300 24 FB              1776 	add	a,#0xfb
   0302 F8                 1777 	mov	r0,a
   0303 A9 81              1778 	mov	r1,sp
   0305 19                 1779 	dec	r1
   0306 19                 1780 	dec	r1
   0307 EE                 1781 	mov	a,r6
   0308 26                 1782 	add	a,@r0
   0309 F7                 1783 	mov	@r1,a
   030A EF                 1784 	mov	a,r7
   030B 08                 1785 	inc	r0
   030C 36                 1786 	addc	a,@r0
   030D 09                 1787 	inc	r1
   030E F7                 1788 	mov	@r1,a
   030F 08                 1789 	inc	r0
   0310 09                 1790 	inc	r1
   0311 E6                 1791 	mov	a,@r0
   0312 F7                 1792 	mov	@r1,a
   0313 E5 81              1793 	mov	a,sp
   0315 24 F2              1794 	add	a,#0xf2
   0317 F8                 1795 	mov	r0,a
   0318 86 02              1796 	mov	ar2,@r0
   031A 7B 00              1797 	mov	r3,#0x00
   031C 7C 00              1798 	mov	r4,#0x00
   031E 7F 00              1799 	mov	r7,#0x00
   0320 A8 81              1800 	mov	r0,sp
   0322 18                 1801 	dec	r0
   0323 18                 1802 	dec	r0
   0324 86 82              1803 	mov	dpl,@r0
   0326 08                 1804 	inc	r0
   0327 86 83              1805 	mov	dph,@r0
   0329 08                 1806 	inc	r0
   032A 86 F0              1807 	mov	b,@r0
   032C EA                 1808 	mov	a,r2
   032D 12s00r00           1809 	lcall	__gptrput
   0330 E5 81              1810 	mov	a,sp
   0332 24 FA              1811 	add	a,#0xFA
   0334 F5 81              1812 	mov	sp,a
   0336 02s00r00           1813 	ljmp	__sdcc_banked_ret
                           1814 ;------------------------------------------------------------
                           1815 ;Allocation info for local variables in function 'get16'
                           1816 ;------------------------------------------------------------
                           1817 ;pos                       Allocated to stack - sp -7
                           1818 ;buffer                    Allocated to stack - sp -2
                           1819 ;------------------------------------------------------------
                           1820 ;	../../../contiki-sensinode//core/net/rpl/rpl-icmp6.c:141: get16(uint8_t *buffer, int pos)
                           1821 ;	-----------------------------------------
                           1822 ;	 function get16
                           1823 ;	-----------------------------------------
   0339                    1824 _get16:
   0339 C0 82              1825 	push	dpl
   033B C0 83              1826 	push	dph
   033D C0 F0              1827 	push	b
                           1828 ;	../../../contiki-sensinode//core/net/rpl/rpl-icmp6.c:143: return (uint16_t)buffer[pos] << 8 | buffer[pos + 1];
   033F A8 81              1829 	mov	r0,sp
   0341 18                 1830 	dec	r0
   0342 18                 1831 	dec	r0
   0343 E5 81              1832 	mov	a,sp
   0345 24 F9              1833 	add	a,#0xf9
   0347 F9                 1834 	mov	r1,a
   0348 E7                 1835 	mov	a,@r1
   0349 26                 1836 	add	a,@r0
   034A FA                 1837 	mov	r2,a
   034B 09                 1838 	inc	r1
   034C E7                 1839 	mov	a,@r1
   034D 08                 1840 	inc	r0
   034E 36                 1841 	addc	a,@r0
   034F FB                 1842 	mov	r3,a
   0350 08                 1843 	inc	r0
   0351 86 04              1844 	mov	ar4,@r0
   0353 8A 82              1845 	mov	dpl,r2
   0355 8B 83              1846 	mov	dph,r3
   0357 8C F0              1847 	mov	b,r4
   0359 12s00r00           1848 	lcall	__gptrget
   035C FC                 1849 	mov	r4,a
   035D 7A 00              1850 	mov	r2,#0x00
   035F E5 81              1851 	mov	a,sp
   0361 24 F9              1852 	add	a,#0xf9
   0363 F8                 1853 	mov	r0,a
   0364 74 01              1854 	mov	a,#0x01
   0366 26                 1855 	add	a,@r0
   0367 FB                 1856 	mov	r3,a
   0368 E4                 1857 	clr	a
   0369 08                 1858 	inc	r0
   036A 36                 1859 	addc	a,@r0
   036B FF                 1860 	mov	r7,a
   036C A8 81              1861 	mov	r0,sp
   036E 18                 1862 	dec	r0
   036F 18                 1863 	dec	r0
   0370 EB                 1864 	mov	a,r3
   0371 26                 1865 	add	a,@r0
   0372 FB                 1866 	mov	r3,a
   0373 EF                 1867 	mov	a,r7
   0374 08                 1868 	inc	r0
   0375 36                 1869 	addc	a,@r0
   0376 FF                 1870 	mov	r7,a
   0377 08                 1871 	inc	r0
   0378 86 06              1872 	mov	ar6,@r0
   037A 8B 82              1873 	mov	dpl,r3
   037C 8F 83              1874 	mov	dph,r7
   037E 8E F0              1875 	mov	b,r6
   0380 12s00r00           1876 	lcall	__gptrget
   0383 FB                 1877 	mov	r3,a
   0384 7F 00              1878 	mov	r7,#0x00
   0386 42 02              1879 	orl	ar2,a
   0388 EF                 1880 	mov	a,r7
   0389 42 04              1881 	orl	ar4,a
   038B 8A 82              1882 	mov	dpl,r2
   038D 8C 83              1883 	mov	dph,r4
   038F 15 81              1884 	dec	sp
   0391 15 81              1885 	dec	sp
   0393 15 81              1886 	dec	sp
   0395 02s00r00           1887 	ljmp	__sdcc_banked_ret
                           1888 ;------------------------------------------------------------
                           1889 ;Allocation info for local variables in function 'set16'
                           1890 ;------------------------------------------------------------
                           1891 ;pos                       Allocated to stack - sp -7
                           1892 ;value                     Allocated to stack - sp -9
                           1893 ;buffer                    Allocated to stack - sp -2
                           1894 ;------------------------------------------------------------
                           1895 ;	../../../contiki-sensinode//core/net/rpl/rpl-icmp6.c:147: set16(uint8_t *buffer, int pos, uint16_t value)
                           1896 ;	-----------------------------------------
                           1897 ;	 function set16
                           1898 ;	-----------------------------------------
   0398                    1899 _set16:
   0398 C0 82              1900 	push	dpl
   039A C0 83              1901 	push	dph
   039C C0 F0              1902 	push	b
                           1903 ;	../../../contiki-sensinode//core/net/rpl/rpl-icmp6.c:149: buffer[pos++] = value >> 8;
   039E E5 81              1904 	mov	a,sp
   03A0 24 F9              1905 	add	a,#0xf9
   03A2 F8                 1906 	mov	r0,a
   03A3 86 03              1907 	mov	ar3,@r0
   03A5 08                 1908 	inc	r0
   03A6 86 04              1909 	mov	ar4,@r0
   03A8 E5 81              1910 	mov	a,sp
   03AA 24 F9              1911 	add	a,#0xf9
   03AC F8                 1912 	mov	r0,a
   03AD 74 01              1913 	mov	a,#0x01
   03AF 2B                 1914 	add	a,r3
   03B0 F6                 1915 	mov	@r0,a
   03B1 E4                 1916 	clr	a
   03B2 3C                 1917 	addc	a,r4
   03B3 08                 1918 	inc	r0
   03B4 F6                 1919 	mov	@r0,a
   03B5 A8 81              1920 	mov	r0,sp
   03B7 18                 1921 	dec	r0
   03B8 18                 1922 	dec	r0
   03B9 EB                 1923 	mov	a,r3
   03BA 26                 1924 	add	a,@r0
   03BB FB                 1925 	mov	r3,a
   03BC EC                 1926 	mov	a,r4
   03BD 08                 1927 	inc	r0
   03BE 36                 1928 	addc	a,@r0
   03BF FC                 1929 	mov	r4,a
   03C0 08                 1930 	inc	r0
   03C1 86 02              1931 	mov	ar2,@r0
   03C3 E5 81              1932 	mov	a,sp
   03C5 24 F7              1933 	add	a,#0xf7
   03C7 F8                 1934 	mov	r0,a
   03C8 08                 1935 	inc	r0
   03C9 86 07              1936 	mov	ar7,@r0
   03CB 8B 82              1937 	mov	dpl,r3
   03CD 8C 83              1938 	mov	dph,r4
   03CF 8A F0              1939 	mov	b,r2
   03D1 EF                 1940 	mov	a,r7
   03D2 12s00r00           1941 	lcall	__gptrput
                           1942 ;	../../../contiki-sensinode//core/net/rpl/rpl-icmp6.c:150: buffer[pos++] = value & 0xff;
   03D5 E5 81              1943 	mov	a,sp
   03D7 24 F9              1944 	add	a,#0xf9
   03D9 F8                 1945 	mov	r0,a
   03DA 86 06              1946 	mov	ar6,@r0
   03DC 08                 1947 	inc	r0
   03DD 86 07              1948 	mov	ar7,@r0
   03DF A8 81              1949 	mov	r0,sp
   03E1 18                 1950 	dec	r0
   03E2 18                 1951 	dec	r0
   03E3 EE                 1952 	mov	a,r6
   03E4 26                 1953 	add	a,@r0
   03E5 FE                 1954 	mov	r6,a
   03E6 EF                 1955 	mov	a,r7
   03E7 08                 1956 	inc	r0
   03E8 36                 1957 	addc	a,@r0
   03E9 FF                 1958 	mov	r7,a
   03EA 08                 1959 	inc	r0
   03EB 86 05              1960 	mov	ar5,@r0
   03ED E5 81              1961 	mov	a,sp
   03EF 24 F7              1962 	add	a,#0xf7
   03F1 F8                 1963 	mov	r0,a
   03F2 86 03              1964 	mov	ar3,@r0
   03F4 7C 00              1965 	mov	r4,#0x00
   03F6 8E 82              1966 	mov	dpl,r6
   03F8 8F 83              1967 	mov	dph,r7
   03FA 8D F0              1968 	mov	b,r5
   03FC EB                 1969 	mov	a,r3
   03FD 12s00r00           1970 	lcall	__gptrput
   0400 15 81              1971 	dec	sp
   0402 15 81              1972 	dec	sp
   0404 15 81              1973 	dec	sp
   0406 02s00r00           1974 	ljmp	__sdcc_banked_ret
                           1975 ;------------------------------------------------------------
                           1976 ;Allocation info for local variables in function 'dis_input'
                           1977 ;------------------------------------------------------------
                           1978 ;instance                  Allocated to registers 
                           1979 ;end                       Allocated to registers 
                           1980 ;------------------------------------------------------------
                           1981 ;	../../../contiki-sensinode//core/net/rpl/rpl-icmp6.c:154: dis_input(void)
                           1982 ;	-----------------------------------------
                           1983 ;	 function dis_input
                           1984 ;	-----------------------------------------
   0409                    1985 _dis_input:
                           1986 ;	../../../contiki-sensinode//core/net/rpl/rpl-icmp6.c:164: for(instance = &instance_table[0], end = instance + RPL_MAX_INSTANCES; instance < end; ++instance) {
   0409 7Dr00              1987 	mov	r5,#_instance_table
   040B 7Es00              1988 	mov	r6,#(_instance_table >> 8)
   040D 7F 00              1989 	mov	r7,#0x00
   040F                    1990 00106$:
   040F 74rC5              1991 	mov	a,#(_instance_table + 0x00c5)
   0411 C0 E0              1992 	push	acc
   0413 74s00              1993 	mov	a,#((_instance_table + 0x00c5) >> 8)
   0415 C0 E0              1994 	push	acc
   0417 E4                 1995 	clr	a
   0418 C0 E0              1996 	push	acc
   041A 8D 82              1997 	mov	dpl,r5
   041C 8E 83              1998 	mov	dph,r6
   041E 8F F0              1999 	mov	b,r7
   0420 12s00r00           2000 	lcall	___gptr_cmp
   0423 15 81              2001 	dec	sp
   0425 15 81              2002 	dec	sp
   0427 15 81              2003 	dec	sp
   0429 40 03              2004 	jc	00121$
   042B 02s04rB1           2005 	ljmp	00110$
   042E                    2006 00121$:
                           2007 ;	../../../contiki-sensinode//core/net/rpl/rpl-icmp6.c:165: if(instance->used == 1) {
   042E 74 87              2008 	mov	a,#0x87
   0430 2D                 2009 	add	a,r5
   0431 FA                 2010 	mov	r2,a
   0432 E4                 2011 	clr	a
   0433 3E                 2012 	addc	a,r6
   0434 FB                 2013 	mov	r3,a
   0435 8F 04              2014 	mov	ar4,r7
   0437 8A 82              2015 	mov	dpl,r2
   0439 8B 83              2016 	mov	dph,r3
   043B 8C F0              2017 	mov	b,r4
   043D 12s00r00           2018 	lcall	__gptrget
   0440 FA                 2019 	mov	r2,a
   0441 BA 01 63           2020 	cjne	r2,#0x01,00108$
                           2021 ;	../../../contiki-sensinode//core/net/rpl/rpl-icmp6.c:169: if(uip_is_addr_mcast(&UIP_IP_BUF->destipaddr)) {
   0444 7Br00              2022 	mov	r3,#_uip_aligned_buf
   0446 7Cs00              2023 	mov	r4,#(_uip_aligned_buf >> 8)
   0448 74 18              2024 	mov	a,#0x18
   044A 2B                 2025 	add	a,r3
   044B F5 82              2026 	mov	dpl,a
   044D E4                 2027 	clr	a
   044E 3C                 2028 	addc	a,r4
   044F F5 83              2029 	mov	dph,a
   0451 E0                 2030 	movx	a,@dptr
   0452 FC                 2031 	mov	r4,a
   0453 BC FF 1D           2032 	cjne	r4,#0xFF,00102$
                           2033 ;	../../../contiki-sensinode//core/net/rpl/rpl-icmp6.c:171: rpl_reset_dio_timer(instance);
   0456 8D 82              2034 	mov	dpl,r5
   0458 8E 83              2035 	mov	dph,r6
   045A 8F F0              2036 	mov	b,r7
   045C C0 07              2037 	push	ar7
   045E C0 06              2038 	push	ar6
   0460 C0 05              2039 	push	ar5
   0462 78r00              2040 	mov	r0,#_rpl_reset_dio_timer
   0464 79s00              2041 	mov	r1,#(_rpl_reset_dio_timer >> 8)
   0466 7As00              2042 	mov	r2,#(_rpl_reset_dio_timer >> 16)
   0468 12s00r00           2043 	lcall	__sdcc_banked_call
   046B D0 05              2044 	pop	ar5
   046D D0 06              2045 	pop	ar6
   046F D0 07              2046 	pop	ar7
   0471 80 34              2047 	sjmp	00108$
   0473                    2048 00102$:
                           2049 ;	../../../contiki-sensinode//core/net/rpl/rpl-icmp6.c:175: dio_output(instance, &UIP_IP_BUF->srcipaddr);
   0473 7Br00              2050 	mov	r3,#_uip_aligned_buf
   0475 7Cs00              2051 	mov	r4,#(_uip_aligned_buf >> 8)
   0477 74 08              2052 	mov	a,#0x08
   0479 2B                 2053 	add	a,r3
   047A FB                 2054 	mov	r3,a
   047B E4                 2055 	clr	a
   047C 3C                 2056 	addc	a,r4
   047D FC                 2057 	mov	r4,a
   047E 7A 00              2058 	mov	r2,#0x00
   0480 C0 07              2059 	push	ar7
   0482 C0 06              2060 	push	ar6
   0484 C0 05              2061 	push	ar5
   0486 C0 03              2062 	push	ar3
   0488 C0 04              2063 	push	ar4
   048A C0 02              2064 	push	ar2
   048C 8D 82              2065 	mov	dpl,r5
   048E 8E 83              2066 	mov	dph,r6
   0490 8F F0              2067 	mov	b,r7
   0492 78rEE              2068 	mov	r0,#_dio_output
   0494 79s0D              2069 	mov	r1,#(_dio_output >> 8)
   0496 7As00              2070 	mov	r2,#(_dio_output >> 16)
   0498 12s00r00           2071 	lcall	__sdcc_banked_call
   049B 15 81              2072 	dec	sp
   049D 15 81              2073 	dec	sp
   049F 15 81              2074 	dec	sp
   04A1 D0 05              2075 	pop	ar5
   04A3 D0 06              2076 	pop	ar6
   04A5 D0 07              2077 	pop	ar7
   04A7                    2078 00108$:
                           2079 ;	../../../contiki-sensinode//core/net/rpl/rpl-icmp6.c:164: for(instance = &instance_table[0], end = instance + RPL_MAX_INSTANCES; instance < end; ++instance) {
   04A7 74 C5              2080 	mov	a,#0xC5
   04A9 2D                 2081 	add	a,r5
   04AA FD                 2082 	mov	r5,a
   04AB E4                 2083 	clr	a
   04AC 3E                 2084 	addc	a,r6
   04AD FE                 2085 	mov	r6,a
   04AE 02s04r0F           2086 	ljmp	00106$
   04B1                    2087 00110$:
   04B1 02s00r00           2088 	ljmp	__sdcc_banked_ret
                           2089 ;------------------------------------------------------------
                           2090 ;Allocation info for local variables in function 'dis_output'
                           2091 ;------------------------------------------------------------
                           2092 ;addr                      Allocated to stack - sp -2
                           2093 ;buffer                    Allocated to registers r4 r3 r2 
                           2094 ;tmpaddr                   Allocated with name '_dis_output_tmpaddr_1_1'
                           2095 ;------------------------------------------------------------
                           2096 ;	../../../contiki-sensinode//core/net/rpl/rpl-icmp6.c:182: dis_output(uip_ipaddr_t *addr)
                           2097 ;	-----------------------------------------
                           2098 ;	 function dis_output
                           2099 ;	-----------------------------------------
   04B4                    2100 _dis_output:
   04B4 C0 82              2101 	push	dpl
   04B6 C0 83              2102 	push	dph
   04B8 C0 F0              2103 	push	b
                           2104 ;	../../../contiki-sensinode//core/net/rpl/rpl-icmp6.c:194: buffer = UIP_ICMP_PAYLOAD;
   04BA 90s00r00           2105 	mov	dptr,#_uip_ext_len
   04BD E0                 2106 	movx	a,@dptr
   04BE FC                 2107 	mov	r4,a
   04BF 7B 00              2108 	mov	r3,#0x00
   04C1 74 2C              2109 	mov	a,#0x2C
   04C3 2C                 2110 	add	a,r4
   04C4 FC                 2111 	mov	r4,a
   04C5 E4                 2112 	clr	a
   04C6 3B                 2113 	addc	a,r3
   04C7 FB                 2114 	mov	r3,a
   04C8 EC                 2115 	mov	a,r4
   04C9 24r00              2116 	add	a,#_uip_aligned_buf
   04CB FC                 2117 	mov	r4,a
   04CC EB                 2118 	mov	a,r3
   04CD 34s00              2119 	addc	a,#(_uip_aligned_buf >> 8)
   04CF FB                 2120 	mov	r3,a
   04D0 7A 00              2121 	mov	r2,#0x00
                           2122 ;	../../../contiki-sensinode//core/net/rpl/rpl-icmp6.c:195: buffer[0] = buffer[1] = 0;
   04D2 74 01              2123 	mov	a,#0x01
   04D4 2C                 2124 	add	a,r4
   04D5 FD                 2125 	mov	r5,a
   04D6 E4                 2126 	clr	a
   04D7 3B                 2127 	addc	a,r3
   04D8 FE                 2128 	mov	r6,a
   04D9 8A 07              2129 	mov	ar7,r2
   04DB 8D 82              2130 	mov	dpl,r5
   04DD 8E 83              2131 	mov	dph,r6
   04DF 8F F0              2132 	mov	b,r7
   04E1 E4                 2133 	clr	a
   04E2 12s00r00           2134 	lcall	__gptrput
   04E5 8C 82              2135 	mov	dpl,r4
   04E7 8B 83              2136 	mov	dph,r3
   04E9 8A F0              2137 	mov	b,r2
   04EB E4                 2138 	clr	a
   04EC 12s00r00           2139 	lcall	__gptrput
                           2140 ;	../../../contiki-sensinode//core/net/rpl/rpl-icmp6.c:197: if(addr == NULL) {
   04EF A8 81              2141 	mov	r0,sp
   04F1 18                 2142 	dec	r0
   04F2 18                 2143 	dec	r0
   04F3 E6                 2144 	mov	a,@r0
   04F4 08                 2145 	inc	r0
   04F5 46                 2146 	orl	a,@r0
   04F6 70 48              2147 	jnz	00105$
                           2148 ;	../../../contiki-sensinode//core/net/rpl/rpl-icmp6.c:198: uip_create_linklocal_rplnodes_mcast(&tmpaddr);
   04F8 90s00r97           2149 	mov	dptr,#_dis_output_tmpaddr_1_1
   04FB 74 FF              2150 	mov	a,#0xFF
   04FD F0                 2151 	movx	@dptr,a
   04FE A3                 2152 	inc	dptr
   04FF 74 02              2153 	mov	a,#0x02
   0501 F0                 2154 	movx	@dptr,a
   0502 90s00r99           2155 	mov	dptr,#(_dis_output_tmpaddr_1_1 + 0x0002)
   0505 E4                 2156 	clr	a
   0506 F0                 2157 	movx	@dptr,a
   0507 A3                 2158 	inc	dptr
   0508 F0                 2159 	movx	@dptr,a
   0509 90s00r9B           2160 	mov	dptr,#(_dis_output_tmpaddr_1_1 + 0x0004)
   050C F0                 2161 	movx	@dptr,a
   050D A3                 2162 	inc	dptr
   050E E4                 2163 	clr	a
   050F F0                 2164 	movx	@dptr,a
   0510 90s00r9D           2165 	mov	dptr,#(_dis_output_tmpaddr_1_1 + 0x0006)
   0513 F0                 2166 	movx	@dptr,a
   0514 A3                 2167 	inc	dptr
   0515 E4                 2168 	clr	a
   0516 F0                 2169 	movx	@dptr,a
   0517 90s00r9F           2170 	mov	dptr,#(_dis_output_tmpaddr_1_1 + 0x0008)
   051A F0                 2171 	movx	@dptr,a
   051B A3                 2172 	inc	dptr
   051C E4                 2173 	clr	a
   051D F0                 2174 	movx	@dptr,a
   051E 90s00rA1           2175 	mov	dptr,#(_dis_output_tmpaddr_1_1 + 0x000a)
   0521 F0                 2176 	movx	@dptr,a
   0522 A3                 2177 	inc	dptr
   0523 E4                 2178 	clr	a
   0524 F0                 2179 	movx	@dptr,a
   0525 90s00rA3           2180 	mov	dptr,#(_dis_output_tmpaddr_1_1 + 0x000c)
   0528 F0                 2181 	movx	@dptr,a
   0529 A3                 2182 	inc	dptr
   052A E4                 2183 	clr	a
   052B F0                 2184 	movx	@dptr,a
   052C 90s00rA5           2185 	mov	dptr,#(_dis_output_tmpaddr_1_1 + 0x000e)
   052F F0                 2186 	movx	@dptr,a
   0530 A3                 2187 	inc	dptr
   0531 74 1A              2188 	mov	a,#0x1A
   0533 F0                 2189 	movx	@dptr,a
                           2190 ;	../../../contiki-sensinode//core/net/rpl/rpl-icmp6.c:199: addr = &tmpaddr;
   0534 A8 81              2191 	mov	r0,sp
   0536 18                 2192 	dec	r0
   0537 18                 2193 	dec	r0
   0538 76r97              2194 	mov	@r0,#_dis_output_tmpaddr_1_1
   053A 08                 2195 	inc	r0
   053B 76s00              2196 	mov	@r0,#(_dis_output_tmpaddr_1_1 >> 8)
   053D 08                 2197 	inc	r0
   053E 76 00              2198 	mov	@r0,#0x00
   0540                    2199 00105$:
                           2200 ;	../../../contiki-sensinode//core/net/rpl/rpl-icmp6.c:206: uip_icmp6_send(addr, ICMP6_RPL, RPL_CODE_DIS, 2);
   0540 74 02              2201 	mov	a,#0x02
   0542 C0 E0              2202 	push	acc
   0544 E4                 2203 	clr	a
   0545 C0 E0              2204 	push	acc
   0547 74 9B              2205 	mov	a,#0x9B
   0549 C0 E0              2206 	push	acc
   054B E5 81              2207 	mov	a,sp
   054D 24 FB              2208 	add	a,#0xfb
   054F F8                 2209 	mov	r0,a
   0550 86 82              2210 	mov	dpl,@r0
   0552 08                 2211 	inc	r0
   0553 86 83              2212 	mov	dph,@r0
   0555 08                 2213 	inc	r0
   0556 86 F0              2214 	mov	b,@r0
   0558 78r00              2215 	mov	r0,#_uip_icmp6_send
   055A 79s00              2216 	mov	r1,#(_uip_icmp6_send >> 8)
   055C 7As00              2217 	mov	r2,#(_uip_icmp6_send >> 16)
   055E 12s00r00           2218 	lcall	__sdcc_banked_call
   0561 15 81              2219 	dec	sp
   0563 15 81              2220 	dec	sp
   0565 15 81              2221 	dec	sp
   0567 15 81              2222 	dec	sp
   0569 15 81              2223 	dec	sp
   056B 15 81              2224 	dec	sp
   056D 02s00r00           2225 	ljmp	__sdcc_banked_ret
                           2226 ;------------------------------------------------------------
                           2227 ;Allocation info for local variables in function 'dio_input'
                           2228 ;------------------------------------------------------------
                           2229 ;buffer                    Allocated to stack - sp -7
                           2230 ;buffer_length             Allocated to stack - sp -4
                           2231 ;subopt_type               Allocated to registers r7 
                           2232 ;i                         Allocated to stack - sp -3
                           2233 ;len                       Allocated to stack - sp -1
                           2234 ;nbr                       Allocated to registers r2 r3 r4 
                           2235 ;------------------------------------------------------------
                           2236 ;	../../../contiki-sensinode//core/net/rpl/rpl-icmp6.c:210: dio_input(void)
                           2237 ;	-----------------------------------------
                           2238 ;	 function dio_input
                           2239 ;	-----------------------------------------
   0570                    2240 _dio_input:
   0570 E5 81              2241 	mov	a,sp
   0572 24 08              2242 	add	a,#0x08
   0574 F5 81              2243 	mov	sp,a
                           2244 ;	../../../contiki-sensinode//core/net/rpl/rpl-icmp6.c:219: memset(&dio, 0, sizeof(dio));
   0576 74 57              2245 	mov	a,#0x57
   0578 C0 E0              2246 	push	acc
   057A E4                 2247 	clr	a
   057B C0 E0              2248 	push	acc
   057D E4                 2249 	clr	a
   057E C0 E0              2250 	push	acc
   0580 90s00r20           2251 	mov	dptr,#_dio
   0583 75 F0 00           2252 	mov	b,#0x00
   0586 78r00              2253 	mov	r0,#_memset
   0588 79s00              2254 	mov	r1,#(_memset >> 8)
   058A 7As00              2255 	mov	r2,#(_memset >> 16)
   058C 12s00r00           2256 	lcall	__sdcc_banked_call
   058F 15 81              2257 	dec	sp
   0591 15 81              2258 	dec	sp
   0593 15 81              2259 	dec	sp
                           2260 ;	../../../contiki-sensinode//core/net/rpl/rpl-icmp6.c:222: dio.dag_intdoubl = RPL_DIO_INTERVAL_DOUBLINGS;
   0595 90s00r3A           2261 	mov	dptr,#(_dio + 0x001a)
   0598 74 08              2262 	mov	a,#0x08
   059A F0                 2263 	movx	@dptr,a
                           2264 ;	../../../contiki-sensinode//core/net/rpl/rpl-icmp6.c:223: dio.dag_intmin = RPL_DIO_INTERVAL_MIN;
   059B 90s00r3B           2265 	mov	dptr,#(_dio + 0x001b)
   059E 74 0C              2266 	mov	a,#0x0C
   05A0 F0                 2267 	movx	@dptr,a
                           2268 ;	../../../contiki-sensinode//core/net/rpl/rpl-icmp6.c:224: dio.dag_redund = RPL_DIO_REDUNDANCY;
   05A1 90s00r3C           2269 	mov	dptr,#(_dio + 0x001c)
   05A4 74 0A              2270 	mov	a,#0x0A
   05A6 F0                 2271 	movx	@dptr,a
                           2272 ;	../../../contiki-sensinode//core/net/rpl/rpl-icmp6.c:225: dio.dag_min_hoprankinc = RPL_MIN_HOPRANKINC;
   05A7 90s00r42           2273 	mov	dptr,#(_dio + 0x0022)
   05AA E4                 2274 	clr	a
   05AB F0                 2275 	movx	@dptr,a
   05AC A3                 2276 	inc	dptr
   05AD 74 01              2277 	mov	a,#0x01
   05AF F0                 2278 	movx	@dptr,a
                           2279 ;	../../../contiki-sensinode//core/net/rpl/rpl-icmp6.c:226: dio.dag_max_rankinc = RPL_MAX_RANKINC;
   05B0 90s00r40           2280 	mov	dptr,#(_dio + 0x0020)
   05B3 E4                 2281 	clr	a
   05B4 F0                 2282 	movx	@dptr,a
   05B5 A3                 2283 	inc	dptr
   05B6 74 07              2284 	mov	a,#0x07
   05B8 F0                 2285 	movx	@dptr,a
                           2286 ;	../../../contiki-sensinode//core/net/rpl/rpl-icmp6.c:227: dio.ocp = RPL_OF.ocp;
   05B9 90s00r12           2287 	mov	dptr,#(_rpl_of_etx + 0x0012)
   05BC E0                 2288 	movx	a,@dptr
   05BD FE                 2289 	mov	r6,a
   05BE A3                 2290 	inc	dptr
   05BF E0                 2291 	movx	a,@dptr
   05C0 FF                 2292 	mov	r7,a
   05C1 90s00r30           2293 	mov	dptr,#(_dio + 0x0010)
   05C4 EE                 2294 	mov	a,r6
   05C5 F0                 2295 	movx	@dptr,a
   05C6 A3                 2296 	inc	dptr
   05C7 EF                 2297 	mov	a,r7
   05C8 F0                 2298 	movx	@dptr,a
                           2299 ;	../../../contiki-sensinode//core/net/rpl/rpl-icmp6.c:228: dio.default_lifetime = RPL_DEFAULT_LIFETIME;
   05C9 90s00r3D           2300 	mov	dptr,#(_dio + 0x001d)
   05CC 74 FF              2301 	mov	a,#0xFF
   05CE F0                 2302 	movx	@dptr,a
                           2303 ;	../../../contiki-sensinode//core/net/rpl/rpl-icmp6.c:229: dio.lifetime_unit = RPL_DEFAULT_LIFETIME_UNIT;
   05CF 90s00r3E           2304 	mov	dptr,#(_dio + 0x001e)
   05D2 74 FF              2305 	mov	a,#0xFF
   05D4 F0                 2306 	movx	@dptr,a
   05D5 A3                 2307 	inc	dptr
   05D6 F0                 2308 	movx	@dptr,a
                           2309 ;	../../../contiki-sensinode//core/net/rpl/rpl-icmp6.c:231: uip_ipaddr_copy(&from, &UIP_IP_BUF->srcipaddr);
   05D7 7Er00              2310 	mov	r6,#_uip_aligned_buf
   05D9 7Fs00              2311 	mov	r7,#(_uip_aligned_buf >> 8)
   05DB 74 08              2312 	mov	a,#0x08
   05DD 2E                 2313 	add	a,r6
   05DE FE                 2314 	mov	r6,a
   05DF E4                 2315 	clr	a
   05E0 3F                 2316 	addc	a,r7
   05E1 FF                 2317 	mov	r7,a
   05E2 7D 00              2318 	mov	r5,#0x00
   05E4 74 10              2319 	mov	a,#0x10
   05E6 C0 E0              2320 	push	acc
   05E8 E4                 2321 	clr	a
   05E9 C0 E0              2322 	push	acc
   05EB C0 06              2323 	push	ar6
   05ED C0 07              2324 	push	ar7
   05EF C0 05              2325 	push	ar5
   05F1 90s00r77           2326 	mov	dptr,#_from
   05F4 75 F0 00           2327 	mov	b,#0x00
   05F7 78r00              2328 	mov	r0,#_memcpy
   05F9 79s00              2329 	mov	r1,#(_memcpy >> 8)
   05FB 7As00              2330 	mov	r2,#(_memcpy >> 16)
   05FD 12s00r00           2331 	lcall	__sdcc_banked_call
   0600 E5 81              2332 	mov	a,sp
   0602 24 FB              2333 	add	a,#0xfb
   0604 F5 81              2334 	mov	sp,a
                           2335 ;	../../../contiki-sensinode//core/net/rpl/rpl-icmp6.c:238: if((nbr = uip_ds6_nbr_lookup(&from)) == NULL) {
   0606 90s00r77           2336 	mov	dptr,#_from
   0609 75 F0 00           2337 	mov	b,#0x00
   060C 78r00              2338 	mov	r0,#_uip_ds6_nbr_lookup
   060E 79s00              2339 	mov	r1,#(_uip_ds6_nbr_lookup >> 8)
   0610 7As00              2340 	mov	r2,#(_uip_ds6_nbr_lookup >> 16)
   0612 12s00r00           2341 	lcall	__sdcc_banked_call
   0615 AD 82              2342 	mov	r5,dpl
   0617 AE 83              2343 	mov	r6,dph
   0619 AF F0              2344 	mov	r7,b
   061B ED                 2345 	mov	a,r5
   061C 4E                 2346 	orl	a,r6
   061D 70 6D              2347 	jnz	00104$
                           2348 ;	../../../contiki-sensinode//core/net/rpl/rpl-icmp6.c:240: packetbuf_addr(PACKETBUF_ADDR_SENDER),
   061F 75 82 18           2349 	mov	dpl,#0x18
   0622 78r00              2350 	mov	r0,#_packetbuf_addr
   0624 79s00              2351 	mov	r1,#(_packetbuf_addr >> 8)
   0626 7As00              2352 	mov	r2,#(_packetbuf_addr >> 16)
   0628 12s00r00           2353 	lcall	__sdcc_banked_call
   062B AD 82              2354 	mov	r5,dpl
   062D AE 83              2355 	mov	r6,dph
   062F AF F0              2356 	mov	r7,b
                           2357 ;	../../../contiki-sensinode//core/net/rpl/rpl-icmp6.c:239: if((nbr = uip_ds6_nbr_add(&from, (uip_lladdr_t *)
   0631 74 01              2358 	mov	a,#0x01
   0633 C0 E0              2359 	push	acc
   0635 E4                 2360 	clr	a
   0636 C0 E0              2361 	push	acc
   0638 C0 05              2362 	push	ar5
   063A C0 06              2363 	push	ar6
   063C C0 07              2364 	push	ar7
   063E 90s00r77           2365 	mov	dptr,#_from
   0641 75 F0 00           2366 	mov	b,#0x00
   0644 78r00              2367 	mov	r0,#_uip_ds6_nbr_add
   0646 79s00              2368 	mov	r1,#(_uip_ds6_nbr_add >> 8)
   0648 7As00              2369 	mov	r2,#(_uip_ds6_nbr_add >> 16)
   064A 12s00r00           2370 	lcall	__sdcc_banked_call
   064D AD 82              2371 	mov	r5,dpl
   064F AE 83              2372 	mov	r6,dph
   0651 AF F0              2373 	mov	r7,b
   0653 E5 81              2374 	mov	a,sp
   0655 24 FB              2375 	add	a,#0xfb
   0657 F5 81              2376 	mov	sp,a
   0659 8D 02              2377 	mov	ar2,r5
   065B 8E 03              2378 	mov	ar3,r6
   065D 8F 04              2379 	mov	ar4,r7
   065F ED                 2380 	mov	a,r5
   0660 4E                 2381 	orl	a,r6
   0661 60 29              2382 	jz	00104$
                           2383 ;	../../../contiki-sensinode//core/net/rpl/rpl-icmp6.c:243: stimer_set(&nbr->reachable, UIP_ND6_REACHABLE_TIME / 1000);
   0663 74 19              2384 	mov	a,#0x19
   0665 2A                 2385 	add	a,r2
   0666 FA                 2386 	mov	r2,a
   0667 E4                 2387 	clr	a
   0668 3B                 2388 	addc	a,r3
   0669 FB                 2389 	mov	r3,a
   066A 74 58              2390 	mov	a,#0x58
   066C C0 E0              2391 	push	acc
   066E 74 02              2392 	mov	a,#0x02
   0670 C0 E0              2393 	push	acc
   0672 E4                 2394 	clr	a
   0673 C0 E0              2395 	push	acc
   0675 C0 E0              2396 	push	acc
   0677 8A 82              2397 	mov	dpl,r2
   0679 8B 83              2398 	mov	dph,r3
   067B 8C F0              2399 	mov	b,r4
   067D 78r00              2400 	mov	r0,#_stimer_set
   067F 79s00              2401 	mov	r1,#(_stimer_set >> 8)
   0681 7As00              2402 	mov	r2,#(_stimer_set >> 16)
   0683 12s00r00           2403 	lcall	__sdcc_banked_call
   0686 E5 81              2404 	mov	a,sp
   0688 24 FC              2405 	add	a,#0xfc
   068A F5 81              2406 	mov	sp,a
   068C                    2407 00104$:
                           2408 ;	../../../contiki-sensinode//core/net/rpl/rpl-icmp6.c:254: buffer_length = uip_len - uip_l3_icmp_hdr_len;
   068C 90s00r00           2409 	mov	dptr,#_uip_len
   068F E0                 2410 	movx	a,@dptr
   0690 FE                 2411 	mov	r6,a
   0691 A3                 2412 	inc	dptr
   0692 E0                 2413 	movx	a,@dptr
   0693 90s00r00           2414 	mov	dptr,#_uip_ext_len
   0696 E0                 2415 	movx	a,@dptr
   0697 FF                 2416 	mov	r7,a
   0698 24 2C              2417 	add	a,#0x2C
   069A FD                 2418 	mov	r5,a
   069B EE                 2419 	mov	a,r6
   069C C3                 2420 	clr	c
   069D 9D                 2421 	subb	a,r5
   069E FE                 2422 	mov	r6,a
   069F E5 81              2423 	mov	a,sp
   06A1 24 FC              2424 	add	a,#0xfc
   06A3 F8                 2425 	mov	r0,a
   06A4 A6 06              2426 	mov	@r0,ar6
                           2427 ;	../../../contiki-sensinode//core/net/rpl/rpl-icmp6.c:258: buffer = UIP_ICMP_PAYLOAD;
   06A6 7D 00              2428 	mov	r5,#0x00
   06A8 74 2C              2429 	mov	a,#0x2C
   06AA 2F                 2430 	add	a,r7
   06AB FF                 2431 	mov	r7,a
   06AC E4                 2432 	clr	a
   06AD 3D                 2433 	addc	a,r5
   06AE FD                 2434 	mov	r5,a
   06AF EF                 2435 	mov	a,r7
   06B0 24r00              2436 	add	a,#_uip_aligned_buf
   06B2 FF                 2437 	mov	r7,a
   06B3 ED                 2438 	mov	a,r5
   06B4 34s00              2439 	addc	a,#(_uip_aligned_buf >> 8)
   06B6 FD                 2440 	mov	r5,a
   06B7 E5 81              2441 	mov	a,sp
   06B9 24 F9              2442 	add	a,#0xf9
   06BB F8                 2443 	mov	r0,a
   06BC A6 07              2444 	mov	@r0,ar7
   06BE 08                 2445 	inc	r0
   06BF A6 05              2446 	mov	@r0,ar5
   06C1 08                 2447 	inc	r0
   06C2 76 00              2448 	mov	@r0,#0x00
                           2449 ;	../../../contiki-sensinode//core/net/rpl/rpl-icmp6.c:260: dio.instance_id = buffer[i++];
   06C4 E5 81              2450 	mov	a,sp
   06C6 24 F9              2451 	add	a,#0xf9
   06C8 F8                 2452 	mov	r0,a
   06C9 86 82              2453 	mov	dpl,@r0
   06CB 08                 2454 	inc	r0
   06CC 86 83              2455 	mov	dph,@r0
   06CE 08                 2456 	inc	r0
   06CF 86 F0              2457 	mov	b,@r0
   06D1 12s00r00           2458 	lcall	__gptrget
   06D4 90s00r38           2459 	mov	dptr,#(_dio + 0x0018)
   06D7 F0                 2460 	movx	@dptr,a
                           2461 ;	../../../contiki-sensinode//core/net/rpl/rpl-icmp6.c:261: dio.version = buffer[i++];
   06D8 E5 81              2462 	mov	a,sp
   06DA 24 F9              2463 	add	a,#0xf9
   06DC F8                 2464 	mov	r0,a
   06DD 74 01              2465 	mov	a,#0x01
   06DF 26                 2466 	add	a,@r0
   06E0 FA                 2467 	mov	r2,a
   06E1 E4                 2468 	clr	a
   06E2 08                 2469 	inc	r0
   06E3 36                 2470 	addc	a,@r0
   06E4 FB                 2471 	mov	r3,a
   06E5 08                 2472 	inc	r0
   06E6 86 06              2473 	mov	ar6,@r0
   06E8 8A 82              2474 	mov	dpl,r2
   06EA 8B 83              2475 	mov	dph,r3
   06EC 8E F0              2476 	mov	b,r6
   06EE 12s00r00           2477 	lcall	__gptrget
   06F1 90s00r37           2478 	mov	dptr,#(_dio + 0x0017)
   06F4 F0                 2479 	movx	@dptr,a
                           2480 ;	../../../contiki-sensinode//core/net/rpl/rpl-icmp6.c:262: dio.rank = get16(buffer, i);
   06F5 74 02              2481 	mov	a,#0x02
   06F7 C0 E0              2482 	push	acc
   06F9 E4                 2483 	clr	a
   06FA C0 E0              2484 	push	acc
   06FC E5 81              2485 	mov	a,sp
   06FE 24 F7              2486 	add	a,#0xf7
   0700 F8                 2487 	mov	r0,a
   0701 86 82              2488 	mov	dpl,@r0
   0703 08                 2489 	inc	r0
   0704 86 83              2490 	mov	dph,@r0
   0706 08                 2491 	inc	r0
   0707 86 F0              2492 	mov	b,@r0
   0709 78r39              2493 	mov	r0,#_get16
   070B 79s03              2494 	mov	r1,#(_get16 >> 8)
   070D 7As00              2495 	mov	r2,#(_get16 >> 16)
   070F 12s00r00           2496 	lcall	__sdcc_banked_call
   0712 AB 82              2497 	mov	r3,dpl
   0714 AE 83              2498 	mov	r6,dph
   0716 15 81              2499 	dec	sp
   0718 15 81              2500 	dec	sp
   071A 90s00r32           2501 	mov	dptr,#(_dio + 0x0012)
   071D EB                 2502 	mov	a,r3
   071E F0                 2503 	movx	@dptr,a
   071F A3                 2504 	inc	dptr
   0720 EE                 2505 	mov	a,r6
   0721 F0                 2506 	movx	@dptr,a
                           2507 ;	../../../contiki-sensinode//core/net/rpl/rpl-icmp6.c:270: dio.grounded = buffer[i] & RPL_DIO_GROUNDED;
   0722 E5 81              2508 	mov	a,sp
   0724 24 F9              2509 	add	a,#0xf9
   0726 F8                 2510 	mov	r0,a
   0727 74 04              2511 	mov	a,#0x04
   0729 26                 2512 	add	a,@r0
   072A FA                 2513 	mov	r2,a
   072B E4                 2514 	clr	a
   072C 08                 2515 	inc	r0
   072D 36                 2516 	addc	a,@r0
   072E FB                 2517 	mov	r3,a
   072F 08                 2518 	inc	r0
   0730 86 06              2519 	mov	ar6,@r0
   0732 8A 82              2520 	mov	dpl,r2
   0734 8B 83              2521 	mov	dph,r3
   0736 8E F0              2522 	mov	b,r6
   0738 12s00r00           2523 	lcall	__gptrget
   073B FA                 2524 	mov	r2,a
   073C 74 80              2525 	mov	a,#0x80
   073E 5A                 2526 	anl	a,r2
   073F 90s00r34           2527 	mov	dptr,#(_dio + 0x0014)
   0742 F0                 2528 	movx	@dptr,a
                           2529 ;	../../../contiki-sensinode//core/net/rpl/rpl-icmp6.c:271: dio.mop = (buffer[i]& RPL_DIO_MOP_MASK) >> RPL_DIO_MOP_SHIFT;
   0743 74 3C              2530 	mov	a,#0x3C
   0745 5A                 2531 	anl	a,r2
   0746 C4                 2532 	swap	a
   0747 23                 2533 	rl	a
   0748 54 1F              2534 	anl	a,#0x1F
   074A 90s00r35           2535 	mov	dptr,#(_dio + 0x0015)
   074D F0                 2536 	movx	@dptr,a
                           2537 ;	../../../contiki-sensinode//core/net/rpl/rpl-icmp6.c:272: dio.preference = buffer[i++] & RPL_DIO_PREFERENCE_MASK;
   074E 53 02 07           2538 	anl	ar2,#0x07
   0751 90s00r36           2539 	mov	dptr,#(_dio + 0x0016)
   0754 EA                 2540 	mov	a,r2
   0755 F0                 2541 	movx	@dptr,a
                           2542 ;	../../../contiki-sensinode//core/net/rpl/rpl-icmp6.c:274: dio.dtsn = buffer[i++];
   0756 E5 81              2543 	mov	a,sp
   0758 24 F9              2544 	add	a,#0xf9
   075A F8                 2545 	mov	r0,a
   075B 74 05              2546 	mov	a,#0x05
   075D 26                 2547 	add	a,@r0
   075E FA                 2548 	mov	r2,a
   075F E4                 2549 	clr	a
   0760 08                 2550 	inc	r0
   0761 36                 2551 	addc	a,@r0
   0762 FB                 2552 	mov	r3,a
   0763 08                 2553 	inc	r0
   0764 86 06              2554 	mov	ar6,@r0
   0766 8A 82              2555 	mov	dpl,r2
   0768 8B 83              2556 	mov	dph,r3
   076A 8E F0              2557 	mov	b,r6
   076C 12s00r00           2558 	lcall	__gptrget
   076F 90s00r39           2559 	mov	dptr,#(_dio + 0x0019)
   0772 F0                 2560 	movx	@dptr,a
                           2561 ;	../../../contiki-sensinode//core/net/rpl/rpl-icmp6.c:278: memcpy(&dio.dag_id, buffer + i, sizeof(dio.dag_id));
   0773 E5 81              2562 	mov	a,sp
   0775 24 F9              2563 	add	a,#0xf9
   0777 F8                 2564 	mov	r0,a
   0778 74 08              2565 	mov	a,#0x08
   077A 26                 2566 	add	a,@r0
   077B FA                 2567 	mov	r2,a
   077C E4                 2568 	clr	a
   077D 08                 2569 	inc	r0
   077E 36                 2570 	addc	a,@r0
   077F FB                 2571 	mov	r3,a
   0780 08                 2572 	inc	r0
   0781 86 06              2573 	mov	ar6,@r0
   0783 74 10              2574 	mov	a,#0x10
   0785 C0 E0              2575 	push	acc
   0787 E4                 2576 	clr	a
   0788 C0 E0              2577 	push	acc
   078A C0 02              2578 	push	ar2
   078C C0 03              2579 	push	ar3
   078E C0 06              2580 	push	ar6
   0790 90s00r20           2581 	mov	dptr,#_dio
   0793 75 F0 00           2582 	mov	b,#0x00
   0796 78r00              2583 	mov	r0,#_memcpy
   0798 79s00              2584 	mov	r1,#(_memcpy >> 8)
   079A 7As00              2585 	mov	r2,#(_memcpy >> 16)
   079C 12s00r00           2586 	lcall	__sdcc_banked_call
   079F E5 81              2587 	mov	a,sp
   07A1 24 FB              2588 	add	a,#0xfb
                           2589 ;	../../../contiki-sensinode//core/net/rpl/rpl-icmp6.c:279: i += sizeof(dio.dag_id);
   07A3 F5 81              2590 	mov	sp,a
   07A5 24 FD              2591 	add	a,#0xfd
   07A7 F8                 2592 	mov	r0,a
   07A8 76 18              2593 	mov	@r0,#0x18
   07AA 08                 2594 	inc	r0
   07AB 76 00              2595 	mov	@r0,#0x00
   07AD                    2596 00134$:
                           2597 ;	../../../contiki-sensinode//core/net/rpl/rpl-icmp6.c:286: for(; i < buffer_length; i += len) {
   07AD E5 81              2598 	mov	a,sp
   07AF 24 FC              2599 	add	a,#0xfc
   07B1 F8                 2600 	mov	r0,a
   07B2 86 02              2601 	mov	ar2,@r0
   07B4 7E 00              2602 	mov	r6,#0x00
   07B6 E5 81              2603 	mov	a,sp
   07B8 24 FD              2604 	add	a,#0xfd
   07BA F8                 2605 	mov	r0,a
   07BB C3                 2606 	clr	c
   07BC E6                 2607 	mov	a,@r0
   07BD 9A                 2608 	subb	a,r2
   07BE 08                 2609 	inc	r0
   07BF E6                 2610 	mov	a,@r0
   07C0 64 80              2611 	xrl	a,#0x80
   07C2 8E F0              2612 	mov	b,r6
   07C4 63 F0 80           2613 	xrl	b,#0x80
   07C7 95 F0              2614 	subb	a,b
   07C9 40 03              2615 	jc	00178$
   07CB 02s0DrC5           2616 	ljmp	00137$
   07CE                    2617 00178$:
                           2618 ;	../../../contiki-sensinode//core/net/rpl/rpl-icmp6.c:287: subopt_type = buffer[i];
   07CE C0 02              2619 	push	ar2
   07D0 C0 06              2620 	push	ar6
   07D2 E5 81              2621 	mov	a,sp
   07D4 24 F7              2622 	add	a,#0xf7
   07D6 F8                 2623 	mov	r0,a
   07D7 E5 81              2624 	mov	a,sp
   07D9 24 FB              2625 	add	a,#0xfb
   07DB F9                 2626 	mov	r1,a
   07DC E7                 2627 	mov	a,@r1
   07DD 26                 2628 	add	a,@r0
   07DE FA                 2629 	mov	r2,a
   07DF 09                 2630 	inc	r1
   07E0 E7                 2631 	mov	a,@r1
   07E1 08                 2632 	inc	r0
   07E2 36                 2633 	addc	a,@r0
   07E3 FB                 2634 	mov	r3,a
   07E4 08                 2635 	inc	r0
   07E5 86 06              2636 	mov	ar6,@r0
   07E7 8A 82              2637 	mov	dpl,r2
   07E9 8B 83              2638 	mov	dph,r3
   07EB 8E F0              2639 	mov	b,r6
   07ED 12s00r00           2640 	lcall	__gptrget
   07F0 FF                 2641 	mov	r7,a
                           2642 ;	../../../contiki-sensinode//core/net/rpl/rpl-icmp6.c:288: if(subopt_type == RPL_OPTION_PAD1) {
   07F1 D0 06              2643 	pop	ar6
   07F3 D0 02              2644 	pop	ar2
   07F5 EF                 2645 	mov	a,r7
   07F6 70 0A              2646 	jnz	00106$
                           2647 ;	../../../contiki-sensinode//core/net/rpl/rpl-icmp6.c:289: len = 1;
   07F8 A8 81              2648 	mov	r0,sp
   07FA 18                 2649 	dec	r0
   07FB 76 01              2650 	mov	@r0,#0x01
   07FD 08                 2651 	inc	r0
   07FE 76 00              2652 	mov	@r0,#0x00
   0800 80 3D              2653 	sjmp	00107$
   0802                    2654 00106$:
                           2655 ;	../../../contiki-sensinode//core/net/rpl/rpl-icmp6.c:292: len = 2 + buffer[i + 1];
   0802 C0 02              2656 	push	ar2
   0804 C0 06              2657 	push	ar6
   0806 E5 81              2658 	mov	a,sp
   0808 24 FB              2659 	add	a,#0xfb
   080A F8                 2660 	mov	r0,a
   080B 74 01              2661 	mov	a,#0x01
   080D 26                 2662 	add	a,@r0
   080E FC                 2663 	mov	r4,a
   080F E4                 2664 	clr	a
   0810 08                 2665 	inc	r0
   0811 36                 2666 	addc	a,@r0
   0812 FD                 2667 	mov	r5,a
   0813 E5 81              2668 	mov	a,sp
   0815 24 F7              2669 	add	a,#0xf7
   0817 F8                 2670 	mov	r0,a
   0818 EC                 2671 	mov	a,r4
   0819 26                 2672 	add	a,@r0
   081A FC                 2673 	mov	r4,a
   081B ED                 2674 	mov	a,r5
   081C 08                 2675 	inc	r0
   081D 36                 2676 	addc	a,@r0
   081E FD                 2677 	mov	r5,a
   081F 08                 2678 	inc	r0
   0820 86 06              2679 	mov	ar6,@r0
   0822 8C 82              2680 	mov	dpl,r4
   0824 8D 83              2681 	mov	dph,r5
   0826 8E F0              2682 	mov	b,r6
   0828 12s00r00           2683 	lcall	__gptrget
   082B FC                 2684 	mov	r4,a
   082C 7E 00              2685 	mov	r6,#0x00
   082E E5 81              2686 	mov	a,sp
   0830 24 FD              2687 	add	a,#0xfd
   0832 F8                 2688 	mov	r0,a
   0833 74 02              2689 	mov	a,#0x02
   0835 2C                 2690 	add	a,r4
   0836 F6                 2691 	mov	@r0,a
   0837 E4                 2692 	clr	a
   0838 3E                 2693 	addc	a,r6
   0839 08                 2694 	inc	r0
   083A F6                 2695 	mov	@r0,a
                           2696 ;	../../../contiki-sensinode//core/net/rpl/rpl-icmp6.c:406: rpl_process_dio(&from, &dio);
   083B D0 06              2697 	pop	ar6
   083D D0 02              2698 	pop	ar2
                           2699 ;	../../../contiki-sensinode//core/net/rpl/rpl-icmp6.c:292: len = 2 + buffer[i + 1];
   083F                    2700 00107$:
                           2701 ;	../../../contiki-sensinode//core/net/rpl/rpl-icmp6.c:295: if(len + i > buffer_length) {
   083F A8 81              2702 	mov	r0,sp
   0841 18                 2703 	dec	r0
   0842 E5 81              2704 	mov	a,sp
   0844 24 FD              2705 	add	a,#0xfd
   0846 F9                 2706 	mov	r1,a
   0847 E7                 2707 	mov	a,@r1
   0848 26                 2708 	add	a,@r0
   0849 FC                 2709 	mov	r4,a
   084A 09                 2710 	inc	r1
   084B E7                 2711 	mov	a,@r1
   084C 08                 2712 	inc	r0
   084D 36                 2713 	addc	a,@r0
   084E FD                 2714 	mov	r5,a
   084F C3                 2715 	clr	c
   0850 EA                 2716 	mov	a,r2
   0851 9C                 2717 	subb	a,r4
   0852 EE                 2718 	mov	a,r6
   0853 64 80              2719 	xrl	a,#0x80
   0855 8D F0              2720 	mov	b,r5
   0857 63 F0 80           2721 	xrl	b,#0x80
   085A 95 F0              2722 	subb	a,b
   085C 50 03              2723 	jnc	00109$
                           2724 ;	../../../contiki-sensinode//core/net/rpl/rpl-icmp6.c:298: return;
   085E 02s0DrE5           2725 	ljmp	00138$
   0861                    2726 00109$:
                           2727 ;	../../../contiki-sensinode//core/net/rpl/rpl-icmp6.c:303: switch(subopt_type) {
   0861 BF 02 02           2728 	cjne	r7,#0x02,00181$
   0864 80 15              2729 	sjmp	00110$
   0866                    2730 00181$:
   0866 BF 03 03           2731 	cjne	r7,#0x03,00182$
   0869 02s09rEF           2732 	ljmp	00119$
   086C                    2733 00182$:
   086C BF 04 03           2734 	cjne	r7,#0x04,00183$
   086F 02s0Br41           2735 	ljmp	00126$
   0872                    2736 00183$:
   0872 BF 08 03           2737 	cjne	r7,#0x08,00184$
   0875 02s0CrD3           2738 	ljmp	00129$
   0878                    2739 00184$:
   0878 02s0DrB2           2740 	ljmp	00136$
                           2741 ;	../../../contiki-sensinode//core/net/rpl/rpl-icmp6.c:304: case RPL_OPTION_DAG_METRIC_CONTAINER:
   087B                    2742 00110$:
                           2743 ;	../../../contiki-sensinode//core/net/rpl/rpl-icmp6.c:305: if(len < 6) {
   087B A8 81              2744 	mov	r0,sp
   087D 18                 2745 	dec	r0
   087E C3                 2746 	clr	c
   087F E6                 2747 	mov	a,@r0
   0880 94 06              2748 	subb	a,#0x06
   0882 08                 2749 	inc	r0
   0883 E6                 2750 	mov	a,@r0
   0884 64 80              2751 	xrl	a,#0x80
   0886 94 80              2752 	subb	a,#0x80
   0888 50 03              2753 	jnc	00112$
                           2754 ;	../../../contiki-sensinode//core/net/rpl/rpl-icmp6.c:308: return;
   088A 02s0DrE5           2755 	ljmp	00138$
   088D                    2756 00112$:
                           2757 ;	../../../contiki-sensinode//core/net/rpl/rpl-icmp6.c:310: dio.mc.type = buffer[i + 2];
   088D E5 81              2758 	mov	a,sp
   088F 24 FD              2759 	add	a,#0xfd
   0891 F8                 2760 	mov	r0,a
   0892 74 02              2761 	mov	a,#0x02
   0894 26                 2762 	add	a,@r0
   0895 FD                 2763 	mov	r5,a
   0896 E4                 2764 	clr	a
   0897 08                 2765 	inc	r0
   0898 36                 2766 	addc	a,@r0
   0899 FE                 2767 	mov	r6,a
   089A E5 81              2768 	mov	a,sp
   089C 24 F9              2769 	add	a,#0xf9
   089E F8                 2770 	mov	r0,a
   089F ED                 2771 	mov	a,r5
   08A0 26                 2772 	add	a,@r0
   08A1 FD                 2773 	mov	r5,a
   08A2 EE                 2774 	mov	a,r6
   08A3 08                 2775 	inc	r0
   08A4 36                 2776 	addc	a,@r0
   08A5 FE                 2777 	mov	r6,a
   08A6 08                 2778 	inc	r0
   08A7 86 04              2779 	mov	ar4,@r0
   08A9 8D 82              2780 	mov	dpl,r5
   08AB 8E 83              2781 	mov	dph,r6
   08AD 8C F0              2782 	mov	b,r4
   08AF 12s00r00           2783 	lcall	__gptrget
   08B2 90s00r70           2784 	mov	dptr,#(_dio + 0x0050)
   08B5 F0                 2785 	movx	@dptr,a
                           2786 ;	../../../contiki-sensinode//core/net/rpl/rpl-icmp6.c:311: dio.mc.flags = buffer[i + 3] << 1;
   08B6 E5 81              2787 	mov	a,sp
   08B8 24 FD              2788 	add	a,#0xfd
   08BA F8                 2789 	mov	r0,a
   08BB 74 03              2790 	mov	a,#0x03
   08BD 26                 2791 	add	a,@r0
   08BE FD                 2792 	mov	r5,a
   08BF E4                 2793 	clr	a
   08C0 08                 2794 	inc	r0
   08C1 36                 2795 	addc	a,@r0
   08C2 FE                 2796 	mov	r6,a
   08C3 E5 81              2797 	mov	a,sp
   08C5 24 F9              2798 	add	a,#0xf9
   08C7 F8                 2799 	mov	r0,a
   08C8 ED                 2800 	mov	a,r5
   08C9 26                 2801 	add	a,@r0
   08CA FD                 2802 	mov	r5,a
   08CB EE                 2803 	mov	a,r6
   08CC 08                 2804 	inc	r0
   08CD 36                 2805 	addc	a,@r0
   08CE FE                 2806 	mov	r6,a
   08CF 08                 2807 	inc	r0
   08D0 86 04              2808 	mov	ar4,@r0
   08D2 8D 82              2809 	mov	dpl,r5
   08D4 8E 83              2810 	mov	dph,r6
   08D6 8C F0              2811 	mov	b,r4
   08D8 12s00r00           2812 	lcall	__gptrget
   08DB 25 E0              2813 	add	a,acc
   08DD FD                 2814 	mov	r5,a
   08DE 90s00r71           2815 	mov	dptr,#(_dio + 0x0051)
   08E1 F0                 2816 	movx	@dptr,a
                           2817 ;	../../../contiki-sensinode//core/net/rpl/rpl-icmp6.c:312: dio.mc.flags |= buffer[i + 4] >> 7;
   08E2 E5 81              2818 	mov	a,sp
   08E4 24 FD              2819 	add	a,#0xfd
   08E6 F8                 2820 	mov	r0,a
   08E7 74 04              2821 	mov	a,#0x04
   08E9 26                 2822 	add	a,@r0
   08EA FC                 2823 	mov	r4,a
   08EB E4                 2824 	clr	a
   08EC 08                 2825 	inc	r0
   08ED 36                 2826 	addc	a,@r0
   08EE FE                 2827 	mov	r6,a
   08EF E5 81              2828 	mov	a,sp
   08F1 24 F9              2829 	add	a,#0xf9
   08F3 F8                 2830 	mov	r0,a
   08F4 EC                 2831 	mov	a,r4
   08F5 26                 2832 	add	a,@r0
   08F6 FC                 2833 	mov	r4,a
   08F7 EE                 2834 	mov	a,r6
   08F8 08                 2835 	inc	r0
   08F9 36                 2836 	addc	a,@r0
   08FA FE                 2837 	mov	r6,a
   08FB 08                 2838 	inc	r0
   08FC 86 02              2839 	mov	ar2,@r0
   08FE 8C 82              2840 	mov	dpl,r4
   0900 8E 83              2841 	mov	dph,r6
   0902 8A F0              2842 	mov	b,r2
   0904 12s00r00           2843 	lcall	__gptrget
   0907 FC                 2844 	mov	r4,a
   0908 23                 2845 	rl	a
   0909 54 01              2846 	anl	a,#0x01
   090B 42 05              2847 	orl	ar5,a
   090D 90s00r71           2848 	mov	dptr,#(_dio + 0x0051)
   0910 ED                 2849 	mov	a,r5
   0911 F0                 2850 	movx	@dptr,a
                           2851 ;	../../../contiki-sensinode//core/net/rpl/rpl-icmp6.c:313: dio.mc.aggr = (buffer[i + 4] >> 4) & 0x3;
   0912 EC                 2852 	mov	a,r4
   0913 C4                 2853 	swap	a
   0914 54 0F              2854 	anl	a,#0x0F
   0916 FE                 2855 	mov	r6,a
   0917 53 06 03           2856 	anl	ar6,#0x03
   091A 90s00r72           2857 	mov	dptr,#(_dio + 0x0052)
   091D EE                 2858 	mov	a,r6
   091E F0                 2859 	movx	@dptr,a
                           2860 ;	../../../contiki-sensinode//core/net/rpl/rpl-icmp6.c:314: dio.mc.prec = buffer[i + 4] & 0xf;
   091F 53 04 0F           2861 	anl	ar4,#0x0F
   0922 90s00r73           2862 	mov	dptr,#(_dio + 0x0053)
   0925 EC                 2863 	mov	a,r4
   0926 F0                 2864 	movx	@dptr,a
                           2865 ;	../../../contiki-sensinode//core/net/rpl/rpl-icmp6.c:315: dio.mc.length = buffer[i + 5];
   0927 E5 81              2866 	mov	a,sp
   0929 24 FD              2867 	add	a,#0xfd
   092B F8                 2868 	mov	r0,a
   092C 74 05              2869 	mov	a,#0x05
   092E 26                 2870 	add	a,@r0
   092F FD                 2871 	mov	r5,a
   0930 E4                 2872 	clr	a
   0931 08                 2873 	inc	r0
   0932 36                 2874 	addc	a,@r0
   0933 FE                 2875 	mov	r6,a
   0934 E5 81              2876 	mov	a,sp
   0936 24 F9              2877 	add	a,#0xf9
   0938 F8                 2878 	mov	r0,a
   0939 ED                 2879 	mov	a,r5
   093A 26                 2880 	add	a,@r0
   093B FD                 2881 	mov	r5,a
   093C EE                 2882 	mov	a,r6
   093D 08                 2883 	inc	r0
   093E 36                 2884 	addc	a,@r0
   093F FE                 2885 	mov	r6,a
   0940 08                 2886 	inc	r0
   0941 86 04              2887 	mov	ar4,@r0
   0943 8D 82              2888 	mov	dpl,r5
   0945 8E 83              2889 	mov	dph,r6
   0947 8C F0              2890 	mov	b,r4
   0949 12s00r00           2891 	lcall	__gptrget
   094C FD                 2892 	mov	r5,a
   094D 90s00r74           2893 	mov	dptr,#(_dio + 0x0054)
   0950 F0                 2894 	movx	@dptr,a
                           2895 ;	../../../contiki-sensinode//core/net/rpl/rpl-icmp6.c:317: if(dio.mc.type == RPL_DAG_MC_ETX) {
   0951 90s00r70           2896 	mov	dptr,#(_dio + 0x0050)
   0954 E0                 2897 	movx	a,@dptr
   0955 FE                 2898 	mov	r6,a
   0956 BE 07 3A           2899 	cjne	r6,#0x07,00117$
                           2900 ;	../../../contiki-sensinode//core/net/rpl/rpl-icmp6.c:318: dio.mc.obj.etx = get16(buffer, i + 6);
   0959 E5 81              2901 	mov	a,sp
   095B 24 FD              2902 	add	a,#0xfd
   095D F8                 2903 	mov	r0,a
   095E 74 06              2904 	mov	a,#0x06
   0960 26                 2905 	add	a,@r0
   0961 FC                 2906 	mov	r4,a
   0962 E4                 2907 	clr	a
   0963 08                 2908 	inc	r0
   0964 36                 2909 	addc	a,@r0
   0965 FD                 2910 	mov	r5,a
   0966 C0 04              2911 	push	ar4
   0968 C0 05              2912 	push	ar5
   096A E5 81              2913 	mov	a,sp
   096C 24 F7              2914 	add	a,#0xf7
   096E F8                 2915 	mov	r0,a
   096F 86 82              2916 	mov	dpl,@r0
   0971 08                 2917 	inc	r0
   0972 86 83              2918 	mov	dph,@r0
   0974 08                 2919 	inc	r0
   0975 86 F0              2920 	mov	b,@r0
   0977 78r39              2921 	mov	r0,#_get16
   0979 79s03              2922 	mov	r1,#(_get16 >> 8)
   097B 7As00              2923 	mov	r2,#(_get16 >> 16)
   097D 12s00r00           2924 	lcall	__sdcc_banked_call
   0980 AC 82              2925 	mov	r4,dpl
   0982 AD 83              2926 	mov	r5,dph
   0984 15 81              2927 	dec	sp
   0986 15 81              2928 	dec	sp
   0988 90s00r75           2929 	mov	dptr,#(_dio + 0x0055)
   098B EC                 2930 	mov	a,r4
   098C F0                 2931 	movx	@dptr,a
   098D A3                 2932 	inc	dptr
   098E ED                 2933 	mov	a,r5
   098F F0                 2934 	movx	@dptr,a
   0990 02s0DrB2           2935 	ljmp	00136$
   0993                    2936 00117$:
                           2937 ;	../../../contiki-sensinode//core/net/rpl/rpl-icmp6.c:327: } else if(dio.mc.type == RPL_DAG_MC_ENERGY) {
   0993 BE 02 56           2938 	cjne	r6,#0x02,00114$
                           2939 ;	../../../contiki-sensinode//core/net/rpl/rpl-icmp6.c:328: dio.mc.obj.energy.flags = buffer[i + 6];
   0996 E5 81              2940 	mov	a,sp
   0998 24 FD              2941 	add	a,#0xfd
   099A F8                 2942 	mov	r0,a
   099B 74 06              2943 	mov	a,#0x06
   099D 26                 2944 	add	a,@r0
   099E FD                 2945 	mov	r5,a
   099F E4                 2946 	clr	a
   09A0 08                 2947 	inc	r0
   09A1 36                 2948 	addc	a,@r0
   09A2 FE                 2949 	mov	r6,a
   09A3 E5 81              2950 	mov	a,sp
   09A5 24 F9              2951 	add	a,#0xf9
   09A7 F8                 2952 	mov	r0,a
   09A8 ED                 2953 	mov	a,r5
   09A9 26                 2954 	add	a,@r0
   09AA FD                 2955 	mov	r5,a
   09AB EE                 2956 	mov	a,r6
   09AC 08                 2957 	inc	r0
   09AD 36                 2958 	addc	a,@r0
   09AE FE                 2959 	mov	r6,a
   09AF 08                 2960 	inc	r0
   09B0 86 04              2961 	mov	ar4,@r0
   09B2 8D 82              2962 	mov	dpl,r5
   09B4 8E 83              2963 	mov	dph,r6
   09B6 8C F0              2964 	mov	b,r4
   09B8 12s00r00           2965 	lcall	__gptrget
   09BB 90s00r75           2966 	mov	dptr,#(_dio + 0x0055)
   09BE F0                 2967 	movx	@dptr,a
                           2968 ;	../../../contiki-sensinode//core/net/rpl/rpl-icmp6.c:329: dio.mc.obj.energy.energy_est = buffer[i + 7];
   09BF E5 81              2969 	mov	a,sp
   09C1 24 FD              2970 	add	a,#0xfd
   09C3 F8                 2971 	mov	r0,a
   09C4 74 07              2972 	mov	a,#0x07
   09C6 26                 2973 	add	a,@r0
   09C7 FD                 2974 	mov	r5,a
   09C8 E4                 2975 	clr	a
   09C9 08                 2976 	inc	r0
   09CA 36                 2977 	addc	a,@r0
   09CB FE                 2978 	mov	r6,a
   09CC E5 81              2979 	mov	a,sp
   09CE 24 F9              2980 	add	a,#0xf9
   09D0 F8                 2981 	mov	r0,a
   09D1 ED                 2982 	mov	a,r5
   09D2 26                 2983 	add	a,@r0
   09D3 FD                 2984 	mov	r5,a
   09D4 EE                 2985 	mov	a,r6
   09D5 08                 2986 	inc	r0
   09D6 36                 2987 	addc	a,@r0
   09D7 FE                 2988 	mov	r6,a
   09D8 08                 2989 	inc	r0
   09D9 86 04              2990 	mov	ar4,@r0
   09DB 8D 82              2991 	mov	dpl,r5
   09DD 8E 83              2992 	mov	dph,r6
   09DF 8C F0              2993 	mov	b,r4
   09E1 12s00r00           2994 	lcall	__gptrget
   09E4 FD                 2995 	mov	r5,a
   09E5 90s00r76           2996 	mov	dptr,#(_dio + 0x0056)
   09E8 F0                 2997 	movx	@dptr,a
   09E9 02s0DrB2           2998 	ljmp	00136$
   09EC                    2999 00114$:
                           3000 ;	../../../contiki-sensinode//core/net/rpl/rpl-icmp6.c:332: return;
   09EC 02s0DrE5           3001 	ljmp	00138$
                           3002 ;	../../../contiki-sensinode//core/net/rpl/rpl-icmp6.c:335: case RPL_OPTION_ROUTE_INFO:
   09EF                    3003 00119$:
                           3004 ;	../../../contiki-sensinode//core/net/rpl/rpl-icmp6.c:336: if(len < 9) {
   09EF A8 81              3005 	mov	r0,sp
   09F1 18                 3006 	dec	r0
   09F2 C3                 3007 	clr	c
   09F3 E6                 3008 	mov	a,@r0
   09F4 94 09              3009 	subb	a,#0x09
   09F6 08                 3010 	inc	r0
   09F7 E6                 3011 	mov	a,@r0
   09F8 64 80              3012 	xrl	a,#0x80
   09FA 94 80              3013 	subb	a,#0x80
   09FC 50 03              3014 	jnc	00121$
                           3015 ;	../../../contiki-sensinode//core/net/rpl/rpl-icmp6.c:339: return;
   09FE 02s0DrE5           3016 	ljmp	00138$
   0A01                    3017 00121$:
                           3018 ;	../../../contiki-sensinode//core/net/rpl/rpl-icmp6.c:343: dio.destination_prefix.length = buffer[i + 2];
   0A01 E5 81              3019 	mov	a,sp
   0A03 24 FD              3020 	add	a,#0xfd
   0A05 F8                 3021 	mov	r0,a
   0A06 74 02              3022 	mov	a,#0x02
   0A08 26                 3023 	add	a,@r0
   0A09 FD                 3024 	mov	r5,a
   0A0A E4                 3025 	clr	a
   0A0B 08                 3026 	inc	r0
   0A0C 36                 3027 	addc	a,@r0
   0A0D FE                 3028 	mov	r6,a
   0A0E E5 81              3029 	mov	a,sp
   0A10 24 F9              3030 	add	a,#0xf9
   0A12 F8                 3031 	mov	r0,a
   0A13 ED                 3032 	mov	a,r5
   0A14 26                 3033 	add	a,@r0
   0A15 FD                 3034 	mov	r5,a
   0A16 EE                 3035 	mov	a,r6
   0A17 08                 3036 	inc	r0
   0A18 36                 3037 	addc	a,@r0
   0A19 FE                 3038 	mov	r6,a
   0A1A 08                 3039 	inc	r0
   0A1B 86 04              3040 	mov	ar4,@r0
   0A1D 8D 82              3041 	mov	dpl,r5
   0A1F 8E 83              3042 	mov	dph,r6
   0A21 8C F0              3043 	mov	b,r4
   0A23 12s00r00           3044 	lcall	__gptrget
   0A26 90s00r58           3045 	mov	dptr,#(_dio + 0x0038)
   0A29 F0                 3046 	movx	@dptr,a
                           3047 ;	../../../contiki-sensinode//core/net/rpl/rpl-icmp6.c:344: dio.destination_prefix.flags = buffer[i + 3];
   0A2A E5 81              3048 	mov	a,sp
   0A2C 24 FD              3049 	add	a,#0xfd
   0A2E F8                 3050 	mov	r0,a
   0A2F 74 03              3051 	mov	a,#0x03
   0A31 26                 3052 	add	a,@r0
   0A32 FD                 3053 	mov	r5,a
   0A33 E4                 3054 	clr	a
   0A34 08                 3055 	inc	r0
   0A35 36                 3056 	addc	a,@r0
   0A36 FE                 3057 	mov	r6,a
   0A37 E5 81              3058 	mov	a,sp
   0A39 24 F9              3059 	add	a,#0xf9
   0A3B F8                 3060 	mov	r0,a
   0A3C ED                 3061 	mov	a,r5
   0A3D 26                 3062 	add	a,@r0
   0A3E FD                 3063 	mov	r5,a
   0A3F EE                 3064 	mov	a,r6
   0A40 08                 3065 	inc	r0
   0A41 36                 3066 	addc	a,@r0
   0A42 FE                 3067 	mov	r6,a
   0A43 08                 3068 	inc	r0
   0A44 86 04              3069 	mov	ar4,@r0
   0A46 8D 82              3070 	mov	dpl,r5
   0A48 8E 83              3071 	mov	dph,r6
   0A4A 8C F0              3072 	mov	b,r4
   0A4C 12s00r00           3073 	lcall	__gptrget
   0A4F 90s00r59           3074 	mov	dptr,#(_dio + 0x0039)
   0A52 F0                 3075 	movx	@dptr,a
                           3076 ;	../../../contiki-sensinode//core/net/rpl/rpl-icmp6.c:345: dio.destination_prefix.lifetime = get32(buffer, i + 4);
   0A53 E5 81              3077 	mov	a,sp
   0A55 24 FD              3078 	add	a,#0xfd
   0A57 F8                 3079 	mov	r0,a
   0A58 74 04              3080 	mov	a,#0x04
   0A5A 26                 3081 	add	a,@r0
   0A5B FD                 3082 	mov	r5,a
   0A5C E4                 3083 	clr	a
   0A5D 08                 3084 	inc	r0
   0A5E 36                 3085 	addc	a,@r0
   0A5F FE                 3086 	mov	r6,a
   0A60 C0 05              3087 	push	ar5
   0A62 C0 06              3088 	push	ar6
   0A64 E5 81              3089 	mov	a,sp
   0A66 24 F7              3090 	add	a,#0xf7
   0A68 F8                 3091 	mov	r0,a
   0A69 86 82              3092 	mov	dpl,@r0
   0A6B 08                 3093 	inc	r0
   0A6C 86 83              3094 	mov	dph,@r0
   0A6E 08                 3095 	inc	r0
   0A6F 86 F0              3096 	mov	b,@r0
   0A71 78r25              3097 	mov	r0,#_get32
   0A73 79s01              3098 	mov	r1,#(_get32 >> 8)
   0A75 7As00              3099 	mov	r2,#(_get32 >> 16)
   0A77 12s00r00           3100 	lcall	__sdcc_banked_call
   0A7A AA 82              3101 	mov	r2,dpl
   0A7C AC 83              3102 	mov	r4,dph
   0A7E AD F0              3103 	mov	r5,b
   0A80 FE                 3104 	mov	r6,a
   0A81 15 81              3105 	dec	sp
   0A83 15 81              3106 	dec	sp
   0A85 90s00r54           3107 	mov	dptr,#(_dio + 0x0034)
   0A88 EA                 3108 	mov	a,r2
   0A89 F0                 3109 	movx	@dptr,a
   0A8A A3                 3110 	inc	dptr
   0A8B EC                 3111 	mov	a,r4
   0A8C F0                 3112 	movx	@dptr,a
   0A8D A3                 3113 	inc	dptr
   0A8E ED                 3114 	mov	a,r5
   0A8F F0                 3115 	movx	@dptr,a
   0A90 A3                 3116 	inc	dptr
   0A91 EE                 3117 	mov	a,r6
   0A92 F0                 3118 	movx	@dptr,a
                           3119 ;	../../../contiki-sensinode//core/net/rpl/rpl-icmp6.c:347: if(((dio.destination_prefix.length + 7) / 8) + 8 <= len &&
   0A93 90s00r58           3120 	mov	dptr,#(_dio + 0x0038)
   0A96 E0                 3121 	movx	a,@dptr
   0A97 FE                 3122 	mov	r6,a
   0A98 FC                 3123 	mov	r4,a
   0A99 7D 00              3124 	mov	r5,#0x00
   0A9B 74 07              3125 	mov	a,#0x07
   0A9D 2C                 3126 	add	a,r4
   0A9E FA                 3127 	mov	r2,a
   0A9F E4                 3128 	clr	a
   0AA0 3D                 3129 	addc	a,r5
   0AA1 FF                 3130 	mov	r7,a
   0AA2 C0 06              3131 	push	ar6
   0AA4 C0 05              3132 	push	ar5
   0AA6 C0 04              3133 	push	ar4
   0AA8 74 08              3134 	mov	a,#0x08
   0AAA C0 E0              3135 	push	acc
   0AAC E4                 3136 	clr	a
   0AAD C0 E0              3137 	push	acc
   0AAF 8A 82              3138 	mov	dpl,r2
   0AB1 8F 83              3139 	mov	dph,r7
   0AB3 12s00r00           3140 	lcall	__divsint
   0AB6 AB 82              3141 	mov	r3,dpl
   0AB8 AF 83              3142 	mov	r7,dph
   0ABA 15 81              3143 	dec	sp
   0ABC 15 81              3144 	dec	sp
   0ABE D0 04              3145 	pop	ar4
   0AC0 D0 05              3146 	pop	ar5
   0AC2 D0 06              3147 	pop	ar6
   0AC4 74 08              3148 	mov	a,#0x08
   0AC6 2B                 3149 	add	a,r3
   0AC7 FB                 3150 	mov	r3,a
   0AC8 E4                 3151 	clr	a
   0AC9 3F                 3152 	addc	a,r7
   0ACA FF                 3153 	mov	r7,a
   0ACB A8 81              3154 	mov	r0,sp
   0ACD 18                 3155 	dec	r0
   0ACE C3                 3156 	clr	c
   0ACF E6                 3157 	mov	a,@r0
   0AD0 9B                 3158 	subb	a,r3
   0AD1 08                 3159 	inc	r0
   0AD2 E6                 3160 	mov	a,@r0
   0AD3 64 80              3161 	xrl	a,#0x80
   0AD5 8F F0              3162 	mov	b,r7
   0AD7 63 F0 80           3163 	xrl	b,#0x80
   0ADA 95 F0              3164 	subb	a,b
   0ADC 40 60              3165 	jc	00123$
                           3166 ;	../../../contiki-sensinode//core/net/rpl/rpl-icmp6.c:348: dio.destination_prefix.length <= 128) {
   0ADE EE                 3167 	mov	a,r6
   0ADF 24 7F              3168 	add	a,#0xff - 0x80
   0AE1 40 5B              3169 	jc	00123$
                           3170 ;	../../../contiki-sensinode//core/net/rpl/rpl-icmp6.c:351: (dio.destination_prefix.length + 7) / 8);
   0AE3 74 07              3171 	mov	a,#0x07
   0AE5 2C                 3172 	add	a,r4
   0AE6 FC                 3173 	mov	r4,a
   0AE7 E4                 3174 	clr	a
   0AE8 3D                 3175 	addc	a,r5
   0AE9 FD                 3176 	mov	r5,a
   0AEA 74 08              3177 	mov	a,#0x08
   0AEC C0 E0              3178 	push	acc
   0AEE E4                 3179 	clr	a
   0AEF C0 E0              3180 	push	acc
   0AF1 8C 82              3181 	mov	dpl,r4
   0AF3 8D 83              3182 	mov	dph,r5
   0AF5 12s00r00           3183 	lcall	__divsint
   0AF8 AE 82              3184 	mov	r6,dpl
   0AFA AF 83              3185 	mov	r7,dph
   0AFC 15 81              3186 	dec	sp
   0AFE 15 81              3187 	dec	sp
                           3188 ;	../../../contiki-sensinode//core/net/rpl/rpl-icmp6.c:350: memcpy(&dio.destination_prefix.prefix, &buffer[i + 8],
   0B00 E5 81              3189 	mov	a,sp
   0B02 24 FD              3190 	add	a,#0xfd
   0B04 F8                 3191 	mov	r0,a
   0B05 74 08              3192 	mov	a,#0x08
   0B07 26                 3193 	add	a,@r0
   0B08 FC                 3194 	mov	r4,a
   0B09 E4                 3195 	clr	a
   0B0A 08                 3196 	inc	r0
   0B0B 36                 3197 	addc	a,@r0
   0B0C FD                 3198 	mov	r5,a
   0B0D E5 81              3199 	mov	a,sp
   0B0F 24 F9              3200 	add	a,#0xf9
   0B11 F8                 3201 	mov	r0,a
   0B12 EC                 3202 	mov	a,r4
   0B13 26                 3203 	add	a,@r0
   0B14 FC                 3204 	mov	r4,a
   0B15 ED                 3205 	mov	a,r5
   0B16 08                 3206 	inc	r0
   0B17 36                 3207 	addc	a,@r0
   0B18 FD                 3208 	mov	r5,a
   0B19 08                 3209 	inc	r0
   0B1A 86 03              3210 	mov	ar3,@r0
   0B1C C0 06              3211 	push	ar6
   0B1E C0 07              3212 	push	ar7
   0B20 C0 04              3213 	push	ar4
   0B22 C0 05              3214 	push	ar5
   0B24 C0 03              3215 	push	ar3
   0B26 90s00r44           3216 	mov	dptr,#(_dio + 0x0024)
   0B29 75 F0 00           3217 	mov	b,#0x00
   0B2C 78r00              3218 	mov	r0,#_memcpy
   0B2E 79s00              3219 	mov	r1,#(_memcpy >> 8)
   0B30 7As00              3220 	mov	r2,#(_memcpy >> 16)
   0B32 12s00r00           3221 	lcall	__sdcc_banked_call
   0B35 E5 81              3222 	mov	a,sp
   0B37 24 FB              3223 	add	a,#0xfb
   0B39 F5 81              3224 	mov	sp,a
   0B3B 02s0DrB2           3225 	ljmp	00136$
   0B3E                    3226 00123$:
                           3227 ;	../../../contiki-sensinode//core/net/rpl/rpl-icmp6.c:355: return;
   0B3E 02s0DrE5           3228 	ljmp	00138$
                           3229 ;	../../../contiki-sensinode//core/net/rpl/rpl-icmp6.c:359: case RPL_OPTION_DAG_CONF:
   0B41                    3230 00126$:
                           3231 ;	../../../contiki-sensinode//core/net/rpl/rpl-icmp6.c:360: if(len != 16) {
   0B41 A8 81              3232 	mov	r0,sp
   0B43 18                 3233 	dec	r0
   0B44 B6 10 06           3234 	cjne	@r0,#0x10,00193$
   0B47 08                 3235 	inc	r0
   0B48 B6 00 02           3236 	cjne	@r0,#0x00,00193$
   0B4B 80 03              3237 	sjmp	00128$
   0B4D                    3238 00193$:
                           3239 ;	../../../contiki-sensinode//core/net/rpl/rpl-icmp6.c:363: return;
   0B4D 02s0DrE5           3240 	ljmp	00138$
   0B50                    3241 00128$:
                           3242 ;	../../../contiki-sensinode//core/net/rpl/rpl-icmp6.c:367: dio.dag_intdoubl = buffer[i + 3];
   0B50 E5 81              3243 	mov	a,sp
   0B52 24 FD              3244 	add	a,#0xfd
   0B54 F8                 3245 	mov	r0,a
   0B55 74 03              3246 	mov	a,#0x03
   0B57 26                 3247 	add	a,@r0
   0B58 FE                 3248 	mov	r6,a
   0B59 E4                 3249 	clr	a
   0B5A 08                 3250 	inc	r0
   0B5B 36                 3251 	addc	a,@r0
   0B5C FF                 3252 	mov	r7,a
   0B5D E5 81              3253 	mov	a,sp
   0B5F 24 F9              3254 	add	a,#0xf9
   0B61 F8                 3255 	mov	r0,a
   0B62 EE                 3256 	mov	a,r6
   0B63 26                 3257 	add	a,@r0
   0B64 FE                 3258 	mov	r6,a
   0B65 EF                 3259 	mov	a,r7
   0B66 08                 3260 	inc	r0
   0B67 36                 3261 	addc	a,@r0
   0B68 FF                 3262 	mov	r7,a
   0B69 08                 3263 	inc	r0
   0B6A 86 05              3264 	mov	ar5,@r0
   0B6C 8E 82              3265 	mov	dpl,r6
   0B6E 8F 83              3266 	mov	dph,r7
   0B70 8D F0              3267 	mov	b,r5
   0B72 12s00r00           3268 	lcall	__gptrget
   0B75 90s00r3A           3269 	mov	dptr,#(_dio + 0x001a)
   0B78 F0                 3270 	movx	@dptr,a
                           3271 ;	../../../contiki-sensinode//core/net/rpl/rpl-icmp6.c:368: dio.dag_intmin = buffer[i + 4];
   0B79 E5 81              3272 	mov	a,sp
   0B7B 24 FD              3273 	add	a,#0xfd
   0B7D F8                 3274 	mov	r0,a
   0B7E 74 04              3275 	mov	a,#0x04
   0B80 26                 3276 	add	a,@r0
   0B81 FE                 3277 	mov	r6,a
   0B82 E4                 3278 	clr	a
   0B83 08                 3279 	inc	r0
   0B84 36                 3280 	addc	a,@r0
   0B85 FF                 3281 	mov	r7,a
   0B86 E5 81              3282 	mov	a,sp
   0B88 24 F9              3283 	add	a,#0xf9
   0B8A F8                 3284 	mov	r0,a
   0B8B EE                 3285 	mov	a,r6
   0B8C 26                 3286 	add	a,@r0
   0B8D FE                 3287 	mov	r6,a
   0B8E EF                 3288 	mov	a,r7
   0B8F 08                 3289 	inc	r0
   0B90 36                 3290 	addc	a,@r0
   0B91 FF                 3291 	mov	r7,a
   0B92 08                 3292 	inc	r0
   0B93 86 05              3293 	mov	ar5,@r0
   0B95 8E 82              3294 	mov	dpl,r6
   0B97 8F 83              3295 	mov	dph,r7
   0B99 8D F0              3296 	mov	b,r5
   0B9B 12s00r00           3297 	lcall	__gptrget
   0B9E 90s00r3B           3298 	mov	dptr,#(_dio + 0x001b)
   0BA1 F0                 3299 	movx	@dptr,a
                           3300 ;	../../../contiki-sensinode//core/net/rpl/rpl-icmp6.c:369: dio.dag_redund = buffer[i + 5];
   0BA2 E5 81              3301 	mov	a,sp
   0BA4 24 FD              3302 	add	a,#0xfd
   0BA6 F8                 3303 	mov	r0,a
   0BA7 74 05              3304 	mov	a,#0x05
   0BA9 26                 3305 	add	a,@r0
   0BAA FE                 3306 	mov	r6,a
   0BAB E4                 3307 	clr	a
   0BAC 08                 3308 	inc	r0
   0BAD 36                 3309 	addc	a,@r0
   0BAE FF                 3310 	mov	r7,a
   0BAF E5 81              3311 	mov	a,sp
   0BB1 24 F9              3312 	add	a,#0xf9
   0BB3 F8                 3313 	mov	r0,a
   0BB4 EE                 3314 	mov	a,r6
   0BB5 26                 3315 	add	a,@r0
   0BB6 FE                 3316 	mov	r6,a
   0BB7 EF                 3317 	mov	a,r7
   0BB8 08                 3318 	inc	r0
   0BB9 36                 3319 	addc	a,@r0
   0BBA FF                 3320 	mov	r7,a
   0BBB 08                 3321 	inc	r0
   0BBC 86 05              3322 	mov	ar5,@r0
   0BBE 8E 82              3323 	mov	dpl,r6
   0BC0 8F 83              3324 	mov	dph,r7
   0BC2 8D F0              3325 	mov	b,r5
   0BC4 12s00r00           3326 	lcall	__gptrget
   0BC7 90s00r3C           3327 	mov	dptr,#(_dio + 0x001c)
   0BCA F0                 3328 	movx	@dptr,a
                           3329 ;	../../../contiki-sensinode//core/net/rpl/rpl-icmp6.c:370: dio.dag_max_rankinc = get16(buffer, i + 6);
   0BCB E5 81              3330 	mov	a,sp
   0BCD 24 FD              3331 	add	a,#0xfd
   0BCF F8                 3332 	mov	r0,a
   0BD0 74 06              3333 	mov	a,#0x06
   0BD2 26                 3334 	add	a,@r0
   0BD3 FE                 3335 	mov	r6,a
   0BD4 E4                 3336 	clr	a
   0BD5 08                 3337 	inc	r0
   0BD6 36                 3338 	addc	a,@r0
   0BD7 FF                 3339 	mov	r7,a
   0BD8 C0 06              3340 	push	ar6
   0BDA C0 07              3341 	push	ar7
   0BDC E5 81              3342 	mov	a,sp
   0BDE 24 F7              3343 	add	a,#0xf7
   0BE0 F8                 3344 	mov	r0,a
   0BE1 86 82              3345 	mov	dpl,@r0
   0BE3 08                 3346 	inc	r0
   0BE4 86 83              3347 	mov	dph,@r0
   0BE6 08                 3348 	inc	r0
   0BE7 86 F0              3349 	mov	b,@r0
   0BE9 78r39              3350 	mov	r0,#_get16
   0BEB 79s03              3351 	mov	r1,#(_get16 >> 8)
   0BED 7As00              3352 	mov	r2,#(_get16 >> 16)
   0BEF 12s00r00           3353 	lcall	__sdcc_banked_call
   0BF2 AE 82              3354 	mov	r6,dpl
   0BF4 AF 83              3355 	mov	r7,dph
   0BF6 15 81              3356 	dec	sp
   0BF8 15 81              3357 	dec	sp
   0BFA 90s00r40           3358 	mov	dptr,#(_dio + 0x0020)
   0BFD EE                 3359 	mov	a,r6
   0BFE F0                 3360 	movx	@dptr,a
   0BFF A3                 3361 	inc	dptr
   0C00 EF                 3362 	mov	a,r7
   0C01 F0                 3363 	movx	@dptr,a
                           3364 ;	../../../contiki-sensinode//core/net/rpl/rpl-icmp6.c:371: dio.dag_min_hoprankinc = get16(buffer, i + 8);
   0C02 E5 81              3365 	mov	a,sp
   0C04 24 FD              3366 	add	a,#0xfd
   0C06 F8                 3367 	mov	r0,a
   0C07 74 08              3368 	mov	a,#0x08
   0C09 26                 3369 	add	a,@r0
   0C0A FE                 3370 	mov	r6,a
   0C0B E4                 3371 	clr	a
   0C0C 08                 3372 	inc	r0
   0C0D 36                 3373 	addc	a,@r0
   0C0E FF                 3374 	mov	r7,a
   0C0F C0 06              3375 	push	ar6
   0C11 C0 07              3376 	push	ar7
   0C13 E5 81              3377 	mov	a,sp
   0C15 24 F7              3378 	add	a,#0xf7
   0C17 F8                 3379 	mov	r0,a
   0C18 86 82              3380 	mov	dpl,@r0
   0C1A 08                 3381 	inc	r0
   0C1B 86 83              3382 	mov	dph,@r0
   0C1D 08                 3383 	inc	r0
   0C1E 86 F0              3384 	mov	b,@r0
   0C20 78r39              3385 	mov	r0,#_get16
   0C22 79s03              3386 	mov	r1,#(_get16 >> 8)
   0C24 7As00              3387 	mov	r2,#(_get16 >> 16)
   0C26 12s00r00           3388 	lcall	__sdcc_banked_call
   0C29 AE 82              3389 	mov	r6,dpl
   0C2B AF 83              3390 	mov	r7,dph
   0C2D 15 81              3391 	dec	sp
   0C2F 15 81              3392 	dec	sp
   0C31 90s00r42           3393 	mov	dptr,#(_dio + 0x0022)
   0C34 EE                 3394 	mov	a,r6
   0C35 F0                 3395 	movx	@dptr,a
   0C36 A3                 3396 	inc	dptr
   0C37 EF                 3397 	mov	a,r7
   0C38 F0                 3398 	movx	@dptr,a
                           3399 ;	../../../contiki-sensinode//core/net/rpl/rpl-icmp6.c:372: dio.ocp = get16(buffer, i + 10);
   0C39 E5 81              3400 	mov	a,sp
   0C3B 24 FD              3401 	add	a,#0xfd
   0C3D F8                 3402 	mov	r0,a
   0C3E 74 0A              3403 	mov	a,#0x0A
   0C40 26                 3404 	add	a,@r0
   0C41 FE                 3405 	mov	r6,a
   0C42 E4                 3406 	clr	a
   0C43 08                 3407 	inc	r0
   0C44 36                 3408 	addc	a,@r0
   0C45 FF                 3409 	mov	r7,a
   0C46 C0 06              3410 	push	ar6
   0C48 C0 07              3411 	push	ar7
   0C4A E5 81              3412 	mov	a,sp
   0C4C 24 F7              3413 	add	a,#0xf7
   0C4E F8                 3414 	mov	r0,a
   0C4F 86 82              3415 	mov	dpl,@r0
   0C51 08                 3416 	inc	r0
   0C52 86 83              3417 	mov	dph,@r0
   0C54 08                 3418 	inc	r0
   0C55 86 F0              3419 	mov	b,@r0
   0C57 78r39              3420 	mov	r0,#_get16
   0C59 79s03              3421 	mov	r1,#(_get16 >> 8)
   0C5B 7As00              3422 	mov	r2,#(_get16 >> 16)
   0C5D 12s00r00           3423 	lcall	__sdcc_banked_call
   0C60 AE 82              3424 	mov	r6,dpl
   0C62 AF 83              3425 	mov	r7,dph
   0C64 15 81              3426 	dec	sp
   0C66 15 81              3427 	dec	sp
   0C68 90s00r30           3428 	mov	dptr,#(_dio + 0x0010)
   0C6B EE                 3429 	mov	a,r6
   0C6C F0                 3430 	movx	@dptr,a
   0C6D A3                 3431 	inc	dptr
   0C6E EF                 3432 	mov	a,r7
   0C6F F0                 3433 	movx	@dptr,a
                           3434 ;	../../../contiki-sensinode//core/net/rpl/rpl-icmp6.c:374: dio.default_lifetime = buffer[i + 13];
   0C70 E5 81              3435 	mov	a,sp
   0C72 24 FD              3436 	add	a,#0xfd
   0C74 F8                 3437 	mov	r0,a
   0C75 74 0D              3438 	mov	a,#0x0D
   0C77 26                 3439 	add	a,@r0
   0C78 FE                 3440 	mov	r6,a
   0C79 E4                 3441 	clr	a
   0C7A 08                 3442 	inc	r0
   0C7B 36                 3443 	addc	a,@r0
   0C7C FF                 3444 	mov	r7,a
   0C7D E5 81              3445 	mov	a,sp
   0C7F 24 F9              3446 	add	a,#0xf9
   0C81 F8                 3447 	mov	r0,a
   0C82 EE                 3448 	mov	a,r6
   0C83 26                 3449 	add	a,@r0
   0C84 FE                 3450 	mov	r6,a
   0C85 EF                 3451 	mov	a,r7
   0C86 08                 3452 	inc	r0
   0C87 36                 3453 	addc	a,@r0
   0C88 FF                 3454 	mov	r7,a
   0C89 08                 3455 	inc	r0
   0C8A 86 05              3456 	mov	ar5,@r0
   0C8C 8E 82              3457 	mov	dpl,r6
   0C8E 8F 83              3458 	mov	dph,r7
   0C90 8D F0              3459 	mov	b,r5
   0C92 12s00r00           3460 	lcall	__gptrget
   0C95 90s00r3D           3461 	mov	dptr,#(_dio + 0x001d)
   0C98 F0                 3462 	movx	@dptr,a
                           3463 ;	../../../contiki-sensinode//core/net/rpl/rpl-icmp6.c:375: dio.lifetime_unit = get16(buffer, i + 14);
   0C99 E5 81              3464 	mov	a,sp
   0C9B 24 FD              3465 	add	a,#0xfd
   0C9D F8                 3466 	mov	r0,a
   0C9E 74 0E              3467 	mov	a,#0x0E
   0CA0 26                 3468 	add	a,@r0
   0CA1 FE                 3469 	mov	r6,a
   0CA2 E4                 3470 	clr	a
   0CA3 08                 3471 	inc	r0
   0CA4 36                 3472 	addc	a,@r0
   0CA5 FF                 3473 	mov	r7,a
   0CA6 C0 06              3474 	push	ar6
   0CA8 C0 07              3475 	push	ar7
   0CAA E5 81              3476 	mov	a,sp
   0CAC 24 F7              3477 	add	a,#0xf7
   0CAE F8                 3478 	mov	r0,a
   0CAF 86 82              3479 	mov	dpl,@r0
   0CB1 08                 3480 	inc	r0
   0CB2 86 83              3481 	mov	dph,@r0
   0CB4 08                 3482 	inc	r0
   0CB5 86 F0              3483 	mov	b,@r0
   0CB7 78r39              3484 	mov	r0,#_get16
   0CB9 79s03              3485 	mov	r1,#(_get16 >> 8)
   0CBB 7As00              3486 	mov	r2,#(_get16 >> 16)
   0CBD 12s00r00           3487 	lcall	__sdcc_banked_call
   0CC0 AE 82              3488 	mov	r6,dpl
   0CC2 AF 83              3489 	mov	r7,dph
   0CC4 15 81              3490 	dec	sp
   0CC6 15 81              3491 	dec	sp
   0CC8 90s00r3E           3492 	mov	dptr,#(_dio + 0x001e)
   0CCB EE                 3493 	mov	a,r6
   0CCC F0                 3494 	movx	@dptr,a
   0CCD A3                 3495 	inc	dptr
   0CCE EF                 3496 	mov	a,r7
   0CCF F0                 3497 	movx	@dptr,a
                           3498 ;	../../../contiki-sensinode//core/net/rpl/rpl-icmp6.c:380: break;
   0CD0 02s0DrB2           3499 	ljmp	00136$
                           3500 ;	../../../contiki-sensinode//core/net/rpl/rpl-icmp6.c:381: case RPL_OPTION_PREFIX_INFO:
   0CD3                    3501 00129$:
                           3502 ;	../../../contiki-sensinode//core/net/rpl/rpl-icmp6.c:382: if(len != 32) {
   0CD3 A8 81              3503 	mov	r0,sp
   0CD5 18                 3504 	dec	r0
   0CD6 B6 20 06           3505 	cjne	@r0,#0x20,00194$
   0CD9 08                 3506 	inc	r0
   0CDA B6 00 02           3507 	cjne	@r0,#0x00,00194$
   0CDD 80 03              3508 	sjmp	00131$
   0CDF                    3509 00194$:
                           3510 ;	../../../contiki-sensinode//core/net/rpl/rpl-icmp6.c:385: return;
   0CDF 02s0DrE5           3511 	ljmp	00138$
   0CE2                    3512 00131$:
                           3513 ;	../../../contiki-sensinode//core/net/rpl/rpl-icmp6.c:387: dio.prefix_info.length = buffer[i + 2];
   0CE2 E5 81              3514 	mov	a,sp
   0CE4 24 FD              3515 	add	a,#0xfd
   0CE6 F8                 3516 	mov	r0,a
   0CE7 74 02              3517 	mov	a,#0x02
   0CE9 26                 3518 	add	a,@r0
   0CEA FE                 3519 	mov	r6,a
   0CEB E4                 3520 	clr	a
   0CEC 08                 3521 	inc	r0
   0CED 36                 3522 	addc	a,@r0
   0CEE FF                 3523 	mov	r7,a
   0CEF E5 81              3524 	mov	a,sp
   0CF1 24 F9              3525 	add	a,#0xf9
   0CF3 F8                 3526 	mov	r0,a
   0CF4 EE                 3527 	mov	a,r6
   0CF5 26                 3528 	add	a,@r0
   0CF6 FE                 3529 	mov	r6,a
   0CF7 EF                 3530 	mov	a,r7
   0CF8 08                 3531 	inc	r0
   0CF9 36                 3532 	addc	a,@r0
   0CFA FF                 3533 	mov	r7,a
   0CFB 08                 3534 	inc	r0
   0CFC 86 05              3535 	mov	ar5,@r0
   0CFE 8E 82              3536 	mov	dpl,r6
   0D00 8F 83              3537 	mov	dph,r7
   0D02 8D F0              3538 	mov	b,r5
   0D04 12s00r00           3539 	lcall	__gptrget
   0D07 90s00r6E           3540 	mov	dptr,#(_dio + 0x004e)
   0D0A F0                 3541 	movx	@dptr,a
                           3542 ;	../../../contiki-sensinode//core/net/rpl/rpl-icmp6.c:388: dio.prefix_info.flags = buffer[i + 3];
   0D0B E5 81              3543 	mov	a,sp
   0D0D 24 FD              3544 	add	a,#0xfd
   0D0F F8                 3545 	mov	r0,a
   0D10 74 03              3546 	mov	a,#0x03
   0D12 26                 3547 	add	a,@r0
   0D13 FE                 3548 	mov	r6,a
   0D14 E4                 3549 	clr	a
   0D15 08                 3550 	inc	r0
   0D16 36                 3551 	addc	a,@r0
   0D17 FF                 3552 	mov	r7,a
   0D18 E5 81              3553 	mov	a,sp
   0D1A 24 F9              3554 	add	a,#0xf9
   0D1C F8                 3555 	mov	r0,a
   0D1D EE                 3556 	mov	a,r6
   0D1E 26                 3557 	add	a,@r0
   0D1F FE                 3558 	mov	r6,a
   0D20 EF                 3559 	mov	a,r7
   0D21 08                 3560 	inc	r0
   0D22 36                 3561 	addc	a,@r0
   0D23 FF                 3562 	mov	r7,a
   0D24 08                 3563 	inc	r0
   0D25 86 05              3564 	mov	ar5,@r0
   0D27 8E 82              3565 	mov	dpl,r6
   0D29 8F 83              3566 	mov	dph,r7
   0D2B 8D F0              3567 	mov	b,r5
   0D2D 12s00r00           3568 	lcall	__gptrget
   0D30 90s00r6F           3569 	mov	dptr,#(_dio + 0x004f)
   0D33 F0                 3570 	movx	@dptr,a
                           3571 ;	../../../contiki-sensinode//core/net/rpl/rpl-icmp6.c:391: dio.prefix_info.lifetime = get32(buffer, i + 8);
   0D34 E5 81              3572 	mov	a,sp
   0D36 24 FD              3573 	add	a,#0xfd
   0D38 F8                 3574 	mov	r0,a
   0D39 74 08              3575 	mov	a,#0x08
   0D3B 26                 3576 	add	a,@r0
   0D3C FE                 3577 	mov	r6,a
   0D3D E4                 3578 	clr	a
   0D3E 08                 3579 	inc	r0
   0D3F 36                 3580 	addc	a,@r0
   0D40 FF                 3581 	mov	r7,a
   0D41 C0 06              3582 	push	ar6
   0D43 C0 07              3583 	push	ar7
   0D45 E5 81              3584 	mov	a,sp
   0D47 24 F7              3585 	add	a,#0xf7
   0D49 F8                 3586 	mov	r0,a
   0D4A 86 82              3587 	mov	dpl,@r0
   0D4C 08                 3588 	inc	r0
   0D4D 86 83              3589 	mov	dph,@r0
   0D4F 08                 3590 	inc	r0
   0D50 86 F0              3591 	mov	b,@r0
   0D52 78r25              3592 	mov	r0,#_get32
   0D54 79s01              3593 	mov	r1,#(_get32 >> 8)
   0D56 7As00              3594 	mov	r2,#(_get32 >> 16)
   0D58 12s00r00           3595 	lcall	__sdcc_banked_call
   0D5B AC 82              3596 	mov	r4,dpl
   0D5D AD 83              3597 	mov	r5,dph
   0D5F AE F0              3598 	mov	r6,b
   0D61 FF                 3599 	mov	r7,a
   0D62 15 81              3600 	dec	sp
   0D64 15 81              3601 	dec	sp
   0D66 90s00r6A           3602 	mov	dptr,#(_dio + 0x004a)
   0D69 EC                 3603 	mov	a,r4
   0D6A F0                 3604 	movx	@dptr,a
   0D6B A3                 3605 	inc	dptr
   0D6C ED                 3606 	mov	a,r5
   0D6D F0                 3607 	movx	@dptr,a
   0D6E A3                 3608 	inc	dptr
   0D6F EE                 3609 	mov	a,r6
   0D70 F0                 3610 	movx	@dptr,a
   0D71 A3                 3611 	inc	dptr
   0D72 EF                 3612 	mov	a,r7
   0D73 F0                 3613 	movx	@dptr,a
                           3614 ;	../../../contiki-sensinode//core/net/rpl/rpl-icmp6.c:394: memcpy(&dio.prefix_info.prefix, &buffer[i + 16], 16);
   0D74 E5 81              3615 	mov	a,sp
   0D76 24 FD              3616 	add	a,#0xfd
   0D78 F8                 3617 	mov	r0,a
   0D79 74 10              3618 	mov	a,#0x10
   0D7B 26                 3619 	add	a,@r0
   0D7C FE                 3620 	mov	r6,a
   0D7D E4                 3621 	clr	a
   0D7E 08                 3622 	inc	r0
   0D7F 36                 3623 	addc	a,@r0
   0D80 FF                 3624 	mov	r7,a
   0D81 E5 81              3625 	mov	a,sp
   0D83 24 F9              3626 	add	a,#0xf9
   0D85 F8                 3627 	mov	r0,a
   0D86 EE                 3628 	mov	a,r6
   0D87 26                 3629 	add	a,@r0
   0D88 FE                 3630 	mov	r6,a
   0D89 EF                 3631 	mov	a,r7
   0D8A 08                 3632 	inc	r0
   0D8B 36                 3633 	addc	a,@r0
   0D8C FF                 3634 	mov	r7,a
   0D8D 08                 3635 	inc	r0
   0D8E 86 05              3636 	mov	ar5,@r0
   0D90 74 10              3637 	mov	a,#0x10
   0D92 C0 E0              3638 	push	acc
   0D94 E4                 3639 	clr	a
   0D95 C0 E0              3640 	push	acc
   0D97 C0 06              3641 	push	ar6
   0D99 C0 07              3642 	push	ar7
   0D9B C0 05              3643 	push	ar5
   0D9D 90s00r5A           3644 	mov	dptr,#(_dio + 0x003a)
   0DA0 75 F0 00           3645 	mov	b,#0x00
   0DA3 78r00              3646 	mov	r0,#_memcpy
   0DA5 79s00              3647 	mov	r1,#(_memcpy >> 8)
   0DA7 7As00              3648 	mov	r2,#(_memcpy >> 16)
   0DA9 12s00r00           3649 	lcall	__sdcc_banked_call
   0DAC E5 81              3650 	mov	a,sp
   0DAE 24 FB              3651 	add	a,#0xfb
   0DB0 F5 81              3652 	mov	sp,a
                           3653 ;	../../../contiki-sensinode//core/net/rpl/rpl-icmp6.c:399: }
   0DB2                    3654 00136$:
                           3655 ;	../../../contiki-sensinode//core/net/rpl/rpl-icmp6.c:286: for(; i < buffer_length; i += len) {
   0DB2 E5 81              3656 	mov	a,sp
   0DB4 24 FD              3657 	add	a,#0xfd
   0DB6 F8                 3658 	mov	r0,a
   0DB7 A9 81              3659 	mov	r1,sp
   0DB9 19                 3660 	dec	r1
   0DBA E7                 3661 	mov	a,@r1
   0DBB 26                 3662 	add	a,@r0
   0DBC F6                 3663 	mov	@r0,a
   0DBD 09                 3664 	inc	r1
   0DBE E7                 3665 	mov	a,@r1
   0DBF 08                 3666 	inc	r0
   0DC0 36                 3667 	addc	a,@r0
   0DC1 F6                 3668 	mov	@r0,a
   0DC2 02s07rAD           3669 	ljmp	00134$
   0DC5                    3670 00137$:
                           3671 ;	../../../contiki-sensinode//core/net/rpl/rpl-icmp6.c:406: rpl_process_dio(&from, &dio);
   0DC5 74r20              3672 	mov	a,#_dio
   0DC7 C0 E0              3673 	push	acc
   0DC9 74s00              3674 	mov	a,#(_dio >> 8)
   0DCB C0 E0              3675 	push	acc
   0DCD E4                 3676 	clr	a
   0DCE C0 E0              3677 	push	acc
   0DD0 90s00r77           3678 	mov	dptr,#_from
   0DD3 75 F0 00           3679 	mov	b,#0x00
   0DD6 78r00              3680 	mov	r0,#_rpl_process_dio
   0DD8 79s00              3681 	mov	r1,#(_rpl_process_dio >> 8)
   0DDA 7As00              3682 	mov	r2,#(_rpl_process_dio >> 16)
   0DDC 12s00r00           3683 	lcall	__sdcc_banked_call
   0DDF 15 81              3684 	dec	sp
   0DE1 15 81              3685 	dec	sp
   0DE3 15 81              3686 	dec	sp
   0DE5                    3687 00138$:
   0DE5 E5 81              3688 	mov	a,sp
   0DE7 24 F8              3689 	add	a,#0xF8
   0DE9 F5 81              3690 	mov	sp,a
   0DEB 02s00r00           3691 	ljmp	__sdcc_banked_ret
                           3692 ;------------------------------------------------------------
                           3693 ;Allocation info for local variables in function 'dio_output'
                           3694 ;------------------------------------------------------------
                           3695 ;uc_addr                   Allocated to stack - sp -23
                           3696 ;instance                  Allocated to stack - sp -17
                           3697 ;buffer                    Allocated to stack - sp -14
                           3698 ;dag                       Allocated to stack - sp -11
                           3699 ;__00020007                Allocated to registers 
                           3700 ;sloc0                     Allocated to stack - sp -8
                           3701 ;sloc1                     Allocated to stack - sp -6
                           3702 ;sloc2                     Allocated to stack - sp -5
                           3703 ;sloc3                     Allocated to stack - sp -2
                           3704 ;pos                       Allocated with name '_dio_output_pos_1_1'
                           3705 ;------------------------------------------------------------
                           3706 ;	../../../contiki-sensinode//core/net/rpl/rpl-icmp6.c:410: dio_output(rpl_instance_t *instance, uip_ipaddr_t *uc_addr)
                           3707 ;	-----------------------------------------
                           3708 ;	 function dio_output
                           3709 ;	-----------------------------------------
   0DEE                    3710 _dio_output:
   0DEE C0 82              3711 	push	dpl
   0DF0 C0 83              3712 	push	dph
   0DF2 C0 F0              3713 	push	b
   0DF4 E5 81              3714 	mov	a,sp
   0DF6 24 0F              3715 	add	a,#0x0F
                           3716 ;	../../../contiki-sensinode//core/net/rpl/rpl-icmp6.c:414: rpl_dag_t *dag = instance->current_dag;
   0DF8 F5 81              3717 	mov	sp,a
   0DFA 24 EF              3718 	add	a,#0xef
   0DFC F8                 3719 	mov	r0,a
   0DFD 74 0A              3720 	mov	a,#0x0A
   0DFF 26                 3721 	add	a,@r0
   0E00 FA                 3722 	mov	r2,a
   0E01 E4                 3723 	clr	a
   0E02 08                 3724 	inc	r0
   0E03 36                 3725 	addc	a,@r0
   0E04 FB                 3726 	mov	r3,a
   0E05 08                 3727 	inc	r0
   0E06 86 04              3728 	mov	ar4,@r0
   0E08 8A 82              3729 	mov	dpl,r2
   0E0A 8B 83              3730 	mov	dph,r3
   0E0C 8C F0              3731 	mov	b,r4
   0E0E 12s00r00           3732 	lcall	__gptrget
   0E11 FA                 3733 	mov	r2,a
   0E12 A3                 3734 	inc	dptr
   0E13 12s00r00           3735 	lcall	__gptrget
   0E16 FB                 3736 	mov	r3,a
   0E17 A3                 3737 	inc	dptr
   0E18 12s00r00           3738 	lcall	__gptrget
   0E1B FC                 3739 	mov	r4,a
   0E1C E5 81              3740 	mov	a,sp
   0E1E 24 F5              3741 	add	a,#0xf5
   0E20 F8                 3742 	mov	r0,a
   0E21 A6 02              3743 	mov	@r0,ar2
   0E23 08                 3744 	inc	r0
   0E24 A6 03              3745 	mov	@r0,ar3
   0E26 08                 3746 	inc	r0
   0E27 A6 04              3747 	mov	@r0,ar4
                           3748 ;	../../../contiki-sensinode//core/net/rpl/rpl-icmp6.c:427: buffer = UIP_ICMP_PAYLOAD;
   0E29 90s00r00           3749 	mov	dptr,#_uip_ext_len
   0E2C E0                 3750 	movx	a,@dptr
   0E2D FC                 3751 	mov	r4,a
   0E2E 7B 00              3752 	mov	r3,#0x00
   0E30 74 2C              3753 	mov	a,#0x2C
   0E32 2C                 3754 	add	a,r4
   0E33 FC                 3755 	mov	r4,a
   0E34 E4                 3756 	clr	a
   0E35 3B                 3757 	addc	a,r3
   0E36 FB                 3758 	mov	r3,a
   0E37 EC                 3759 	mov	a,r4
   0E38 24r00              3760 	add	a,#_uip_aligned_buf
   0E3A FC                 3761 	mov	r4,a
   0E3B EB                 3762 	mov	a,r3
   0E3C 34s00              3763 	addc	a,#(_uip_aligned_buf >> 8)
   0E3E FB                 3764 	mov	r3,a
   0E3F E5 81              3765 	mov	a,sp
   0E41 24 F2              3766 	add	a,#0xf2
   0E43 F8                 3767 	mov	r0,a
   0E44 A6 04              3768 	mov	@r0,ar4
   0E46 08                 3769 	inc	r0
   0E47 A6 03              3770 	mov	@r0,ar3
   0E49 08                 3771 	inc	r0
   0E4A 76 00              3772 	mov	@r0,#0x00
                           3773 ;	../../../contiki-sensinode//core/net/rpl/rpl-icmp6.c:428: buffer[pos++] = instance->instance_id;
   0E4C E5 81              3774 	mov	a,sp
   0E4E 24 EF              3775 	add	a,#0xef
   0E50 F8                 3776 	mov	r0,a
   0E51 74 86              3777 	mov	a,#0x86
   0E53 26                 3778 	add	a,@r0
   0E54 FD                 3779 	mov	r5,a
   0E55 E4                 3780 	clr	a
   0E56 08                 3781 	inc	r0
   0E57 36                 3782 	addc	a,@r0
   0E58 FE                 3783 	mov	r6,a
   0E59 08                 3784 	inc	r0
   0E5A 86 07              3785 	mov	ar7,@r0
   0E5C 8D 82              3786 	mov	dpl,r5
   0E5E 8E 83              3787 	mov	dph,r6
   0E60 8F F0              3788 	mov	b,r7
   0E62 12s00r00           3789 	lcall	__gptrget
   0E65 FD                 3790 	mov	r5,a
   0E66 E5 81              3791 	mov	a,sp
   0E68 24 F2              3792 	add	a,#0xf2
   0E6A F8                 3793 	mov	r0,a
   0E6B 86 82              3794 	mov	dpl,@r0
   0E6D 08                 3795 	inc	r0
   0E6E 86 83              3796 	mov	dph,@r0
   0E70 08                 3797 	inc	r0
   0E71 86 F0              3798 	mov	b,@r0
   0E73 ED                 3799 	mov	a,r5
   0E74 12s00r00           3800 	lcall	__gptrput
                           3801 ;	../../../contiki-sensinode//core/net/rpl/rpl-icmp6.c:429: buffer[pos++] = dag->version;
   0E77 90s00rA7           3802 	mov	dptr,#_dio_output_pos_1_1
   0E7A 74 02              3803 	mov	a,#0x02
   0E7C F0                 3804 	movx	@dptr,a
   0E7D A3                 3805 	inc	dptr
   0E7E E4                 3806 	clr	a
   0E7F F0                 3807 	movx	@dptr,a
   0E80 E5 81              3808 	mov	a,sp
   0E82 24 F2              3809 	add	a,#0xf2
   0E84 F8                 3810 	mov	r0,a
   0E85 74 01              3811 	mov	a,#0x01
   0E87 26                 3812 	add	a,@r0
   0E88 FD                 3813 	mov	r5,a
   0E89 E4                 3814 	clr	a
   0E8A 08                 3815 	inc	r0
   0E8B 36                 3816 	addc	a,@r0
   0E8C FE                 3817 	mov	r6,a
   0E8D 08                 3818 	inc	r0
   0E8E 86 07              3819 	mov	ar7,@r0
   0E90 E5 81              3820 	mov	a,sp
   0E92 24 F5              3821 	add	a,#0xf5
   0E94 F8                 3822 	mov	r0,a
   0E95 74 12              3823 	mov	a,#0x12
   0E97 26                 3824 	add	a,@r0
   0E98 FA                 3825 	mov	r2,a
   0E99 E4                 3826 	clr	a
   0E9A 08                 3827 	inc	r0
   0E9B 36                 3828 	addc	a,@r0
   0E9C FB                 3829 	mov	r3,a
   0E9D 08                 3830 	inc	r0
   0E9E 86 04              3831 	mov	ar4,@r0
   0EA0 8A 82              3832 	mov	dpl,r2
   0EA2 8B 83              3833 	mov	dph,r3
   0EA4 8C F0              3834 	mov	b,r4
   0EA6 12s00r00           3835 	lcall	__gptrget
   0EA9 8D 82              3836 	mov	dpl,r5
   0EAB 8E 83              3837 	mov	dph,r6
   0EAD 8F F0              3838 	mov	b,r7
   0EAF 12s00r00           3839 	lcall	__gptrput
                           3840 ;	../../../contiki-sensinode//core/net/rpl/rpl-icmp6.c:434: set16(buffer, pos, dag->rank);
   0EB2 E5 81              3841 	mov	a,sp
   0EB4 24 F5              3842 	add	a,#0xf5
   0EB6 F8                 3843 	mov	r0,a
   0EB7 74 1A              3844 	mov	a,#0x1A
   0EB9 26                 3845 	add	a,@r0
   0EBA FD                 3846 	mov	r5,a
   0EBB E4                 3847 	clr	a
   0EBC 08                 3848 	inc	r0
   0EBD 36                 3849 	addc	a,@r0
   0EBE FE                 3850 	mov	r6,a
   0EBF 08                 3851 	inc	r0
   0EC0 86 07              3852 	mov	ar7,@r0
   0EC2 8D 82              3853 	mov	dpl,r5
   0EC4 8E 83              3854 	mov	dph,r6
   0EC6 8F F0              3855 	mov	b,r7
   0EC8 12s00r00           3856 	lcall	__gptrget
   0ECB FD                 3857 	mov	r5,a
   0ECC A3                 3858 	inc	dptr
   0ECD 12s00r00           3859 	lcall	__gptrget
   0ED0 FE                 3860 	mov	r6,a
   0ED1 C0 05              3861 	push	ar5
   0ED3 C0 06              3862 	push	ar6
   0ED5 74 02              3863 	mov	a,#0x02
   0ED7 C0 E0              3864 	push	acc
   0ED9 E4                 3865 	clr	a
   0EDA C0 E0              3866 	push	acc
   0EDC E5 81              3867 	mov	a,sp
   0EDE 24 EE              3868 	add	a,#0xee
   0EE0 F8                 3869 	mov	r0,a
   0EE1 86 82              3870 	mov	dpl,@r0
   0EE3 08                 3871 	inc	r0
   0EE4 86 83              3872 	mov	dph,@r0
   0EE6 08                 3873 	inc	r0
   0EE7 86 F0              3874 	mov	b,@r0
   0EE9 78r98              3875 	mov	r0,#_set16
   0EEB 79s03              3876 	mov	r1,#(_set16 >> 8)
   0EED 7As00              3877 	mov	r2,#(_set16 >> 16)
   0EEF 12s00r00           3878 	lcall	__sdcc_banked_call
   0EF2 E5 81              3879 	mov	a,sp
   0EF4 24 FC              3880 	add	a,#0xfc
   0EF6 F5 81              3881 	mov	sp,a
                           3882 ;	../../../contiki-sensinode//core/net/rpl/rpl-icmp6.c:436: pos += 2;
   0EF8 90s00rA7           3883 	mov	dptr,#_dio_output_pos_1_1
   0EFB E0                 3884 	movx	a,@dptr
   0EFC FE                 3885 	mov	r6,a
   0EFD A3                 3886 	inc	dptr
   0EFE E0                 3887 	movx	a,@dptr
   0EFF FF                 3888 	mov	r7,a
   0F00 90s00rA7           3889 	mov	dptr,#_dio_output_pos_1_1
   0F03 74 02              3890 	mov	a,#0x02
   0F05 2E                 3891 	add	a,r6
   0F06 F0                 3892 	movx	@dptr,a
   0F07 E4                 3893 	clr	a
   0F08 3F                 3894 	addc	a,r7
   0F09 A3                 3895 	inc	dptr
   0F0A F0                 3896 	movx	@dptr,a
                           3897 ;	../../../contiki-sensinode//core/net/rpl/rpl-icmp6.c:438: buffer[pos] = 0;
   0F0B 90s00rA7           3898 	mov	dptr,#_dio_output_pos_1_1
   0F0E E5 81              3899 	mov	a,sp
   0F10 24 F8              3900 	add	a,#0xf8
   0F12 F8                 3901 	mov	r0,a
   0F13 E0                 3902 	movx	a,@dptr
   0F14 F6                 3903 	mov	@r0,a
   0F15 A3                 3904 	inc	dptr
   0F16 E0                 3905 	movx	a,@dptr
   0F17 08                 3906 	inc	r0
   0F18 F6                 3907 	mov	@r0,a
   0F19 E5 81              3908 	mov	a,sp
   0F1B 24 F2              3909 	add	a,#0xf2
   0F1D F8                 3910 	mov	r0,a
   0F1E E5 81              3911 	mov	a,sp
   0F20 24 F8              3912 	add	a,#0xf8
   0F22 F9                 3913 	mov	r1,a
   0F23 E7                 3914 	mov	a,@r1
   0F24 26                 3915 	add	a,@r0
   0F25 FB                 3916 	mov	r3,a
   0F26 09                 3917 	inc	r1
   0F27 E7                 3918 	mov	a,@r1
   0F28 08                 3919 	inc	r0
   0F29 36                 3920 	addc	a,@r0
   0F2A FC                 3921 	mov	r4,a
   0F2B 08                 3922 	inc	r0
   0F2C 86 05              3923 	mov	ar5,@r0
   0F2E 8B 82              3924 	mov	dpl,r3
   0F30 8C 83              3925 	mov	dph,r4
   0F32 8D F0              3926 	mov	b,r5
   0F34 E4                 3927 	clr	a
   0F35 12s00r00           3928 	lcall	__gptrput
                           3929 ;	../../../contiki-sensinode//core/net/rpl/rpl-icmp6.c:439: if(dag->grounded) {
   0F38 E5 81              3930 	mov	a,sp
   0F3A 24 F5              3931 	add	a,#0xf5
   0F3C F8                 3932 	mov	r0,a
   0F3D 74 13              3933 	mov	a,#0x13
   0F3F 26                 3934 	add	a,@r0
   0F40 FA                 3935 	mov	r2,a
   0F41 E4                 3936 	clr	a
   0F42 08                 3937 	inc	r0
   0F43 36                 3938 	addc	a,@r0
   0F44 FE                 3939 	mov	r6,a
   0F45 08                 3940 	inc	r0
   0F46 86 07              3941 	mov	ar7,@r0
   0F48 8A 82              3942 	mov	dpl,r2
   0F4A 8E 83              3943 	mov	dph,r6
   0F4C 8F F0              3944 	mov	b,r7
   0F4E 12s00r00           3945 	lcall	__gptrget
   0F51 60 17              3946 	jz	00102$
                           3947 ;	../../../contiki-sensinode//core/net/rpl/rpl-icmp6.c:440: buffer[pos] |= RPL_DIO_GROUNDED;
   0F53 8B 82              3948 	mov	dpl,r3
   0F55 8C 83              3949 	mov	dph,r4
   0F57 8D F0              3950 	mov	b,r5
   0F59 12s00r00           3951 	lcall	__gptrget
   0F5C FF                 3952 	mov	r7,a
   0F5D 43 07 80           3953 	orl	ar7,#0x80
   0F60 8B 82              3954 	mov	dpl,r3
   0F62 8C 83              3955 	mov	dph,r4
   0F64 8D F0              3956 	mov	b,r5
   0F66 EF                 3957 	mov	a,r7
   0F67 12s00r00           3958 	lcall	__gptrput
   0F6A                    3959 00102$:
                           3960 ;	../../../contiki-sensinode//core/net/rpl/rpl-icmp6.c:443: buffer[pos] |= instance->mop << RPL_DIO_MOP_SHIFT;
   0F6A 8B 82              3961 	mov	dpl,r3
   0F6C 8C 83              3962 	mov	dph,r4
   0F6E 8D F0              3963 	mov	b,r5
   0F70 E5 81              3964 	mov	a,sp
   0F72 24 FA              3965 	add	a,#0xfa
   0F74 F8                 3966 	mov	r0,a
   0F75 12s00r00           3967 	lcall	__gptrget
   0F78 F6                 3968 	mov	@r0,a
   0F79 E5 81              3969 	mov	a,sp
   0F7B 24 EF              3970 	add	a,#0xef
   0F7D F8                 3971 	mov	r0,a
   0F7E 74 89              3972 	mov	a,#0x89
   0F80 26                 3973 	add	a,@r0
   0F81 FA                 3974 	mov	r2,a
   0F82 E4                 3975 	clr	a
   0F83 08                 3976 	inc	r0
   0F84 36                 3977 	addc	a,@r0
   0F85 FE                 3978 	mov	r6,a
   0F86 08                 3979 	inc	r0
   0F87 86 07              3980 	mov	ar7,@r0
   0F89 8A 82              3981 	mov	dpl,r2
   0F8B 8E 83              3982 	mov	dph,r6
   0F8D 8F F0              3983 	mov	b,r7
   0F8F 12s00r00           3984 	lcall	__gptrget
   0F92 C4                 3985 	swap	a
   0F93 03                 3986 	rr	a
   0F94 54 F8              3987 	anl	a,#0xF8
   0F96 FA                 3988 	mov	r2,a
   0F97 E5 81              3989 	mov	a,sp
   0F99 24 FA              3990 	add	a,#0xfa
   0F9B F8                 3991 	mov	r0,a
   0F9C EA                 3992 	mov	a,r2
   0F9D 46                 3993 	orl	a,@r0
   0F9E F6                 3994 	mov	@r0,a
   0F9F 8B 82              3995 	mov	dpl,r3
   0FA1 8C 83              3996 	mov	dph,r4
   0FA3 8D F0              3997 	mov	b,r5
   0FA5 E5 81              3998 	mov	a,sp
   0FA7 24 FA              3999 	add	a,#0xfa
   0FA9 F8                 4000 	mov	r0,a
   0FAA E6                 4001 	mov	a,@r0
   0FAB 12s00r00           4002 	lcall	__gptrput
                           4003 ;	../../../contiki-sensinode//core/net/rpl/rpl-icmp6.c:444: buffer[pos] |= dag->preference & RPL_DIO_PREFERENCE_MASK;
   0FAE E5 81              4004 	mov	a,sp
   0FB0 24 F5              4005 	add	a,#0xf5
   0FB2 F8                 4006 	mov	r0,a
   0FB3 74 14              4007 	mov	a,#0x14
   0FB5 26                 4008 	add	a,@r0
   0FB6 FA                 4009 	mov	r2,a
   0FB7 E4                 4010 	clr	a
   0FB8 08                 4011 	inc	r0
   0FB9 36                 4012 	addc	a,@r0
   0FBA FE                 4013 	mov	r6,a
   0FBB 08                 4014 	inc	r0
   0FBC 86 07              4015 	mov	ar7,@r0
   0FBE 8A 82              4016 	mov	dpl,r2
   0FC0 8E 83              4017 	mov	dph,r6
   0FC2 8F F0              4018 	mov	b,r7
   0FC4 12s00r00           4019 	lcall	__gptrget
   0FC7 FA                 4020 	mov	r2,a
   0FC8 74 07              4021 	mov	a,#0x07
   0FCA 5A                 4022 	anl	a,r2
   0FCB C8                 4023 	xch	a,r0
   0FCC E5 81              4024 	mov	a,sp
   0FCE 24 FA              4025 	add	a,#0xfa
   0FD0 C8                 4026 	xch	a,r0
   0FD1 46                 4027 	orl	a,@r0
   0FD2 8B 82              4028 	mov	dpl,r3
   0FD4 8C 83              4029 	mov	dph,r4
   0FD6 8D F0              4030 	mov	b,r5
   0FD8 12s00r00           4031 	lcall	__gptrput
                           4032 ;	../../../contiki-sensinode//core/net/rpl/rpl-icmp6.c:445: pos++;
   0FDB E5 81              4033 	mov	a,sp
   0FDD 24 F8              4034 	add	a,#0xf8
   0FDF F8                 4035 	mov	r0,a
   0FE0 74 01              4036 	mov	a,#0x01
   0FE2 26                 4037 	add	a,@r0
   0FE3 FE                 4038 	mov	r6,a
   0FE4 E4                 4039 	clr	a
   0FE5 08                 4040 	inc	r0
   0FE6 36                 4041 	addc	a,@r0
   0FE7 FF                 4042 	mov	r7,a
                           4043 ;	../../../contiki-sensinode//core/net/rpl/rpl-icmp6.c:447: buffer[pos++] = instance->dtsn_out;
   0FE8 E5 81              4044 	mov	a,sp
   0FEA 24 F8              4045 	add	a,#0xf8
   0FEC F8                 4046 	mov	r0,a
   0FED 74 01              4047 	mov	a,#0x01
   0FEF 2E                 4048 	add	a,r6
   0FF0 F6                 4049 	mov	@r0,a
   0FF1 E4                 4050 	clr	a
   0FF2 3F                 4051 	addc	a,r7
   0FF3 08                 4052 	inc	r0
   0FF4 F6                 4053 	mov	@r0,a
   0FF5 E5 81              4054 	mov	a,sp
   0FF7 24 F8              4055 	add	a,#0xf8
   0FF9 F8                 4056 	mov	r0,a
   0FFA 90s00rA7           4057 	mov	dptr,#_dio_output_pos_1_1
   0FFD E6                 4058 	mov	a,@r0
   0FFE F0                 4059 	movx	@dptr,a
   0FFF 08                 4060 	inc	r0
   1000 A3                 4061 	inc	dptr
   1001 E6                 4062 	mov	a,@r0
   1002 F0                 4063 	movx	@dptr,a
   1003 E5 81              4064 	mov	a,sp
   1005 24 F2              4065 	add	a,#0xf2
   1007 F8                 4066 	mov	r0,a
   1008 EE                 4067 	mov	a,r6
   1009 26                 4068 	add	a,@r0
   100A FA                 4069 	mov	r2,a
   100B EF                 4070 	mov	a,r7
   100C 08                 4071 	inc	r0
   100D 36                 4072 	addc	a,@r0
   100E FB                 4073 	mov	r3,a
   100F 08                 4074 	inc	r0
   1010 86 05              4075 	mov	ar5,@r0
   1012 E5 81              4076 	mov	a,sp
   1014 24 EF              4077 	add	a,#0xef
   1016 F8                 4078 	mov	r0,a
   1017 E5 81              4079 	mov	a,sp
   1019 24 FB              4080 	add	a,#0xfb
   101B F9                 4081 	mov	r1,a
   101C 74 88              4082 	mov	a,#0x88
   101E 26                 4083 	add	a,@r0
   101F F7                 4084 	mov	@r1,a
   1020 E4                 4085 	clr	a
   1021 08                 4086 	inc	r0
   1022 36                 4087 	addc	a,@r0
   1023 09                 4088 	inc	r1
   1024 F7                 4089 	mov	@r1,a
   1025 08                 4090 	inc	r0
   1026 09                 4091 	inc	r1
   1027 E6                 4092 	mov	a,@r0
   1028 F7                 4093 	mov	@r1,a
   1029 E5 81              4094 	mov	a,sp
   102B 24 FB              4095 	add	a,#0xfb
   102D F8                 4096 	mov	r0,a
   102E 86 82              4097 	mov	dpl,@r0
   1030 08                 4098 	inc	r0
   1031 86 83              4099 	mov	dph,@r0
   1033 08                 4100 	inc	r0
   1034 86 F0              4101 	mov	b,@r0
   1036 12s00r00           4102 	lcall	__gptrget
                           4103 ;	../../../contiki-sensinode//core/net/rpl/rpl-icmp6.c:450: RPL_LOLLIPOP_INCREMENT(instance->dtsn_out);
   1039 FC                 4104 	mov	r4,a
   103A 8A 82              4105 	mov	dpl,r2
   103C 8B 83              4106 	mov	dph,r3
   103E 8D F0              4107 	mov	b,r5
   1040 12s00r00           4108 	lcall	__gptrput
   1043 24 80              4109 	add	a,#0xff - 0x7F
   1045 50 16              4110 	jnc	00121$
   1047 EC                 4111 	mov	a,r4
   1048 04                 4112 	inc	a
   1049 FD                 4113 	mov	r5,a
   104A E5 81              4114 	mov	a,sp
   104C 24 FB              4115 	add	a,#0xfb
   104E F8                 4116 	mov	r0,a
   104F 86 82              4117 	mov	dpl,@r0
   1051 08                 4118 	inc	r0
   1052 86 83              4119 	mov	dph,@r0
   1054 08                 4120 	inc	r0
   1055 86 F0              4121 	mov	b,@r0
   1057 ED                 4122 	mov	a,r5
   1058 12s00r00           4123 	lcall	__gptrput
   105B 80 12              4124 	sjmp	00122$
   105D                    4125 00121$:
   105D 0C                 4126 	inc	r4
   105E E5 81              4127 	mov	a,sp
   1060 24 FB              4128 	add	a,#0xfb
   1062 F8                 4129 	mov	r0,a
   1063 86 82              4130 	mov	dpl,@r0
   1065 08                 4131 	inc	r0
   1066 86 83              4132 	mov	dph,@r0
   1068 08                 4133 	inc	r0
   1069 86 F0              4134 	mov	b,@r0
   106B EC                 4135 	mov	a,r4
   106C 12s00r00           4136 	lcall	__gptrput
   106F                    4137 00122$:
                           4138 ;	../../../contiki-sensinode//core/net/rpl/rpl-icmp6.c:453: buffer[pos++] = 0; /* flags */
   106F E5 81              4139 	mov	a,sp
   1071 24 FB              4140 	add	a,#0xfb
   1073 F8                 4141 	mov	r0,a
   1074 74 02              4142 	mov	a,#0x02
   1076 2E                 4143 	add	a,r6
   1077 F6                 4144 	mov	@r0,a
   1078 E4                 4145 	clr	a
   1079 3F                 4146 	addc	a,r7
   107A 08                 4147 	inc	r0
   107B F6                 4148 	mov	@r0,a
   107C E5 81              4149 	mov	a,sp
   107E 24 F2              4150 	add	a,#0xf2
   1080 F8                 4151 	mov	r0,a
   1081 E5 81              4152 	mov	a,sp
   1083 24 F8              4153 	add	a,#0xf8
   1085 F9                 4154 	mov	r1,a
   1086 E7                 4155 	mov	a,@r1
   1087 26                 4156 	add	a,@r0
   1088 FA                 4157 	mov	r2,a
   1089 09                 4158 	inc	r1
   108A E7                 4159 	mov	a,@r1
   108B 08                 4160 	inc	r0
   108C 36                 4161 	addc	a,@r0
   108D FB                 4162 	mov	r3,a
   108E 08                 4163 	inc	r0
   108F 86 05              4164 	mov	ar5,@r0
   1091 8A 82              4165 	mov	dpl,r2
   1093 8B 83              4166 	mov	dph,r3
   1095 8D F0              4167 	mov	b,r5
   1097 E4                 4168 	clr	a
   1098 12s00r00           4169 	lcall	__gptrput
                           4170 ;	../../../contiki-sensinode//core/net/rpl/rpl-icmp6.c:454: buffer[pos++] = 0; /* reserved */
   109B 74 03              4171 	mov	a,#0x03
   109D 2E                 4172 	add	a,r6
   109E FE                 4173 	mov	r6,a
   109F E4                 4174 	clr	a
   10A0 3F                 4175 	addc	a,r7
   10A1 FF                 4176 	mov	r7,a
   10A2 90s00rA7           4177 	mov	dptr,#_dio_output_pos_1_1
   10A5 EE                 4178 	mov	a,r6
   10A6 F0                 4179 	movx	@dptr,a
   10A7 A3                 4180 	inc	dptr
   10A8 EF                 4181 	mov	a,r7
   10A9 F0                 4182 	movx	@dptr,a
   10AA E5 81              4183 	mov	a,sp
   10AC 24 F2              4184 	add	a,#0xf2
   10AE F8                 4185 	mov	r0,a
   10AF E5 81              4186 	mov	a,sp
   10B1 24 FB              4187 	add	a,#0xfb
   10B3 F9                 4188 	mov	r1,a
   10B4 E7                 4189 	mov	a,@r1
   10B5 26                 4190 	add	a,@r0
   10B6 FB                 4191 	mov	r3,a
   10B7 09                 4192 	inc	r1
   10B8 E7                 4193 	mov	a,@r1
   10B9 08                 4194 	inc	r0
   10BA 36                 4195 	addc	a,@r0
   10BB FC                 4196 	mov	r4,a
   10BC 08                 4197 	inc	r0
   10BD 86 05              4198 	mov	ar5,@r0
   10BF 8B 82              4199 	mov	dpl,r3
   10C1 8C 83              4200 	mov	dph,r4
   10C3 8D F0              4201 	mov	b,r5
   10C5 E4                 4202 	clr	a
   10C6 12s00r00           4203 	lcall	__gptrput
                           4204 ;	../../../contiki-sensinode//core/net/rpl/rpl-icmp6.c:456: memcpy(buffer + pos, &dag->dag_id, sizeof(dag->dag_id));
   10C9 E5 81              4205 	mov	a,sp
   10CB 24 F5              4206 	add	a,#0xf5
   10CD F8                 4207 	mov	r0,a
   10CE 86 03              4208 	mov	ar3,@r0
   10D0 08                 4209 	inc	r0
   10D1 86 04              4210 	mov	ar4,@r0
   10D3 08                 4211 	inc	r0
   10D4 86 05              4212 	mov	ar5,@r0
   10D6 E5 81              4213 	mov	a,sp
   10D8 24 F2              4214 	add	a,#0xf2
   10DA F8                 4215 	mov	r0,a
   10DB EE                 4216 	mov	a,r6
   10DC 26                 4217 	add	a,@r0
   10DD FE                 4218 	mov	r6,a
   10DE EF                 4219 	mov	a,r7
   10DF 08                 4220 	inc	r0
   10E0 36                 4221 	addc	a,@r0
   10E1 FF                 4222 	mov	r7,a
   10E2 08                 4223 	inc	r0
   10E3 86 02              4224 	mov	ar2,@r0
   10E5 74 10              4225 	mov	a,#0x10
   10E7 C0 E0              4226 	push	acc
   10E9 E4                 4227 	clr	a
   10EA C0 E0              4228 	push	acc
   10EC C0 03              4229 	push	ar3
   10EE C0 04              4230 	push	ar4
   10F0 C0 05              4231 	push	ar5
   10F2 8E 82              4232 	mov	dpl,r6
   10F4 8F 83              4233 	mov	dph,r7
   10F6 8A F0              4234 	mov	b,r2
   10F8 78r00              4235 	mov	r0,#_memcpy
   10FA 79s00              4236 	mov	r1,#(_memcpy >> 8)
   10FC 7As00              4237 	mov	r2,#(_memcpy >> 16)
   10FE 12s00r00           4238 	lcall	__sdcc_banked_call
   1101 E5 81              4239 	mov	a,sp
   1103 24 FB              4240 	add	a,#0xfb
   1105 F5 81              4241 	mov	sp,a
                           4242 ;	../../../contiki-sensinode//core/net/rpl/rpl-icmp6.c:457: pos += 16;
   1107 90s00rA7           4243 	mov	dptr,#_dio_output_pos_1_1
   110A E0                 4244 	movx	a,@dptr
   110B FE                 4245 	mov	r6,a
   110C A3                 4246 	inc	dptr
   110D E0                 4247 	movx	a,@dptr
   110E FF                 4248 	mov	r7,a
   110F 90s00rA7           4249 	mov	dptr,#_dio_output_pos_1_1
   1112 74 10              4250 	mov	a,#0x10
   1114 2E                 4251 	add	a,r6
   1115 F0                 4252 	movx	@dptr,a
   1116 E4                 4253 	clr	a
   1117 3F                 4254 	addc	a,r7
   1118 A3                 4255 	inc	dptr
   1119 F0                 4256 	movx	@dptr,a
                           4257 ;	../../../contiki-sensinode//core/net/rpl/rpl-icmp6.c:460: if(instance->mc.type != RPL_DAG_MC_NONE) {
   111A E5 81              4258 	mov	a,sp
   111C 24 EF              4259 	add	a,#0xef
   111E F8                 4260 	mov	r0,a
   111F 86 82              4261 	mov	dpl,@r0
   1121 08                 4262 	inc	r0
   1122 86 83              4263 	mov	dph,@r0
   1124 08                 4264 	inc	r0
   1125 86 F0              4265 	mov	b,@r0
   1127 12s00r00           4266 	lcall	__gptrget
   112A 70 03              4267 	jnz	00139$
   112C 02s14r89           4268 	ljmp	00110$
   112F                    4269 00139$:
                           4270 ;	../../../contiki-sensinode//core/net/rpl/rpl-icmp6.c:461: instance->of->update_metric_container(instance);
   112F E5 81              4271 	mov	a,sp
   1131 24 EF              4272 	add	a,#0xef
   1133 F8                 4273 	mov	r0,a
   1134 74 07              4274 	mov	a,#0x07
   1136 26                 4275 	add	a,@r0
   1137 FD                 4276 	mov	r5,a
   1138 E4                 4277 	clr	a
   1139 08                 4278 	inc	r0
   113A 36                 4279 	addc	a,@r0
   113B FE                 4280 	mov	r6,a
   113C 08                 4281 	inc	r0
   113D 86 07              4282 	mov	ar7,@r0
   113F 8D 82              4283 	mov	dpl,r5
   1141 8E 83              4284 	mov	dph,r6
   1143 8F F0              4285 	mov	b,r7
   1145 12s00r00           4286 	lcall	__gptrget
   1148 FD                 4287 	mov	r5,a
   1149 A3                 4288 	inc	dptr
   114A 12s00r00           4289 	lcall	__gptrget
   114D FE                 4290 	mov	r6,a
   114E A3                 4291 	inc	dptr
   114F 12s00r00           4292 	lcall	__gptrget
   1152 FF                 4293 	mov	r7,a
   1153 74 0F              4294 	mov	a,#0x0F
   1155 2D                 4295 	add	a,r5
   1156 FD                 4296 	mov	r5,a
   1157 E4                 4297 	clr	a
   1158 3E                 4298 	addc	a,r6
   1159 FE                 4299 	mov	r6,a
   115A 8D 82              4300 	mov	dpl,r5
   115C 8E 83              4301 	mov	dph,r6
   115E 8F F0              4302 	mov	b,r7
   1160 12s00r00           4303 	lcall	__gptrget
   1163 FD                 4304 	mov	r5,a
   1164 A3                 4305 	inc	dptr
   1165 12s00r00           4306 	lcall	__gptrget
   1168 FE                 4307 	mov	r6,a
   1169 A3                 4308 	inc	dptr
   116A 12s00r00           4309 	lcall	__gptrget
   116D FF                 4310 	mov	r7,a
   116E C0 07              4311 	push	ar7
   1170 C0 06              4312 	push	ar6
   1172 C0 05              4313 	push	ar5
   1174 C0 05              4314 	push	ar5
   1176 C0 06              4315 	push	ar6
   1178 C0 07              4316 	push	ar7
   117A E5 81              4317 	mov	a,sp
   117C 24 E9              4318 	add	a,#0xe9
   117E F8                 4319 	mov	r0,a
   117F 86 82              4320 	mov	dpl,@r0
   1181 08                 4321 	inc	r0
   1182 86 83              4322 	mov	dph,@r0
   1184 08                 4323 	inc	r0
   1185 86 F0              4324 	mov	b,@r0
   1187 D0 02              4325 	pop	ar2
   1189 D0 01              4326 	pop	ar1
   118B D0 00              4327 	pop	ar0
   118D 12s00r00           4328 	lcall	__sdcc_banked_call
   1190 D0 05              4329 	pop	ar5
   1192 D0 06              4330 	pop	ar6
   1194 D0 07              4331 	pop	ar7
                           4332 ;	../../../contiki-sensinode//core/net/rpl/rpl-icmp6.c:463: buffer[pos++] = RPL_OPTION_DAG_METRIC_CONTAINER;
   1196 90s00rA7           4333 	mov	dptr,#_dio_output_pos_1_1
   1199 E0                 4334 	movx	a,@dptr
   119A FE                 4335 	mov	r6,a
   119B A3                 4336 	inc	dptr
   119C E0                 4337 	movx	a,@dptr
   119D FF                 4338 	mov	r7,a
   119E 90s00rA7           4339 	mov	dptr,#_dio_output_pos_1_1
   11A1 74 01              4340 	mov	a,#0x01
   11A3 2E                 4341 	add	a,r6
   11A4 F0                 4342 	movx	@dptr,a
   11A5 E4                 4343 	clr	a
   11A6 3F                 4344 	addc	a,r7
   11A7 A3                 4345 	inc	dptr
   11A8 F0                 4346 	movx	@dptr,a
   11A9 E5 81              4347 	mov	a,sp
   11AB 24 F2              4348 	add	a,#0xf2
   11AD F8                 4349 	mov	r0,a
   11AE EE                 4350 	mov	a,r6
   11AF 26                 4351 	add	a,@r0
   11B0 FE                 4352 	mov	r6,a
   11B1 EF                 4353 	mov	a,r7
   11B2 08                 4354 	inc	r0
   11B3 36                 4355 	addc	a,@r0
   11B4 FF                 4356 	mov	r7,a
   11B5 08                 4357 	inc	r0
   11B6 86 05              4358 	mov	ar5,@r0
   11B8 8E 82              4359 	mov	dpl,r6
   11BA 8F 83              4360 	mov	dph,r7
   11BC 8D F0              4361 	mov	b,r5
   11BE 74 02              4362 	mov	a,#0x02
   11C0 12s00r00           4363 	lcall	__gptrput
                           4364 ;	../../../contiki-sensinode//core/net/rpl/rpl-icmp6.c:464: buffer[pos++] = 6;
   11C3 90s00rA7           4365 	mov	dptr,#_dio_output_pos_1_1
   11C6 E0                 4366 	movx	a,@dptr
   11C7 FE                 4367 	mov	r6,a
   11C8 A3                 4368 	inc	dptr
   11C9 E0                 4369 	movx	a,@dptr
   11CA FF                 4370 	mov	r7,a
   11CB 90s00rA7           4371 	mov	dptr,#_dio_output_pos_1_1
   11CE 74 01              4372 	mov	a,#0x01
   11D0 2E                 4373 	add	a,r6
   11D1 F0                 4374 	movx	@dptr,a
   11D2 E4                 4375 	clr	a
   11D3 3F                 4376 	addc	a,r7
   11D4 A3                 4377 	inc	dptr
   11D5 F0                 4378 	movx	@dptr,a
   11D6 E5 81              4379 	mov	a,sp
   11D8 24 F2              4380 	add	a,#0xf2
   11DA F8                 4381 	mov	r0,a
   11DB EE                 4382 	mov	a,r6
   11DC 26                 4383 	add	a,@r0
   11DD FE                 4384 	mov	r6,a
   11DE EF                 4385 	mov	a,r7
   11DF 08                 4386 	inc	r0
   11E0 36                 4387 	addc	a,@r0
   11E1 FF                 4388 	mov	r7,a
   11E2 08                 4389 	inc	r0
   11E3 86 05              4390 	mov	ar5,@r0
   11E5 8E 82              4391 	mov	dpl,r6
   11E7 8F 83              4392 	mov	dph,r7
   11E9 8D F0              4393 	mov	b,r5
   11EB 74 06              4394 	mov	a,#0x06
   11ED 12s00r00           4395 	lcall	__gptrput
                           4396 ;	../../../contiki-sensinode//core/net/rpl/rpl-icmp6.c:465: buffer[pos++] = instance->mc.type;
   11F0 90s00rA7           4397 	mov	dptr,#_dio_output_pos_1_1
   11F3 E0                 4398 	movx	a,@dptr
   11F4 FE                 4399 	mov	r6,a
   11F5 A3                 4400 	inc	dptr
   11F6 E0                 4401 	movx	a,@dptr
   11F7 FF                 4402 	mov	r7,a
   11F8 90s00rA7           4403 	mov	dptr,#_dio_output_pos_1_1
   11FB 74 01              4404 	mov	a,#0x01
   11FD 2E                 4405 	add	a,r6
   11FE F0                 4406 	movx	@dptr,a
   11FF E4                 4407 	clr	a
   1200 3F                 4408 	addc	a,r7
   1201 A3                 4409 	inc	dptr
   1202 F0                 4410 	movx	@dptr,a
   1203 E5 81              4411 	mov	a,sp
   1205 24 F2              4412 	add	a,#0xf2
   1207 F8                 4413 	mov	r0,a
   1208 EE                 4414 	mov	a,r6
   1209 26                 4415 	add	a,@r0
   120A FE                 4416 	mov	r6,a
   120B EF                 4417 	mov	a,r7
   120C 08                 4418 	inc	r0
   120D 36                 4419 	addc	a,@r0
   120E FF                 4420 	mov	r7,a
   120F 08                 4421 	inc	r0
   1210 86 05              4422 	mov	ar5,@r0
   1212 E5 81              4423 	mov	a,sp
   1214 24 EF              4424 	add	a,#0xef
   1216 F8                 4425 	mov	r0,a
   1217 86 82              4426 	mov	dpl,@r0
   1219 08                 4427 	inc	r0
   121A 86 83              4428 	mov	dph,@r0
   121C 08                 4429 	inc	r0
   121D 86 F0              4430 	mov	b,@r0
   121F 12s00r00           4431 	lcall	__gptrget
   1222 8E 82              4432 	mov	dpl,r6
   1224 8F 83              4433 	mov	dph,r7
   1226 8D F0              4434 	mov	b,r5
   1228 12s00r00           4435 	lcall	__gptrput
                           4436 ;	../../../contiki-sensinode//core/net/rpl/rpl-icmp6.c:466: buffer[pos++] = instance->mc.flags >> 1;
   122B 90s00rA7           4437 	mov	dptr,#_dio_output_pos_1_1
   122E E0                 4438 	movx	a,@dptr
   122F FE                 4439 	mov	r6,a
   1230 A3                 4440 	inc	dptr
   1231 E0                 4441 	movx	a,@dptr
   1232 FF                 4442 	mov	r7,a
   1233 90s00rA7           4443 	mov	dptr,#_dio_output_pos_1_1
   1236 74 01              4444 	mov	a,#0x01
   1238 2E                 4445 	add	a,r6
   1239 F0                 4446 	movx	@dptr,a
   123A E4                 4447 	clr	a
   123B 3F                 4448 	addc	a,r7
   123C A3                 4449 	inc	dptr
   123D F0                 4450 	movx	@dptr,a
   123E E5 81              4451 	mov	a,sp
   1240 24 F2              4452 	add	a,#0xf2
   1242 F8                 4453 	mov	r0,a
   1243 EE                 4454 	mov	a,r6
   1244 26                 4455 	add	a,@r0
   1245 FE                 4456 	mov	r6,a
   1246 EF                 4457 	mov	a,r7
   1247 08                 4458 	inc	r0
   1248 36                 4459 	addc	a,@r0
   1249 FF                 4460 	mov	r7,a
   124A 08                 4461 	inc	r0
   124B 86 05              4462 	mov	ar5,@r0
   124D E5 81              4463 	mov	a,sp
   124F 24 EF              4464 	add	a,#0xef
   1251 F8                 4465 	mov	r0,a
   1252 74 01              4466 	mov	a,#0x01
   1254 26                 4467 	add	a,@r0
   1255 FA                 4468 	mov	r2,a
   1256 E4                 4469 	clr	a
   1257 08                 4470 	inc	r0
   1258 36                 4471 	addc	a,@r0
   1259 FB                 4472 	mov	r3,a
   125A 08                 4473 	inc	r0
   125B 86 04              4474 	mov	ar4,@r0
   125D 8A 82              4475 	mov	dpl,r2
   125F 8B 83              4476 	mov	dph,r3
   1261 8C F0              4477 	mov	b,r4
   1263 12s00r00           4478 	lcall	__gptrget
   1266 FA                 4479 	mov	r2,a
   1267 C3                 4480 	clr	c
   1268 13                 4481 	rrc	a
   1269 8E 82              4482 	mov	dpl,r6
   126B 8F 83              4483 	mov	dph,r7
   126D 8D F0              4484 	mov	b,r5
   126F 12s00r00           4485 	lcall	__gptrput
                           4486 ;	../../../contiki-sensinode//core/net/rpl/rpl-icmp6.c:467: buffer[pos] = (instance->mc.flags & 1) << 7;
   1272 90s00rA7           4487 	mov	dptr,#_dio_output_pos_1_1
   1275 E0                 4488 	movx	a,@dptr
   1276 FE                 4489 	mov	r6,a
   1277 A3                 4490 	inc	dptr
   1278 E0                 4491 	movx	a,@dptr
   1279 FF                 4492 	mov	r7,a
   127A E5 81              4493 	mov	a,sp
   127C 24 F2              4494 	add	a,#0xf2
   127E F8                 4495 	mov	r0,a
   127F EE                 4496 	mov	a,r6
   1280 26                 4497 	add	a,@r0
   1281 FB                 4498 	mov	r3,a
   1282 EF                 4499 	mov	a,r7
   1283 08                 4500 	inc	r0
   1284 36                 4501 	addc	a,@r0
   1285 FC                 4502 	mov	r4,a
   1286 08                 4503 	inc	r0
   1287 86 05              4504 	mov	ar5,@r0
   1289 53 02 01           4505 	anl	ar2,#0x01
   128C EA                 4506 	mov	a,r2
   128D 03                 4507 	rr	a
   128E 54 80              4508 	anl	a,#0x80
   1290 8B 82              4509 	mov	dpl,r3
   1292 8C 83              4510 	mov	dph,r4
   1294 8D F0              4511 	mov	b,r5
   1296 12s00r00           4512 	lcall	__gptrput
                           4513 ;	../../../contiki-sensinode//core/net/rpl/rpl-icmp6.c:468: buffer[pos++] |= (instance->mc.aggr << 4) | instance->mc.prec;
   1299 8E 04              4514 	mov	ar4,r6
   129B 8F 05              4515 	mov	ar5,r7
   129D 90s00rA7           4516 	mov	dptr,#_dio_output_pos_1_1
   12A0 74 01              4517 	mov	a,#0x01
   12A2 2E                 4518 	add	a,r6
   12A3 F0                 4519 	movx	@dptr,a
   12A4 E4                 4520 	clr	a
   12A5 3F                 4521 	addc	a,r7
   12A6 A3                 4522 	inc	dptr
   12A7 F0                 4523 	movx	@dptr,a
   12A8 E5 81              4524 	mov	a,sp
   12AA 24 F2              4525 	add	a,#0xf2
   12AC F8                 4526 	mov	r0,a
   12AD EC                 4527 	mov	a,r4
   12AE 26                 4528 	add	a,@r0
   12AF FC                 4529 	mov	r4,a
   12B0 ED                 4530 	mov	a,r5
   12B1 08                 4531 	inc	r0
   12B2 36                 4532 	addc	a,@r0
   12B3 FD                 4533 	mov	r5,a
   12B4 08                 4534 	inc	r0
   12B5 86 07              4535 	mov	ar7,@r0
   12B7 8C 82              4536 	mov	dpl,r4
   12B9 8D 83              4537 	mov	dph,r5
   12BB 8F F0              4538 	mov	b,r7
   12BD E5 81              4539 	mov	a,sp
   12BF 24 FB              4540 	add	a,#0xfb
   12C1 F8                 4541 	mov	r0,a
   12C2 12s00r00           4542 	lcall	__gptrget
   12C5 F6                 4543 	mov	@r0,a
   12C6 E5 81              4544 	mov	a,sp
   12C8 24 EF              4545 	add	a,#0xef
   12CA F8                 4546 	mov	r0,a
   12CB 74 02              4547 	mov	a,#0x02
   12CD 26                 4548 	add	a,@r0
   12CE FA                 4549 	mov	r2,a
   12CF E4                 4550 	clr	a
   12D0 08                 4551 	inc	r0
   12D1 36                 4552 	addc	a,@r0
   12D2 FB                 4553 	mov	r3,a
   12D3 08                 4554 	inc	r0
   12D4 86 06              4555 	mov	ar6,@r0
   12D6 8A 82              4556 	mov	dpl,r2
   12D8 8B 83              4557 	mov	dph,r3
   12DA 8E F0              4558 	mov	b,r6
   12DC 12s00r00           4559 	lcall	__gptrget
   12DF FA                 4560 	mov	r2,a
   12E0 E5 81              4561 	mov	a,sp
   12E2 24 FA              4562 	add	a,#0xfa
   12E4 F8                 4563 	mov	r0,a
   12E5 EA                 4564 	mov	a,r2
   12E6 C4                 4565 	swap	a
   12E7 54 F0              4566 	anl	a,#0xF0
   12E9 F6                 4567 	mov	@r0,a
   12EA E5 81              4568 	mov	a,sp
   12EC 24 EF              4569 	add	a,#0xef
   12EE F8                 4570 	mov	r0,a
   12EF 74 03              4571 	mov	a,#0x03
   12F1 26                 4572 	add	a,@r0
   12F2 FA                 4573 	mov	r2,a
   12F3 E4                 4574 	clr	a
   12F4 08                 4575 	inc	r0
   12F5 36                 4576 	addc	a,@r0
   12F6 FB                 4577 	mov	r3,a
   12F7 08                 4578 	inc	r0
   12F8 86 06              4579 	mov	ar6,@r0
   12FA 8A 82              4580 	mov	dpl,r2
   12FC 8B 83              4581 	mov	dph,r3
   12FE 8E F0              4582 	mov	b,r6
   1300 12s00r00           4583 	lcall	__gptrget
   1303 FA                 4584 	mov	r2,a
   1304 E5 81              4585 	mov	a,sp
   1306 24 FA              4586 	add	a,#0xfa
   1308 F8                 4587 	mov	r0,a
   1309 EA                 4588 	mov	a,r2
   130A 46                 4589 	orl	a,@r0
   130B C8                 4590 	xch	a,r0
   130C E5 81              4591 	mov	a,sp
   130E 24 FB              4592 	add	a,#0xfb
   1310 C8                 4593 	xch	a,r0
   1311 46                 4594 	orl	a,@r0
   1312 FE                 4595 	mov	r6,a
   1313 8C 82              4596 	mov	dpl,r4
   1315 8D 83              4597 	mov	dph,r5
   1317 8F F0              4598 	mov	b,r7
   1319 12s00r00           4599 	lcall	__gptrput
                           4600 ;	../../../contiki-sensinode//core/net/rpl/rpl-icmp6.c:469: if(instance->mc.type == RPL_DAG_MC_ETX) {
   131C E5 81              4601 	mov	a,sp
   131E 24 EF              4602 	add	a,#0xef
   1320 F8                 4603 	mov	r0,a
   1321 86 82              4604 	mov	dpl,@r0
   1323 08                 4605 	inc	r0
   1324 86 83              4606 	mov	dph,@r0
   1326 08                 4607 	inc	r0
   1327 86 F0              4608 	mov	b,@r0
   1329 12s00r00           4609 	lcall	__gptrget
   132C FF                 4610 	mov	r7,a
   132D BF 07 02           4611 	cjne	r7,#0x07,00141$
   1330 80 03              4612 	sjmp	00142$
   1332                    4613 00141$:
   1332 02s13rC1           4614 	ljmp	00107$
   1335                    4615 00142$:
                           4616 ;	../../../contiki-sensinode//core/net/rpl/rpl-icmp6.c:470: buffer[pos++] = 2;
   1335 90s00rA7           4617 	mov	dptr,#_dio_output_pos_1_1
   1338 E0                 4618 	movx	a,@dptr
   1339 FD                 4619 	mov	r5,a
   133A A3                 4620 	inc	dptr
   133B E0                 4621 	movx	a,@dptr
   133C FE                 4622 	mov	r6,a
   133D 90s00rA7           4623 	mov	dptr,#_dio_output_pos_1_1
   1340 74 01              4624 	mov	a,#0x01
   1342 2D                 4625 	add	a,r5
   1343 F0                 4626 	movx	@dptr,a
   1344 E4                 4627 	clr	a
   1345 3E                 4628 	addc	a,r6
   1346 A3                 4629 	inc	dptr
   1347 F0                 4630 	movx	@dptr,a
   1348 E5 81              4631 	mov	a,sp
   134A 24 F2              4632 	add	a,#0xf2
   134C F8                 4633 	mov	r0,a
   134D ED                 4634 	mov	a,r5
   134E 26                 4635 	add	a,@r0
   134F FD                 4636 	mov	r5,a
   1350 EE                 4637 	mov	a,r6
   1351 08                 4638 	inc	r0
   1352 36                 4639 	addc	a,@r0
   1353 FE                 4640 	mov	r6,a
   1354 08                 4641 	inc	r0
   1355 86 04              4642 	mov	ar4,@r0
   1357 8D 82              4643 	mov	dpl,r5
   1359 8E 83              4644 	mov	dph,r6
   135B 8C F0              4645 	mov	b,r4
   135D 74 02              4646 	mov	a,#0x02
   135F 12s00r00           4647 	lcall	__gptrput
                           4648 ;	../../../contiki-sensinode//core/net/rpl/rpl-icmp6.c:471: set16(buffer, pos, instance->mc.obj.etx);
   1362 E5 81              4649 	mov	a,sp
   1364 24 EF              4650 	add	a,#0xef
   1366 F8                 4651 	mov	r0,a
   1367 74 05              4652 	mov	a,#0x05
   1369 26                 4653 	add	a,@r0
   136A FC                 4654 	mov	r4,a
   136B E4                 4655 	clr	a
   136C 08                 4656 	inc	r0
   136D 36                 4657 	addc	a,@r0
   136E FD                 4658 	mov	r5,a
   136F 08                 4659 	inc	r0
   1370 86 06              4660 	mov	ar6,@r0
   1372 8C 82              4661 	mov	dpl,r4
   1374 8D 83              4662 	mov	dph,r5
   1376 8E F0              4663 	mov	b,r6
   1378 12s00r00           4664 	lcall	__gptrget
   137B FC                 4665 	mov	r4,a
   137C A3                 4666 	inc	dptr
   137D 12s00r00           4667 	lcall	__gptrget
   1380 FD                 4668 	mov	r5,a
   1381 C0 04              4669 	push	ar4
   1383 C0 05              4670 	push	ar5
   1385 90s00rA7           4671 	mov	dptr,#_dio_output_pos_1_1
   1388 E0                 4672 	movx	a,@dptr
   1389 C0 E0              4673 	push	acc
   138B A3                 4674 	inc	dptr
   138C E0                 4675 	movx	a,@dptr
   138D C0 E0              4676 	push	acc
   138F E5 81              4677 	mov	a,sp
   1391 24 EE              4678 	add	a,#0xee
   1393 F8                 4679 	mov	r0,a
   1394 86 82              4680 	mov	dpl,@r0
   1396 08                 4681 	inc	r0
   1397 86 83              4682 	mov	dph,@r0
   1399 08                 4683 	inc	r0
   139A 86 F0              4684 	mov	b,@r0
   139C 78r98              4685 	mov	r0,#_set16
   139E 79s03              4686 	mov	r1,#(_set16 >> 8)
   13A0 7As00              4687 	mov	r2,#(_set16 >> 16)
   13A2 12s00r00           4688 	lcall	__sdcc_banked_call
   13A5 E5 81              4689 	mov	a,sp
   13A7 24 FC              4690 	add	a,#0xfc
   13A9 F5 81              4691 	mov	sp,a
                           4692 ;	../../../contiki-sensinode//core/net/rpl/rpl-icmp6.c:472: pos += 2;
   13AB 90s00rA7           4693 	mov	dptr,#_dio_output_pos_1_1
   13AE E0                 4694 	movx	a,@dptr
   13AF FD                 4695 	mov	r5,a
   13B0 A3                 4696 	inc	dptr
   13B1 E0                 4697 	movx	a,@dptr
   13B2 FE                 4698 	mov	r6,a
   13B3 90s00rA7           4699 	mov	dptr,#_dio_output_pos_1_1
   13B6 74 02              4700 	mov	a,#0x02
   13B8 2D                 4701 	add	a,r5
   13B9 F0                 4702 	movx	@dptr,a
   13BA E4                 4703 	clr	a
   13BB 3E                 4704 	addc	a,r6
   13BC A3                 4705 	inc	dptr
   13BD F0                 4706 	movx	@dptr,a
   13BE 02s14r89           4707 	ljmp	00110$
   13C1                    4708 00107$:
                           4709 ;	../../../contiki-sensinode//core/net/rpl/rpl-icmp6.c:473: } else if(instance->mc.type == RPL_DAG_MC_ENERGY) {
   13C1 BF 02 02           4710 	cjne	r7,#0x02,00143$
   13C4 80 03              4711 	sjmp	00144$
   13C6                    4712 00143$:
   13C6 02s14r86           4713 	ljmp	00104$
   13C9                    4714 00144$:
                           4715 ;	../../../contiki-sensinode//core/net/rpl/rpl-icmp6.c:474: buffer[pos++] = 2;
   13C9 90s00rA7           4716 	mov	dptr,#_dio_output_pos_1_1
   13CC E0                 4717 	movx	a,@dptr
   13CD FE                 4718 	mov	r6,a
   13CE A3                 4719 	inc	dptr
   13CF E0                 4720 	movx	a,@dptr
   13D0 FF                 4721 	mov	r7,a
   13D1 90s00rA7           4722 	mov	dptr,#_dio_output_pos_1_1
   13D4 74 01              4723 	mov	a,#0x01
   13D6 2E                 4724 	add	a,r6
   13D7 F0                 4725 	movx	@dptr,a
   13D8 E4                 4726 	clr	a
   13D9 3F                 4727 	addc	a,r7
   13DA A3                 4728 	inc	dptr
   13DB F0                 4729 	movx	@dptr,a
   13DC E5 81              4730 	mov	a,sp
   13DE 24 F2              4731 	add	a,#0xf2
   13E0 F8                 4732 	mov	r0,a
   13E1 EE                 4733 	mov	a,r6
   13E2 26                 4734 	add	a,@r0
   13E3 FE                 4735 	mov	r6,a
   13E4 EF                 4736 	mov	a,r7
   13E5 08                 4737 	inc	r0
   13E6 36                 4738 	addc	a,@r0
   13E7 FF                 4739 	mov	r7,a
   13E8 08                 4740 	inc	r0
   13E9 86 05              4741 	mov	ar5,@r0
   13EB 8E 82              4742 	mov	dpl,r6
   13ED 8F 83              4743 	mov	dph,r7
   13EF 8D F0              4744 	mov	b,r5
   13F1 74 02              4745 	mov	a,#0x02
   13F3 12s00r00           4746 	lcall	__gptrput
                           4747 ;	../../../contiki-sensinode//core/net/rpl/rpl-icmp6.c:475: buffer[pos++] = instance->mc.obj.energy.flags;
   13F6 90s00rA7           4748 	mov	dptr,#_dio_output_pos_1_1
   13F9 E0                 4749 	movx	a,@dptr
   13FA FE                 4750 	mov	r6,a
   13FB A3                 4751 	inc	dptr
   13FC E0                 4752 	movx	a,@dptr
   13FD FF                 4753 	mov	r7,a
   13FE 90s00rA7           4754 	mov	dptr,#_dio_output_pos_1_1
   1401 74 01              4755 	mov	a,#0x01
   1403 2E                 4756 	add	a,r6
   1404 F0                 4757 	movx	@dptr,a
   1405 E4                 4758 	clr	a
   1406 3F                 4759 	addc	a,r7
   1407 A3                 4760 	inc	dptr
   1408 F0                 4761 	movx	@dptr,a
   1409 E5 81              4762 	mov	a,sp
   140B 24 F2              4763 	add	a,#0xf2
   140D F8                 4764 	mov	r0,a
   140E E5 81              4765 	mov	a,sp
   1410 24 FB              4766 	add	a,#0xfb
   1412 F9                 4767 	mov	r1,a
   1413 EE                 4768 	mov	a,r6
   1414 26                 4769 	add	a,@r0
   1415 F7                 4770 	mov	@r1,a
   1416 EF                 4771 	mov	a,r7
   1417 08                 4772 	inc	r0
   1418 36                 4773 	addc	a,@r0
   1419 09                 4774 	inc	r1
   141A F7                 4775 	mov	@r1,a
   141B 08                 4776 	inc	r0
   141C 09                 4777 	inc	r1
   141D E6                 4778 	mov	a,@r0
   141E F7                 4779 	mov	@r1,a
   141F E5 81              4780 	mov	a,sp
   1421 24 EF              4781 	add	a,#0xef
   1423 F8                 4782 	mov	r0,a
   1424 74 05              4783 	mov	a,#0x05
   1426 26                 4784 	add	a,@r0
   1427 FA                 4785 	mov	r2,a
   1428 E4                 4786 	clr	a
   1429 08                 4787 	inc	r0
   142A 36                 4788 	addc	a,@r0
   142B FB                 4789 	mov	r3,a
   142C 08                 4790 	inc	r0
   142D 86 04              4791 	mov	ar4,@r0
   142F 8A 82              4792 	mov	dpl,r2
   1431 8B 83              4793 	mov	dph,r3
   1433 8C F0              4794 	mov	b,r4
   1435 12s00r00           4795 	lcall	__gptrget
   1438 FF                 4796 	mov	r7,a
   1439 E5 81              4797 	mov	a,sp
   143B 24 FB              4798 	add	a,#0xfb
   143D F8                 4799 	mov	r0,a
   143E 86 82              4800 	mov	dpl,@r0
   1440 08                 4801 	inc	r0
   1441 86 83              4802 	mov	dph,@r0
   1443 08                 4803 	inc	r0
   1444 86 F0              4804 	mov	b,@r0
   1446 EF                 4805 	mov	a,r7
   1447 12s00r00           4806 	lcall	__gptrput
                           4807 ;	../../../contiki-sensinode//core/net/rpl/rpl-icmp6.c:476: buffer[pos++] = instance->mc.obj.energy.energy_est;
   144A 90s00rA7           4808 	mov	dptr,#_dio_output_pos_1_1
   144D E0                 4809 	movx	a,@dptr
   144E FE                 4810 	mov	r6,a
   144F A3                 4811 	inc	dptr
   1450 E0                 4812 	movx	a,@dptr
   1451 FF                 4813 	mov	r7,a
   1452 90s00rA7           4814 	mov	dptr,#_dio_output_pos_1_1
   1455 74 01              4815 	mov	a,#0x01
   1457 2E                 4816 	add	a,r6
   1458 F0                 4817 	movx	@dptr,a
   1459 E4                 4818 	clr	a
   145A 3F                 4819 	addc	a,r7
   145B A3                 4820 	inc	dptr
   145C F0                 4821 	movx	@dptr,a
   145D E5 81              4822 	mov	a,sp
   145F 24 F2              4823 	add	a,#0xf2
   1461 F8                 4824 	mov	r0,a
   1462 EE                 4825 	mov	a,r6
   1463 26                 4826 	add	a,@r0
   1464 FE                 4827 	mov	r6,a
   1465 EF                 4828 	mov	a,r7
   1466 08                 4829 	inc	r0
   1467 36                 4830 	addc	a,@r0
   1468 FF                 4831 	mov	r7,a
   1469 08                 4832 	inc	r0
   146A 86 05              4833 	mov	ar5,@r0
   146C 0A                 4834 	inc	r2
   146D BA 00 01           4835 	cjne	r2,#0x00,00145$
   1470 0B                 4836 	inc	r3
   1471                    4837 00145$:
   1471 8A 82              4838 	mov	dpl,r2
   1473 8B 83              4839 	mov	dph,r3
   1475 8C F0              4840 	mov	b,r4
   1477 12s00r00           4841 	lcall	__gptrget
   147A FA                 4842 	mov	r2,a
   147B 8E 82              4843 	mov	dpl,r6
   147D 8F 83              4844 	mov	dph,r7
   147F 8D F0              4845 	mov	b,r5
   1481 12s00r00           4846 	lcall	__gptrput
   1484 80 03              4847 	sjmp	00110$
   1486                    4848 00104$:
                           4849 ;	../../../contiki-sensinode//core/net/rpl/rpl-icmp6.c:480: return;
   1486 02s1ArE7           4850 	ljmp	00119$
   1489                    4851 00110$:
                           4852 ;	../../../contiki-sensinode//core/net/rpl/rpl-icmp6.c:486: buffer[pos++] = RPL_OPTION_DAG_CONF;
   1489 90s00rA7           4853 	mov	dptr,#_dio_output_pos_1_1
   148C E0                 4854 	movx	a,@dptr
   148D FE                 4855 	mov	r6,a
   148E A3                 4856 	inc	dptr
   148F E0                 4857 	movx	a,@dptr
   1490 FF                 4858 	mov	r7,a
   1491 90s00rA7           4859 	mov	dptr,#_dio_output_pos_1_1
   1494 74 01              4860 	mov	a,#0x01
   1496 2E                 4861 	add	a,r6
   1497 F0                 4862 	movx	@dptr,a
   1498 E4                 4863 	clr	a
   1499 3F                 4864 	addc	a,r7
   149A A3                 4865 	inc	dptr
   149B F0                 4866 	movx	@dptr,a
   149C E5 81              4867 	mov	a,sp
   149E 24 F2              4868 	add	a,#0xf2
   14A0 F8                 4869 	mov	r0,a
   14A1 EE                 4870 	mov	a,r6
   14A2 26                 4871 	add	a,@r0
   14A3 FE                 4872 	mov	r6,a
   14A4 EF                 4873 	mov	a,r7
   14A5 08                 4874 	inc	r0
   14A6 36                 4875 	addc	a,@r0
   14A7 FF                 4876 	mov	r7,a
   14A8 08                 4877 	inc	r0
   14A9 86 05              4878 	mov	ar5,@r0
   14AB 8E 82              4879 	mov	dpl,r6
   14AD 8F 83              4880 	mov	dph,r7
   14AF 8D F0              4881 	mov	b,r5
   14B1 74 04              4882 	mov	a,#0x04
   14B3 12s00r00           4883 	lcall	__gptrput
                           4884 ;	../../../contiki-sensinode//core/net/rpl/rpl-icmp6.c:487: buffer[pos++] = 14;
   14B6 90s00rA7           4885 	mov	dptr,#_dio_output_pos_1_1
   14B9 E0                 4886 	movx	a,@dptr
   14BA FE                 4887 	mov	r6,a
   14BB A3                 4888 	inc	dptr
   14BC E0                 4889 	movx	a,@dptr
   14BD FF                 4890 	mov	r7,a
   14BE 90s00rA7           4891 	mov	dptr,#_dio_output_pos_1_1
   14C1 74 01              4892 	mov	a,#0x01
   14C3 2E                 4893 	add	a,r6
   14C4 F0                 4894 	movx	@dptr,a
   14C5 E4                 4895 	clr	a
   14C6 3F                 4896 	addc	a,r7
   14C7 A3                 4897 	inc	dptr
   14C8 F0                 4898 	movx	@dptr,a
   14C9 E5 81              4899 	mov	a,sp
   14CB 24 F2              4900 	add	a,#0xf2
   14CD F8                 4901 	mov	r0,a
   14CE EE                 4902 	mov	a,r6
   14CF 26                 4903 	add	a,@r0
   14D0 FE                 4904 	mov	r6,a
   14D1 EF                 4905 	mov	a,r7
   14D2 08                 4906 	inc	r0
   14D3 36                 4907 	addc	a,@r0
   14D4 FF                 4908 	mov	r7,a
   14D5 08                 4909 	inc	r0
   14D6 86 05              4910 	mov	ar5,@r0
   14D8 8E 82              4911 	mov	dpl,r6
   14DA 8F 83              4912 	mov	dph,r7
   14DC 8D F0              4913 	mov	b,r5
   14DE 74 0E              4914 	mov	a,#0x0E
   14E0 12s00r00           4915 	lcall	__gptrput
                           4916 ;	../../../contiki-sensinode//core/net/rpl/rpl-icmp6.c:488: buffer[pos++] = 0; /* No Auth, PCS = 0 */
   14E3 90s00rA7           4917 	mov	dptr,#_dio_output_pos_1_1
   14E6 E0                 4918 	movx	a,@dptr
   14E7 FE                 4919 	mov	r6,a
   14E8 A3                 4920 	inc	dptr
   14E9 E0                 4921 	movx	a,@dptr
   14EA FF                 4922 	mov	r7,a
   14EB 90s00rA7           4923 	mov	dptr,#_dio_output_pos_1_1
   14EE 74 01              4924 	mov	a,#0x01
   14F0 2E                 4925 	add	a,r6
   14F1 F0                 4926 	movx	@dptr,a
   14F2 E4                 4927 	clr	a
   14F3 3F                 4928 	addc	a,r7
   14F4 A3                 4929 	inc	dptr
   14F5 F0                 4930 	movx	@dptr,a
   14F6 E5 81              4931 	mov	a,sp
   14F8 24 F2              4932 	add	a,#0xf2
   14FA F8                 4933 	mov	r0,a
   14FB EE                 4934 	mov	a,r6
   14FC 26                 4935 	add	a,@r0
   14FD FE                 4936 	mov	r6,a
   14FE EF                 4937 	mov	a,r7
   14FF 08                 4938 	inc	r0
   1500 36                 4939 	addc	a,@r0
   1501 FF                 4940 	mov	r7,a
   1502 08                 4941 	inc	r0
   1503 86 05              4942 	mov	ar5,@r0
   1505 8E 82              4943 	mov	dpl,r6
   1507 8F 83              4944 	mov	dph,r7
   1509 8D F0              4945 	mov	b,r5
   150B E4                 4946 	clr	a
   150C 12s00r00           4947 	lcall	__gptrput
                           4948 ;	../../../contiki-sensinode//core/net/rpl/rpl-icmp6.c:489: buffer[pos++] = instance->dio_intdoubl;
   150F 90s00rA7           4949 	mov	dptr,#_dio_output_pos_1_1
   1512 E0                 4950 	movx	a,@dptr
   1513 FE                 4951 	mov	r6,a
   1514 A3                 4952 	inc	dptr
   1515 E0                 4953 	movx	a,@dptr
   1516 FF                 4954 	mov	r7,a
   1517 90s00rA7           4955 	mov	dptr,#_dio_output_pos_1_1
   151A 74 01              4956 	mov	a,#0x01
   151C 2E                 4957 	add	a,r6
   151D F0                 4958 	movx	@dptr,a
   151E E4                 4959 	clr	a
   151F 3F                 4960 	addc	a,r7
   1520 A3                 4961 	inc	dptr
   1521 F0                 4962 	movx	@dptr,a
   1522 E5 81              4963 	mov	a,sp
   1524 24 F2              4964 	add	a,#0xf2
   1526 F8                 4965 	mov	r0,a
   1527 EE                 4966 	mov	a,r6
   1528 26                 4967 	add	a,@r0
   1529 FE                 4968 	mov	r6,a
   152A EF                 4969 	mov	a,r7
   152B 08                 4970 	inc	r0
   152C 36                 4971 	addc	a,@r0
   152D FF                 4972 	mov	r7,a
   152E 08                 4973 	inc	r0
   152F 86 05              4974 	mov	ar5,@r0
   1531 E5 81              4975 	mov	a,sp
   1533 24 EF              4976 	add	a,#0xef
   1535 F8                 4977 	mov	r0,a
   1536 74 8A              4978 	mov	a,#0x8A
   1538 26                 4979 	add	a,@r0
   1539 FA                 4980 	mov	r2,a
   153A E4                 4981 	clr	a
   153B 08                 4982 	inc	r0
   153C 36                 4983 	addc	a,@r0
   153D FB                 4984 	mov	r3,a
   153E 08                 4985 	inc	r0
   153F 86 04              4986 	mov	ar4,@r0
   1541 8A 82              4987 	mov	dpl,r2
   1543 8B 83              4988 	mov	dph,r3
   1545 8C F0              4989 	mov	b,r4
   1547 12s00r00           4990 	lcall	__gptrget
   154A 8E 82              4991 	mov	dpl,r6
   154C 8F 83              4992 	mov	dph,r7
   154E 8D F0              4993 	mov	b,r5
   1550 12s00r00           4994 	lcall	__gptrput
                           4995 ;	../../../contiki-sensinode//core/net/rpl/rpl-icmp6.c:490: buffer[pos++] = instance->dio_intmin;
   1553 90s00rA7           4996 	mov	dptr,#_dio_output_pos_1_1
   1556 E0                 4997 	movx	a,@dptr
   1557 FE                 4998 	mov	r6,a
   1558 A3                 4999 	inc	dptr
   1559 E0                 5000 	movx	a,@dptr
   155A FF                 5001 	mov	r7,a
   155B 90s00rA7           5002 	mov	dptr,#_dio_output_pos_1_1
   155E 74 01              5003 	mov	a,#0x01
   1560 2E                 5004 	add	a,r6
   1561 F0                 5005 	movx	@dptr,a
   1562 E4                 5006 	clr	a
   1563 3F                 5007 	addc	a,r7
   1564 A3                 5008 	inc	dptr
   1565 F0                 5009 	movx	@dptr,a
   1566 E5 81              5010 	mov	a,sp
   1568 24 F2              5011 	add	a,#0xf2
   156A F8                 5012 	mov	r0,a
   156B EE                 5013 	mov	a,r6
   156C 26                 5014 	add	a,@r0
   156D FE                 5015 	mov	r6,a
   156E EF                 5016 	mov	a,r7
   156F 08                 5017 	inc	r0
   1570 36                 5018 	addc	a,@r0
   1571 FF                 5019 	mov	r7,a
   1572 08                 5020 	inc	r0
   1573 86 05              5021 	mov	ar5,@r0
   1575 E5 81              5022 	mov	a,sp
   1577 24 EF              5023 	add	a,#0xef
   1579 F8                 5024 	mov	r0,a
   157A 74 8B              5025 	mov	a,#0x8B
   157C 26                 5026 	add	a,@r0
   157D FA                 5027 	mov	r2,a
   157E E4                 5028 	clr	a
   157F 08                 5029 	inc	r0
   1580 36                 5030 	addc	a,@r0
   1581 FB                 5031 	mov	r3,a
   1582 08                 5032 	inc	r0
   1583 86 04              5033 	mov	ar4,@r0
   1585 8A 82              5034 	mov	dpl,r2
   1587 8B 83              5035 	mov	dph,r3
   1589 8C F0              5036 	mov	b,r4
   158B 12s00r00           5037 	lcall	__gptrget
   158E 8E 82              5038 	mov	dpl,r6
   1590 8F 83              5039 	mov	dph,r7
   1592 8D F0              5040 	mov	b,r5
   1594 12s00r00           5041 	lcall	__gptrput
                           5042 ;	../../../contiki-sensinode//core/net/rpl/rpl-icmp6.c:491: buffer[pos++] = instance->dio_redundancy;
   1597 90s00rA7           5043 	mov	dptr,#_dio_output_pos_1_1
   159A E0                 5044 	movx	a,@dptr
   159B FE                 5045 	mov	r6,a
   159C A3                 5046 	inc	dptr
   159D E0                 5047 	movx	a,@dptr
   159E FF                 5048 	mov	r7,a
   159F 90s00rA7           5049 	mov	dptr,#_dio_output_pos_1_1
   15A2 74 01              5050 	mov	a,#0x01
   15A4 2E                 5051 	add	a,r6
   15A5 F0                 5052 	movx	@dptr,a
   15A6 E4                 5053 	clr	a
   15A7 3F                 5054 	addc	a,r7
   15A8 A3                 5055 	inc	dptr
   15A9 F0                 5056 	movx	@dptr,a
   15AA E5 81              5057 	mov	a,sp
   15AC 24 F2              5058 	add	a,#0xf2
   15AE F8                 5059 	mov	r0,a
   15AF EE                 5060 	mov	a,r6
   15B0 26                 5061 	add	a,@r0
   15B1 FE                 5062 	mov	r6,a
   15B2 EF                 5063 	mov	a,r7
   15B3 08                 5064 	inc	r0
   15B4 36                 5065 	addc	a,@r0
   15B5 FF                 5066 	mov	r7,a
   15B6 08                 5067 	inc	r0
   15B7 86 05              5068 	mov	ar5,@r0
   15B9 E5 81              5069 	mov	a,sp
   15BB 24 EF              5070 	add	a,#0xef
   15BD F8                 5071 	mov	r0,a
   15BE 74 8C              5072 	mov	a,#0x8C
   15C0 26                 5073 	add	a,@r0
   15C1 FA                 5074 	mov	r2,a
   15C2 E4                 5075 	clr	a
   15C3 08                 5076 	inc	r0
   15C4 36                 5077 	addc	a,@r0
   15C5 FB                 5078 	mov	r3,a
   15C6 08                 5079 	inc	r0
   15C7 86 04              5080 	mov	ar4,@r0
   15C9 8A 82              5081 	mov	dpl,r2
   15CB 8B 83              5082 	mov	dph,r3
   15CD 8C F0              5083 	mov	b,r4
   15CF 12s00r00           5084 	lcall	__gptrget
   15D2 8E 82              5085 	mov	dpl,r6
   15D4 8F 83              5086 	mov	dph,r7
   15D6 8D F0              5087 	mov	b,r5
   15D8 12s00r00           5088 	lcall	__gptrput
                           5089 ;	../../../contiki-sensinode//core/net/rpl/rpl-icmp6.c:492: set16(buffer, pos, instance->max_rankinc);
   15DB E5 81              5090 	mov	a,sp
   15DD 24 EF              5091 	add	a,#0xef
   15DF F8                 5092 	mov	r0,a
   15E0 74 91              5093 	mov	a,#0x91
   15E2 26                 5094 	add	a,@r0
   15E3 FD                 5095 	mov	r5,a
   15E4 E4                 5096 	clr	a
   15E5 08                 5097 	inc	r0
   15E6 36                 5098 	addc	a,@r0
   15E7 FE                 5099 	mov	r6,a
   15E8 08                 5100 	inc	r0
   15E9 86 07              5101 	mov	ar7,@r0
   15EB 8D 82              5102 	mov	dpl,r5
   15ED 8E 83              5103 	mov	dph,r6
   15EF 8F F0              5104 	mov	b,r7
   15F1 12s00r00           5105 	lcall	__gptrget
   15F4 FD                 5106 	mov	r5,a
   15F5 A3                 5107 	inc	dptr
   15F6 12s00r00           5108 	lcall	__gptrget
   15F9 FE                 5109 	mov	r6,a
   15FA C0 05              5110 	push	ar5
   15FC C0 06              5111 	push	ar6
   15FE 90s00rA7           5112 	mov	dptr,#_dio_output_pos_1_1
   1601 E0                 5113 	movx	a,@dptr
   1602 C0 E0              5114 	push	acc
   1604 A3                 5115 	inc	dptr
   1605 E0                 5116 	movx	a,@dptr
   1606 C0 E0              5117 	push	acc
   1608 E5 81              5118 	mov	a,sp
   160A 24 EE              5119 	add	a,#0xee
   160C F8                 5120 	mov	r0,a
   160D 86 82              5121 	mov	dpl,@r0
   160F 08                 5122 	inc	r0
   1610 86 83              5123 	mov	dph,@r0
   1612 08                 5124 	inc	r0
   1613 86 F0              5125 	mov	b,@r0
   1615 78r98              5126 	mov	r0,#_set16
   1617 79s03              5127 	mov	r1,#(_set16 >> 8)
   1619 7As00              5128 	mov	r2,#(_set16 >> 16)
   161B 12s00r00           5129 	lcall	__sdcc_banked_call
   161E E5 81              5130 	mov	a,sp
   1620 24 FC              5131 	add	a,#0xfc
   1622 F5 81              5132 	mov	sp,a
                           5133 ;	../../../contiki-sensinode//core/net/rpl/rpl-icmp6.c:493: pos += 2;
   1624 90s00rA7           5134 	mov	dptr,#_dio_output_pos_1_1
   1627 E0                 5135 	movx	a,@dptr
   1628 FE                 5136 	mov	r6,a
   1629 A3                 5137 	inc	dptr
   162A E0                 5138 	movx	a,@dptr
   162B FF                 5139 	mov	r7,a
   162C 90s00rA7           5140 	mov	dptr,#_dio_output_pos_1_1
   162F 74 02              5141 	mov	a,#0x02
   1631 2E                 5142 	add	a,r6
   1632 F0                 5143 	movx	@dptr,a
   1633 E4                 5144 	clr	a
   1634 3F                 5145 	addc	a,r7
   1635 A3                 5146 	inc	dptr
   1636 F0                 5147 	movx	@dptr,a
                           5148 ;	../../../contiki-sensinode//core/net/rpl/rpl-icmp6.c:494: set16(buffer, pos, instance->min_hoprankinc);
   1637 E5 81              5149 	mov	a,sp
   1639 24 EF              5150 	add	a,#0xef
   163B F8                 5151 	mov	r0,a
   163C 74 93              5152 	mov	a,#0x93
   163E 26                 5153 	add	a,@r0
   163F FD                 5154 	mov	r5,a
   1640 E4                 5155 	clr	a
   1641 08                 5156 	inc	r0
   1642 36                 5157 	addc	a,@r0
   1643 FE                 5158 	mov	r6,a
   1644 08                 5159 	inc	r0
   1645 86 07              5160 	mov	ar7,@r0
   1647 8D 82              5161 	mov	dpl,r5
   1649 8E 83              5162 	mov	dph,r6
   164B 8F F0              5163 	mov	b,r7
   164D 12s00r00           5164 	lcall	__gptrget
   1650 FD                 5165 	mov	r5,a
   1651 A3                 5166 	inc	dptr
   1652 12s00r00           5167 	lcall	__gptrget
   1655 FE                 5168 	mov	r6,a
   1656 C0 05              5169 	push	ar5
   1658 C0 06              5170 	push	ar6
   165A 90s00rA7           5171 	mov	dptr,#_dio_output_pos_1_1
   165D E0                 5172 	movx	a,@dptr
   165E C0 E0              5173 	push	acc
   1660 A3                 5174 	inc	dptr
   1661 E0                 5175 	movx	a,@dptr
   1662 C0 E0              5176 	push	acc
   1664 E5 81              5177 	mov	a,sp
   1666 24 EE              5178 	add	a,#0xee
   1668 F8                 5179 	mov	r0,a
   1669 86 82              5180 	mov	dpl,@r0
   166B 08                 5181 	inc	r0
   166C 86 83              5182 	mov	dph,@r0
   166E 08                 5183 	inc	r0
   166F 86 F0              5184 	mov	b,@r0
   1671 78r98              5185 	mov	r0,#_set16
   1673 79s03              5186 	mov	r1,#(_set16 >> 8)
   1675 7As00              5187 	mov	r2,#(_set16 >> 16)
   1677 12s00r00           5188 	lcall	__sdcc_banked_call
   167A E5 81              5189 	mov	a,sp
   167C 24 FC              5190 	add	a,#0xfc
   167E F5 81              5191 	mov	sp,a
                           5192 ;	../../../contiki-sensinode//core/net/rpl/rpl-icmp6.c:495: pos += 2;
   1680 90s00rA7           5193 	mov	dptr,#_dio_output_pos_1_1
   1683 E0                 5194 	movx	a,@dptr
   1684 FE                 5195 	mov	r6,a
   1685 A3                 5196 	inc	dptr
   1686 E0                 5197 	movx	a,@dptr
   1687 FF                 5198 	mov	r7,a
   1688 90s00rA7           5199 	mov	dptr,#_dio_output_pos_1_1
   168B 74 02              5200 	mov	a,#0x02
   168D 2E                 5201 	add	a,r6
   168E F0                 5202 	movx	@dptr,a
   168F E4                 5203 	clr	a
   1690 3F                 5204 	addc	a,r7
   1691 A3                 5205 	inc	dptr
   1692 F0                 5206 	movx	@dptr,a
                           5207 ;	../../../contiki-sensinode//core/net/rpl/rpl-icmp6.c:497: set16(buffer, pos, instance->of->ocp);
   1693 E5 81              5208 	mov	a,sp
   1695 24 EF              5209 	add	a,#0xef
   1697 F8                 5210 	mov	r0,a
   1698 74 07              5211 	mov	a,#0x07
   169A 26                 5212 	add	a,@r0
   169B FD                 5213 	mov	r5,a
   169C E4                 5214 	clr	a
   169D 08                 5215 	inc	r0
   169E 36                 5216 	addc	a,@r0
   169F FE                 5217 	mov	r6,a
   16A0 08                 5218 	inc	r0
   16A1 86 07              5219 	mov	ar7,@r0
   16A3 8D 82              5220 	mov	dpl,r5
   16A5 8E 83              5221 	mov	dph,r6
   16A7 8F F0              5222 	mov	b,r7
   16A9 12s00r00           5223 	lcall	__gptrget
   16AC FD                 5224 	mov	r5,a
   16AD A3                 5225 	inc	dptr
   16AE 12s00r00           5226 	lcall	__gptrget
   16B1 FE                 5227 	mov	r6,a
   16B2 A3                 5228 	inc	dptr
   16B3 12s00r00           5229 	lcall	__gptrget
   16B6 FF                 5230 	mov	r7,a
   16B7 74 12              5231 	mov	a,#0x12
   16B9 2D                 5232 	add	a,r5
   16BA FD                 5233 	mov	r5,a
   16BB E4                 5234 	clr	a
   16BC 3E                 5235 	addc	a,r6
   16BD FE                 5236 	mov	r6,a
   16BE 8D 82              5237 	mov	dpl,r5
   16C0 8E 83              5238 	mov	dph,r6
   16C2 8F F0              5239 	mov	b,r7
   16C4 12s00r00           5240 	lcall	__gptrget
   16C7 FD                 5241 	mov	r5,a
   16C8 A3                 5242 	inc	dptr
   16C9 12s00r00           5243 	lcall	__gptrget
   16CC FE                 5244 	mov	r6,a
   16CD C0 05              5245 	push	ar5
   16CF C0 06              5246 	push	ar6
   16D1 90s00rA7           5247 	mov	dptr,#_dio_output_pos_1_1
   16D4 E0                 5248 	movx	a,@dptr
   16D5 C0 E0              5249 	push	acc
   16D7 A3                 5250 	inc	dptr
   16D8 E0                 5251 	movx	a,@dptr
   16D9 C0 E0              5252 	push	acc
   16DB E5 81              5253 	mov	a,sp
   16DD 24 EE              5254 	add	a,#0xee
   16DF F8                 5255 	mov	r0,a
   16E0 86 82              5256 	mov	dpl,@r0
   16E2 08                 5257 	inc	r0
   16E3 86 83              5258 	mov	dph,@r0
   16E5 08                 5259 	inc	r0
   16E6 86 F0              5260 	mov	b,@r0
   16E8 78r98              5261 	mov	r0,#_set16
   16EA 79s03              5262 	mov	r1,#(_set16 >> 8)
   16EC 7As00              5263 	mov	r2,#(_set16 >> 16)
   16EE 12s00r00           5264 	lcall	__sdcc_banked_call
   16F1 E5 81              5265 	mov	a,sp
   16F3 24 FC              5266 	add	a,#0xfc
   16F5 F5 81              5267 	mov	sp,a
                           5268 ;	../../../contiki-sensinode//core/net/rpl/rpl-icmp6.c:498: pos += 2;
   16F7 90s00rA7           5269 	mov	dptr,#_dio_output_pos_1_1
   16FA E0                 5270 	movx	a,@dptr
   16FB FE                 5271 	mov	r6,a
   16FC A3                 5272 	inc	dptr
   16FD E0                 5273 	movx	a,@dptr
   16FE FF                 5274 	mov	r7,a
   16FF 90s00rA7           5275 	mov	dptr,#_dio_output_pos_1_1
   1702 74 02              5276 	mov	a,#0x02
   1704 2E                 5277 	add	a,r6
   1705 F0                 5278 	movx	@dptr,a
   1706 E4                 5279 	clr	a
   1707 3F                 5280 	addc	a,r7
   1708 A3                 5281 	inc	dptr
   1709 F0                 5282 	movx	@dptr,a
                           5283 ;	../../../contiki-sensinode//core/net/rpl/rpl-icmp6.c:499: buffer[pos++] = 0; /* reserved */
   170A 90s00rA7           5284 	mov	dptr,#_dio_output_pos_1_1
   170D E0                 5285 	movx	a,@dptr
   170E FE                 5286 	mov	r6,a
   170F A3                 5287 	inc	dptr
   1710 E0                 5288 	movx	a,@dptr
   1711 FF                 5289 	mov	r7,a
   1712 90s00rA7           5290 	mov	dptr,#_dio_output_pos_1_1
   1715 74 01              5291 	mov	a,#0x01
   1717 2E                 5292 	add	a,r6
   1718 F0                 5293 	movx	@dptr,a
   1719 E4                 5294 	clr	a
   171A 3F                 5295 	addc	a,r7
   171B A3                 5296 	inc	dptr
   171C F0                 5297 	movx	@dptr,a
   171D E5 81              5298 	mov	a,sp
   171F 24 F2              5299 	add	a,#0xf2
   1721 F8                 5300 	mov	r0,a
   1722 EE                 5301 	mov	a,r6
   1723 26                 5302 	add	a,@r0
   1724 FE                 5303 	mov	r6,a
   1725 EF                 5304 	mov	a,r7
   1726 08                 5305 	inc	r0
   1727 36                 5306 	addc	a,@r0
   1728 FF                 5307 	mov	r7,a
   1729 08                 5308 	inc	r0
   172A 86 05              5309 	mov	ar5,@r0
   172C 8E 82              5310 	mov	dpl,r6
   172E 8F 83              5311 	mov	dph,r7
   1730 8D F0              5312 	mov	b,r5
   1732 E4                 5313 	clr	a
   1733 12s00r00           5314 	lcall	__gptrput
                           5315 ;	../../../contiki-sensinode//core/net/rpl/rpl-icmp6.c:500: buffer[pos++] = instance->default_lifetime;
   1736 90s00rA7           5316 	mov	dptr,#_dio_output_pos_1_1
   1739 E0                 5317 	movx	a,@dptr
   173A FE                 5318 	mov	r6,a
   173B A3                 5319 	inc	dptr
   173C E0                 5320 	movx	a,@dptr
   173D FF                 5321 	mov	r7,a
   173E 90s00rA7           5322 	mov	dptr,#_dio_output_pos_1_1
   1741 74 01              5323 	mov	a,#0x01
   1743 2E                 5324 	add	a,r6
   1744 F0                 5325 	movx	@dptr,a
   1745 E4                 5326 	clr	a
   1746 3F                 5327 	addc	a,r7
   1747 A3                 5328 	inc	dptr
   1748 F0                 5329 	movx	@dptr,a
   1749 E5 81              5330 	mov	a,sp
   174B 24 F2              5331 	add	a,#0xf2
   174D F8                 5332 	mov	r0,a
   174E EE                 5333 	mov	a,r6
   174F 26                 5334 	add	a,@r0
   1750 FE                 5335 	mov	r6,a
   1751 EF                 5336 	mov	a,r7
   1752 08                 5337 	inc	r0
   1753 36                 5338 	addc	a,@r0
   1754 FF                 5339 	mov	r7,a
   1755 08                 5340 	inc	r0
   1756 86 05              5341 	mov	ar5,@r0
   1758 E5 81              5342 	mov	a,sp
   175A 24 EF              5343 	add	a,#0xef
   175C F8                 5344 	mov	r0,a
   175D 74 8D              5345 	mov	a,#0x8D
   175F 26                 5346 	add	a,@r0
   1760 FA                 5347 	mov	r2,a
   1761 E4                 5348 	clr	a
   1762 08                 5349 	inc	r0
   1763 36                 5350 	addc	a,@r0
   1764 FB                 5351 	mov	r3,a
   1765 08                 5352 	inc	r0
   1766 86 04              5353 	mov	ar4,@r0
   1768 8A 82              5354 	mov	dpl,r2
   176A 8B 83              5355 	mov	dph,r3
   176C 8C F0              5356 	mov	b,r4
   176E 12s00r00           5357 	lcall	__gptrget
   1771 8E 82              5358 	mov	dpl,r6
   1773 8F 83              5359 	mov	dph,r7
   1775 8D F0              5360 	mov	b,r5
   1777 12s00r00           5361 	lcall	__gptrput
                           5362 ;	../../../contiki-sensinode//core/net/rpl/rpl-icmp6.c:501: set16(buffer, pos, instance->lifetime_unit);
   177A E5 81              5363 	mov	a,sp
   177C 24 EF              5364 	add	a,#0xef
   177E F8                 5365 	mov	r0,a
   177F 74 95              5366 	mov	a,#0x95
   1781 26                 5367 	add	a,@r0
   1782 FD                 5368 	mov	r5,a
   1783 E4                 5369 	clr	a
   1784 08                 5370 	inc	r0
   1785 36                 5371 	addc	a,@r0
   1786 FE                 5372 	mov	r6,a
   1787 08                 5373 	inc	r0
   1788 86 07              5374 	mov	ar7,@r0
   178A 8D 82              5375 	mov	dpl,r5
   178C 8E 83              5376 	mov	dph,r6
   178E 8F F0              5377 	mov	b,r7
   1790 12s00r00           5378 	lcall	__gptrget
   1793 FD                 5379 	mov	r5,a
   1794 A3                 5380 	inc	dptr
   1795 12s00r00           5381 	lcall	__gptrget
   1798 FE                 5382 	mov	r6,a
   1799 C0 05              5383 	push	ar5
   179B C0 06              5384 	push	ar6
   179D 90s00rA7           5385 	mov	dptr,#_dio_output_pos_1_1
   17A0 E0                 5386 	movx	a,@dptr
   17A1 C0 E0              5387 	push	acc
   17A3 A3                 5388 	inc	dptr
   17A4 E0                 5389 	movx	a,@dptr
   17A5 C0 E0              5390 	push	acc
   17A7 E5 81              5391 	mov	a,sp
   17A9 24 EE              5392 	add	a,#0xee
   17AB F8                 5393 	mov	r0,a
   17AC 86 82              5394 	mov	dpl,@r0
   17AE 08                 5395 	inc	r0
   17AF 86 83              5396 	mov	dph,@r0
   17B1 08                 5397 	inc	r0
   17B2 86 F0              5398 	mov	b,@r0
   17B4 78r98              5399 	mov	r0,#_set16
   17B6 79s03              5400 	mov	r1,#(_set16 >> 8)
   17B8 7As00              5401 	mov	r2,#(_set16 >> 16)
   17BA 12s00r00           5402 	lcall	__sdcc_banked_call
   17BD E5 81              5403 	mov	a,sp
   17BF 24 FC              5404 	add	a,#0xfc
   17C1 F5 81              5405 	mov	sp,a
                           5406 ;	../../../contiki-sensinode//core/net/rpl/rpl-icmp6.c:502: pos += 2;
   17C3 90s00rA7           5407 	mov	dptr,#_dio_output_pos_1_1
   17C6 E0                 5408 	movx	a,@dptr
   17C7 FE                 5409 	mov	r6,a
   17C8 A3                 5410 	inc	dptr
   17C9 E0                 5411 	movx	a,@dptr
   17CA FF                 5412 	mov	r7,a
   17CB 90s00rA7           5413 	mov	dptr,#_dio_output_pos_1_1
   17CE 74 02              5414 	mov	a,#0x02
   17D0 2E                 5415 	add	a,r6
   17D1 F0                 5416 	movx	@dptr,a
   17D2 E4                 5417 	clr	a
   17D3 3F                 5418 	addc	a,r7
   17D4 A3                 5419 	inc	dptr
   17D5 F0                 5420 	movx	@dptr,a
                           5421 ;	../../../contiki-sensinode//core/net/rpl/rpl-icmp6.c:505: if(dag->prefix_info.length > 0) {
   17D6 E5 81              5422 	mov	a,sp
   17D8 24 F5              5423 	add	a,#0xf5
   17DA F8                 5424 	mov	r0,a
   17DB A9 81              5425 	mov	r1,sp
   17DD 19                 5426 	dec	r1
   17DE 19                 5427 	dec	r1
   17DF 74 25              5428 	mov	a,#0x25
   17E1 26                 5429 	add	a,@r0
   17E2 F7                 5430 	mov	@r1,a
   17E3 E4                 5431 	clr	a
   17E4 08                 5432 	inc	r0
   17E5 36                 5433 	addc	a,@r0
   17E6 09                 5434 	inc	r1
   17E7 F7                 5435 	mov	@r1,a
   17E8 08                 5436 	inc	r0
   17E9 09                 5437 	inc	r1
   17EA E6                 5438 	mov	a,@r0
   17EB F7                 5439 	mov	@r1,a
   17EC A8 81              5440 	mov	r0,sp
   17EE 18                 5441 	dec	r0
   17EF 18                 5442 	dec	r0
   17F0 74 14              5443 	mov	a,#0x14
   17F2 26                 5444 	add	a,@r0
   17F3 FA                 5445 	mov	r2,a
   17F4 E4                 5446 	clr	a
   17F5 08                 5447 	inc	r0
   17F6 36                 5448 	addc	a,@r0
   17F7 FB                 5449 	mov	r3,a
   17F8 08                 5450 	inc	r0
   17F9 86 04              5451 	mov	ar4,@r0
   17FB 8A 82              5452 	mov	dpl,r2
   17FD 8B 83              5453 	mov	dph,r3
   17FF 8C F0              5454 	mov	b,r4
   1801 12s00r00           5455 	lcall	__gptrget
   1804 FF                 5456 	mov	r7,a
   1805 70 03              5457 	jnz	00146$
   1807 02s1Ar4C           5458 	ljmp	00112$
   180A                    5459 00146$:
                           5460 ;	../../../contiki-sensinode//core/net/rpl/rpl-icmp6.c:506: buffer[pos++] = RPL_OPTION_PREFIX_INFO;
   180A 90s00rA7           5461 	mov	dptr,#_dio_output_pos_1_1
   180D E0                 5462 	movx	a,@dptr
   180E FA                 5463 	mov	r2,a
   180F A3                 5464 	inc	dptr
   1810 E0                 5465 	movx	a,@dptr
   1811 FB                 5466 	mov	r3,a
   1812 90s00rA7           5467 	mov	dptr,#_dio_output_pos_1_1
   1815 74 01              5468 	mov	a,#0x01
   1817 2A                 5469 	add	a,r2
   1818 F0                 5470 	movx	@dptr,a
   1819 E4                 5471 	clr	a
   181A 3B                 5472 	addc	a,r3
   181B A3                 5473 	inc	dptr
   181C F0                 5474 	movx	@dptr,a
   181D E5 81              5475 	mov	a,sp
   181F 24 F2              5476 	add	a,#0xf2
   1821 F8                 5477 	mov	r0,a
   1822 EA                 5478 	mov	a,r2
   1823 26                 5479 	add	a,@r0
   1824 FA                 5480 	mov	r2,a
   1825 EB                 5481 	mov	a,r3
   1826 08                 5482 	inc	r0
   1827 36                 5483 	addc	a,@r0
   1828 FB                 5484 	mov	r3,a
   1829 08                 5485 	inc	r0
   182A 86 04              5486 	mov	ar4,@r0
   182C 8A 82              5487 	mov	dpl,r2
   182E 8B 83              5488 	mov	dph,r3
   1830 8C F0              5489 	mov	b,r4
   1832 74 08              5490 	mov	a,#0x08
   1834 12s00r00           5491 	lcall	__gptrput
                           5492 ;	../../../contiki-sensinode//core/net/rpl/rpl-icmp6.c:507: buffer[pos++] = 30; /* always 30 bytes + 2 long */
   1837 90s00rA7           5493 	mov	dptr,#_dio_output_pos_1_1
   183A E0                 5494 	movx	a,@dptr
   183B FB                 5495 	mov	r3,a
   183C A3                 5496 	inc	dptr
   183D E0                 5497 	movx	a,@dptr
   183E FC                 5498 	mov	r4,a
   183F 90s00rA7           5499 	mov	dptr,#_dio_output_pos_1_1
   1842 74 01              5500 	mov	a,#0x01
   1844 2B                 5501 	add	a,r3
   1845 F0                 5502 	movx	@dptr,a
   1846 E4                 5503 	clr	a
   1847 3C                 5504 	addc	a,r4
   1848 A3                 5505 	inc	dptr
   1849 F0                 5506 	movx	@dptr,a
   184A E5 81              5507 	mov	a,sp
   184C 24 F2              5508 	add	a,#0xf2
   184E F8                 5509 	mov	r0,a
   184F EB                 5510 	mov	a,r3
   1850 26                 5511 	add	a,@r0
   1851 FB                 5512 	mov	r3,a
   1852 EC                 5513 	mov	a,r4
   1853 08                 5514 	inc	r0
   1854 36                 5515 	addc	a,@r0
   1855 FC                 5516 	mov	r4,a
   1856 08                 5517 	inc	r0
   1857 86 02              5518 	mov	ar2,@r0
   1859 8B 82              5519 	mov	dpl,r3
   185B 8C 83              5520 	mov	dph,r4
   185D 8A F0              5521 	mov	b,r2
   185F 74 1E              5522 	mov	a,#0x1E
   1861 12s00r00           5523 	lcall	__gptrput
                           5524 ;	../../../contiki-sensinode//core/net/rpl/rpl-icmp6.c:508: buffer[pos++] = dag->prefix_info.length;
   1864 90s00rA7           5525 	mov	dptr,#_dio_output_pos_1_1
   1867 E0                 5526 	movx	a,@dptr
   1868 FB                 5527 	mov	r3,a
   1869 A3                 5528 	inc	dptr
   186A E0                 5529 	movx	a,@dptr
   186B FC                 5530 	mov	r4,a
   186C 90s00rA7           5531 	mov	dptr,#_dio_output_pos_1_1
   186F 74 01              5532 	mov	a,#0x01
   1871 2B                 5533 	add	a,r3
   1872 F0                 5534 	movx	@dptr,a
   1873 E4                 5535 	clr	a
   1874 3C                 5536 	addc	a,r4
   1875 A3                 5537 	inc	dptr
   1876 F0                 5538 	movx	@dptr,a
   1877 E5 81              5539 	mov	a,sp
   1879 24 F2              5540 	add	a,#0xf2
   187B F8                 5541 	mov	r0,a
   187C EB                 5542 	mov	a,r3
   187D 26                 5543 	add	a,@r0
   187E FB                 5544 	mov	r3,a
   187F EC                 5545 	mov	a,r4
   1880 08                 5546 	inc	r0
   1881 36                 5547 	addc	a,@r0
   1882 FC                 5548 	mov	r4,a
   1883 08                 5549 	inc	r0
   1884 86 02              5550 	mov	ar2,@r0
   1886 8B 82              5551 	mov	dpl,r3
   1888 8C 83              5552 	mov	dph,r4
   188A 8A F0              5553 	mov	b,r2
   188C EF                 5554 	mov	a,r7
   188D 12s00r00           5555 	lcall	__gptrput
                           5556 ;	../../../contiki-sensinode//core/net/rpl/rpl-icmp6.c:509: buffer[pos++] = dag->prefix_info.flags;
   1890 90s00rA7           5557 	mov	dptr,#_dio_output_pos_1_1
   1893 E0                 5558 	movx	a,@dptr
   1894 FB                 5559 	mov	r3,a
   1895 A3                 5560 	inc	dptr
   1896 E0                 5561 	movx	a,@dptr
   1897 FC                 5562 	mov	r4,a
   1898 90s00rA7           5563 	mov	dptr,#_dio_output_pos_1_1
   189B 74 01              5564 	mov	a,#0x01
   189D 2B                 5565 	add	a,r3
   189E F0                 5566 	movx	@dptr,a
   189F E4                 5567 	clr	a
   18A0 3C                 5568 	addc	a,r4
   18A1 A3                 5569 	inc	dptr
   18A2 F0                 5570 	movx	@dptr,a
   18A3 E5 81              5571 	mov	a,sp
   18A5 24 F2              5572 	add	a,#0xf2
   18A7 F8                 5573 	mov	r0,a
   18A8 EB                 5574 	mov	a,r3
   18A9 26                 5575 	add	a,@r0
   18AA FF                 5576 	mov	r7,a
   18AB EC                 5577 	mov	a,r4
   18AC 08                 5578 	inc	r0
   18AD 36                 5579 	addc	a,@r0
   18AE FE                 5580 	mov	r6,a
   18AF 08                 5581 	inc	r0
   18B0 86 05              5582 	mov	ar5,@r0
   18B2 A8 81              5583 	mov	r0,sp
   18B4 18                 5584 	dec	r0
   18B5 18                 5585 	dec	r0
   18B6 74 15              5586 	mov	a,#0x15
   18B8 26                 5587 	add	a,@r0
   18B9 FA                 5588 	mov	r2,a
   18BA E4                 5589 	clr	a
   18BB 08                 5590 	inc	r0
   18BC 36                 5591 	addc	a,@r0
   18BD FB                 5592 	mov	r3,a
   18BE 08                 5593 	inc	r0
   18BF 86 04              5594 	mov	ar4,@r0
   18C1 8A 82              5595 	mov	dpl,r2
   18C3 8B 83              5596 	mov	dph,r3
   18C5 8C F0              5597 	mov	b,r4
   18C7 12s00r00           5598 	lcall	__gptrget
   18CA 8F 82              5599 	mov	dpl,r7
   18CC 8E 83              5600 	mov	dph,r6
   18CE 8D F0              5601 	mov	b,r5
   18D0 12s00r00           5602 	lcall	__gptrput
                           5603 ;	../../../contiki-sensinode//core/net/rpl/rpl-icmp6.c:510: set32(buffer, pos, dag->prefix_info.lifetime);
   18D3 A8 81              5604 	mov	r0,sp
   18D5 18                 5605 	dec	r0
   18D6 18                 5606 	dec	r0
   18D7 E5 81              5607 	mov	a,sp
   18D9 24 FB              5608 	add	a,#0xfb
   18DB F9                 5609 	mov	r1,a
   18DC 74 10              5610 	mov	a,#0x10
   18DE 26                 5611 	add	a,@r0
   18DF F7                 5612 	mov	@r1,a
   18E0 E4                 5613 	clr	a
   18E1 08                 5614 	inc	r0
   18E2 36                 5615 	addc	a,@r0
   18E3 09                 5616 	inc	r1
   18E4 F7                 5617 	mov	@r1,a
   18E5 08                 5618 	inc	r0
   18E6 09                 5619 	inc	r1
   18E7 E6                 5620 	mov	a,@r0
   18E8 F7                 5621 	mov	@r1,a
   18E9 E5 81              5622 	mov	a,sp
   18EB 24 FB              5623 	add	a,#0xfb
   18ED F8                 5624 	mov	r0,a
   18EE 86 82              5625 	mov	dpl,@r0
   18F0 08                 5626 	inc	r0
   18F1 86 83              5627 	mov	dph,@r0
   18F3 08                 5628 	inc	r0
   18F4 86 F0              5629 	mov	b,@r0
   18F6 12s00r00           5630 	lcall	__gptrget
   18F9 FA                 5631 	mov	r2,a
   18FA A3                 5632 	inc	dptr
   18FB 12s00r00           5633 	lcall	__gptrget
   18FE FB                 5634 	mov	r3,a
   18FF A3                 5635 	inc	dptr
   1900 12s00r00           5636 	lcall	__gptrget
   1903 FC                 5637 	mov	r4,a
   1904 A3                 5638 	inc	dptr
   1905 12s00r00           5639 	lcall	__gptrget
   1908 FF                 5640 	mov	r7,a
   1909 C0 02              5641 	push	ar2
   190B C0 03              5642 	push	ar3
   190D C0 04              5643 	push	ar4
   190F C0 07              5644 	push	ar7
   1911 90s00rA7           5645 	mov	dptr,#_dio_output_pos_1_1
   1914 E0                 5646 	movx	a,@dptr
   1915 C0 E0              5647 	push	acc
   1917 A3                 5648 	inc	dptr
   1918 E0                 5649 	movx	a,@dptr
   1919 C0 E0              5650 	push	acc
   191B E5 81              5651 	mov	a,sp
   191D 24 EC              5652 	add	a,#0xec
   191F F8                 5653 	mov	r0,a
   1920 86 82              5654 	mov	dpl,@r0
   1922 08                 5655 	inc	r0
   1923 86 83              5656 	mov	dph,@r0
   1925 08                 5657 	inc	r0
   1926 86 F0              5658 	mov	b,@r0
   1928 78r3D              5659 	mov	r0,#_set32
   192A 79s02              5660 	mov	r1,#(_set32 >> 8)
   192C 7As00              5661 	mov	r2,#(_set32 >> 16)
   192E 12s00r00           5662 	lcall	__sdcc_banked_call
   1931 E5 81              5663 	mov	a,sp
   1933 24 FA              5664 	add	a,#0xfa
   1935 F5 81              5665 	mov	sp,a
                           5666 ;	../../../contiki-sensinode//core/net/rpl/rpl-icmp6.c:511: pos += 4;
   1937 90s00rA7           5667 	mov	dptr,#_dio_output_pos_1_1
   193A E0                 5668 	movx	a,@dptr
   193B FE                 5669 	mov	r6,a
   193C A3                 5670 	inc	dptr
   193D E0                 5671 	movx	a,@dptr
   193E FF                 5672 	mov	r7,a
   193F 90s00rA7           5673 	mov	dptr,#_dio_output_pos_1_1
   1942 74 04              5674 	mov	a,#0x04
   1944 2E                 5675 	add	a,r6
   1945 F0                 5676 	movx	@dptr,a
   1946 E4                 5677 	clr	a
   1947 3F                 5678 	addc	a,r7
   1948 A3                 5679 	inc	dptr
   1949 F0                 5680 	movx	@dptr,a
                           5681 ;	../../../contiki-sensinode//core/net/rpl/rpl-icmp6.c:512: set32(buffer, pos, dag->prefix_info.lifetime);
   194A E5 81              5682 	mov	a,sp
   194C 24 FB              5683 	add	a,#0xfb
   194E F8                 5684 	mov	r0,a
   194F 86 82              5685 	mov	dpl,@r0
   1951 08                 5686 	inc	r0
   1952 86 83              5687 	mov	dph,@r0
   1954 08                 5688 	inc	r0
   1955 86 F0              5689 	mov	b,@r0
   1957 12s00r00           5690 	lcall	__gptrget
   195A FC                 5691 	mov	r4,a
   195B A3                 5692 	inc	dptr
   195C 12s00r00           5693 	lcall	__gptrget
   195F FD                 5694 	mov	r5,a
   1960 A3                 5695 	inc	dptr
   1961 12s00r00           5696 	lcall	__gptrget
   1964 FE                 5697 	mov	r6,a
   1965 A3                 5698 	inc	dptr
   1966 12s00r00           5699 	lcall	__gptrget
   1969 FF                 5700 	mov	r7,a
   196A C0 04              5701 	push	ar4
   196C C0 05              5702 	push	ar5
   196E C0 06              5703 	push	ar6
   1970 C0 07              5704 	push	ar7
   1972 90s00rA7           5705 	mov	dptr,#_dio_output_pos_1_1
   1975 E0                 5706 	movx	a,@dptr
   1976 C0 E0              5707 	push	acc
   1978 A3                 5708 	inc	dptr
   1979 E0                 5709 	movx	a,@dptr
   197A C0 E0              5710 	push	acc
   197C E5 81              5711 	mov	a,sp
   197E 24 EC              5712 	add	a,#0xec
   1980 F8                 5713 	mov	r0,a
   1981 86 82              5714 	mov	dpl,@r0
   1983 08                 5715 	inc	r0
   1984 86 83              5716 	mov	dph,@r0
   1986 08                 5717 	inc	r0
   1987 86 F0              5718 	mov	b,@r0
   1989 78r3D              5719 	mov	r0,#_set32
   198B 79s02              5720 	mov	r1,#(_set32 >> 8)
   198D 7As00              5721 	mov	r2,#(_set32 >> 16)
   198F 12s00r00           5722 	lcall	__sdcc_banked_call
   1992 E5 81              5723 	mov	a,sp
   1994 24 FA              5724 	add	a,#0xfa
   1996 F5 81              5725 	mov	sp,a
                           5726 ;	../../../contiki-sensinode//core/net/rpl/rpl-icmp6.c:513: pos += 4;
   1998 90s00rA7           5727 	mov	dptr,#_dio_output_pos_1_1
   199B E0                 5728 	movx	a,@dptr
   199C FE                 5729 	mov	r6,a
   199D A3                 5730 	inc	dptr
   199E E0                 5731 	movx	a,@dptr
   199F FF                 5732 	mov	r7,a
   19A0 90s00rA7           5733 	mov	dptr,#_dio_output_pos_1_1
   19A3 74 04              5734 	mov	a,#0x04
   19A5 2E                 5735 	add	a,r6
   19A6 F0                 5736 	movx	@dptr,a
   19A7 E4                 5737 	clr	a
   19A8 3F                 5738 	addc	a,r7
   19A9 A3                 5739 	inc	dptr
   19AA F0                 5740 	movx	@dptr,a
                           5741 ;	../../../contiki-sensinode//core/net/rpl/rpl-icmp6.c:514: memset(&buffer[pos], 0, 4);
   19AB 90s00rA7           5742 	mov	dptr,#_dio_output_pos_1_1
   19AE E0                 5743 	movx	a,@dptr
   19AF FE                 5744 	mov	r6,a
   19B0 A3                 5745 	inc	dptr
   19B1 E0                 5746 	movx	a,@dptr
   19B2 FF                 5747 	mov	r7,a
   19B3 E5 81              5748 	mov	a,sp
   19B5 24 F2              5749 	add	a,#0xf2
   19B7 F8                 5750 	mov	r0,a
   19B8 EE                 5751 	mov	a,r6
   19B9 26                 5752 	add	a,@r0
   19BA FE                 5753 	mov	r6,a
   19BB EF                 5754 	mov	a,r7
   19BC 08                 5755 	inc	r0
   19BD 36                 5756 	addc	a,@r0
   19BE FF                 5757 	mov	r7,a
   19BF 08                 5758 	inc	r0
   19C0 86 05              5759 	mov	ar5,@r0
   19C2 74 04              5760 	mov	a,#0x04
   19C4 C0 E0              5761 	push	acc
   19C6 E4                 5762 	clr	a
   19C7 C0 E0              5763 	push	acc
   19C9 E4                 5764 	clr	a
   19CA C0 E0              5765 	push	acc
   19CC 8E 82              5766 	mov	dpl,r6
   19CE 8F 83              5767 	mov	dph,r7
   19D0 8D F0              5768 	mov	b,r5
   19D2 78r00              5769 	mov	r0,#_memset
   19D4 79s00              5770 	mov	r1,#(_memset >> 8)
   19D6 7As00              5771 	mov	r2,#(_memset >> 16)
   19D8 12s00r00           5772 	lcall	__sdcc_banked_call
   19DB 15 81              5773 	dec	sp
   19DD 15 81              5774 	dec	sp
   19DF 15 81              5775 	dec	sp
                           5776 ;	../../../contiki-sensinode//core/net/rpl/rpl-icmp6.c:515: pos += 4;
   19E1 90s00rA7           5777 	mov	dptr,#_dio_output_pos_1_1
   19E4 E0                 5778 	movx	a,@dptr
   19E5 FE                 5779 	mov	r6,a
   19E6 A3                 5780 	inc	dptr
   19E7 E0                 5781 	movx	a,@dptr
   19E8 FF                 5782 	mov	r7,a
   19E9 90s00rA7           5783 	mov	dptr,#_dio_output_pos_1_1
   19EC 74 04              5784 	mov	a,#0x04
   19EE 2E                 5785 	add	a,r6
   19EF F0                 5786 	movx	@dptr,a
   19F0 E4                 5787 	clr	a
   19F1 3F                 5788 	addc	a,r7
   19F2 A3                 5789 	inc	dptr
   19F3 F0                 5790 	movx	@dptr,a
                           5791 ;	../../../contiki-sensinode//core/net/rpl/rpl-icmp6.c:516: memcpy(&buffer[pos], &dag->prefix_info.prefix, 16);
   19F4 A8 81              5792 	mov	r0,sp
   19F6 18                 5793 	dec	r0
   19F7 18                 5794 	dec	r0
   19F8 86 05              5795 	mov	ar5,@r0
   19FA 08                 5796 	inc	r0
   19FB 86 06              5797 	mov	ar6,@r0
   19FD 08                 5798 	inc	r0
   19FE 86 07              5799 	mov	ar7,@r0
   1A00 90s00rA7           5800 	mov	dptr,#_dio_output_pos_1_1
   1A03 E0                 5801 	movx	a,@dptr
   1A04 FB                 5802 	mov	r3,a
   1A05 A3                 5803 	inc	dptr
   1A06 E0                 5804 	movx	a,@dptr
   1A07 FC                 5805 	mov	r4,a
   1A08 E5 81              5806 	mov	a,sp
   1A0A 24 F2              5807 	add	a,#0xf2
   1A0C F8                 5808 	mov	r0,a
   1A0D EB                 5809 	mov	a,r3
   1A0E 26                 5810 	add	a,@r0
   1A0F FB                 5811 	mov	r3,a
   1A10 EC                 5812 	mov	a,r4
   1A11 08                 5813 	inc	r0
   1A12 36                 5814 	addc	a,@r0
   1A13 FC                 5815 	mov	r4,a
   1A14 08                 5816 	inc	r0
   1A15 86 02              5817 	mov	ar2,@r0
   1A17 74 10              5818 	mov	a,#0x10
   1A19 C0 E0              5819 	push	acc
   1A1B E4                 5820 	clr	a
   1A1C C0 E0              5821 	push	acc
   1A1E C0 05              5822 	push	ar5
   1A20 C0 06              5823 	push	ar6
   1A22 C0 07              5824 	push	ar7
   1A24 8B 82              5825 	mov	dpl,r3
   1A26 8C 83              5826 	mov	dph,r4
   1A28 8A F0              5827 	mov	b,r2
   1A2A 78r00              5828 	mov	r0,#_memcpy
   1A2C 79s00              5829 	mov	r1,#(_memcpy >> 8)
   1A2E 7As00              5830 	mov	r2,#(_memcpy >> 16)
   1A30 12s00r00           5831 	lcall	__sdcc_banked_call
   1A33 E5 81              5832 	mov	a,sp
   1A35 24 FB              5833 	add	a,#0xfb
   1A37 F5 81              5834 	mov	sp,a
                           5835 ;	../../../contiki-sensinode//core/net/rpl/rpl-icmp6.c:517: pos += 16;
   1A39 90s00rA7           5836 	mov	dptr,#_dio_output_pos_1_1
   1A3C E0                 5837 	movx	a,@dptr
   1A3D FE                 5838 	mov	r6,a
   1A3E A3                 5839 	inc	dptr
   1A3F E0                 5840 	movx	a,@dptr
   1A40 FF                 5841 	mov	r7,a
   1A41 90s00rA7           5842 	mov	dptr,#_dio_output_pos_1_1
   1A44 74 10              5843 	mov	a,#0x10
   1A46 2E                 5844 	add	a,r6
   1A47 F0                 5845 	movx	@dptr,a
   1A48 E4                 5846 	clr	a
   1A49 3F                 5847 	addc	a,r7
   1A4A A3                 5848 	inc	dptr
   1A4B F0                 5849 	movx	@dptr,a
   1A4C                    5850 00112$:
                           5851 ;	../../../contiki-sensinode//core/net/rpl/rpl-icmp6.c:534: if(uc_addr == NULL) {
   1A4C E5 81              5852 	mov	a,sp
   1A4E 24 E9              5853 	add	a,#0xe9
   1A50 F8                 5854 	mov	r0,a
   1A51 E6                 5855 	mov	a,@r0
   1A52 08                 5856 	inc	r0
   1A53 46                 5857 	orl	a,@r0
   1A54 70 64              5858 	jnz	00117$
                           5859 ;	../../../contiki-sensinode//core/net/rpl/rpl-icmp6.c:537: uip_create_linklocal_rplnodes_mcast(&addr);
   1A56 90s00r00           5860 	mov	dptr,#_addr
   1A59 74 FF              5861 	mov	a,#0xFF
   1A5B F0                 5862 	movx	@dptr,a
   1A5C A3                 5863 	inc	dptr
   1A5D 74 02              5864 	mov	a,#0x02
   1A5F F0                 5865 	movx	@dptr,a
   1A60 90s00r02           5866 	mov	dptr,#(_addr + 0x0002)
   1A63 E4                 5867 	clr	a
   1A64 F0                 5868 	movx	@dptr,a
   1A65 A3                 5869 	inc	dptr
   1A66 F0                 5870 	movx	@dptr,a
   1A67 90s00r04           5871 	mov	dptr,#(_addr + 0x0004)
   1A6A F0                 5872 	movx	@dptr,a
   1A6B A3                 5873 	inc	dptr
   1A6C E4                 5874 	clr	a
   1A6D F0                 5875 	movx	@dptr,a
   1A6E 90s00r06           5876 	mov	dptr,#(_addr + 0x0006)
   1A71 F0                 5877 	movx	@dptr,a
   1A72 A3                 5878 	inc	dptr
   1A73 E4                 5879 	clr	a
   1A74 F0                 5880 	movx	@dptr,a
   1A75 90s00r08           5881 	mov	dptr,#(_addr + 0x0008)
   1A78 F0                 5882 	movx	@dptr,a
   1A79 A3                 5883 	inc	dptr
   1A7A E4                 5884 	clr	a
   1A7B F0                 5885 	movx	@dptr,a
   1A7C 90s00r0A           5886 	mov	dptr,#(_addr + 0x000a)
   1A7F F0                 5887 	movx	@dptr,a
   1A80 A3                 5888 	inc	dptr
   1A81 E4                 5889 	clr	a
   1A82 F0                 5890 	movx	@dptr,a
   1A83 90s00r0C           5891 	mov	dptr,#(_addr + 0x000c)
   1A86 F0                 5892 	movx	@dptr,a
   1A87 A3                 5893 	inc	dptr
   1A88 E4                 5894 	clr	a
   1A89 F0                 5895 	movx	@dptr,a
   1A8A 90s00r0E           5896 	mov	dptr,#(_addr + 0x000e)
   1A8D F0                 5897 	movx	@dptr,a
   1A8E A3                 5898 	inc	dptr
   1A8F 74 1A              5899 	mov	a,#0x1A
   1A91 F0                 5900 	movx	@dptr,a
                           5901 ;	../../../contiki-sensinode//core/net/rpl/rpl-icmp6.c:538: uip_icmp6_send(&addr, ICMP6_RPL, RPL_CODE_DIO, pos);
   1A92 90s00rA7           5902 	mov	dptr,#_dio_output_pos_1_1
   1A95 E0                 5903 	movx	a,@dptr
   1A96 FE                 5904 	mov	r6,a
   1A97 A3                 5905 	inc	dptr
   1A98 E0                 5906 	movx	a,@dptr
   1A99 C0 06              5907 	push	ar6
   1A9B 74 01              5908 	mov	a,#0x01
   1A9D C0 E0              5909 	push	acc
   1A9F 74 9B              5910 	mov	a,#0x9B
   1AA1 C0 E0              5911 	push	acc
   1AA3 90s00r00           5912 	mov	dptr,#_addr
   1AA6 75 F0 00           5913 	mov	b,#0x00
   1AA9 78r00              5914 	mov	r0,#_uip_icmp6_send
   1AAB 79s00              5915 	mov	r1,#(_uip_icmp6_send >> 8)
   1AAD 7As00              5916 	mov	r2,#(_uip_icmp6_send >> 16)
   1AAF 12s00r00           5917 	lcall	__sdcc_banked_call
   1AB2 15 81              5918 	dec	sp
   1AB4 15 81              5919 	dec	sp
   1AB6 15 81              5920 	dec	sp
   1AB8 80 2D              5921 	sjmp	00119$
   1ABA                    5922 00117$:
                           5923 ;	../../../contiki-sensinode//core/net/rpl/rpl-icmp6.c:544: uip_icmp6_send(uc_addr, ICMP6_RPL, RPL_CODE_DIO, pos);
   1ABA 90s00rA7           5924 	mov	dptr,#_dio_output_pos_1_1
   1ABD E0                 5925 	movx	a,@dptr
   1ABE FE                 5926 	mov	r6,a
   1ABF A3                 5927 	inc	dptr
   1AC0 E0                 5928 	movx	a,@dptr
   1AC1 C0 06              5929 	push	ar6
   1AC3 74 01              5930 	mov	a,#0x01
   1AC5 C0 E0              5931 	push	acc
   1AC7 74 9B              5932 	mov	a,#0x9B
   1AC9 C0 E0              5933 	push	acc
   1ACB E5 81              5934 	mov	a,sp
   1ACD 24 E6              5935 	add	a,#0xe6
   1ACF F8                 5936 	mov	r0,a
   1AD0 86 82              5937 	mov	dpl,@r0
   1AD2 08                 5938 	inc	r0
   1AD3 86 83              5939 	mov	dph,@r0
   1AD5 08                 5940 	inc	r0
   1AD6 86 F0              5941 	mov	b,@r0
   1AD8 78r00              5942 	mov	r0,#_uip_icmp6_send
   1ADA 79s00              5943 	mov	r1,#(_uip_icmp6_send >> 8)
   1ADC 7As00              5944 	mov	r2,#(_uip_icmp6_send >> 16)
   1ADE 12s00r00           5945 	lcall	__sdcc_banked_call
   1AE1 15 81              5946 	dec	sp
   1AE3 15 81              5947 	dec	sp
   1AE5 15 81              5948 	dec	sp
   1AE7                    5949 00119$:
   1AE7 E5 81              5950 	mov	a,sp
   1AE9 24 EE              5951 	add	a,#0xEE
   1AEB F5 81              5952 	mov	sp,a
   1AED 02s00r00           5953 	ljmp	__sdcc_banked_ret
                           5954 ;------------------------------------------------------------
                           5955 ;Allocation info for local variables in function 'dao_input'
                           5956 ;------------------------------------------------------------
                           5957 ;dag                       Allocated to stack - sp -29
                           5958 ;instance                  Allocated to stack - sp -26
                           5959 ;buffer                    Allocated to stack - sp -23
                           5960 ;flags                     Allocated to stack - sp -20
                           5961 ;subopt_type               Allocated to registers r7 
                           5962 ;pathcontrol               Allocated to registers 
                           5963 ;pathsequence              Allocated to registers 
                           5964 ;rep                       Allocated to stack - sp -19
                           5965 ;len                       Allocated to registers r2 r3 
                           5966 ;i                         Allocated to stack - sp -16
                           5967 ;learned_from              Allocated to stack - sp -14
                           5968 ;p                         Allocated to stack - sp -12
                           5969 ;sloc0                     Allocated to stack - sp -9
                           5970 ;sloc1                     Allocated to stack - sp -6
                           5971 ;sloc2                     Allocated to stack - sp -3
                           5972 ;sequence                  Allocated with name '_dao_input_sequence_1_1'
                           5973 ;instance_id               Allocated with name '_dao_input_instance_id_1_1'
                           5974 ;lifetime                  Allocated with name '_dao_input_lifetime_1_1'
                           5975 ;prefixlen                 Allocated with name '_dao_input_prefixlen_1_1'
                           5976 ;buffer_length             Allocated with name '_dao_input_buffer_length_1_1'
                           5977 ;pos                       Allocated with name '_dao_input_pos_1_1'
                           5978 ;------------------------------------------------------------
                           5979 ;	../../../contiki-sensinode//core/net/rpl/rpl-icmp6.c:550: dao_input(void)
                           5980 ;	-----------------------------------------
                           5981 ;	 function dao_input
                           5982 ;	-----------------------------------------
   1AF0                    5983 _dao_input:
   1AF0 E5 81              5984 	mov	a,sp
   1AF2 24 1E              5985 	add	a,#0x1E
   1AF4 F5 81              5986 	mov	sp,a
                           5987 ;	../../../contiki-sensinode//core/net/rpl/rpl-icmp6.c:571: prefixlen = 0;
   1AF6 90s00rAD           5988 	mov	dptr,#_dao_input_prefixlen_1_1
   1AF9 E4                 5989 	clr	a
   1AFA F0                 5990 	movx	@dptr,a
                           5991 ;	../../../contiki-sensinode//core/net/rpl/rpl-icmp6.c:573: uip_ipaddr_copy(&dao_sender_addr, &UIP_IP_BUF->srcipaddr);
   1AFB 7Er00              5992 	mov	r6,#_uip_aligned_buf
   1AFD 7Fs00              5993 	mov	r7,#(_uip_aligned_buf >> 8)
   1AFF 74 08              5994 	mov	a,#0x08
   1B01 2E                 5995 	add	a,r6
   1B02 FE                 5996 	mov	r6,a
   1B03 E4                 5997 	clr	a
   1B04 3F                 5998 	addc	a,r7
   1B05 FF                 5999 	mov	r7,a
   1B06 7D 00              6000 	mov	r5,#0x00
   1B08 74 10              6001 	mov	a,#0x10
   1B0A C0 E0              6002 	push	acc
   1B0C E4                 6003 	clr	a
   1B0D C0 E0              6004 	push	acc
   1B0F C0 06              6005 	push	ar6
   1B11 C0 07              6006 	push	ar7
   1B13 C0 05              6007 	push	ar5
   1B15 90s00r87           6008 	mov	dptr,#_dao_sender_addr
   1B18 75 F0 00           6009 	mov	b,#0x00
   1B1B 78r00              6010 	mov	r0,#_memcpy
   1B1D 79s00              6011 	mov	r1,#(_memcpy >> 8)
   1B1F 7As00              6012 	mov	r2,#(_memcpy >> 16)
   1B21 12s00r00           6013 	lcall	__sdcc_banked_call
   1B24 E5 81              6014 	mov	a,sp
   1B26 24 FB              6015 	add	a,#0xfb
   1B28 F5 81              6016 	mov	sp,a
                           6017 ;	../../../contiki-sensinode//core/net/rpl/rpl-icmp6.c:580: buffer = UIP_ICMP_PAYLOAD;
   1B2A 90s00r00           6018 	mov	dptr,#_uip_ext_len
   1B2D E0                 6019 	movx	a,@dptr
   1B2E FF                 6020 	mov	r7,a
   1B2F FD                 6021 	mov	r5,a
   1B30 7E 00              6022 	mov	r6,#0x00
   1B32 74 2C              6023 	mov	a,#0x2C
   1B34 2D                 6024 	add	a,r5
   1B35 FD                 6025 	mov	r5,a
   1B36 E4                 6026 	clr	a
   1B37 3E                 6027 	addc	a,r6
   1B38 FE                 6028 	mov	r6,a
   1B39 ED                 6029 	mov	a,r5
   1B3A 24r00              6030 	add	a,#_uip_aligned_buf
   1B3C FD                 6031 	mov	r5,a
   1B3D EE                 6032 	mov	a,r6
   1B3E 34s00              6033 	addc	a,#(_uip_aligned_buf >> 8)
   1B40 FE                 6034 	mov	r6,a
   1B41 E5 81              6035 	mov	a,sp
   1B43 24 E9              6036 	add	a,#0xe9
   1B45 F8                 6037 	mov	r0,a
   1B46 A6 05              6038 	mov	@r0,ar5
   1B48 08                 6039 	inc	r0
   1B49 A6 06              6040 	mov	@r0,ar6
   1B4B 08                 6041 	inc	r0
   1B4C 76 00              6042 	mov	@r0,#0x00
                           6043 ;	../../../contiki-sensinode//core/net/rpl/rpl-icmp6.c:581: buffer_length = uip_len - uip_l3_icmp_hdr_len;
   1B4E 90s00r00           6044 	mov	dptr,#_uip_len
   1B51 E0                 6045 	movx	a,@dptr
   1B52 FA                 6046 	mov	r2,a
   1B53 A3                 6047 	inc	dptr
   1B54 E0                 6048 	movx	a,@dptr
   1B55 74 2C              6049 	mov	a,#0x2C
   1B57 2F                 6050 	add	a,r7
   1B58 90s00rAE           6051 	mov	dptr,#_dao_input_buffer_length_1_1
   1B5B D3                 6052 	setb	c
   1B5C 9A                 6053 	subb	a,r2
   1B5D F4                 6054 	cpl	a
   1B5E F0                 6055 	movx	@dptr,a
                           6056 ;	../../../contiki-sensinode//core/net/rpl/rpl-icmp6.c:584: instance_id = buffer[pos++];
   1B5F 90s00rAF           6057 	mov	dptr,#_dao_input_pos_1_1
   1B62 74 01              6058 	mov	a,#0x01
   1B64 F0                 6059 	movx	@dptr,a
   1B65 A3                 6060 	inc	dptr
   1B66 E4                 6061 	clr	a
   1B67 F0                 6062 	movx	@dptr,a
   1B68 E5 81              6063 	mov	a,sp
   1B6A 24 E9              6064 	add	a,#0xe9
   1B6C F8                 6065 	mov	r0,a
   1B6D 86 82              6066 	mov	dpl,@r0
   1B6F 08                 6067 	inc	r0
   1B70 86 83              6068 	mov	dph,@r0
   1B72 08                 6069 	inc	r0
   1B73 86 F0              6070 	mov	b,@r0
   1B75 12s00r00           6071 	lcall	__gptrget
   1B78 FF                 6072 	mov	r7,a
   1B79 90s00rAB           6073 	mov	dptr,#_dao_input_instance_id_1_1
   1B7C F0                 6074 	movx	@dptr,a
                           6075 ;	../../../contiki-sensinode//core/net/rpl/rpl-icmp6.c:586: instance = rpl_get_instance(instance_id);
   1B7D 8F 82              6076 	mov	dpl,r7
   1B7F 78r00              6077 	mov	r0,#_rpl_get_instance
   1B81 79s00              6078 	mov	r1,#(_rpl_get_instance >> 8)
   1B83 7As00              6079 	mov	r2,#(_rpl_get_instance >> 16)
   1B85 12s00r00           6080 	lcall	__sdcc_banked_call
   1B88 AA 82              6081 	mov	r2,dpl
   1B8A AB 83              6082 	mov	r3,dph
   1B8C AF F0              6083 	mov	r7,b
   1B8E E5 81              6084 	mov	a,sp
   1B90 24 E6              6085 	add	a,#0xe6
   1B92 F8                 6086 	mov	r0,a
   1B93 A6 02              6087 	mov	@r0,ar2
   1B95 08                 6088 	inc	r0
   1B96 A6 03              6089 	mov	@r0,ar3
   1B98 08                 6090 	inc	r0
   1B99 A6 07              6091 	mov	@r0,ar7
                           6092 ;	../../../contiki-sensinode//core/net/rpl/rpl-icmp6.c:587: if(instance == NULL) {
   1B9B E5 81              6093 	mov	a,sp
   1B9D 24 E6              6094 	add	a,#0xe6
   1B9F F8                 6095 	mov	r0,a
   1BA0 E6                 6096 	mov	a,@r0
   1BA1 08                 6097 	inc	r0
   1BA2 46                 6098 	orl	a,@r0
   1BA3 70 03              6099 	jnz	00102$
                           6100 ;	../../../contiki-sensinode//core/net/rpl/rpl-icmp6.c:590: return;
   1BA5 02s22r93           6101 	ljmp	00136$
   1BA8                    6102 00102$:
                           6103 ;	../../../contiki-sensinode//core/net/rpl/rpl-icmp6.c:593: lifetime = instance->default_lifetime;
   1BA8 E5 81              6104 	mov	a,sp
   1BAA 24 E6              6105 	add	a,#0xe6
   1BAC F8                 6106 	mov	r0,a
   1BAD 74 8D              6107 	mov	a,#0x8D
   1BAF 26                 6108 	add	a,@r0
   1BB0 FA                 6109 	mov	r2,a
   1BB1 E4                 6110 	clr	a
   1BB2 08                 6111 	inc	r0
   1BB3 36                 6112 	addc	a,@r0
   1BB4 FB                 6113 	mov	r3,a
   1BB5 08                 6114 	inc	r0
   1BB6 86 07              6115 	mov	ar7,@r0
   1BB8 8A 82              6116 	mov	dpl,r2
   1BBA 8B 83              6117 	mov	dph,r3
   1BBC 8F F0              6118 	mov	b,r7
   1BBE 12s00r00           6119 	lcall	__gptrget
   1BC1 90s00rAC           6120 	mov	dptr,#_dao_input_lifetime_1_1
   1BC4 F0                 6121 	movx	@dptr,a
                           6122 ;	../../../contiki-sensinode//core/net/rpl/rpl-icmp6.c:595: flags = buffer[pos++];
   1BC5 90s00rAF           6123 	mov	dptr,#_dao_input_pos_1_1
   1BC8 E0                 6124 	movx	a,@dptr
   1BC9 FB                 6125 	mov	r3,a
   1BCA A3                 6126 	inc	dptr
   1BCB E0                 6127 	movx	a,@dptr
   1BCC FF                 6128 	mov	r7,a
   1BCD 90s00rAF           6129 	mov	dptr,#_dao_input_pos_1_1
   1BD0 74 01              6130 	mov	a,#0x01
   1BD2 2B                 6131 	add	a,r3
   1BD3 F0                 6132 	movx	@dptr,a
   1BD4 E4                 6133 	clr	a
   1BD5 3F                 6134 	addc	a,r7
   1BD6 A3                 6135 	inc	dptr
   1BD7 F0                 6136 	movx	@dptr,a
   1BD8 E5 81              6137 	mov	a,sp
   1BDA 24 E9              6138 	add	a,#0xe9
   1BDC F8                 6139 	mov	r0,a
   1BDD EB                 6140 	mov	a,r3
   1BDE 26                 6141 	add	a,@r0
   1BDF FB                 6142 	mov	r3,a
   1BE0 EF                 6143 	mov	a,r7
   1BE1 08                 6144 	inc	r0
   1BE2 36                 6145 	addc	a,@r0
   1BE3 FF                 6146 	mov	r7,a
   1BE4 08                 6147 	inc	r0
   1BE5 86 02              6148 	mov	ar2,@r0
   1BE7 8B 82              6149 	mov	dpl,r3
   1BE9 8F 83              6150 	mov	dph,r7
   1BEB 8A F0              6151 	mov	b,r2
   1BED 12s00r00           6152 	lcall	__gptrget
   1BF0 FB                 6153 	mov	r3,a
   1BF1 E5 81              6154 	mov	a,sp
   1BF3 24 EC              6155 	add	a,#0xec
   1BF5 F8                 6156 	mov	r0,a
   1BF6 A6 03              6157 	mov	@r0,ar3
                           6158 ;	../../../contiki-sensinode//core/net/rpl/rpl-icmp6.c:597: pos++;
   1BF8 90s00rAF           6159 	mov	dptr,#_dao_input_pos_1_1
   1BFB E0                 6160 	movx	a,@dptr
   1BFC 24 01              6161 	add	a,#0x01
   1BFE F0                 6162 	movx	@dptr,a
   1BFF A3                 6163 	inc	dptr
   1C00 E0                 6164 	movx	a,@dptr
   1C01 34 00              6165 	addc	a,#0x00
   1C03 F0                 6166 	movx	@dptr,a
                           6167 ;	../../../contiki-sensinode//core/net/rpl/rpl-icmp6.c:598: sequence = buffer[pos++];
   1C04 90s00rAF           6168 	mov	dptr,#_dao_input_pos_1_1
   1C07 E0                 6169 	movx	a,@dptr
   1C08 FA                 6170 	mov	r2,a
   1C09 A3                 6171 	inc	dptr
   1C0A E0                 6172 	movx	a,@dptr
   1C0B FB                 6173 	mov	r3,a
   1C0C 90s00rAF           6174 	mov	dptr,#_dao_input_pos_1_1
   1C0F 74 01              6175 	mov	a,#0x01
   1C11 2A                 6176 	add	a,r2
   1C12 F0                 6177 	movx	@dptr,a
   1C13 E4                 6178 	clr	a
   1C14 3B                 6179 	addc	a,r3
   1C15 A3                 6180 	inc	dptr
   1C16 F0                 6181 	movx	@dptr,a
   1C17 E5 81              6182 	mov	a,sp
   1C19 24 E9              6183 	add	a,#0xe9
   1C1B F8                 6184 	mov	r0,a
   1C1C EA                 6185 	mov	a,r2
   1C1D 26                 6186 	add	a,@r0
   1C1E FA                 6187 	mov	r2,a
   1C1F EB                 6188 	mov	a,r3
   1C20 08                 6189 	inc	r0
   1C21 36                 6190 	addc	a,@r0
   1C22 FB                 6191 	mov	r3,a
   1C23 08                 6192 	inc	r0
   1C24 86 07              6193 	mov	ar7,@r0
   1C26 8A 82              6194 	mov	dpl,r2
   1C28 8B 83              6195 	mov	dph,r3
   1C2A 8F F0              6196 	mov	b,r7
   1C2C 12s00r00           6197 	lcall	__gptrget
   1C2F 90s00rA9           6198 	mov	dptr,#_dao_input_sequence_1_1
   1C32 F0                 6199 	movx	@dptr,a
   1C33 A3                 6200 	inc	dptr
   1C34 E4                 6201 	clr	a
   1C35 F0                 6202 	movx	@dptr,a
                           6203 ;	../../../contiki-sensinode//core/net/rpl/rpl-icmp6.c:600: dag = instance->current_dag;
   1C36 E5 81              6204 	mov	a,sp
   1C38 24 E6              6205 	add	a,#0xe6
   1C3A F8                 6206 	mov	r0,a
   1C3B 74 0A              6207 	mov	a,#0x0A
   1C3D 26                 6208 	add	a,@r0
   1C3E FA                 6209 	mov	r2,a
   1C3F E4                 6210 	clr	a
   1C40 08                 6211 	inc	r0
   1C41 36                 6212 	addc	a,@r0
   1C42 FB                 6213 	mov	r3,a
   1C43 08                 6214 	inc	r0
   1C44 86 07              6215 	mov	ar7,@r0
   1C46 8A 82              6216 	mov	dpl,r2
   1C48 8B 83              6217 	mov	dph,r3
   1C4A 8F F0              6218 	mov	b,r7
   1C4C 12s00r00           6219 	lcall	__gptrget
   1C4F FA                 6220 	mov	r2,a
   1C50 A3                 6221 	inc	dptr
   1C51 12s00r00           6222 	lcall	__gptrget
   1C54 FB                 6223 	mov	r3,a
   1C55 A3                 6224 	inc	dptr
   1C56 12s00r00           6225 	lcall	__gptrget
   1C59 FF                 6226 	mov	r7,a
   1C5A E5 81              6227 	mov	a,sp
   1C5C 24 E3              6228 	add	a,#0xe3
   1C5E F8                 6229 	mov	r0,a
   1C5F A6 02              6230 	mov	@r0,ar2
   1C61 08                 6231 	inc	r0
   1C62 A6 03              6232 	mov	@r0,ar3
   1C64 08                 6233 	inc	r0
   1C65 A6 07              6234 	mov	@r0,ar7
                           6235 ;	../../../contiki-sensinode//core/net/rpl/rpl-icmp6.c:602: if(flags & RPL_DAO_D_FLAG) {
   1C67 E5 81              6236 	mov	a,sp
   1C69 24 EC              6237 	add	a,#0xec
   1C6B F8                 6238 	mov	r0,a
   1C6C E6                 6239 	mov	a,@r0
   1C6D 30 E6 64           6240 	jnb	acc.6,00106$
                           6241 ;	../../../contiki-sensinode//core/net/rpl/rpl-icmp6.c:603: if(memcmp(&dag->dag_id, &buffer[pos], sizeof(dag->dag_id))) {
   1C70 90s00rAF           6242 	mov	dptr,#_dao_input_pos_1_1
   1C73 E0                 6243 	movx	a,@dptr
   1C74 FB                 6244 	mov	r3,a
   1C75 A3                 6245 	inc	dptr
   1C76 E0                 6246 	movx	a,@dptr
   1C77 FF                 6247 	mov	r7,a
   1C78 E5 81              6248 	mov	a,sp
   1C7A 24 E9              6249 	add	a,#0xe9
   1C7C F8                 6250 	mov	r0,a
   1C7D EB                 6251 	mov	a,r3
   1C7E 26                 6252 	add	a,@r0
   1C7F FB                 6253 	mov	r3,a
   1C80 EF                 6254 	mov	a,r7
   1C81 08                 6255 	inc	r0
   1C82 36                 6256 	addc	a,@r0
   1C83 FF                 6257 	mov	r7,a
   1C84 08                 6258 	inc	r0
   1C85 86 02              6259 	mov	ar2,@r0
   1C87 E5 81              6260 	mov	a,sp
   1C89 24 E3              6261 	add	a,#0xe3
   1C8B F8                 6262 	mov	r0,a
   1C8C 86 04              6263 	mov	ar4,@r0
   1C8E 08                 6264 	inc	r0
   1C8F 86 05              6265 	mov	ar5,@r0
   1C91 08                 6266 	inc	r0
   1C92 86 06              6267 	mov	ar6,@r0
   1C94 74 10              6268 	mov	a,#0x10
   1C96 C0 E0              6269 	push	acc
   1C98 E4                 6270 	clr	a
   1C99 C0 E0              6271 	push	acc
   1C9B C0 03              6272 	push	ar3
   1C9D C0 07              6273 	push	ar7
   1C9F C0 02              6274 	push	ar2
   1CA1 8C 82              6275 	mov	dpl,r4
   1CA3 8D 83              6276 	mov	dph,r5
   1CA5 8E F0              6277 	mov	b,r6
   1CA7 78r00              6278 	mov	r0,#_memcmp
   1CA9 79s00              6279 	mov	r1,#(_memcmp >> 8)
   1CAB 7As00              6280 	mov	r2,#(_memcmp >> 16)
   1CAD 12s00r00           6281 	lcall	__sdcc_banked_call
   1CB0 AE 82              6282 	mov	r6,dpl
   1CB2 AF 83              6283 	mov	r7,dph
   1CB4 E5 81              6284 	mov	a,sp
   1CB6 24 FB              6285 	add	a,#0xfb
   1CB8 F5 81              6286 	mov	sp,a
   1CBA EE                 6287 	mov	a,r6
   1CBB 4F                 6288 	orl	a,r7
   1CBC 60 03              6289 	jz	00104$
                           6290 ;	../../../contiki-sensinode//core/net/rpl/rpl-icmp6.c:605: return;
   1CBE 02s22r93           6291 	ljmp	00136$
   1CC1                    6292 00104$:
                           6293 ;	../../../contiki-sensinode//core/net/rpl/rpl-icmp6.c:607: pos += 16;
   1CC1 90s00rAF           6294 	mov	dptr,#_dao_input_pos_1_1
   1CC4 E0                 6295 	movx	a,@dptr
   1CC5 FB                 6296 	mov	r3,a
   1CC6 A3                 6297 	inc	dptr
   1CC7 E0                 6298 	movx	a,@dptr
   1CC8 FF                 6299 	mov	r7,a
   1CC9 90s00rAF           6300 	mov	dptr,#_dao_input_pos_1_1
   1CCC 74 10              6301 	mov	a,#0x10
   1CCE 2B                 6302 	add	a,r3
   1CCF F0                 6303 	movx	@dptr,a
   1CD0 E4                 6304 	clr	a
   1CD1 3F                 6305 	addc	a,r7
   1CD2 A3                 6306 	inc	dptr
   1CD3 F0                 6307 	movx	@dptr,a
   1CD4                    6308 00106$:
                           6309 ;	../../../contiki-sensinode//core/net/rpl/rpl-icmp6.c:613: i = pos;
   1CD4 90s00rAF           6310 	mov	dptr,#_dao_input_pos_1_1
   1CD7 E0                 6311 	movx	a,@dptr
   1CD8 FB                 6312 	mov	r3,a
   1CD9 A3                 6313 	inc	dptr
   1CDA E0                 6314 	movx	a,@dptr
   1CDB FF                 6315 	mov	r7,a
   1CDC E5 81              6316 	mov	a,sp
   1CDE 24 F0              6317 	add	a,#0xf0
   1CE0 F8                 6318 	mov	r0,a
   1CE1 A6 03              6319 	mov	@r0,ar3
   1CE3 08                 6320 	inc	r0
   1CE4 A6 07              6321 	mov	@r0,ar7
   1CE6                    6322 00132$:
                           6323 ;	../../../contiki-sensinode//core/net/rpl/rpl-icmp6.c:614: for(; i < buffer_length; i += len) {
   1CE6 90s00rAE           6324 	mov	dptr,#_dao_input_buffer_length_1_1
   1CE9 E0                 6325 	movx	a,@dptr
   1CEA FA                 6326 	mov	r2,a
   1CEB 7E 00              6327 	mov	r6,#0x00
   1CED E5 81              6328 	mov	a,sp
   1CEF 24 F0              6329 	add	a,#0xf0
   1CF1 F8                 6330 	mov	r0,a
   1CF2 C3                 6331 	clr	c
   1CF3 E6                 6332 	mov	a,@r0
   1CF4 9A                 6333 	subb	a,r2
   1CF5 08                 6334 	inc	r0
   1CF6 E6                 6335 	mov	a,@r0
   1CF7 64 80              6336 	xrl	a,#0x80
   1CF9 8E F0              6337 	mov	b,r6
   1CFB 63 F0 80           6338 	xrl	b,#0x80
   1CFE 95 F0              6339 	subb	a,b
   1D00 40 03              6340 	jc	00183$
   1D02 02s1Er67           6341 	ljmp	00135$
   1D05                    6342 00183$:
                           6343 ;	../../../contiki-sensinode//core/net/rpl/rpl-icmp6.c:615: subopt_type = buffer[i];
   1D05 E5 81              6344 	mov	a,sp
   1D07 24 E9              6345 	add	a,#0xe9
   1D09 F8                 6346 	mov	r0,a
   1D0A E5 81              6347 	mov	a,sp
   1D0C 24 F0              6348 	add	a,#0xf0
   1D0E F9                 6349 	mov	r1,a
   1D0F E7                 6350 	mov	a,@r1
   1D10 26                 6351 	add	a,@r0
   1D11 FA                 6352 	mov	r2,a
   1D12 09                 6353 	inc	r1
   1D13 E7                 6354 	mov	a,@r1
   1D14 08                 6355 	inc	r0
   1D15 36                 6356 	addc	a,@r0
   1D16 FB                 6357 	mov	r3,a
   1D17 08                 6358 	inc	r0
   1D18 86 07              6359 	mov	ar7,@r0
   1D1A 8A 82              6360 	mov	dpl,r2
   1D1C 8B 83              6361 	mov	dph,r3
   1D1E 8F F0              6362 	mov	b,r7
   1D20 12s00r00           6363 	lcall	__gptrget
   1D23 FA                 6364 	mov	r2,a
                           6365 ;	../../../contiki-sensinode//core/net/rpl/rpl-icmp6.c:616: if(subopt_type == RPL_OPTION_PAD1) {
   1D24 FF                 6366 	mov	r7,a
                           6367 ;	../../../contiki-sensinode//core/net/rpl/rpl-icmp6.c:617: len = 1;
   1D25 70 05              6368 	jnz	00108$
   1D27 7A 01              6369 	mov	r2,#0x01
   1D29 FB                 6370 	mov	r3,a
   1D2A 80 33              6371 	sjmp	00109$
   1D2C                    6372 00108$:
                           6373 ;	../../../contiki-sensinode//core/net/rpl/rpl-icmp6.c:620: len = 2 + buffer[i + 1];
   1D2C C0 07              6374 	push	ar7
   1D2E E5 81              6375 	mov	a,sp
   1D30 24 EF              6376 	add	a,#0xef
   1D32 F8                 6377 	mov	r0,a
   1D33 74 01              6378 	mov	a,#0x01
   1D35 26                 6379 	add	a,@r0
   1D36 FE                 6380 	mov	r6,a
   1D37 E4                 6381 	clr	a
   1D38 08                 6382 	inc	r0
   1D39 36                 6383 	addc	a,@r0
   1D3A FF                 6384 	mov	r7,a
   1D3B E5 81              6385 	mov	a,sp
   1D3D 24 E8              6386 	add	a,#0xe8
   1D3F F8                 6387 	mov	r0,a
   1D40 EE                 6388 	mov	a,r6
   1D41 26                 6389 	add	a,@r0
   1D42 FE                 6390 	mov	r6,a
   1D43 EF                 6391 	mov	a,r7
   1D44 08                 6392 	inc	r0
   1D45 36                 6393 	addc	a,@r0
   1D46 FF                 6394 	mov	r7,a
   1D47 08                 6395 	inc	r0
   1D48 86 05              6396 	mov	ar5,@r0
   1D4A 8E 82              6397 	mov	dpl,r6
   1D4C 8F 83              6398 	mov	dph,r7
   1D4E 8D F0              6399 	mov	b,r5
   1D50 12s00r00           6400 	lcall	__gptrget
   1D53 FE                 6401 	mov	r6,a
   1D54 7F 00              6402 	mov	r7,#0x00
   1D56 74 02              6403 	mov	a,#0x02
   1D58 2E                 6404 	add	a,r6
   1D59 FA                 6405 	mov	r2,a
   1D5A E4                 6406 	clr	a
   1D5B 3F                 6407 	addc	a,r7
   1D5C FB                 6408 	mov	r3,a
                           6409 ;	../../../contiki-sensinode//core/net/rpl/rpl-icmp6.c:695: dao_ack_output(instance, &dao_sender_addr, sequence);
   1D5D D0 07              6410 	pop	ar7
                           6411 ;	../../../contiki-sensinode//core/net/rpl/rpl-icmp6.c:620: len = 2 + buffer[i + 1];
   1D5F                    6412 00109$:
                           6413 ;	../../../contiki-sensinode//core/net/rpl/rpl-icmp6.c:623: switch(subopt_type) {
   1D5F BF 05 02           6414 	cjne	r7,#0x05,00185$
   1D62 80 09              6415 	sjmp	00110$
   1D64                    6416 00185$:
   1D64 BF 06 03           6417 	cjne	r7,#0x06,00186$
   1D67 02s1Er2E           6418 	ljmp	00111$
   1D6A                    6419 00186$:
   1D6A 02s1Er58           6420 	ljmp	00134$
                           6421 ;	../../../contiki-sensinode//core/net/rpl/rpl-icmp6.c:624: case RPL_OPTION_TARGET:
   1D6D                    6422 00110$:
                           6423 ;	../../../contiki-sensinode//core/net/rpl/rpl-icmp6.c:626: prefixlen = buffer[i + 3];
   1D6D C0 02              6424 	push	ar2
   1D6F C0 03              6425 	push	ar3
   1D71 E5 81              6426 	mov	a,sp
   1D73 24 EE              6427 	add	a,#0xee
   1D75 F8                 6428 	mov	r0,a
   1D76 74 03              6429 	mov	a,#0x03
   1D78 26                 6430 	add	a,@r0
   1D79 FE                 6431 	mov	r6,a
   1D7A E4                 6432 	clr	a
   1D7B 08                 6433 	inc	r0
   1D7C 36                 6434 	addc	a,@r0
   1D7D FF                 6435 	mov	r7,a
   1D7E E5 81              6436 	mov	a,sp
   1D80 24 E7              6437 	add	a,#0xe7
   1D82 F8                 6438 	mov	r0,a
   1D83 EE                 6439 	mov	a,r6
   1D84 26                 6440 	add	a,@r0
   1D85 FE                 6441 	mov	r6,a
   1D86 EF                 6442 	mov	a,r7
   1D87 08                 6443 	inc	r0
   1D88 36                 6444 	addc	a,@r0
   1D89 FF                 6445 	mov	r7,a
   1D8A 08                 6446 	inc	r0
   1D8B 86 05              6447 	mov	ar5,@r0
   1D8D 8E 82              6448 	mov	dpl,r6
   1D8F 8F 83              6449 	mov	dph,r7
   1D91 8D F0              6450 	mov	b,r5
   1D93 12s00r00           6451 	lcall	__gptrget
   1D96 90s00rAD           6452 	mov	dptr,#_dao_input_prefixlen_1_1
   1D99 F0                 6453 	movx	@dptr,a
                           6454 ;	../../../contiki-sensinode//core/net/rpl/rpl-icmp6.c:627: memset(&prefix, 0, sizeof(prefix));
   1D9A C0 03              6455 	push	ar3
   1D9C C0 02              6456 	push	ar2
   1D9E 74 10              6457 	mov	a,#0x10
   1DA0 C0 E0              6458 	push	acc
   1DA2 E4                 6459 	clr	a
   1DA3 C0 E0              6460 	push	acc
   1DA5 E4                 6461 	clr	a
   1DA6 C0 E0              6462 	push	acc
   1DA8 90s00r10           6463 	mov	dptr,#_prefix
   1DAB 75 F0 00           6464 	mov	b,#0x00
   1DAE 78r00              6465 	mov	r0,#_memset
   1DB0 79s00              6466 	mov	r1,#(_memset >> 8)
   1DB2 7As00              6467 	mov	r2,#(_memset >> 16)
   1DB4 12s00r00           6468 	lcall	__sdcc_banked_call
   1DB7 15 81              6469 	dec	sp
   1DB9 15 81              6470 	dec	sp
   1DBB 15 81              6471 	dec	sp
                           6472 ;	../../../contiki-sensinode//core/net/rpl/rpl-icmp6.c:628: memcpy(&prefix, buffer + i + 4, (prefixlen + 7) / CHAR_BIT);
   1DBD 90s00rAD           6473 	mov	dptr,#_dao_input_prefixlen_1_1
   1DC0 E0                 6474 	movx	a,@dptr
   1DC1 FF                 6475 	mov	r7,a
   1DC2 7E 00              6476 	mov	r6,#0x00
   1DC4 74 07              6477 	mov	a,#0x07
   1DC6 2F                 6478 	add	a,r7
   1DC7 FF                 6479 	mov	r7,a
   1DC8 E4                 6480 	clr	a
   1DC9 3E                 6481 	addc	a,r6
   1DCA FE                 6482 	mov	r6,a
   1DCB 74 08              6483 	mov	a,#0x08
   1DCD C0 E0              6484 	push	acc
   1DCF E4                 6485 	clr	a
   1DD0 C0 E0              6486 	push	acc
   1DD2 8F 82              6487 	mov	dpl,r7
   1DD4 8E 83              6488 	mov	dph,r6
   1DD6 12s00r00           6489 	lcall	__divsint
   1DD9 AE 82              6490 	mov	r6,dpl
   1DDB AF 83              6491 	mov	r7,dph
   1DDD 15 81              6492 	dec	sp
   1DDF 15 81              6493 	dec	sp
   1DE1 D0 02              6494 	pop	ar2
   1DE3 D0 03              6495 	pop	ar3
   1DE5 E5 81              6496 	mov	a,sp
   1DE7 24 E7              6497 	add	a,#0xe7
   1DE9 F8                 6498 	mov	r0,a
   1DEA E5 81              6499 	mov	a,sp
   1DEC 24 EE              6500 	add	a,#0xee
   1DEE F9                 6501 	mov	r1,a
   1DEF E7                 6502 	mov	a,@r1
   1DF0 26                 6503 	add	a,@r0
   1DF1 FB                 6504 	mov	r3,a
   1DF2 09                 6505 	inc	r1
   1DF3 E7                 6506 	mov	a,@r1
   1DF4 08                 6507 	inc	r0
   1DF5 36                 6508 	addc	a,@r0
   1DF6 FC                 6509 	mov	r4,a
   1DF7 08                 6510 	inc	r0
   1DF8 86 05              6511 	mov	ar5,@r0
   1DFA 74 04              6512 	mov	a,#0x04
   1DFC 2B                 6513 	add	a,r3
   1DFD FB                 6514 	mov	r3,a
   1DFE E4                 6515 	clr	a
   1DFF 3C                 6516 	addc	a,r4
   1E00 FC                 6517 	mov	r4,a
   1E01 C0 03              6518 	push	ar3
   1E03 C0 02              6519 	push	ar2
   1E05 C0 06              6520 	push	ar6
   1E07 C0 07              6521 	push	ar7
   1E09 C0 03              6522 	push	ar3
   1E0B C0 04              6523 	push	ar4
   1E0D C0 05              6524 	push	ar5
   1E0F 90s00r10           6525 	mov	dptr,#_prefix
   1E12 75 F0 00           6526 	mov	b,#0x00
   1E15 78r00              6527 	mov	r0,#_memcpy
   1E17 79s00              6528 	mov	r1,#(_memcpy >> 8)
   1E19 7As00              6529 	mov	r2,#(_memcpy >> 16)
   1E1B 12s00r00           6530 	lcall	__sdcc_banked_call
   1E1E E5 81              6531 	mov	a,sp
   1E20 24 FB              6532 	add	a,#0xfb
   1E22 F5 81              6533 	mov	sp,a
   1E24 D0 02              6534 	pop	ar2
   1E26 D0 03              6535 	pop	ar3
                           6536 ;	../../../contiki-sensinode//core/net/rpl/rpl-icmp6.c:629: break;
   1E28 D0 03              6537 	pop	ar3
   1E2A D0 02              6538 	pop	ar2
                           6539 ;	../../../contiki-sensinode//core/net/rpl/rpl-icmp6.c:630: case RPL_OPTION_TRANSIT:
   1E2C 80 2A              6540 	sjmp	00134$
   1E2E                    6541 00111$:
                           6542 ;	../../../contiki-sensinode//core/net/rpl/rpl-icmp6.c:634: lifetime = buffer[i + 5];
   1E2E E5 81              6543 	mov	a,sp
   1E30 24 F0              6544 	add	a,#0xf0
   1E32 F8                 6545 	mov	r0,a
   1E33 74 05              6546 	mov	a,#0x05
   1E35 26                 6547 	add	a,@r0
   1E36 FE                 6548 	mov	r6,a
   1E37 E4                 6549 	clr	a
   1E38 08                 6550 	inc	r0
   1E39 36                 6551 	addc	a,@r0
   1E3A FF                 6552 	mov	r7,a
   1E3B E5 81              6553 	mov	a,sp
   1E3D 24 E9              6554 	add	a,#0xe9
   1E3F F8                 6555 	mov	r0,a
   1E40 EE                 6556 	mov	a,r6
   1E41 26                 6557 	add	a,@r0
   1E42 FE                 6558 	mov	r6,a
   1E43 EF                 6559 	mov	a,r7
   1E44 08                 6560 	inc	r0
   1E45 36                 6561 	addc	a,@r0
   1E46 FF                 6562 	mov	r7,a
   1E47 08                 6563 	inc	r0
   1E48 86 05              6564 	mov	ar5,@r0
   1E4A 8E 82              6565 	mov	dpl,r6
   1E4C 8F 83              6566 	mov	dph,r7
   1E4E 8D F0              6567 	mov	b,r5
   1E50 12s00r00           6568 	lcall	__gptrget
   1E53 FE                 6569 	mov	r6,a
   1E54 90s00rAC           6570 	mov	dptr,#_dao_input_lifetime_1_1
   1E57 F0                 6571 	movx	@dptr,a
                           6572 ;	../../../contiki-sensinode//core/net/rpl/rpl-icmp6.c:637: }
   1E58                    6573 00134$:
                           6574 ;	../../../contiki-sensinode//core/net/rpl/rpl-icmp6.c:614: for(; i < buffer_length; i += len) {
   1E58 E5 81              6575 	mov	a,sp
   1E5A 24 F0              6576 	add	a,#0xf0
   1E5C F8                 6577 	mov	r0,a
   1E5D EA                 6578 	mov	a,r2
   1E5E 26                 6579 	add	a,@r0
   1E5F F6                 6580 	mov	@r0,a
   1E60 EB                 6581 	mov	a,r3
   1E61 08                 6582 	inc	r0
   1E62 36                 6583 	addc	a,@r0
   1E63 F6                 6584 	mov	@r0,a
   1E64 02s1CrE6           6585 	ljmp	00132$
   1E67                    6586 00135$:
                           6587 ;	../../../contiki-sensinode//core/net/rpl/rpl-icmp6.c:645: rep = uip_ds6_route_lookup(&prefix);
   1E67 90s00r10           6588 	mov	dptr,#_prefix
   1E6A 75 F0 00           6589 	mov	b,#0x00
   1E6D 78r00              6590 	mov	r0,#_uip_ds6_route_lookup
   1E6F 79s00              6591 	mov	r1,#(_uip_ds6_route_lookup >> 8)
   1E71 7As00              6592 	mov	r2,#(_uip_ds6_route_lookup >> 16)
   1E73 12s00r00           6593 	lcall	__sdcc_banked_call
   1E76 AD 82              6594 	mov	r5,dpl
   1E78 AE 83              6595 	mov	r6,dph
   1E7A AF F0              6596 	mov	r7,b
   1E7C E5 81              6597 	mov	a,sp
   1E7E 24 ED              6598 	add	a,#0xed
   1E80 F8                 6599 	mov	r0,a
   1E81 A6 05              6600 	mov	@r0,ar5
   1E83 08                 6601 	inc	r0
   1E84 A6 06              6602 	mov	@r0,ar6
   1E86 08                 6603 	inc	r0
   1E87 A6 07              6604 	mov	@r0,ar7
                           6605 ;	../../../contiki-sensinode//core/net/rpl/rpl-icmp6.c:647: if(lifetime == RPL_ZERO_LIFETIME) {
   1E89 90s00rAC           6606 	mov	dptr,#_dao_input_lifetime_1_1
   1E8C E0                 6607 	movx	a,@dptr
   1E8D FC                 6608 	mov	r4,a
   1E8E 60 03              6609 	jz	00187$
   1E90 02s1Fr7E           6610 	ljmp	00118$
   1E93                    6611 00187$:
                           6612 ;	../../../contiki-sensinode//core/net/rpl/rpl-icmp6.c:649: if(rep != NULL && rep->state.saved_lifetime == 0 && rep->length == prefixlen) {
   1E93 E5 81              6613 	mov	a,sp
   1E95 24 ED              6614 	add	a,#0xed
   1E97 F8                 6615 	mov	r0,a
   1E98 E6                 6616 	mov	a,@r0
   1E99 08                 6617 	inc	r0
   1E9A 46                 6618 	orl	a,@r0
   1E9B 70 03              6619 	jnz	00188$
   1E9D 02s1Fr7B           6620 	ljmp	00114$
   1EA0                    6621 00188$:
   1EA0 E5 81              6622 	mov	a,sp
   1EA2 24 ED              6623 	add	a,#0xed
   1EA4 F8                 6624 	mov	r0,a
   1EA5 E5 81              6625 	mov	a,sp
   1EA7 24 FA              6626 	add	a,#0xfa
   1EA9 F9                 6627 	mov	r1,a
   1EAA 74 25              6628 	mov	a,#0x25
   1EAC 26                 6629 	add	a,@r0
   1EAD F7                 6630 	mov	@r1,a
   1EAE E4                 6631 	clr	a
   1EAF 08                 6632 	inc	r0
   1EB0 36                 6633 	addc	a,@r0
   1EB1 09                 6634 	inc	r1
   1EB2 F7                 6635 	mov	@r1,a
   1EB3 08                 6636 	inc	r0
   1EB4 09                 6637 	inc	r1
   1EB5 E6                 6638 	mov	a,@r0
   1EB6 F7                 6639 	mov	@r1,a
   1EB7 E5 81              6640 	mov	a,sp
   1EB9 24 ED              6641 	add	a,#0xed
   1EBB F8                 6642 	mov	r0,a
   1EBC E5 81              6643 	mov	a,sp
   1EBE 24 F7              6644 	add	a,#0xf7
   1EC0 F9                 6645 	mov	r1,a
   1EC1 74 29              6646 	mov	a,#0x29
   1EC3 26                 6647 	add	a,@r0
   1EC4 F7                 6648 	mov	@r1,a
   1EC5 E4                 6649 	clr	a
   1EC6 08                 6650 	inc	r0
   1EC7 36                 6651 	addc	a,@r0
   1EC8 09                 6652 	inc	r1
   1EC9 F7                 6653 	mov	@r1,a
   1ECA 08                 6654 	inc	r0
   1ECB 09                 6655 	inc	r1
   1ECC E6                 6656 	mov	a,@r0
   1ECD F7                 6657 	mov	@r1,a
   1ECE E5 81              6658 	mov	a,sp
   1ED0 24 F7              6659 	add	a,#0xf7
   1ED2 F8                 6660 	mov	r0,a
   1ED3 86 82              6661 	mov	dpl,@r0
   1ED5 08                 6662 	inc	r0
   1ED6 86 83              6663 	mov	dph,@r0
   1ED8 08                 6664 	inc	r0
   1ED9 86 F0              6665 	mov	b,@r0
   1EDB 12s00r00           6666 	lcall	__gptrget
   1EDE FC                 6667 	mov	r4,a
   1EDF A3                 6668 	inc	dptr
   1EE0 12s00r00           6669 	lcall	__gptrget
   1EE3 FD                 6670 	mov	r5,a
   1EE4 A3                 6671 	inc	dptr
   1EE5 12s00r00           6672 	lcall	__gptrget
   1EE8 FE                 6673 	mov	r6,a
   1EE9 A3                 6674 	inc	dptr
   1EEA 12s00r00           6675 	lcall	__gptrget
   1EED FF                 6676 	mov	r7,a
   1EEE EC                 6677 	mov	a,r4
   1EEF 4D                 6678 	orl	a,r5
   1EF0 4E                 6679 	orl	a,r6
   1EF1 4F                 6680 	orl	a,r7
   1EF2 60 03              6681 	jz	00189$
   1EF4 02s1Fr7B           6682 	ljmp	00114$
   1EF7                    6683 00189$:
   1EF7 E5 81              6684 	mov	a,sp
   1EF9 24 ED              6685 	add	a,#0xed
   1EFB F8                 6686 	mov	r0,a
   1EFC 74 23              6687 	mov	a,#0x23
   1EFE 26                 6688 	add	a,@r0
   1EFF FD                 6689 	mov	r5,a
   1F00 E4                 6690 	clr	a
   1F01 08                 6691 	inc	r0
   1F02 36                 6692 	addc	a,@r0
   1F03 FE                 6693 	mov	r6,a
   1F04 08                 6694 	inc	r0
   1F05 86 07              6695 	mov	ar7,@r0
   1F07 8D 82              6696 	mov	dpl,r5
   1F09 8E 83              6697 	mov	dph,r6
   1F0B 8F F0              6698 	mov	b,r7
   1F0D 12s00r00           6699 	lcall	__gptrget
   1F10 FD                 6700 	mov	r5,a
   1F11 90s00rAD           6701 	mov	dptr,#_dao_input_prefixlen_1_1
   1F14 E0                 6702 	movx	a,@dptr
   1F15 FF                 6703 	mov	r7,a
   1F16 ED                 6704 	mov	a,r5
   1F17 B5 07 61           6705 	cjne	a,ar7,00114$
                           6706 ;	../../../contiki-sensinode//core/net/rpl/rpl-icmp6.c:653: rep->state.saved_lifetime = rep->state.lifetime;
   1F1A E5 81              6707 	mov	a,sp
   1F1C 24 FA              6708 	add	a,#0xfa
   1F1E F8                 6709 	mov	r0,a
   1F1F 86 82              6710 	mov	dpl,@r0
   1F21 08                 6711 	inc	r0
   1F22 86 83              6712 	mov	dph,@r0
   1F24 08                 6713 	inc	r0
   1F25 86 F0              6714 	mov	b,@r0
   1F27 12s00r00           6715 	lcall	__gptrget
   1F2A FC                 6716 	mov	r4,a
   1F2B A3                 6717 	inc	dptr
   1F2C 12s00r00           6718 	lcall	__gptrget
   1F2F FD                 6719 	mov	r5,a
   1F30 A3                 6720 	inc	dptr
   1F31 12s00r00           6721 	lcall	__gptrget
   1F34 FE                 6722 	mov	r6,a
   1F35 A3                 6723 	inc	dptr
   1F36 12s00r00           6724 	lcall	__gptrget
   1F39 FF                 6725 	mov	r7,a
   1F3A E5 81              6726 	mov	a,sp
   1F3C 24 F7              6727 	add	a,#0xf7
   1F3E F8                 6728 	mov	r0,a
   1F3F 86 82              6729 	mov	dpl,@r0
   1F41 08                 6730 	inc	r0
   1F42 86 83              6731 	mov	dph,@r0
   1F44 08                 6732 	inc	r0
   1F45 86 F0              6733 	mov	b,@r0
   1F47 EC                 6734 	mov	a,r4
   1F48 12s00r00           6735 	lcall	__gptrput
   1F4B A3                 6736 	inc	dptr
   1F4C ED                 6737 	mov	a,r5
   1F4D 12s00r00           6738 	lcall	__gptrput
   1F50 A3                 6739 	inc	dptr
   1F51 EE                 6740 	mov	a,r6
   1F52 12s00r00           6741 	lcall	__gptrput
   1F55 A3                 6742 	inc	dptr
   1F56 EF                 6743 	mov	a,r7
   1F57 12s00r00           6744 	lcall	__gptrput
                           6745 ;	../../../contiki-sensinode//core/net/rpl/rpl-icmp6.c:654: rep->state.lifetime = DAO_EXPIRATION_TIMEOUT;
   1F5A E5 81              6746 	mov	a,sp
   1F5C 24 FA              6747 	add	a,#0xfa
   1F5E F8                 6748 	mov	r0,a
   1F5F 86 82              6749 	mov	dpl,@r0
   1F61 08                 6750 	inc	r0
   1F62 86 83              6751 	mov	dph,@r0
   1F64 08                 6752 	inc	r0
   1F65 86 F0              6753 	mov	b,@r0
   1F67 74 3C              6754 	mov	a,#0x3C
   1F69 12s00r00           6755 	lcall	__gptrput
   1F6C A3                 6756 	inc	dptr
   1F6D E4                 6757 	clr	a
   1F6E 12s00r00           6758 	lcall	__gptrput
   1F71 A3                 6759 	inc	dptr
   1F72 E4                 6760 	clr	a
   1F73 12s00r00           6761 	lcall	__gptrput
   1F76 A3                 6762 	inc	dptr
   1F77 E4                 6763 	clr	a
   1F78 12s00r00           6764 	lcall	__gptrput
   1F7B                    6765 00114$:
                           6766 ;	../../../contiki-sensinode//core/net/rpl/rpl-icmp6.c:656: return;
   1F7B 02s22r93           6767 	ljmp	00136$
   1F7E                    6768 00118$:
                           6769 ;	../../../contiki-sensinode//core/net/rpl/rpl-icmp6.c:659: learned_from = uip_is_addr_mcast(&dao_sender_addr) ?
   1F7E 90s00r87           6770 	mov	dptr,#_dao_sender_addr
   1F81 E0                 6771 	movx	a,@dptr
   1F82 FF                 6772 	mov	r7,a
   1F83 BF FF 04           6773 	cjne	r7,#0xFF,00138$
                           6774 ;	../../../contiki-sensinode//core/net/rpl/rpl-icmp6.c:660: RPL_ROUTE_FROM_MULTICAST_DAO : RPL_ROUTE_FROM_UNICAST_DAO;
   1F86 7F 02              6775 	mov	r7,#0x02
   1F88 80 02              6776 	sjmp	00139$
   1F8A                    6777 00138$:
   1F8A 7F 01              6778 	mov	r7,#0x01
   1F8C                    6779 00139$:
   1F8C E5 81              6780 	mov	a,sp
   1F8E 24 F2              6781 	add	a,#0xf2
   1F90 F8                 6782 	mov	r0,a
   1F91 A6 07              6783 	mov	@r0,ar7
   1F93 08                 6784 	inc	r0
   1F94 76 00              6785 	mov	@r0,#0x00
                           6786 ;	../../../contiki-sensinode//core/net/rpl/rpl-icmp6.c:662: if(learned_from == RPL_ROUTE_FROM_UNICAST_DAO) {
   1F96 E5 81              6787 	mov	a,sp
   1F98 24 F2              6788 	add	a,#0xf2
   1F9A F8                 6789 	mov	r0,a
   1F9B E4                 6790 	clr	a
   1F9C B6 01 05           6791 	cjne	@r0,#0x01,00194$
   1F9F 08                 6792 	inc	r0
   1FA0 B6 00 01           6793 	cjne	@r0,#0x00,00194$
   1FA3 04                 6794 	inc	a
   1FA4                    6795 00194$:
   1FA4 FD                 6796 	mov	r5,a
   1FA5 70 03              6797 	jnz	00196$
   1FA7 02s20rE4           6798 	ljmp	00123$
   1FAA                    6799 00196$:
                           6800 ;	../../../contiki-sensinode//core/net/rpl/rpl-icmp6.c:664: p = rpl_find_parent(dag, &dao_sender_addr);
   1FAA C0 05              6801 	push	ar5
   1FAC 74r87              6802 	mov	a,#_dao_sender_addr
   1FAE C0 E0              6803 	push	acc
   1FB0 74s00              6804 	mov	a,#(_dao_sender_addr >> 8)
   1FB2 C0 E0              6805 	push	acc
   1FB4 E4                 6806 	clr	a
   1FB5 C0 E0              6807 	push	acc
   1FB7 E5 81              6808 	mov	a,sp
   1FB9 24 DF              6809 	add	a,#0xdf
   1FBB F8                 6810 	mov	r0,a
   1FBC 86 82              6811 	mov	dpl,@r0
   1FBE 08                 6812 	inc	r0
   1FBF 86 83              6813 	mov	dph,@r0
   1FC1 08                 6814 	inc	r0
   1FC2 86 F0              6815 	mov	b,@r0
   1FC4 78r00              6816 	mov	r0,#_rpl_find_parent
   1FC6 79s00              6817 	mov	r1,#(_rpl_find_parent >> 8)
   1FC8 7As00              6818 	mov	r2,#(_rpl_find_parent >> 16)
   1FCA 12s00r00           6819 	lcall	__sdcc_banked_call
   1FCD AA 82              6820 	mov	r2,dpl
   1FCF AB 83              6821 	mov	r3,dph
   1FD1 AC F0              6822 	mov	r4,b
   1FD3 15 81              6823 	dec	sp
   1FD5 15 81              6824 	dec	sp
   1FD7 15 81              6825 	dec	sp
   1FD9 D0 05              6826 	pop	ar5
   1FDB E5 81              6827 	mov	a,sp
   1FDD 24 F4              6828 	add	a,#0xf4
   1FDF F8                 6829 	mov	r0,a
   1FE0 A6 02              6830 	mov	@r0,ar2
   1FE2 08                 6831 	inc	r0
   1FE3 A6 03              6832 	mov	@r0,ar3
   1FE5 08                 6833 	inc	r0
   1FE6 A6 04              6834 	mov	@r0,ar4
                           6835 ;	../../../contiki-sensinode//core/net/rpl/rpl-icmp6.c:667: if(p != NULL && DAG_RANK(p->rank, instance) < DAG_RANK(dag->rank, instance)) {
   1FE8 E5 81              6836 	mov	a,sp
   1FEA 24 F4              6837 	add	a,#0xf4
   1FEC F8                 6838 	mov	r0,a
   1FED E6                 6839 	mov	a,@r0
   1FEE 08                 6840 	inc	r0
   1FEF 46                 6841 	orl	a,@r0
   1FF0 70 03              6842 	jnz	00197$
   1FF2 02s20rE4           6843 	ljmp	00123$
   1FF5                    6844 00197$:
   1FF5 C0 05              6845 	push	ar5
   1FF7 E5 81              6846 	mov	a,sp
   1FF9 24 F3              6847 	add	a,#0xf3
   1FFB F8                 6848 	mov	r0,a
   1FFC E5 81              6849 	mov	a,sp
   1FFE 24 F9              6850 	add	a,#0xf9
   2000 F9                 6851 	mov	r1,a
   2001 74 1D              6852 	mov	a,#0x1D
   2003 26                 6853 	add	a,@r0
   2004 F7                 6854 	mov	@r1,a
   2005 E4                 6855 	clr	a
   2006 08                 6856 	inc	r0
   2007 36                 6857 	addc	a,@r0
   2008 09                 6858 	inc	r1
   2009 F7                 6859 	mov	@r1,a
   200A 08                 6860 	inc	r0
   200B 09                 6861 	inc	r1
   200C E6                 6862 	mov	a,@r0
   200D F7                 6863 	mov	@r1,a
   200E E5 81              6864 	mov	a,sp
   2010 24 F9              6865 	add	a,#0xf9
   2012 F8                 6866 	mov	r0,a
   2013 86 82              6867 	mov	dpl,@r0
   2015 08                 6868 	inc	r0
   2016 86 83              6869 	mov	dph,@r0
   2018 08                 6870 	inc	r0
   2019 86 F0              6871 	mov	b,@r0
   201B 12s00r00           6872 	lcall	__gptrget
   201E FD                 6873 	mov	r5,a
   201F A3                 6874 	inc	dptr
   2020 12s00r00           6875 	lcall	__gptrget
   2023 FF                 6876 	mov	r7,a
   2024 E5 81              6877 	mov	a,sp
   2026 24 E5              6878 	add	a,#0xe5
   2028 F8                 6879 	mov	r0,a
   2029 74 93              6880 	mov	a,#0x93
   202B 26                 6881 	add	a,@r0
   202C FB                 6882 	mov	r3,a
   202D E4                 6883 	clr	a
   202E 08                 6884 	inc	r0
   202F 36                 6885 	addc	a,@r0
   2030 FC                 6886 	mov	r4,a
   2031 08                 6887 	inc	r0
   2032 86 06              6888 	mov	ar6,@r0
   2034 8B 82              6889 	mov	dpl,r3
   2036 8C 83              6890 	mov	dph,r4
   2038 8E F0              6891 	mov	b,r6
   203A 12s00r00           6892 	lcall	__gptrget
   203D FB                 6893 	mov	r3,a
   203E A3                 6894 	inc	dptr
   203F 12s00r00           6895 	lcall	__gptrget
   2042 FC                 6896 	mov	r4,a
   2043 C0 05              6897 	push	ar5
   2045 C0 04              6898 	push	ar4
   2047 C0 03              6899 	push	ar3
   2049 C0 03              6900 	push	ar3
   204B C0 04              6901 	push	ar4
   204D 8D 82              6902 	mov	dpl,r5
   204F 8F 83              6903 	mov	dph,r7
   2051 12s00r00           6904 	lcall	__divuint
   2054 C8                 6905 	xch	a,r0
   2055 E5 81              6906 	mov	a,sp
   2057 24 F1              6907 	add	a,#0xf1
   2059 C8                 6908 	xch	a,r0
   205A A6 82              6909 	mov	@r0,dpl
   205C 08                 6910 	inc	r0
   205D A6 83              6911 	mov	@r0,dph
   205F 15 81              6912 	dec	sp
   2061 15 81              6913 	dec	sp
   2063 D0 03              6914 	pop	ar3
   2065 D0 04              6915 	pop	ar4
   2067 D0 05              6916 	pop	ar5
   2069 E5 81              6917 	mov	a,sp
   206B 24 E2              6918 	add	a,#0xe2
   206D F8                 6919 	mov	r0,a
   206E 74 1A              6920 	mov	a,#0x1A
   2070 26                 6921 	add	a,@r0
   2071 FA                 6922 	mov	r2,a
   2072 E4                 6923 	clr	a
   2073 08                 6924 	inc	r0
   2074 36                 6925 	addc	a,@r0
   2075 FD                 6926 	mov	r5,a
   2076 08                 6927 	inc	r0
   2077 86 07              6928 	mov	ar7,@r0
   2079 8A 82              6929 	mov	dpl,r2
   207B 8D 83              6930 	mov	dph,r5
   207D 8F F0              6931 	mov	b,r7
   207F 12s00r00           6932 	lcall	__gptrget
   2082 FA                 6933 	mov	r2,a
   2083 A3                 6934 	inc	dptr
   2084 12s00r00           6935 	lcall	__gptrget
   2087 FD                 6936 	mov	r5,a
   2088 C0 05              6937 	push	ar5
   208A C0 03              6938 	push	ar3
   208C C0 04              6939 	push	ar4
   208E 8A 82              6940 	mov	dpl,r2
   2090 8D 83              6941 	mov	dph,r5
   2092 12s00r00           6942 	lcall	__divuint
   2095 AE 82              6943 	mov	r6,dpl
   2097 AF 83              6944 	mov	r7,dph
   2099 15 81              6945 	dec	sp
   209B 15 81              6946 	dec	sp
   209D D0 05              6947 	pop	ar5
   209F E5 81              6948 	mov	a,sp
   20A1 24 F6              6949 	add	a,#0xf6
   20A3 F8                 6950 	mov	r0,a
   20A4 C3                 6951 	clr	c
   20A5 E6                 6952 	mov	a,@r0
   20A6 9E                 6953 	subb	a,r6
   20A7 08                 6954 	inc	r0
   20A8 E6                 6955 	mov	a,@r0
   20A9 9F                 6956 	subb	a,r7
   20AA D0 05              6957 	pop	ar5
   20AC 50 36              6958 	jnc	00123$
                           6959 ;	../../../contiki-sensinode//core/net/rpl/rpl-icmp6.c:670: p->rank = INFINITE_RANK;
   20AE E5 81              6960 	mov	a,sp
   20B0 24 FA              6961 	add	a,#0xfa
   20B2 F8                 6962 	mov	r0,a
   20B3 86 82              6963 	mov	dpl,@r0
   20B5 08                 6964 	inc	r0
   20B6 86 83              6965 	mov	dph,@r0
   20B8 08                 6966 	inc	r0
   20B9 86 F0              6967 	mov	b,@r0
   20BB 74 FF              6968 	mov	a,#0xFF
   20BD 12s00r00           6969 	lcall	__gptrput
   20C0 A3                 6970 	inc	dptr
   20C1 74 FF              6971 	mov	a,#0xFF
   20C3 12s00r00           6972 	lcall	__gptrput
                           6973 ;	../../../contiki-sensinode//core/net/rpl/rpl-icmp6.c:671: p->updated = 1;
   20C6 E5 81              6974 	mov	a,sp
   20C8 24 F4              6975 	add	a,#0xf4
   20CA F8                 6976 	mov	r0,a
   20CB 74 21              6977 	mov	a,#0x21
   20CD 26                 6978 	add	a,@r0
   20CE FC                 6979 	mov	r4,a
   20CF E4                 6980 	clr	a
   20D0 08                 6981 	inc	r0
   20D1 36                 6982 	addc	a,@r0
   20D2 FE                 6983 	mov	r6,a
   20D3 08                 6984 	inc	r0
   20D4 86 07              6985 	mov	ar7,@r0
   20D6 8C 82              6986 	mov	dpl,r4
   20D8 8E 83              6987 	mov	dph,r6
   20DA 8F F0              6988 	mov	b,r7
   20DC 74 01              6989 	mov	a,#0x01
   20DE 12s00r00           6990 	lcall	__gptrput
                           6991 ;	../../../contiki-sensinode//core/net/rpl/rpl-icmp6.c:672: return;
   20E1 02s22r93           6992 	ljmp	00136$
   20E4                    6993 00123$:
                           6994 ;	../../../contiki-sensinode//core/net/rpl/rpl-icmp6.c:676: rep = rpl_add_route(dag, &prefix, prefixlen, &dao_sender_addr);
   20E4 90s00rAD           6995 	mov	dptr,#_dao_input_prefixlen_1_1
   20E7 E0                 6996 	movx	a,@dptr
   20E8 FF                 6997 	mov	r7,a
   20E9 7E 00              6998 	mov	r6,#0x00
   20EB C0 05              6999 	push	ar5
   20ED 74r87              7000 	mov	a,#_dao_sender_addr
   20EF C0 E0              7001 	push	acc
   20F1 74s00              7002 	mov	a,#(_dao_sender_addr >> 8)
   20F3 C0 E0              7003 	push	acc
   20F5 E4                 7004 	clr	a
   20F6 C0 E0              7005 	push	acc
   20F8 C0 07              7006 	push	ar7
   20FA C0 06              7007 	push	ar6
   20FC 74r10              7008 	mov	a,#_prefix
   20FE C0 E0              7009 	push	acc
   2100 74s00              7010 	mov	a,#(_prefix >> 8)
   2102 C0 E0              7011 	push	acc
   2104 E4                 7012 	clr	a
   2105 C0 E0              7013 	push	acc
   2107 E5 81              7014 	mov	a,sp
   2109 24 DA              7015 	add	a,#0xda
   210B F8                 7016 	mov	r0,a
   210C 86 82              7017 	mov	dpl,@r0
   210E 08                 7018 	inc	r0
   210F 86 83              7019 	mov	dph,@r0
   2111 08                 7020 	inc	r0
   2112 86 F0              7021 	mov	b,@r0
   2114 78r00              7022 	mov	r0,#_rpl_add_route
   2116 79s00              7023 	mov	r1,#(_rpl_add_route >> 8)
   2118 7As00              7024 	mov	r2,#(_rpl_add_route >> 16)
   211A 12s00r00           7025 	lcall	__sdcc_banked_call
   211D AC 82              7026 	mov	r4,dpl
   211F AE 83              7027 	mov	r6,dph
   2121 AF F0              7028 	mov	r7,b
   2123 E5 81              7029 	mov	a,sp
   2125 24 F8              7030 	add	a,#0xf8
   2127 F5 81              7031 	mov	sp,a
   2129 D0 05              7032 	pop	ar5
   212B E5 81              7033 	mov	a,sp
   212D 24 ED              7034 	add	a,#0xed
   212F F8                 7035 	mov	r0,a
   2130 A6 04              7036 	mov	@r0,ar4
   2132 08                 7037 	inc	r0
   2133 A6 06              7038 	mov	@r0,ar6
   2135 08                 7039 	inc	r0
   2136 A6 07              7040 	mov	@r0,ar7
                           7041 ;	../../../contiki-sensinode//core/net/rpl/rpl-icmp6.c:677: if(rep == NULL) {
   2138 E5 81              7042 	mov	a,sp
   213A 24 ED              7043 	add	a,#0xed
   213C F8                 7044 	mov	r0,a
   213D E6                 7045 	mov	a,@r0
   213E 08                 7046 	inc	r0
   213F 46                 7047 	orl	a,@r0
   2140 70 03              7048 	jnz	00125$
                           7049 ;	../../../contiki-sensinode//core/net/rpl/rpl-icmp6.c:680: return;
   2142 02s22r93           7050 	ljmp	00136$
   2145                    7051 00125$:
                           7052 ;	../../../contiki-sensinode//core/net/rpl/rpl-icmp6.c:683: rep->state.lifetime = RPL_LIFETIME(instance, lifetime);
   2145 E5 81              7053 	mov	a,sp
   2147 24 ED              7054 	add	a,#0xed
   2149 F8                 7055 	mov	r0,a
   214A E5 81              7056 	mov	a,sp
   214C 24 FA              7057 	add	a,#0xfa
   214E F9                 7058 	mov	r1,a
   214F 74 25              7059 	mov	a,#0x25
   2151 26                 7060 	add	a,@r0
   2152 F7                 7061 	mov	@r1,a
   2153 E4                 7062 	clr	a
   2154 08                 7063 	inc	r0
   2155 36                 7064 	addc	a,@r0
   2156 09                 7065 	inc	r1
   2157 F7                 7066 	mov	@r1,a
   2158 08                 7067 	inc	r0
   2159 09                 7068 	inc	r1
   215A E6                 7069 	mov	a,@r0
   215B F7                 7070 	mov	@r1,a
   215C E5 81              7071 	mov	a,sp
   215E 24 E6              7072 	add	a,#0xe6
   2160 F8                 7073 	mov	r0,a
   2161 74 95              7074 	mov	a,#0x95
   2163 26                 7075 	add	a,@r0
   2164 FA                 7076 	mov	r2,a
   2165 E4                 7077 	clr	a
   2166 08                 7078 	inc	r0
   2167 36                 7079 	addc	a,@r0
   2168 FB                 7080 	mov	r3,a
   2169 08                 7081 	inc	r0
   216A 86 07              7082 	mov	ar7,@r0
   216C 8A 82              7083 	mov	dpl,r2
   216E 8B 83              7084 	mov	dph,r3
   2170 8F F0              7085 	mov	b,r7
   2172 12s00r00           7086 	lcall	__gptrget
   2175 FA                 7087 	mov	r2,a
   2176 A3                 7088 	inc	dptr
   2177 12s00r00           7089 	lcall	__gptrget
   217A FB                 7090 	mov	r3,a
   217B E5 81              7091 	mov	a,sp
   217D 24 FD              7092 	add	a,#0xfd
   217F F8                 7093 	mov	r0,a
   2180 A6 02              7094 	mov	@r0,ar2
   2182 08                 7095 	inc	r0
   2183 A6 03              7096 	mov	@r0,ar3
   2185 08                 7097 	inc	r0
   2186 76 00              7098 	mov	@r0,#0x00
   2188 08                 7099 	inc	r0
   2189 76 00              7100 	mov	@r0,#0x00
   218B 90s00rAC           7101 	mov	dptr,#_dao_input_lifetime_1_1
   218E E0                 7102 	movx	a,@dptr
   218F FB                 7103 	mov	r3,a
   2190 7C 00              7104 	mov	r4,#0x00
   2192 7E 00              7105 	mov	r6,#0x00
   2194 7F 00              7106 	mov	r7,#0x00
   2196 C0 05              7107 	push	ar5
   2198 C0 03              7108 	push	ar3
   219A C0 04              7109 	push	ar4
   219C C0 06              7110 	push	ar6
   219E C0 07              7111 	push	ar7
   21A0 E5 81              7112 	mov	a,sp
   21A2 24 F8              7113 	add	a,#0xf8
   21A4 F8                 7114 	mov	r0,a
   21A5 86 82              7115 	mov	dpl,@r0
   21A7 08                 7116 	inc	r0
   21A8 86 83              7117 	mov	dph,@r0
   21AA 08                 7118 	inc	r0
   21AB 86 F0              7119 	mov	b,@r0
   21AD 08                 7120 	inc	r0
   21AE E6                 7121 	mov	a,@r0
   21AF 12s00r00           7122 	lcall	__mullong
   21B2 AB 82              7123 	mov	r3,dpl
   21B4 AC 83              7124 	mov	r4,dph
   21B6 AE F0              7125 	mov	r6,b
   21B8 FF                 7126 	mov	r7,a
   21B9 E5 81              7127 	mov	a,sp
   21BB 24 FC              7128 	add	a,#0xfc
   21BD F5 81              7129 	mov	sp,a
   21BF D0 05              7130 	pop	ar5
   21C1 E5 81              7131 	mov	a,sp
   21C3 24 FA              7132 	add	a,#0xfa
   21C5 F8                 7133 	mov	r0,a
   21C6 86 82              7134 	mov	dpl,@r0
   21C8 08                 7135 	inc	r0
   21C9 86 83              7136 	mov	dph,@r0
   21CB 08                 7137 	inc	r0
   21CC 86 F0              7138 	mov	b,@r0
   21CE EB                 7139 	mov	a,r3
   21CF 12s00r00           7140 	lcall	__gptrput
   21D2 A3                 7141 	inc	dptr
   21D3 EC                 7142 	mov	a,r4
   21D4 12s00r00           7143 	lcall	__gptrput
   21D7 A3                 7144 	inc	dptr
   21D8 EE                 7145 	mov	a,r6
   21D9 12s00r00           7146 	lcall	__gptrput
   21DC A3                 7147 	inc	dptr
   21DD EF                 7148 	mov	a,r7
   21DE 12s00r00           7149 	lcall	__gptrput
                           7150 ;	../../../contiki-sensinode//core/net/rpl/rpl-icmp6.c:684: rep->state.learned_from = learned_from;
   21E1 E5 81              7151 	mov	a,sp
   21E3 24 ED              7152 	add	a,#0xed
   21E5 F8                 7153 	mov	r0,a
   21E6 74 30              7154 	mov	a,#0x30
   21E8 26                 7155 	add	a,@r0
   21E9 FC                 7156 	mov	r4,a
   21EA E4                 7157 	clr	a
   21EB 08                 7158 	inc	r0
   21EC 36                 7159 	addc	a,@r0
   21ED FE                 7160 	mov	r6,a
   21EE 08                 7161 	inc	r0
   21EF 86 07              7162 	mov	ar7,@r0
   21F1 E5 81              7163 	mov	a,sp
   21F3 24 F2              7164 	add	a,#0xf2
   21F5 F8                 7165 	mov	r0,a
   21F6 86 03              7166 	mov	ar3,@r0
   21F8 8C 82              7167 	mov	dpl,r4
   21FA 8E 83              7168 	mov	dph,r6
   21FC 8F F0              7169 	mov	b,r7
   21FE EB                 7170 	mov	a,r3
   21FF 12s00r00           7171 	lcall	__gptrput
                           7172 ;	../../../contiki-sensinode//core/net/rpl/rpl-icmp6.c:686: if(learned_from == RPL_ROUTE_FROM_UNICAST_DAO) {
   2202 ED                 7173 	mov	a,r5
   2203 70 03              7174 	jnz	00200$
   2205 02s22r93           7175 	ljmp	00136$
   2208                    7176 00200$:
                           7177 ;	../../../contiki-sensinode//core/net/rpl/rpl-icmp6.c:687: if(dag->preferred_parent) {
   2208 E5 81              7178 	mov	a,sp
   220A 24 E3              7179 	add	a,#0xe3
   220C F8                 7180 	mov	r0,a
   220D 74 17              7181 	mov	a,#0x17
   220F 26                 7182 	add	a,@r0
   2210 FD                 7183 	mov	r5,a
   2211 E4                 7184 	clr	a
   2212 08                 7185 	inc	r0
   2213 36                 7186 	addc	a,@r0
   2214 FE                 7187 	mov	r6,a
   2215 08                 7188 	inc	r0
   2216 86 07              7189 	mov	ar7,@r0
   2218 8D 82              7190 	mov	dpl,r5
   221A 8E 83              7191 	mov	dph,r6
   221C 8F F0              7192 	mov	b,r7
   221E 12s00r00           7193 	lcall	__gptrget
   2221 FD                 7194 	mov	r5,a
   2222 A3                 7195 	inc	dptr
   2223 12s00r00           7196 	lcall	__gptrget
   2226 FE                 7197 	mov	r6,a
   2227 A3                 7198 	inc	dptr
   2228 12s00r00           7199 	lcall	__gptrget
   222B FF                 7200 	mov	r7,a
   222C ED                 7201 	mov	a,r5
   222D 4E                 7202 	orl	a,r6
   222E 60 2A              7203 	jz	00127$
                           7204 ;	../../../contiki-sensinode//core/net/rpl/rpl-icmp6.c:691: uip_icmp6_send(&dag->preferred_parent->addr,
   2230 74 0D              7205 	mov	a,#0x0D
   2232 2D                 7206 	add	a,r5
   2233 FD                 7207 	mov	r5,a
   2234 E4                 7208 	clr	a
   2235 3E                 7209 	addc	a,r6
   2236 FE                 7210 	mov	r6,a
   2237 90s00rAE           7211 	mov	dptr,#_dao_input_buffer_length_1_1
   223A E0                 7212 	movx	a,@dptr
   223B C0 E0              7213 	push	acc
   223D 74 02              7214 	mov	a,#0x02
   223F C0 E0              7215 	push	acc
   2241 74 9B              7216 	mov	a,#0x9B
   2243 C0 E0              7217 	push	acc
   2245 8D 82              7218 	mov	dpl,r5
   2247 8E 83              7219 	mov	dph,r6
   2249 8F F0              7220 	mov	b,r7
   224B 78r00              7221 	mov	r0,#_uip_icmp6_send
   224D 79s00              7222 	mov	r1,#(_uip_icmp6_send >> 8)
   224F 7As00              7223 	mov	r2,#(_uip_icmp6_send >> 16)
   2251 12s00r00           7224 	lcall	__sdcc_banked_call
   2254 15 81              7225 	dec	sp
   2256 15 81              7226 	dec	sp
   2258 15 81              7227 	dec	sp
   225A                    7228 00127$:
                           7229 ;	../../../contiki-sensinode//core/net/rpl/rpl-icmp6.c:694: if(flags & RPL_DAO_K_FLAG) {
   225A E5 81              7230 	mov	a,sp
   225C 24 EC              7231 	add	a,#0xec
   225E F8                 7232 	mov	r0,a
   225F E6                 7233 	mov	a,@r0
   2260 30 E7 30           7234 	jnb	acc.7,00136$
                           7235 ;	../../../contiki-sensinode//core/net/rpl/rpl-icmp6.c:695: dao_ack_output(instance, &dao_sender_addr, sequence);
   2263 90s00rA9           7236 	mov	dptr,#_dao_input_sequence_1_1
   2266 E0                 7237 	movx	a,@dptr
   2267 FE                 7238 	mov	r6,a
   2268 A3                 7239 	inc	dptr
   2269 E0                 7240 	movx	a,@dptr
   226A C0 06              7241 	push	ar6
   226C 74r87              7242 	mov	a,#_dao_sender_addr
   226E C0 E0              7243 	push	acc
   2270 74s00              7244 	mov	a,#(_dao_sender_addr >> 8)
   2272 C0 E0              7245 	push	acc
   2274 E4                 7246 	clr	a
   2275 C0 E0              7247 	push	acc
   2277 E5 81              7248 	mov	a,sp
   2279 24 E2              7249 	add	a,#0xe2
   227B F8                 7250 	mov	r0,a
   227C 86 82              7251 	mov	dpl,@r0
   227E 08                 7252 	inc	r0
   227F 86 83              7253 	mov	dph,@r0
   2281 08                 7254 	inc	r0
   2282 86 F0              7255 	mov	b,@r0
   2284 78r90              7256 	mov	r0,#_dao_ack_output
   2286 79s25              7257 	mov	r1,#(_dao_ack_output >> 8)
   2288 7As00              7258 	mov	r2,#(_dao_ack_output >> 16)
   228A 12s00r00           7259 	lcall	__sdcc_banked_call
   228D E5 81              7260 	mov	a,sp
   228F 24 FC              7261 	add	a,#0xfc
   2291 F5 81              7262 	mov	sp,a
   2293                    7263 00136$:
   2293 E5 81              7264 	mov	a,sp
   2295 24 E2              7265 	add	a,#0xE2
   2297 F5 81              7266 	mov	sp,a
   2299 02s00r00           7267 	ljmp	__sdcc_banked_ret
                           7268 ;------------------------------------------------------------
                           7269 ;Allocation info for local variables in function 'dao_output'
                           7270 ;------------------------------------------------------------
                           7271 ;lifetime                  Allocated to stack - sp -12
                           7272 ;n                         Allocated to stack - sp -8
                           7273 ;dag                       Allocated to stack - sp -5
                           7274 ;instance                  Allocated to registers r5 r3 r4 
                           7275 ;buffer                    Allocated to stack - sp -2
                           7276 ;prefixlen                 Allocated to registers 
                           7277 ;pos                       Allocated to registers 
                           7278 ;sloc0                     Allocated to stack - sp +7
                           7279 ;------------------------------------------------------------
                           7280 ;	../../../contiki-sensinode//core/net/rpl/rpl-icmp6.c:701: dao_output(rpl_parent_t *n, uint8_t lifetime)
                           7281 ;	-----------------------------------------
                           7282 ;	 function dao_output
                           7283 ;	-----------------------------------------
   229C                    7284 _dao_output:
   229C C0 82              7285 	push	dpl
   229E C0 83              7286 	push	dph
   22A0 C0 F0              7287 	push	b
   22A2 E5 81              7288 	mov	a,sp
   22A4 24 06              7289 	add	a,#0x06
   22A6 F5 81              7290 	mov	sp,a
                           7291 ;	../../../contiki-sensinode//core/net/rpl/rpl-icmp6.c:711: if(get_global_addr(&prefix) == 0) {
   22A8 90s00r10           7292 	mov	dptr,#_prefix
   22AB 75 F0 00           7293 	mov	b,#0x00
   22AE 78r00              7294 	mov	r0,#_get_global_addr
   22B0 79s00              7295 	mov	r1,#(_get_global_addr >> 8)
   22B2 7As00              7296 	mov	r2,#(_get_global_addr >> 16)
   22B4 12s00r00           7297 	lcall	__sdcc_banked_call
   22B7 E5 82              7298 	mov	a,dpl
   22B9 85 83 F0           7299 	mov	b,dph
   22BC 45 F0              7300 	orl	a,b
   22BE 70 03              7301 	jnz	00102$
                           7302 ;	../../../contiki-sensinode//core/net/rpl/rpl-icmp6.c:713: return;
   22C0 02s25r84           7303 	ljmp	00103$
   22C3                    7304 00102$:
                           7305 ;	../../../contiki-sensinode//core/net/rpl/rpl-icmp6.c:716: dag = n->dag;
   22C3 E5 81              7306 	mov	a,sp
   22C5 24 F8              7307 	add	a,#0xf8
   22C7 F8                 7308 	mov	r0,a
   22C8 74 03              7309 	mov	a,#0x03
   22CA 26                 7310 	add	a,@r0
   22CB FA                 7311 	mov	r2,a
   22CC E4                 7312 	clr	a
   22CD 08                 7313 	inc	r0
   22CE 36                 7314 	addc	a,@r0
   22CF FB                 7315 	mov	r3,a
   22D0 08                 7316 	inc	r0
   22D1 86 04              7317 	mov	ar4,@r0
   22D3 8A 82              7318 	mov	dpl,r2
   22D5 8B 83              7319 	mov	dph,r3
   22D7 8C F0              7320 	mov	b,r4
   22D9 12s00r00           7321 	lcall	__gptrget
   22DC FA                 7322 	mov	r2,a
   22DD A3                 7323 	inc	dptr
   22DE 12s00r00           7324 	lcall	__gptrget
   22E1 FB                 7325 	mov	r3,a
   22E2 A3                 7326 	inc	dptr
   22E3 12s00r00           7327 	lcall	__gptrget
   22E6 FC                 7328 	mov	r4,a
   22E7 E5 81              7329 	mov	a,sp
   22E9 24 FB              7330 	add	a,#0xfb
   22EB F8                 7331 	mov	r0,a
   22EC A6 02              7332 	mov	@r0,ar2
   22EE 08                 7333 	inc	r0
   22EF A6 03              7334 	mov	@r0,ar3
   22F1 08                 7335 	inc	r0
   22F2 A6 04              7336 	mov	@r0,ar4
                           7337 ;	../../../contiki-sensinode//core/net/rpl/rpl-icmp6.c:717: instance = dag->instance;
   22F4 E5 81              7338 	mov	a,sp
   22F6 24 FB              7339 	add	a,#0xfb
   22F8 F8                 7340 	mov	r0,a
   22F9 74 1C              7341 	mov	a,#0x1C
   22FB 26                 7342 	add	a,@r0
   22FC FD                 7343 	mov	r5,a
   22FD E4                 7344 	clr	a
   22FE 08                 7345 	inc	r0
   22FF 36                 7346 	addc	a,@r0
   2300 FE                 7347 	mov	r6,a
   2301 08                 7348 	inc	r0
   2302 86 07              7349 	mov	ar7,@r0
   2304 8D 82              7350 	mov	dpl,r5
   2306 8E 83              7351 	mov	dph,r6
   2308 8F F0              7352 	mov	b,r7
   230A 12s00r00           7353 	lcall	__gptrget
   230D FD                 7354 	mov	r5,a
   230E A3                 7355 	inc	dptr
   230F 12s00r00           7356 	lcall	__gptrget
   2312 FE                 7357 	mov	r6,a
   2313 A3                 7358 	inc	dptr
   2314 12s00r00           7359 	lcall	__gptrget
   2317 FF                 7360 	mov	r7,a
   2318 8E 03              7361 	mov	ar3,r6
   231A 8F 04              7362 	mov	ar4,r7
                           7363 ;	../../../contiki-sensinode//core/net/rpl/rpl-icmp6.c:723: buffer = UIP_ICMP_PAYLOAD;
   231C 90s00r00           7364 	mov	dptr,#_uip_ext_len
   231F E0                 7365 	movx	a,@dptr
   2320 FF                 7366 	mov	r7,a
   2321 7E 00              7367 	mov	r6,#0x00
   2323 74 2C              7368 	mov	a,#0x2C
   2325 2F                 7369 	add	a,r7
   2326 FF                 7370 	mov	r7,a
   2327 E4                 7371 	clr	a
   2328 3E                 7372 	addc	a,r6
   2329 FE                 7373 	mov	r6,a
   232A EF                 7374 	mov	a,r7
   232B 24r00              7375 	add	a,#_uip_aligned_buf
   232D FF                 7376 	mov	r7,a
   232E EE                 7377 	mov	a,r6
   232F 34s00              7378 	addc	a,#(_uip_aligned_buf >> 8)
   2331 FE                 7379 	mov	r6,a
   2332 A8 81              7380 	mov	r0,sp
   2334 18                 7381 	dec	r0
   2335 18                 7382 	dec	r0
   2336 A6 07              7383 	mov	@r0,ar7
   2338 08                 7384 	inc	r0
   2339 A6 06              7385 	mov	@r0,ar6
   233B 08                 7386 	inc	r0
   233C 76 00              7387 	mov	@r0,#0x00
                           7388 ;	../../../contiki-sensinode//core/net/rpl/rpl-icmp6.c:725: RPL_LOLLIPOP_INCREMENT(dao_sequence);
   233E 90s00r00           7389 	mov	dptr,#_dao_sequence
   2341 E0                 7390 	movx	a,@dptr
   2342 FF                 7391 	mov  r7,a
   2343 24 80              7392 	add	a,#0xff - 0x7F
   2345 50 08              7393 	jnc	00105$
   2347 90s00r00           7394 	mov	dptr,#_dao_sequence
   234A EF                 7395 	mov	a,r7
   234B 04                 7396 	inc	a
   234C F0                 7397 	movx	@dptr,a
   234D 80 06              7398 	sjmp	00106$
   234F                    7399 00105$:
   234F 90s00r00           7400 	mov	dptr,#_dao_sequence
   2352 EF                 7401 	mov	a,r7
   2353 04                 7402 	inc	a
   2354 F0                 7403 	movx	@dptr,a
   2355                    7404 00106$:
                           7405 ;	../../../contiki-sensinode//core/net/rpl/rpl-icmp6.c:728: buffer[pos++] = instance->instance_id;
   2355 74 86              7406 	mov	a,#0x86
   2357 2D                 7407 	add	a,r5
   2358 FA                 7408 	mov	r2,a
   2359 E4                 7409 	clr	a
   235A 3B                 7410 	addc	a,r3
   235B FB                 7411 	mov	r3,a
   235C 8A 82              7412 	mov	dpl,r2
   235E 8B 83              7413 	mov	dph,r3
   2360 8C F0              7414 	mov	b,r4
   2362 12s00r00           7415 	lcall	__gptrget
   2365 FA                 7416 	mov	r2,a
   2366 A8 81              7417 	mov	r0,sp
   2368 18                 7418 	dec	r0
   2369 18                 7419 	dec	r0
   236A 86 82              7420 	mov	dpl,@r0
   236C 08                 7421 	inc	r0
   236D 86 83              7422 	mov	dph,@r0
   236F 08                 7423 	inc	r0
   2370 86 F0              7424 	mov	b,@r0
   2372 EA                 7425 	mov	a,r2
   2373 12s00r00           7426 	lcall	__gptrput
                           7427 ;	../../../contiki-sensinode//core/net/rpl/rpl-icmp6.c:729: buffer[pos] = 0;
   2376 A8 81              7428 	mov	r0,sp
   2378 18                 7429 	dec	r0
   2379 18                 7430 	dec	r0
   237A 74 01              7431 	mov	a,#0x01
   237C 26                 7432 	add	a,@r0
   237D FA                 7433 	mov	r2,a
   237E E4                 7434 	clr	a
   237F 08                 7435 	inc	r0
   2380 36                 7436 	addc	a,@r0
   2381 FB                 7437 	mov	r3,a
   2382 08                 7438 	inc	r0
   2383 86 04              7439 	mov	ar4,@r0
   2385 8A 82              7440 	mov	dpl,r2
   2387 8B 83              7441 	mov	dph,r3
   2389 8C F0              7442 	mov	b,r4
   238B E4                 7443 	clr	a
   238C 12s00r00           7444 	lcall	__gptrput
                           7445 ;	../../../contiki-sensinode//core/net/rpl/rpl-icmp6.c:731: buffer[pos] |= RPL_DAO_D_FLAG;
   238F 8A 82              7446 	mov	dpl,r2
   2391 8B 83              7447 	mov	dph,r3
   2393 8C F0              7448 	mov	b,r4
   2395 12s00r00           7449 	lcall	__gptrget
   2398 FF                 7450 	mov	r7,a
   2399 43 07 40           7451 	orl	ar7,#0x40
   239C 8A 82              7452 	mov	dpl,r2
   239E 8B 83              7453 	mov	dph,r3
   23A0 8C F0              7454 	mov	b,r4
   23A2 EF                 7455 	mov	a,r7
   23A3 12s00r00           7456 	lcall	__gptrput
                           7457 ;	../../../contiki-sensinode//core/net/rpl/rpl-icmp6.c:737: buffer[pos++] = 0; /* reserved */
   23A6 A8 81              7458 	mov	r0,sp
   23A8 18                 7459 	dec	r0
   23A9 18                 7460 	dec	r0
   23AA 74 02              7461 	mov	a,#0x02
   23AC 26                 7462 	add	a,@r0
   23AD FD                 7463 	mov	r5,a
   23AE E4                 7464 	clr	a
   23AF 08                 7465 	inc	r0
   23B0 36                 7466 	addc	a,@r0
   23B1 FE                 7467 	mov	r6,a
   23B2 08                 7468 	inc	r0
   23B3 86 07              7469 	mov	ar7,@r0
   23B5 8D 82              7470 	mov	dpl,r5
   23B7 8E 83              7471 	mov	dph,r6
   23B9 8F F0              7472 	mov	b,r7
   23BB E4                 7473 	clr	a
   23BC 12s00r00           7474 	lcall	__gptrput
                           7475 ;	../../../contiki-sensinode//core/net/rpl/rpl-icmp6.c:738: buffer[pos++] = dao_sequence;
   23BF A8 81              7476 	mov	r0,sp
   23C1 18                 7477 	dec	r0
   23C2 18                 7478 	dec	r0
   23C3 74 03              7479 	mov	a,#0x03
   23C5 26                 7480 	add	a,@r0
   23C6 FD                 7481 	mov	r5,a
   23C7 E4                 7482 	clr	a
   23C8 08                 7483 	inc	r0
   23C9 36                 7484 	addc	a,@r0
   23CA FE                 7485 	mov	r6,a
   23CB 08                 7486 	inc	r0
   23CC 86 07              7487 	mov	ar7,@r0
   23CE 90s00r00           7488 	mov	dptr,#_dao_sequence
   23D1 E0                 7489 	movx	a,@dptr
   23D2 8D 82              7490 	mov	dpl,r5
   23D4 8E 83              7491 	mov	dph,r6
   23D6 8F F0              7492 	mov	b,r7
   23D8 12s00r00           7493 	lcall	__gptrput
                           7494 ;	../../../contiki-sensinode//core/net/rpl/rpl-icmp6.c:740: memcpy(buffer + pos, &dag->dag_id, sizeof(dag->dag_id));
   23DB E5 81              7495 	mov	a,sp
   23DD 24 FB              7496 	add	a,#0xfb
   23DF F8                 7497 	mov	r0,a
   23E0 86 05              7498 	mov	ar5,@r0
   23E2 08                 7499 	inc	r0
   23E3 86 06              7500 	mov	ar6,@r0
   23E5 08                 7501 	inc	r0
   23E6 86 07              7502 	mov	ar7,@r0
   23E8 A8 81              7503 	mov	r0,sp
   23EA 18                 7504 	dec	r0
   23EB 18                 7505 	dec	r0
   23EC 74 04              7506 	mov	a,#0x04
   23EE 26                 7507 	add	a,@r0
   23EF FA                 7508 	mov	r2,a
   23F0 E4                 7509 	clr	a
   23F1 08                 7510 	inc	r0
   23F2 36                 7511 	addc	a,@r0
   23F3 FB                 7512 	mov	r3,a
   23F4 08                 7513 	inc	r0
   23F5 86 04              7514 	mov	ar4,@r0
   23F7 74 10              7515 	mov	a,#0x10
   23F9 C0 E0              7516 	push	acc
   23FB E4                 7517 	clr	a
   23FC C0 E0              7518 	push	acc
   23FE C0 05              7519 	push	ar5
   2400 C0 06              7520 	push	ar6
   2402 C0 07              7521 	push	ar7
   2404 8A 82              7522 	mov	dpl,r2
   2406 8B 83              7523 	mov	dph,r3
   2408 8C F0              7524 	mov	b,r4
   240A 78r00              7525 	mov	r0,#_memcpy
   240C 79s00              7526 	mov	r1,#(_memcpy >> 8)
   240E 7As00              7527 	mov	r2,#(_memcpy >> 16)
   2410 12s00r00           7528 	lcall	__sdcc_banked_call
   2413 E5 81              7529 	mov	a,sp
   2415 24 FB              7530 	add	a,#0xfb
   2417 F5 81              7531 	mov	sp,a
                           7532 ;	../../../contiki-sensinode//core/net/rpl/rpl-icmp6.c:746: buffer[pos++] = RPL_OPTION_TARGET;
   2419 A8 81              7533 	mov	r0,sp
   241B 18                 7534 	dec	r0
   241C 18                 7535 	dec	r0
   241D 74 14              7536 	mov	a,#0x14
   241F 26                 7537 	add	a,@r0
   2420 FD                 7538 	mov	r5,a
   2421 E4                 7539 	clr	a
   2422 08                 7540 	inc	r0
   2423 36                 7541 	addc	a,@r0
   2424 FE                 7542 	mov	r6,a
   2425 08                 7543 	inc	r0
   2426 86 07              7544 	mov	ar7,@r0
   2428 8D 82              7545 	mov	dpl,r5
   242A 8E 83              7546 	mov	dph,r6
   242C 8F F0              7547 	mov	b,r7
   242E 74 05              7548 	mov	a,#0x05
   2430 12s00r00           7549 	lcall	__gptrput
                           7550 ;	../../../contiki-sensinode//core/net/rpl/rpl-icmp6.c:747: buffer[pos++] = 2 + ((prefixlen + 7) / CHAR_BIT);
   2433 A8 81              7551 	mov	r0,sp
   2435 18                 7552 	dec	r0
   2436 18                 7553 	dec	r0
   2437 74 15              7554 	mov	a,#0x15
   2439 26                 7555 	add	a,@r0
   243A FD                 7556 	mov	r5,a
   243B E4                 7557 	clr	a
   243C 08                 7558 	inc	r0
   243D 36                 7559 	addc	a,@r0
   243E FE                 7560 	mov	r6,a
   243F 08                 7561 	inc	r0
   2440 86 07              7562 	mov	ar7,@r0
   2442 8D 82              7563 	mov	dpl,r5
   2444 8E 83              7564 	mov	dph,r6
   2446 8F F0              7565 	mov	b,r7
   2448 74 12              7566 	mov	a,#0x12
   244A 12s00r00           7567 	lcall	__gptrput
                           7568 ;	../../../contiki-sensinode//core/net/rpl/rpl-icmp6.c:748: buffer[pos++] = 0; /* reserved */
   244D A8 81              7569 	mov	r0,sp
   244F 18                 7570 	dec	r0
   2450 18                 7571 	dec	r0
   2451 74 16              7572 	mov	a,#0x16
   2453 26                 7573 	add	a,@r0
   2454 FD                 7574 	mov	r5,a
   2455 E4                 7575 	clr	a
   2456 08                 7576 	inc	r0
   2457 36                 7577 	addc	a,@r0
   2458 FE                 7578 	mov	r6,a
   2459 08                 7579 	inc	r0
   245A 86 07              7580 	mov	ar7,@r0
   245C 8D 82              7581 	mov	dpl,r5
   245E 8E 83              7582 	mov	dph,r6
   2460 8F F0              7583 	mov	b,r7
   2462 E4                 7584 	clr	a
   2463 12s00r00           7585 	lcall	__gptrput
                           7586 ;	../../../contiki-sensinode//core/net/rpl/rpl-icmp6.c:749: buffer[pos++] = prefixlen;
   2466 A8 81              7587 	mov	r0,sp
   2468 18                 7588 	dec	r0
   2469 18                 7589 	dec	r0
   246A 74 17              7590 	mov	a,#0x17
   246C 26                 7591 	add	a,@r0
   246D FD                 7592 	mov	r5,a
   246E E4                 7593 	clr	a
   246F 08                 7594 	inc	r0
   2470 36                 7595 	addc	a,@r0
   2471 FE                 7596 	mov	r6,a
   2472 08                 7597 	inc	r0
   2473 86 07              7598 	mov	ar7,@r0
   2475 8D 82              7599 	mov	dpl,r5
   2477 8E 83              7600 	mov	dph,r6
   2479 8F F0              7601 	mov	b,r7
   247B 74 80              7602 	mov	a,#0x80
   247D 12s00r00           7603 	lcall	__gptrput
                           7604 ;	../../../contiki-sensinode//core/net/rpl/rpl-icmp6.c:750: memcpy(buffer + pos, &prefix, (prefixlen + 7) / CHAR_BIT);
   2480 A8 81              7605 	mov	r0,sp
   2482 18                 7606 	dec	r0
   2483 18                 7607 	dec	r0
   2484 74 18              7608 	mov	a,#0x18
   2486 26                 7609 	add	a,@r0
   2487 FD                 7610 	mov	r5,a
   2488 E4                 7611 	clr	a
   2489 08                 7612 	inc	r0
   248A 36                 7613 	addc	a,@r0
   248B FE                 7614 	mov	r6,a
   248C 08                 7615 	inc	r0
   248D 86 07              7616 	mov	ar7,@r0
   248F 74 10              7617 	mov	a,#0x10
   2491 C0 E0              7618 	push	acc
   2493 E4                 7619 	clr	a
   2494 C0 E0              7620 	push	acc
   2496 74r10              7621 	mov	a,#_prefix
   2498 C0 E0              7622 	push	acc
   249A 74s00              7623 	mov	a,#(_prefix >> 8)
   249C C0 E0              7624 	push	acc
   249E E4                 7625 	clr	a
   249F C0 E0              7626 	push	acc
   24A1 8D 82              7627 	mov	dpl,r5
   24A3 8E 83              7628 	mov	dph,r6
   24A5 8F F0              7629 	mov	b,r7
   24A7 78r00              7630 	mov	r0,#_memcpy
   24A9 79s00              7631 	mov	r1,#(_memcpy >> 8)
   24AB 7As00              7632 	mov	r2,#(_memcpy >> 16)
   24AD 12s00r00           7633 	lcall	__sdcc_banked_call
   24B0 E5 81              7634 	mov	a,sp
   24B2 24 FB              7635 	add	a,#0xfb
   24B4 F5 81              7636 	mov	sp,a
                           7637 ;	../../../contiki-sensinode//core/net/rpl/rpl-icmp6.c:754: buffer[pos++] = RPL_OPTION_TRANSIT;
   24B6 A8 81              7638 	mov	r0,sp
   24B8 18                 7639 	dec	r0
   24B9 18                 7640 	dec	r0
   24BA 74 28              7641 	mov	a,#0x28
   24BC 26                 7642 	add	a,@r0
   24BD FD                 7643 	mov	r5,a
   24BE E4                 7644 	clr	a
   24BF 08                 7645 	inc	r0
   24C0 36                 7646 	addc	a,@r0
   24C1 FE                 7647 	mov	r6,a
   24C2 08                 7648 	inc	r0
   24C3 86 07              7649 	mov	ar7,@r0
   24C5 8D 82              7650 	mov	dpl,r5
   24C7 8E 83              7651 	mov	dph,r6
   24C9 8F F0              7652 	mov	b,r7
   24CB 74 06              7653 	mov	a,#0x06
   24CD 12s00r00           7654 	lcall	__gptrput
                           7655 ;	../../../contiki-sensinode//core/net/rpl/rpl-icmp6.c:755: buffer[pos++] = 4;
   24D0 A8 81              7656 	mov	r0,sp
   24D2 18                 7657 	dec	r0
   24D3 18                 7658 	dec	r0
   24D4 74 29              7659 	mov	a,#0x29
   24D6 26                 7660 	add	a,@r0
   24D7 FD                 7661 	mov	r5,a
   24D8 E4                 7662 	clr	a
   24D9 08                 7663 	inc	r0
   24DA 36                 7664 	addc	a,@r0
   24DB FE                 7665 	mov	r6,a
   24DC 08                 7666 	inc	r0
   24DD 86 07              7667 	mov	ar7,@r0
   24DF 8D 82              7668 	mov	dpl,r5
   24E1 8E 83              7669 	mov	dph,r6
   24E3 8F F0              7670 	mov	b,r7
   24E5 74 04              7671 	mov	a,#0x04
   24E7 12s00r00           7672 	lcall	__gptrput
                           7673 ;	../../../contiki-sensinode//core/net/rpl/rpl-icmp6.c:756: buffer[pos++] = 0; /* flags - ignored */
   24EA A8 81              7674 	mov	r0,sp
   24EC 18                 7675 	dec	r0
   24ED 18                 7676 	dec	r0
   24EE 74 2A              7677 	mov	a,#0x2A
   24F0 26                 7678 	add	a,@r0
   24F1 FD                 7679 	mov	r5,a
   24F2 E4                 7680 	clr	a
   24F3 08                 7681 	inc	r0
   24F4 36                 7682 	addc	a,@r0
   24F5 FE                 7683 	mov	r6,a
   24F6 08                 7684 	inc	r0
   24F7 86 07              7685 	mov	ar7,@r0
   24F9 8D 82              7686 	mov	dpl,r5
   24FB 8E 83              7687 	mov	dph,r6
   24FD 8F F0              7688 	mov	b,r7
   24FF E4                 7689 	clr	a
   2500 12s00r00           7690 	lcall	__gptrput
                           7691 ;	../../../contiki-sensinode//core/net/rpl/rpl-icmp6.c:757: buffer[pos++] = 0; /* path control - ignored */
   2503 A8 81              7692 	mov	r0,sp
   2505 18                 7693 	dec	r0
   2506 18                 7694 	dec	r0
   2507 74 2B              7695 	mov	a,#0x2B
   2509 26                 7696 	add	a,@r0
   250A FD                 7697 	mov	r5,a
   250B E4                 7698 	clr	a
   250C 08                 7699 	inc	r0
   250D 36                 7700 	addc	a,@r0
   250E FE                 7701 	mov	r6,a
   250F 08                 7702 	inc	r0
   2510 86 07              7703 	mov	ar7,@r0
   2512 8D 82              7704 	mov	dpl,r5
   2514 8E 83              7705 	mov	dph,r6
   2516 8F F0              7706 	mov	b,r7
   2518 E4                 7707 	clr	a
   2519 12s00r00           7708 	lcall	__gptrput
                           7709 ;	../../../contiki-sensinode//core/net/rpl/rpl-icmp6.c:758: buffer[pos++] = 0; /* path seq - ignored */
   251C A8 81              7710 	mov	r0,sp
   251E 18                 7711 	dec	r0
   251F 18                 7712 	dec	r0
   2520 74 2C              7713 	mov	a,#0x2C
   2522 26                 7714 	add	a,@r0
   2523 FD                 7715 	mov	r5,a
   2524 E4                 7716 	clr	a
   2525 08                 7717 	inc	r0
   2526 36                 7718 	addc	a,@r0
   2527 FE                 7719 	mov	r6,a
   2528 08                 7720 	inc	r0
   2529 86 07              7721 	mov	ar7,@r0
   252B 8D 82              7722 	mov	dpl,r5
   252D 8E 83              7723 	mov	dph,r6
   252F 8F F0              7724 	mov	b,r7
   2531 E4                 7725 	clr	a
   2532 12s00r00           7726 	lcall	__gptrput
                           7727 ;	../../../contiki-sensinode//core/net/rpl/rpl-icmp6.c:759: buffer[pos++] = lifetime;
   2535 A8 81              7728 	mov	r0,sp
   2537 18                 7729 	dec	r0
   2538 18                 7730 	dec	r0
   2539 74 2D              7731 	mov	a,#0x2D
   253B 26                 7732 	add	a,@r0
   253C FD                 7733 	mov	r5,a
   253D E4                 7734 	clr	a
   253E 08                 7735 	inc	r0
   253F 36                 7736 	addc	a,@r0
   2540 FE                 7737 	mov	r6,a
   2541 08                 7738 	inc	r0
   2542 86 07              7739 	mov	ar7,@r0
   2544 8D 82              7740 	mov	dpl,r5
   2546 8E 83              7741 	mov	dph,r6
   2548 8F F0              7742 	mov	b,r7
   254A E5 81              7743 	mov	a,sp
   254C 24 F4              7744 	add	a,#0xf4
   254E F8                 7745 	mov	r0,a
   254F E6                 7746 	mov	a,@r0
   2550 12s00r00           7747 	lcall	__gptrput
                           7748 ;	../../../contiki-sensinode//core/net/rpl/rpl-icmp6.c:767: uip_icmp6_send(&n->addr, ICMP6_RPL, RPL_CODE_DAO, pos);
   2553 E5 81              7749 	mov	a,sp
   2555 24 F8              7750 	add	a,#0xf8
   2557 F8                 7751 	mov	r0,a
   2558 74 0D              7752 	mov	a,#0x0D
   255A 26                 7753 	add	a,@r0
   255B FD                 7754 	mov	r5,a
   255C E4                 7755 	clr	a
   255D 08                 7756 	inc	r0
   255E 36                 7757 	addc	a,@r0
   255F FE                 7758 	mov	r6,a
   2560 08                 7759 	inc	r0
   2561 86 07              7760 	mov	ar7,@r0
   2563 74 2E              7761 	mov	a,#0x2E
   2565 C0 E0              7762 	push	acc
   2567 74 02              7763 	mov	a,#0x02
   2569 C0 E0              7764 	push	acc
   256B 74 9B              7765 	mov	a,#0x9B
   256D C0 E0              7766 	push	acc
   256F 8D 82              7767 	mov	dpl,r5
   2571 8E 83              7768 	mov	dph,r6
   2573 8F F0              7769 	mov	b,r7
   2575 78r00              7770 	mov	r0,#_uip_icmp6_send
   2577 79s00              7771 	mov	r1,#(_uip_icmp6_send >> 8)
   2579 7As00              7772 	mov	r2,#(_uip_icmp6_send >> 16)
   257B 12s00r00           7773 	lcall	__sdcc_banked_call
   257E 15 81              7774 	dec	sp
   2580 15 81              7775 	dec	sp
   2582 15 81              7776 	dec	sp
   2584                    7777 00103$:
   2584 E5 81              7778 	mov	a,sp
   2586 24 F7              7779 	add	a,#0xF7
   2588 F5 81              7780 	mov	sp,a
   258A 02s00r00           7781 	ljmp	__sdcc_banked_ret
                           7782 ;------------------------------------------------------------
                           7783 ;Allocation info for local variables in function 'dao_ack_input'
                           7784 ;------------------------------------------------------------
                           7785 ;buffer                    Allocated to registers 
                           7786 ;buffer_length             Allocated to registers 
                           7787 ;instance_id               Allocated to registers 
                           7788 ;sequence                  Allocated to registers 
                           7789 ;status                    Allocated to registers 
                           7790 ;------------------------------------------------------------
                           7791 ;	../../../contiki-sensinode//core/net/rpl/rpl-icmp6.c:771: dao_ack_input(void)
                           7792 ;	-----------------------------------------
                           7793 ;	 function dao_ack_input
                           7794 ;	-----------------------------------------
   258D                    7795 _dao_ack_input:
                           7796 ;	../../../contiki-sensinode//core/net/rpl/rpl-icmp6.c:784: status = buffer[3];
   258D 02s00r00           7797 	ljmp	__sdcc_banked_ret
                           7798 ;------------------------------------------------------------
                           7799 ;Allocation info for local variables in function 'dao_ack_output'
                           7800 ;------------------------------------------------------------
                           7801 ;dest                      Allocated to stack - sp -5
                           7802 ;sequence                  Allocated to stack - sp -6
                           7803 ;instance                  Allocated to registers r5 r6 r7 
                           7804 ;buffer                    Allocated to registers r4 r3 r2 
                           7805 ;------------------------------------------------------------
                           7806 ;	../../../contiki-sensinode//core/net/rpl/rpl-icmp6.c:793: dao_ack_output(rpl_instance_t *instance, uip_ipaddr_t *dest, uint8_t sequence)
                           7807 ;	-----------------------------------------
                           7808 ;	 function dao_ack_output
                           7809 ;	-----------------------------------------
   2590                    7810 _dao_ack_output:
   2590 AD 82              7811 	mov	r5,dpl
   2592 AE 83              7812 	mov	r6,dph
   2594 AF F0              7813 	mov	r7,b
                           7814 ;	../../../contiki-sensinode//core/net/rpl/rpl-icmp6.c:801: buffer = UIP_ICMP_PAYLOAD;
   2596 90s00r00           7815 	mov	dptr,#_uip_ext_len
   2599 E0                 7816 	movx	a,@dptr
   259A FC                 7817 	mov	r4,a
   259B 7B 00              7818 	mov	r3,#0x00
   259D 74 2C              7819 	mov	a,#0x2C
   259F 2C                 7820 	add	a,r4
   25A0 FC                 7821 	mov	r4,a
   25A1 E4                 7822 	clr	a
   25A2 3B                 7823 	addc	a,r3
   25A3 FB                 7824 	mov	r3,a
   25A4 EC                 7825 	mov	a,r4
   25A5 24r00              7826 	add	a,#_uip_aligned_buf
   25A7 FC                 7827 	mov	r4,a
   25A8 EB                 7828 	mov	a,r3
   25A9 34s00              7829 	addc	a,#(_uip_aligned_buf >> 8)
   25AB FB                 7830 	mov	r3,a
   25AC 7A 00              7831 	mov	r2,#0x00
                           7832 ;	../../../contiki-sensinode//core/net/rpl/rpl-icmp6.c:803: buffer[0] = instance->instance_id;
   25AE 74 86              7833 	mov	a,#0x86
   25B0 2D                 7834 	add	a,r5
   25B1 FD                 7835 	mov	r5,a
   25B2 E4                 7836 	clr	a
   25B3 3E                 7837 	addc	a,r6
   25B4 FE                 7838 	mov	r6,a
   25B5 8D 82              7839 	mov	dpl,r5
   25B7 8E 83              7840 	mov	dph,r6
   25B9 8F F0              7841 	mov	b,r7
   25BB 12s00r00           7842 	lcall	__gptrget
   25BE 8C 82              7843 	mov	dpl,r4
   25C0 8B 83              7844 	mov	dph,r3
   25C2 8A F0              7845 	mov	b,r2
   25C4 12s00r00           7846 	lcall	__gptrput
                           7847 ;	../../../contiki-sensinode//core/net/rpl/rpl-icmp6.c:804: buffer[1] = 0;
   25C7 74 01              7848 	mov	a,#0x01
   25C9 2C                 7849 	add	a,r4
   25CA FD                 7850 	mov	r5,a
   25CB E4                 7851 	clr	a
   25CC 3B                 7852 	addc	a,r3
   25CD FE                 7853 	mov	r6,a
   25CE 8A 07              7854 	mov	ar7,r2
   25D0 8D 82              7855 	mov	dpl,r5
   25D2 8E 83              7856 	mov	dph,r6
   25D4 8F F0              7857 	mov	b,r7
   25D6 E4                 7858 	clr	a
   25D7 12s00r00           7859 	lcall	__gptrput
                           7860 ;	../../../contiki-sensinode//core/net/rpl/rpl-icmp6.c:805: buffer[2] = sequence;
   25DA 74 02              7861 	mov	a,#0x02
   25DC 2C                 7862 	add	a,r4
   25DD FD                 7863 	mov	r5,a
   25DE E4                 7864 	clr	a
   25DF 3B                 7865 	addc	a,r3
   25E0 FE                 7866 	mov	r6,a
   25E1 8A 07              7867 	mov	ar7,r2
   25E3 8D 82              7868 	mov	dpl,r5
   25E5 8E 83              7869 	mov	dph,r6
   25E7 8F F0              7870 	mov	b,r7
   25E9 E5 81              7871 	mov	a,sp
   25EB 24 FA              7872 	add	a,#0xfa
   25ED F8                 7873 	mov	r0,a
   25EE E6                 7874 	mov	a,@r0
   25EF 12s00r00           7875 	lcall	__gptrput
                           7876 ;	../../../contiki-sensinode//core/net/rpl/rpl-icmp6.c:806: buffer[3] = 0;
   25F2 74 03              7877 	mov	a,#0x03
   25F4 2C                 7878 	add	a,r4
   25F5 FC                 7879 	mov	r4,a
   25F6 E4                 7880 	clr	a
   25F7 3B                 7881 	addc	a,r3
   25F8 FB                 7882 	mov	r3,a
   25F9 8C 82              7883 	mov	dpl,r4
   25FB 8B 83              7884 	mov	dph,r3
   25FD 8A F0              7885 	mov	b,r2
   25FF E4                 7886 	clr	a
   2600 12s00r00           7887 	lcall	__gptrput
                           7888 ;	../../../contiki-sensinode//core/net/rpl/rpl-icmp6.c:808: uip_icmp6_send(dest, ICMP6_RPL, RPL_CODE_DAO_ACK, 4);
   2603 74 04              7889 	mov	a,#0x04
   2605 C0 E0              7890 	push	acc
   2607 74 03              7891 	mov	a,#0x03
   2609 C0 E0              7892 	push	acc
   260B 74 9B              7893 	mov	a,#0x9B
   260D C0 E0              7894 	push	acc
   260F E5 81              7895 	mov	a,sp
   2611 24 F8              7896 	add	a,#0xf8
   2613 F8                 7897 	mov	r0,a
   2614 86 82              7898 	mov	dpl,@r0
   2616 08                 7899 	inc	r0
   2617 86 83              7900 	mov	dph,@r0
   2619 08                 7901 	inc	r0
   261A 86 F0              7902 	mov	b,@r0
   261C 78r00              7903 	mov	r0,#_uip_icmp6_send
   261E 79s00              7904 	mov	r1,#(_uip_icmp6_send >> 8)
   2620 7As00              7905 	mov	r2,#(_uip_icmp6_send >> 16)
   2622 12s00r00           7906 	lcall	__sdcc_banked_call
   2625 15 81              7907 	dec	sp
   2627 15 81              7908 	dec	sp
   2629 15 81              7909 	dec	sp
   262B 02s00r00           7910 	ljmp	__sdcc_banked_ret
                           7911 ;------------------------------------------------------------
                           7912 ;Allocation info for local variables in function 'uip_rpl_input'
                           7913 ;------------------------------------------------------------
                           7914 ;	../../../contiki-sensinode//core/net/rpl/rpl-icmp6.c:812: uip_rpl_input(void)
                           7915 ;	-----------------------------------------
                           7916 ;	 function uip_rpl_input
                           7917 ;	-----------------------------------------
   262E                    7918 _uip_rpl_input:
                           7919 ;	../../../contiki-sensinode//core/net/rpl/rpl-icmp6.c:815: switch(UIP_ICMP_BUF->icode) {
   262E 90s00r00           7920 	mov	dptr,#_uip_ext_len
   2631 E0                 7921 	movx	a,@dptr
   2632 FF                 7922 	mov	r7,a
   2633 7E 00              7923 	mov	r6,#0x00
   2635 74 28              7924 	mov	a,#0x28
   2637 2F                 7925 	add	a,r7
   2638 FF                 7926 	mov	r7,a
   2639 E4                 7927 	clr	a
   263A 3E                 7928 	addc	a,r6
   263B FE                 7929 	mov	r6,a
   263C EF                 7930 	mov	a,r7
   263D 24r00              7931 	add	a,#_uip_aligned_buf
   263F FF                 7932 	mov	r7,a
   2640 EE                 7933 	mov	a,r6
   2641 34s00              7934 	addc	a,#(_uip_aligned_buf >> 8)
   2643 FE                 7935 	mov	r6,a
   2644 8F 82              7936 	mov	dpl,r7
   2646 8E 83              7937 	mov	dph,r6
   2648 A3                 7938 	inc	dptr
   2649 E0                 7939 	movx	a,@dptr
   264A FF                 7940 	mov  r7,a
   264B 24 FC              7941 	add	a,#0xff - 0x03
   264D 40 3D              7942 	jc	00106$
   264F EF                 7943 	mov	a,r7
   2650 2F                 7944 	add	a,r7
   2651 2F                 7945 	add	a,r7
   2652 90s26r56           7946 	mov	dptr,#00112$
   2655 73                 7947 	jmp	@a+dptr
   2656                    7948 00112$:
   2656 02s26r6D           7949 	ljmp	00102$
   2659 02s26r62           7950 	ljmp	00101$
   265C 02s26r78           7951 	ljmp	00103$
   265F 02s26r83           7952 	ljmp	00104$
                           7953 ;	../../../contiki-sensinode//core/net/rpl/rpl-icmp6.c:816: case RPL_CODE_DIO:
   2662                    7954 00101$:
                           7955 ;	../../../contiki-sensinode//core/net/rpl/rpl-icmp6.c:817: dio_input();
   2662 78r70              7956 	mov	r0,#_dio_input
   2664 79s05              7957 	mov	r1,#(_dio_input >> 8)
   2666 7As00              7958 	mov	r2,#(_dio_input >> 16)
   2668 12s00r00           7959 	lcall	__sdcc_banked_call
                           7960 ;	../../../contiki-sensinode//core/net/rpl/rpl-icmp6.c:818: break;
                           7961 ;	../../../contiki-sensinode//core/net/rpl/rpl-icmp6.c:819: case RPL_CODE_DIS:
   266B 80 1F              7962 	sjmp	00106$
   266D                    7963 00102$:
                           7964 ;	../../../contiki-sensinode//core/net/rpl/rpl-icmp6.c:820: dis_input();
   266D 78r09              7965 	mov	r0,#_dis_input
   266F 79s04              7966 	mov	r1,#(_dis_input >> 8)
   2671 7As00              7967 	mov	r2,#(_dis_input >> 16)
   2673 12s00r00           7968 	lcall	__sdcc_banked_call
                           7969 ;	../../../contiki-sensinode//core/net/rpl/rpl-icmp6.c:821: break;
                           7970 ;	../../../contiki-sensinode//core/net/rpl/rpl-icmp6.c:822: case RPL_CODE_DAO:
   2676 80 14              7971 	sjmp	00106$
   2678                    7972 00103$:
                           7973 ;	../../../contiki-sensinode//core/net/rpl/rpl-icmp6.c:823: dao_input();
   2678 78rF0              7974 	mov	r0,#_dao_input
   267A 79s1A              7975 	mov	r1,#(_dao_input >> 8)
   267C 7As00              7976 	mov	r2,#(_dao_input >> 16)
   267E 12s00r00           7977 	lcall	__sdcc_banked_call
                           7978 ;	../../../contiki-sensinode//core/net/rpl/rpl-icmp6.c:824: break;
                           7979 ;	../../../contiki-sensinode//core/net/rpl/rpl-icmp6.c:825: case RPL_CODE_DAO_ACK:
   2681 80 09              7980 	sjmp	00106$
   2683                    7981 00104$:
                           7982 ;	../../../contiki-sensinode//core/net/rpl/rpl-icmp6.c:826: dao_ack_input();
   2683 78r8D              7983 	mov	r0,#_dao_ack_input
   2685 79s25              7984 	mov	r1,#(_dao_ack_input >> 8)
   2687 7As00              7985 	mov	r2,#(_dao_ack_input >> 16)
   2689 12s00r00           7986 	lcall	__sdcc_banked_call
                           7987 ;	../../../contiki-sensinode//core/net/rpl/rpl-icmp6.c:831: }
   268C                    7988 00106$:
                           7989 ;	../../../contiki-sensinode//core/net/rpl/rpl-icmp6.c:833: uip_len = 0;
   268C 90s00r00           7990 	mov	dptr,#_uip_len
   268F E4                 7991 	clr	a
   2690 F0                 7992 	movx	@dptr,a
   2691 A3                 7993 	inc	dptr
   2692 F0                 7994 	movx	@dptr,a
   2693 02s00r00           7995 	ljmp	__sdcc_banked_ret
                           7996 	.area CSEG    (CODE)
                           7997 	.area CONST   (CODE)
                           7998 	.area XINIT   (CODE)
   0000                    7999 __xinit__dao_sequence:
   0000 F0                 8000 	.db #0xF0	; 240
                           8001 	.area CABS    (ABS,CODE)
