                              1 ;--------------------------------------------------------
                              2 ; File Created by SDCC : free open source ANSI-C Compiler
                              3 ; Version 3.1.1 #7100 (Oct 29 2014) (Linux)
                              4 ; This file was generated Wed Dec  2 18:11:02 2015
                              5 ;--------------------------------------------------------
                              6 	.module uip_ds6
                              7 	.optsdcc -mmcs51 --model-huge
                              8 	
                              9 ;--------------------------------------------------------
                             10 ; Public variables in this module
                             11 ;--------------------------------------------------------
                             12 	.globl _rpl_ipv6_neighbor_callback
                             13 	.globl _uip_ds6_defrt_periodic
                             14 	.globl _uip_ds6_defrt_lookup
                             15 	.globl _uip_ds6_defrt_rm
                             16 	.globl _uip_ds6_route_init
                             17 	.globl _uip_nd6_ns_output
                             18 	.globl _stimer_expired
                             19 	.globl _stimer_set
                             20 	.globl _etimer_reset
                             21 	.globl _etimer_set
                             22 	.globl _clock_time
                             23 	.globl _random_rand
                             24 	.globl _memset
                             25 	.globl _memcmp
                             26 	.globl _memcpy
                             27 	.globl _ACTIVE
                             28 	.globl _TX_BYTE
                             29 	.globl _RX_BYTE
                             30 	.globl _ERR
                             31 	.globl _FE
                             32 	.globl _SLAVE
                             33 	.globl _RE
                             34 	.globl _MODE
                             35 	.globl _T3OVFIF
                             36 	.globl _T3CH0IF
                             37 	.globl _T3CH1IF
                             38 	.globl _T4OVFIF
                             39 	.globl _T4CH0IF
                             40 	.globl _T4CH1IF
                             41 	.globl _OVFIM
                             42 	.globl _B_0
                             43 	.globl _B_1
                             44 	.globl _B_2
                             45 	.globl _B_3
                             46 	.globl _B_4
                             47 	.globl _B_5
                             48 	.globl _B_6
                             49 	.globl _B_7
                             50 	.globl _P2IF
                             51 	.globl _UTX0IF
                             52 	.globl _UTX1IF
                             53 	.globl _P1IF
                             54 	.globl _WDTIF
                             55 	.globl _ACC_0
                             56 	.globl _ACC_1
                             57 	.globl _ACC_2
                             58 	.globl _ACC_3
                             59 	.globl _ACC_4
                             60 	.globl _ACC_5
                             61 	.globl _ACC_6
                             62 	.globl _ACC_7
                             63 	.globl _P
                             64 	.globl _F1
                             65 	.globl _OV
                             66 	.globl _RS0
                             67 	.globl _RS1
                             68 	.globl _F0
                             69 	.globl _AC
                             70 	.globl _CY
                             71 	.globl _DMAIF
                             72 	.globl _T1IF
                             73 	.globl _T2IF
                             74 	.globl _T3IF
                             75 	.globl _T4IF
                             76 	.globl _P0IF
                             77 	.globl _STIF
                             78 	.globl _DMAIE
                             79 	.globl _T1IE
                             80 	.globl _T2IE
                             81 	.globl _T3IE
                             82 	.globl _T4IE
                             83 	.globl _P0IE
                             84 	.globl _RFERRIE
                             85 	.globl _ADCIE
                             86 	.globl _URX0IE
                             87 	.globl _URX1IE
                             88 	.globl _ENCIE
                             89 	.globl _STIE
                             90 	.globl _EA
                             91 	.globl _P2_0
                             92 	.globl _P2_1
                             93 	.globl _P2_2
                             94 	.globl _P2_3
                             95 	.globl _P2_4
                             96 	.globl _P2_5
                             97 	.globl _P2_6
                             98 	.globl _P2_7
                             99 	.globl _ENCIF_0
                            100 	.globl _ENCIF_1
                            101 	.globl _P1_0
                            102 	.globl _P1_1
                            103 	.globl _P1_2
                            104 	.globl _P1_3
                            105 	.globl _P1_4
                            106 	.globl _P1_5
                            107 	.globl _P1_6
                            108 	.globl _P1_7
                            109 	.globl _IT0
                            110 	.globl _RFERRIF
                            111 	.globl _IT1
                            112 	.globl _URX0IF
                            113 	.globl _ADCIF
                            114 	.globl _URX1IF
                            115 	.globl _P0_0
                            116 	.globl _P0_1
                            117 	.globl _P0_2
                            118 	.globl _P0_3
                            119 	.globl _P0_4
                            120 	.globl _P0_5
                            121 	.globl _P0_6
                            122 	.globl _P0_7
                            123 	.globl _WDCTL
                            124 	.globl _U1GCR
                            125 	.globl _U1UCR
                            126 	.globl _U1BAUD
                            127 	.globl _U1DBUF
                            128 	.globl _U1CSR
                            129 	.globl _U0GCR
                            130 	.globl _U0UCR
                            131 	.globl _U0BAUD
                            132 	.globl _U0DBUF
                            133 	.globl _U0CSR
                            134 	.globl _TIMIF
                            135 	.globl _T4CC1
                            136 	.globl _T4CCTL1
                            137 	.globl _T4CC0
                            138 	.globl _T4CCTL0
                            139 	.globl _T4CTL
                            140 	.globl _T4CNT
                            141 	.globl _T3CC1
                            142 	.globl _T3CCTL1
                            143 	.globl _T3CC0
                            144 	.globl _T3CCTL0
                            145 	.globl _T3CTL
                            146 	.globl _T3CNT
                            147 	.globl _T2MSEL
                            148 	.globl _T2IRQM
                            149 	.globl _T2MOVF2
                            150 	.globl _T2MOVF1
                            151 	.globl _T2MOVF0
                            152 	.globl _T2M1
                            153 	.globl _T2M0
                            154 	.globl _T2IRQF
                            155 	.globl _T2EVTCFG
                            156 	.globl _T2CTRL
                            157 	.globl _T1STAT
                            158 	.globl _T1CCTL2
                            159 	.globl _T1CCTL1
                            160 	.globl _T1CCTL0
                            161 	.globl _T1CTL
                            162 	.globl _T1CNTH
                            163 	.globl _T1CNTL
                            164 	.globl _T1CC2H
                            165 	.globl _T1CC2L
                            166 	.globl _T1CC1H
                            167 	.globl _T1CC1L
                            168 	.globl _T1CC0H
                            169 	.globl _T1CC0L
                            170 	.globl _CLKCONSTA
                            171 	.globl _CLKCONCMD
                            172 	.globl _SLEEPSTA
                            173 	.globl _SLEEPCMD
                            174 	.globl _STLOAD
                            175 	.globl _ST2
                            176 	.globl _ST1
                            177 	.globl _ST0
                            178 	.globl _RFERRF
                            179 	.globl _RFIRQF0
                            180 	.globl _RFST
                            181 	.globl _RFD
                            182 	.globl _RFIRQF1
                            183 	.globl _PSBANK
                            184 	.globl _FMAP
                            185 	.globl _MEMCTR
                            186 	.globl __XPAGE
                            187 	.globl _MPAGE
                            188 	.globl _PMUX
                            189 	.globl _P2DIR
                            190 	.globl _P1DIR
                            191 	.globl _P0DIR
                            192 	.globl _P2INP
                            193 	.globl _P1INP
                            194 	.globl _P2SEL
                            195 	.globl _P1SEL
                            196 	.globl _P0SEL
                            197 	.globl _APCFG
                            198 	.globl _PERCFG
                            199 	.globl _P0INP
                            200 	.globl _P2IEN
                            201 	.globl _P1IEN
                            202 	.globl _P0IEN
                            203 	.globl _PICTL
                            204 	.globl _P2IFG
                            205 	.globl _P1IFG
                            206 	.globl _P0IFG
                            207 	.globl _DMAREQ
                            208 	.globl _DMAARM
                            209 	.globl _DMA0CFGH
                            210 	.globl _DMA0CFGL
                            211 	.globl _DMA1CFGH
                            212 	.globl _DMA1CFGL
                            213 	.globl _DMAIRQ
                            214 	.globl _ENCCS
                            215 	.globl _ENCDO
                            216 	.globl _ENCDI
                            217 	.globl _RNDH
                            218 	.globl _RNDL
                            219 	.globl _ADCH
                            220 	.globl _ADCL
                            221 	.globl _ADCCON3
                            222 	.globl _ADCCON2
                            223 	.globl _ADCCON1
                            224 	.globl _B
                            225 	.globl _IRCON2
                            226 	.globl _ACC
                            227 	.globl _PSW
                            228 	.globl _IRCON
                            229 	.globl _IP1
                            230 	.globl _IEN1
                            231 	.globl _IP0
                            232 	.globl _IEN0
                            233 	.globl _P2
                            234 	.globl _S1CON
                            235 	.globl _IEN2
                            236 	.globl _S0CON
                            237 	.globl _DPS
                            238 	.globl _P1
                            239 	.globl _TCON
                            240 	.globl _PCON
                            241 	.globl _DPH1
                            242 	.globl _DPL1
                            243 	.globl _DPH0
                            244 	.globl _DPL0
                            245 	.globl _SP
                            246 	.globl _P0
                            247 	.globl _uip_ds6_netif_addr_list_offset
                            248 	.globl _uip_ds6_addr_size
                            249 	.globl _uip_ds6_prefix_list
                            250 	.globl _uip_ds6_nbr_cache
                            251 	.globl _uip_ds6_if
                            252 	.globl _uip_ds6_timer_ra
                            253 	.globl _uip_ds6_timer_periodic
                            254 	.globl _X_IEEE_ADDR
                            255 	.globl _X_INFOPAGE
                            256 	.globl _X_P2DIR
                            257 	.globl _X_P1DIR
                            258 	.globl _X_P0DIR
                            259 	.globl _X_U1GCR
                            260 	.globl _X_U1UCR
                            261 	.globl _X_U1BAUD
                            262 	.globl _X_U1DBUF
                            263 	.globl _X_U1CSR
                            264 	.globl _X_P2INP
                            265 	.globl _X_P1INP
                            266 	.globl _X_P2SEL
                            267 	.globl _X_P1SEL
                            268 	.globl _X_P0SEL
                            269 	.globl _X_APCFG
                            270 	.globl _X_PERCFG
                            271 	.globl _X_T4CC1
                            272 	.globl _X_T4CCTL1
                            273 	.globl _X_T4CC0
                            274 	.globl _X_T4CCTL0
                            275 	.globl _X_T4CTL
                            276 	.globl _X_T4CNT
                            277 	.globl _X_RFIRQF0
                            278 	.globl _X_T1CCTL2
                            279 	.globl _X_T1CCTL1
                            280 	.globl _X_T1CCTL0
                            281 	.globl _X_T1CTL
                            282 	.globl _X_T1CNTH
                            283 	.globl _X_T1CNTL
                            284 	.globl _X_RFST
                            285 	.globl _X_T1CC2H
                            286 	.globl _X_T1CC2L
                            287 	.globl _X_T1CC1H
                            288 	.globl _X_T1CC1L
                            289 	.globl _X_T1CC0H
                            290 	.globl _X_T1CC0L
                            291 	.globl _X_RFD
                            292 	.globl _X_TIMIF
                            293 	.globl _X_DMAREQ
                            294 	.globl _X_DMAARM
                            295 	.globl _X_DMA0CFGH
                            296 	.globl _X_DMA0CFGL
                            297 	.globl _X_DMA1CFGH
                            298 	.globl _X_DMA1CFGL
                            299 	.globl _X_DMAIRQ
                            300 	.globl _X_T3CC1
                            301 	.globl _X_T3CCTL1
                            302 	.globl _X_T3CC0
                            303 	.globl _X_T3CCTL0
                            304 	.globl _X_T3CTL
                            305 	.globl _X_T3CNT
                            306 	.globl _X_WDCTL
                            307 	.globl _X_MEMCTR
                            308 	.globl _X_CLKCONCMD
                            309 	.globl _X_U0GCR
                            310 	.globl _X_U0UCR
                            311 	.globl _X_T2MSEL
                            312 	.globl _X_U0BAUD
                            313 	.globl _X_U0DBUF
                            314 	.globl _X_RFERRF
                            315 	.globl _X_SLEEPCMD
                            316 	.globl _X_RNDH
                            317 	.globl _X_RNDL
                            318 	.globl _X_ADCH
                            319 	.globl _X_ADCL
                            320 	.globl _X_ADCCON3
                            321 	.globl _X_ADCCON2
                            322 	.globl _X_ADCCON1
                            323 	.globl _X_ENCCS
                            324 	.globl _X_ENCDO
                            325 	.globl _X_ENCDI
                            326 	.globl _X_T1STAT
                            327 	.globl _X_PMUX
                            328 	.globl _X_STLOAD
                            329 	.globl _X_P2IEN
                            330 	.globl _X_P0IEN
                            331 	.globl _X_T2IRQM
                            332 	.globl _X_T2MOVF2
                            333 	.globl _X_T2MOVF1
                            334 	.globl _X_T2MOVF0
                            335 	.globl _X_T2M1
                            336 	.globl _X_T2M0
                            337 	.globl _X_T2IRQF
                            338 	.globl _X_P2
                            339 	.globl _X_PSBANK
                            340 	.globl _X_FMAP
                            341 	.globl _X_CLKCONSTA
                            342 	.globl _X_SLEEPSTA
                            343 	.globl _X_T2EVTCFG
                            344 	.globl _X_ST2
                            345 	.globl _X_ST1
                            346 	.globl _X_ST0
                            347 	.globl _X_T2CTRL
                            348 	.globl _X__XPAGE
                            349 	.globl _X_MPAGE
                            350 	.globl _X_RFIRQF1
                            351 	.globl _X_P1
                            352 	.globl _X_P0INP
                            353 	.globl _X_P1IEN
                            354 	.globl _X_PICTL
                            355 	.globl _X_P2IFG
                            356 	.globl _X_P1IFG
                            357 	.globl _X_P0IFG
                            358 	.globl _X_U0CSR
                            359 	.globl _X_P0
                            360 	.globl _USBF5
                            361 	.globl _USBF4
                            362 	.globl _USBF3
                            363 	.globl _USBF2
                            364 	.globl _USBF1
                            365 	.globl _USBF0
                            366 	.globl _USBCNTH
                            367 	.globl _USBCNTL
                            368 	.globl _USBCNT0
                            369 	.globl _USBCSOH
                            370 	.globl _USBCSOL
                            371 	.globl _USBMAXO
                            372 	.globl _USBCSIH
                            373 	.globl _USBCSIL
                            374 	.globl _USBCS0
                            375 	.globl _USBMAXI
                            376 	.globl _USBCTRL
                            377 	.globl _USBINDEX
                            378 	.globl _USBFRMH
                            379 	.globl _USBFRML
                            380 	.globl _USBCIE
                            381 	.globl _USBOIE
                            382 	.globl _USBIIE
                            383 	.globl _USBCIF
                            384 	.globl _USBOIF
                            385 	.globl _USBIIF
                            386 	.globl _USBPOW
                            387 	.globl _USBADDR
                            388 	.globl _CSPT
                            389 	.globl _CSPZ
                            390 	.globl _CSPY
                            391 	.globl _CSPX
                            392 	.globl _CSPSTAT
                            393 	.globl _CSPCTRL
                            394 	.globl _CSPPROG23
                            395 	.globl _CSPPROG22
                            396 	.globl _CSPPROG21
                            397 	.globl _CSPPROG20
                            398 	.globl _CSPPROG19
                            399 	.globl _CSPPROG18
                            400 	.globl _CSPPROG17
                            401 	.globl _CSPPROG16
                            402 	.globl _CSPPROG15
                            403 	.globl _CSPPROG14
                            404 	.globl _CSPPROG13
                            405 	.globl _CSPPROG12
                            406 	.globl _CSPPROG11
                            407 	.globl _CSPPROG10
                            408 	.globl _CSPPROG9
                            409 	.globl _CSPPROG8
                            410 	.globl _CSPPROG7
                            411 	.globl _CSPPROG6
                            412 	.globl _CSPPROG5
                            413 	.globl _CSPPROG4
                            414 	.globl _CSPPROG3
                            415 	.globl _CSPPROG2
                            416 	.globl _CSPPROG1
                            417 	.globl _CSPPROG0
                            418 	.globl _RFC_OBS_CTRL2
                            419 	.globl _RFC_OBS_CTRL1
                            420 	.globl _RFC_OBS_CTRL0
                            421 	.globl _TXFILTCFG
                            422 	.globl _PTEST1
                            423 	.globl _PTEST0
                            424 	.globl _ATEST
                            425 	.globl _DACTEST2
                            426 	.globl _DACTEST1
                            427 	.globl _DACTEST0
                            428 	.globl _MDMTEST1
                            429 	.globl _MDMTEST0
                            430 	.globl _ADCTEST2
                            431 	.globl _ADCTEST1
                            432 	.globl _ADCTEST0
                            433 	.globl _AGCCTRL3
                            434 	.globl _AGCCTRL2
                            435 	.globl _AGCCTRL1
                            436 	.globl _AGCCTRL0
                            437 	.globl _FSCAL3
                            438 	.globl _FSCAL2
                            439 	.globl _FSCAL1
                            440 	.globl _FSCAL0
                            441 	.globl _FSCTRL
                            442 	.globl _RXCTRL
                            443 	.globl _FREQEST
                            444 	.globl _MDMCTRL1
                            445 	.globl _MDMCTRL0
                            446 	.globl _RFRND
                            447 	.globl _RFERRM
                            448 	.globl _RFIRQM1
                            449 	.globl _RFIRQM0
                            450 	.globl _TXLAST_PTR
                            451 	.globl _TXFIRST_PTR
                            452 	.globl _RXP1_PTR
                            453 	.globl _RXLAST_PTR
                            454 	.globl _RXFIRST_PTR
                            455 	.globl _TXFIFOCNT
                            456 	.globl _RXFIFOCNT
                            457 	.globl _RXFIRST
                            458 	.globl _RSSISTAT
                            459 	.globl _RSSI
                            460 	.globl _CCACTRL1
                            461 	.globl _CCACTRL0
                            462 	.globl _FSMCTRL
                            463 	.globl _FIFOPCTRL
                            464 	.globl _FSMSTAT1
                            465 	.globl _FSMSTAT0
                            466 	.globl _TXCTRL
                            467 	.globl _TXPOWER
                            468 	.globl _FREQCTRL
                            469 	.globl _FREQTUNE
                            470 	.globl _RXMASKCLR
                            471 	.globl _RXMASKSET
                            472 	.globl _RXENABLE
                            473 	.globl _FRMCTRL1
                            474 	.globl _FRMCTRL0
                            475 	.globl _SRCEXTEN2
                            476 	.globl _SRCEXTEN1
                            477 	.globl _SRCEXTEN0
                            478 	.globl _SRCSHORTEN2
                            479 	.globl _SRCSHORTEN1
                            480 	.globl _SRCSHORTEN0
                            481 	.globl _SRCMATCH
                            482 	.globl _FRMFILT1
                            483 	.globl _FRMFILT0
                            484 	.globl _SHORT_ADDR1
                            485 	.globl _SHORT_ADDR0
                            486 	.globl _PAN_ID1
                            487 	.globl _PAN_ID0
                            488 	.globl _EXT_ADDR7
                            489 	.globl _EXT_ADDR6
                            490 	.globl _EXT_ADDR5
                            491 	.globl _EXT_ADDR4
                            492 	.globl _EXT_ADDR3
                            493 	.globl _EXT_ADDR2
                            494 	.globl _EXT_ADDR1
                            495 	.globl _EXT_ADDR0
                            496 	.globl _SRCSHORTPENDEN2
                            497 	.globl _SRCSHORTPENDEN1
                            498 	.globl _SRCSHORTPENDEN0
                            499 	.globl _SRCEXTPENDEN2
                            500 	.globl _SRCEXTPENDEN1
                            501 	.globl _SRCEXTPENDEN0
                            502 	.globl _SRCRESINDEX
                            503 	.globl _SRCRESMASK2
                            504 	.globl _SRCRESMASK1
                            505 	.globl _SRCRESMASK0
                            506 	.globl _SRC_ADDR_TABLE
                            507 	.globl _TXFIFO
                            508 	.globl _RXFIFO
                            509 	.globl _RFCORE_RAM
                            510 	.globl _CMPCTL
                            511 	.globl _OPAMPS
                            512 	.globl _OPAMPC
                            513 	.globl _STCV2
                            514 	.globl _STCV1
                            515 	.globl _STCV0
                            516 	.globl _STCS
                            517 	.globl _STCC
                            518 	.globl _T1CC4H
                            519 	.globl _T1CC4L
                            520 	.globl _T1CC3H
                            521 	.globl _T1CC3L
                            522 	.globl _XX_T1CC2H
                            523 	.globl _XX_T1CC2L
                            524 	.globl _XX_T1CC1H
                            525 	.globl _XX_T1CC1L
                            526 	.globl _XX_T1CC0H
                            527 	.globl _XX_T1CC0L
                            528 	.globl _T1CCTL4
                            529 	.globl _T1CCTL3
                            530 	.globl _XX_T1CCTL2
                            531 	.globl _XX_T1CCTL1
                            532 	.globl _XX_T1CCTL0
                            533 	.globl _CLD
                            534 	.globl _IRCTL
                            535 	.globl _CHIPINFO1
                            536 	.globl _CHIPINFO0
                            537 	.globl _FWDATA
                            538 	.globl _FADDRH
                            539 	.globl _FADDRL
                            540 	.globl _FCTL
                            541 	.globl _IVCTRL
                            542 	.globl _BATTMON
                            543 	.globl _SRCRC
                            544 	.globl _DBGDATA
                            545 	.globl _TESTREG0
                            546 	.globl _CHIPID
                            547 	.globl _CHVER
                            548 	.globl _OBSSEL5
                            549 	.globl _OBSSEL4
                            550 	.globl _OBSSEL3
                            551 	.globl _OBSSEL2
                            552 	.globl _OBSSEL1
                            553 	.globl _OBSSEL0
                            554 	.globl _I2CIO
                            555 	.globl _I2CWC
                            556 	.globl _I2CADDR
                            557 	.globl _I2CDATA
                            558 	.globl _I2CSTAT
                            559 	.globl _I2CCFG
                            560 	.globl _OPAMPMC
                            561 	.globl _MONMUX
                            562 	.globl _uip_ds6_init
                            563 	.globl _uip_ds6_periodic
                            564 	.globl _uip_ds6_list_loop
                            565 	.globl _uip_ds6_nbr_add
                            566 	.globl _uip_ds6_nbr_rm
                            567 	.globl _uip_ds6_nbr_lookup
                            568 	.globl _uip_ds6_nbr_ll_lookup
                            569 	.globl _uip_ds6_prefix_add
                            570 	.globl _uip_ds6_prefix_rm
                            571 	.globl _uip_ds6_prefix_lookup
                            572 	.globl _uip_ds6_is_addr_onlink
                            573 	.globl _uip_ds6_addr_add
                            574 	.globl _uip_ds6_addr_rm
                            575 	.globl _uip_ds6_addr_lookup
                            576 	.globl _uip_ds6_get_link_local
                            577 	.globl _uip_ds6_get_global
                            578 	.globl _uip_ds6_maddr_add
                            579 	.globl _uip_ds6_maddr_rm
                            580 	.globl _uip_ds6_maddr_lookup
                            581 	.globl _uip_ds6_aaddr_add
                            582 	.globl _uip_ds6_aaddr_rm
                            583 	.globl _uip_ds6_aaddr_lookup
                            584 	.globl _uip_ds6_select_src
                            585 	.globl _uip_ds6_set_addr_iid
                            586 	.globl _get_match_length
                            587 	.globl _uip_ds6_compute_reachable_time
                            588 ;--------------------------------------------------------
                            589 ; special function registers
                            590 ;--------------------------------------------------------
                            591 	.area RSEG    (ABS,DATA)
   0000                     592 	.org 0x0000
                    0080    593 _P0	=	0x0080
                    0081    594 _SP	=	0x0081
                    0082    595 _DPL0	=	0x0082
                    0083    596 _DPH0	=	0x0083
                    0084    597 _DPL1	=	0x0084
                    0085    598 _DPH1	=	0x0085
                    0087    599 _PCON	=	0x0087
                    0088    600 _TCON	=	0x0088
                    0090    601 _P1	=	0x0090
                    0092    602 _DPS	=	0x0092
                    0098    603 _S0CON	=	0x0098
                    009A    604 _IEN2	=	0x009a
                    009B    605 _S1CON	=	0x009b
                    00A0    606 _P2	=	0x00a0
                    00A8    607 _IEN0	=	0x00a8
                    00A9    608 _IP0	=	0x00a9
                    00B8    609 _IEN1	=	0x00b8
                    00B9    610 _IP1	=	0x00b9
                    00C0    611 _IRCON	=	0x00c0
                    00D0    612 _PSW	=	0x00d0
                    00E0    613 _ACC	=	0x00e0
                    00E8    614 _IRCON2	=	0x00e8
                    00F0    615 _B	=	0x00f0
                    00B4    616 _ADCCON1	=	0x00b4
                    00B5    617 _ADCCON2	=	0x00b5
                    00B6    618 _ADCCON3	=	0x00b6
                    00BA    619 _ADCL	=	0x00ba
                    00BB    620 _ADCH	=	0x00bb
                    00BC    621 _RNDL	=	0x00bc
                    00BD    622 _RNDH	=	0x00bd
                    00B1    623 _ENCDI	=	0x00b1
                    00B2    624 _ENCDO	=	0x00b2
                    00B3    625 _ENCCS	=	0x00b3
                    00D1    626 _DMAIRQ	=	0x00d1
                    00D2    627 _DMA1CFGL	=	0x00d2
                    00D3    628 _DMA1CFGH	=	0x00d3
                    00D4    629 _DMA0CFGL	=	0x00d4
                    00D5    630 _DMA0CFGH	=	0x00d5
                    00D6    631 _DMAARM	=	0x00d6
                    00D7    632 _DMAREQ	=	0x00d7
                    0089    633 _P0IFG	=	0x0089
                    008A    634 _P1IFG	=	0x008a
                    008B    635 _P2IFG	=	0x008b
                    008C    636 _PICTL	=	0x008c
                    00AB    637 _P0IEN	=	0x00ab
                    008D    638 _P1IEN	=	0x008d
                    00AC    639 _P2IEN	=	0x00ac
                    008F    640 _P0INP	=	0x008f
                    00F1    641 _PERCFG	=	0x00f1
                    00F2    642 _APCFG	=	0x00f2
                    00F3    643 _P0SEL	=	0x00f3
                    00F4    644 _P1SEL	=	0x00f4
                    00F5    645 _P2SEL	=	0x00f5
                    00F6    646 _P1INP	=	0x00f6
                    00F7    647 _P2INP	=	0x00f7
                    00FD    648 _P0DIR	=	0x00fd
                    00FE    649 _P1DIR	=	0x00fe
                    00FF    650 _P2DIR	=	0x00ff
                    00AE    651 _PMUX	=	0x00ae
                    0093    652 _MPAGE	=	0x0093
                    0093    653 __XPAGE	=	0x0093
                    00C7    654 _MEMCTR	=	0x00c7
                    009F    655 _FMAP	=	0x009f
                    009F    656 _PSBANK	=	0x009f
                    0091    657 _RFIRQF1	=	0x0091
                    00D9    658 _RFD	=	0x00d9
                    00E1    659 _RFST	=	0x00e1
                    00E9    660 _RFIRQF0	=	0x00e9
                    00BF    661 _RFERRF	=	0x00bf
                    0095    662 _ST0	=	0x0095
                    0096    663 _ST1	=	0x0096
                    0097    664 _ST2	=	0x0097
                    00AD    665 _STLOAD	=	0x00ad
                    00BE    666 _SLEEPCMD	=	0x00be
                    009D    667 _SLEEPSTA	=	0x009d
                    00C6    668 _CLKCONCMD	=	0x00c6
                    009E    669 _CLKCONSTA	=	0x009e
                    00DA    670 _T1CC0L	=	0x00da
                    00DB    671 _T1CC0H	=	0x00db
                    00DC    672 _T1CC1L	=	0x00dc
                    00DD    673 _T1CC1H	=	0x00dd
                    00DE    674 _T1CC2L	=	0x00de
                    00DF    675 _T1CC2H	=	0x00df
                    00E2    676 _T1CNTL	=	0x00e2
                    00E3    677 _T1CNTH	=	0x00e3
                    00E4    678 _T1CTL	=	0x00e4
                    00E5    679 _T1CCTL0	=	0x00e5
                    00E6    680 _T1CCTL1	=	0x00e6
                    00E7    681 _T1CCTL2	=	0x00e7
                    00AF    682 _T1STAT	=	0x00af
                    0094    683 _T2CTRL	=	0x0094
                    009C    684 _T2EVTCFG	=	0x009c
                    00A1    685 _T2IRQF	=	0x00a1
                    00A2    686 _T2M0	=	0x00a2
                    00A3    687 _T2M1	=	0x00a3
                    00A4    688 _T2MOVF0	=	0x00a4
                    00A5    689 _T2MOVF1	=	0x00a5
                    00A6    690 _T2MOVF2	=	0x00a6
                    00A7    691 _T2IRQM	=	0x00a7
                    00C3    692 _T2MSEL	=	0x00c3
                    00CA    693 _T3CNT	=	0x00ca
                    00CB    694 _T3CTL	=	0x00cb
                    00CC    695 _T3CCTL0	=	0x00cc
                    00CD    696 _T3CC0	=	0x00cd
                    00CE    697 _T3CCTL1	=	0x00ce
                    00CF    698 _T3CC1	=	0x00cf
                    00EA    699 _T4CNT	=	0x00ea
                    00EB    700 _T4CTL	=	0x00eb
                    00EC    701 _T4CCTL0	=	0x00ec
                    00ED    702 _T4CC0	=	0x00ed
                    00EE    703 _T4CCTL1	=	0x00ee
                    00EF    704 _T4CC1	=	0x00ef
                    00D8    705 _TIMIF	=	0x00d8
                    0086    706 _U0CSR	=	0x0086
                    00C1    707 _U0DBUF	=	0x00c1
                    00C2    708 _U0BAUD	=	0x00c2
                    00C4    709 _U0UCR	=	0x00c4
                    00C5    710 _U0GCR	=	0x00c5
                    00F8    711 _U1CSR	=	0x00f8
                    00F9    712 _U1DBUF	=	0x00f9
                    00FA    713 _U1BAUD	=	0x00fa
                    00FB    714 _U1UCR	=	0x00fb
                    00FC    715 _U1GCR	=	0x00fc
                    00C9    716 _WDCTL	=	0x00c9
                            717 ;--------------------------------------------------------
                            718 ; special function bits
                            719 ;--------------------------------------------------------
                            720 	.area RSEG    (ABS,DATA)
   0000                     721 	.org 0x0000
                    0087    722 _P0_7	=	0x0087
                    0086    723 _P0_6	=	0x0086
                    0085    724 _P0_5	=	0x0085
                    0084    725 _P0_4	=	0x0084
                    0083    726 _P0_3	=	0x0083
                    0082    727 _P0_2	=	0x0082
                    0081    728 _P0_1	=	0x0081
                    0080    729 _P0_0	=	0x0080
                    008F    730 _URX1IF	=	0x008f
                    008D    731 _ADCIF	=	0x008d
                    008B    732 _URX0IF	=	0x008b
                    008A    733 _IT1	=	0x008a
                    0089    734 _RFERRIF	=	0x0089
                    0088    735 _IT0	=	0x0088
                    0097    736 _P1_7	=	0x0097
                    0096    737 _P1_6	=	0x0096
                    0095    738 _P1_5	=	0x0095
                    0094    739 _P1_4	=	0x0094
                    0093    740 _P1_3	=	0x0093
                    0092    741 _P1_2	=	0x0092
                    0091    742 _P1_1	=	0x0091
                    0090    743 _P1_0	=	0x0090
                    0099    744 _ENCIF_1	=	0x0099
                    0098    745 _ENCIF_0	=	0x0098
                    00A7    746 _P2_7	=	0x00a7
                    00A6    747 _P2_6	=	0x00a6
                    00A5    748 _P2_5	=	0x00a5
                    00A4    749 _P2_4	=	0x00a4
                    00A3    750 _P2_3	=	0x00a3
                    00A2    751 _P2_2	=	0x00a2
                    00A1    752 _P2_1	=	0x00a1
                    00A0    753 _P2_0	=	0x00a0
                    00AF    754 _EA	=	0x00af
                    00AD    755 _STIE	=	0x00ad
                    00AC    756 _ENCIE	=	0x00ac
                    00AB    757 _URX1IE	=	0x00ab
                    00AA    758 _URX0IE	=	0x00aa
                    00A9    759 _ADCIE	=	0x00a9
                    00A8    760 _RFERRIE	=	0x00a8
                    00BD    761 _P0IE	=	0x00bd
                    00BC    762 _T4IE	=	0x00bc
                    00BB    763 _T3IE	=	0x00bb
                    00BA    764 _T2IE	=	0x00ba
                    00B9    765 _T1IE	=	0x00b9
                    00B8    766 _DMAIE	=	0x00b8
                    00C7    767 _STIF	=	0x00c7
                    00C5    768 _P0IF	=	0x00c5
                    00C4    769 _T4IF	=	0x00c4
                    00C3    770 _T3IF	=	0x00c3
                    00C2    771 _T2IF	=	0x00c2
                    00C1    772 _T1IF	=	0x00c1
                    00C0    773 _DMAIF	=	0x00c0
                    00D7    774 _CY	=	0x00d7
                    00D6    775 _AC	=	0x00d6
                    00D5    776 _F0	=	0x00d5
                    00D4    777 _RS1	=	0x00d4
                    00D3    778 _RS0	=	0x00d3
                    00D2    779 _OV	=	0x00d2
                    00D1    780 _F1	=	0x00d1
                    00D0    781 _P	=	0x00d0
                    00E7    782 _ACC_7	=	0x00e7
                    00E6    783 _ACC_6	=	0x00e6
                    00E5    784 _ACC_5	=	0x00e5
                    00E4    785 _ACC_4	=	0x00e4
                    00E3    786 _ACC_3	=	0x00e3
                    00E2    787 _ACC_2	=	0x00e2
                    00E1    788 _ACC_1	=	0x00e1
                    00E0    789 _ACC_0	=	0x00e0
                    00EC    790 _WDTIF	=	0x00ec
                    00EB    791 _P1IF	=	0x00eb
                    00EA    792 _UTX1IF	=	0x00ea
                    00E9    793 _UTX0IF	=	0x00e9
                    00E8    794 _P2IF	=	0x00e8
                    00F7    795 _B_7	=	0x00f7
                    00F6    796 _B_6	=	0x00f6
                    00F5    797 _B_5	=	0x00f5
                    00F4    798 _B_4	=	0x00f4
                    00F3    799 _B_3	=	0x00f3
                    00F2    800 _B_2	=	0x00f2
                    00F1    801 _B_1	=	0x00f1
                    00F0    802 _B_0	=	0x00f0
                    00DE    803 _OVFIM	=	0x00de
                    00DD    804 _T4CH1IF	=	0x00dd
                    00DC    805 _T4CH0IF	=	0x00dc
                    00DB    806 _T4OVFIF	=	0x00db
                    00DA    807 _T3CH1IF	=	0x00da
                    00D9    808 _T3CH0IF	=	0x00d9
                    00D8    809 _T3OVFIF	=	0x00d8
                    00FF    810 _MODE	=	0x00ff
                    00FE    811 _RE	=	0x00fe
                    00FD    812 _SLAVE	=	0x00fd
                    00FC    813 _FE	=	0x00fc
                    00FB    814 _ERR	=	0x00fb
                    00FA    815 _RX_BYTE	=	0x00fa
                    00F9    816 _TX_BYTE	=	0x00f9
                    00F8    817 _ACTIVE	=	0x00f8
                            818 ;--------------------------------------------------------
                            819 ; overlayable register banks
                            820 ;--------------------------------------------------------
                            821 	.area REG_BANK_0	(REL,OVR,DATA)
   0000                     822 	.ds 8
                            823 ;--------------------------------------------------------
                            824 ; internal ram data
                            825 ;--------------------------------------------------------
                            826 	.area DSEG    (DATA)
                            827 ;--------------------------------------------------------
                            828 ; overlayable items in internal ram 
                            829 ;--------------------------------------------------------
                            830 	.area OSEG    (OVR,DATA)
                            831 ;--------------------------------------------------------
                            832 ; indirectly addressable internal ram data
                            833 ;--------------------------------------------------------
                            834 	.area ISEG    (DATA)
                            835 ;--------------------------------------------------------
                            836 ; absolute internal ram data
                            837 ;--------------------------------------------------------
                            838 	.area IABS    (ABS,DATA)
                            839 	.area IABS    (ABS,DATA)
                            840 ;--------------------------------------------------------
                            841 ; bit data
                            842 ;--------------------------------------------------------
                            843 	.area BSEG    (BIT)
                            844 ;--------------------------------------------------------
                            845 ; paged external ram data
                            846 ;--------------------------------------------------------
                            847 	.area PSEG    (PAG,XDATA)
                            848 ;--------------------------------------------------------
                            849 ; external ram data
                            850 ;--------------------------------------------------------
                            851 	.area XSEG    (XDATA)
                    61A6    852 _MONMUX	=	0x61a6
                    61A6    853 _OPAMPMC	=	0x61a6
                    6230    854 _I2CCFG	=	0x6230
                    6231    855 _I2CSTAT	=	0x6231
                    6232    856 _I2CDATA	=	0x6232
                    6233    857 _I2CADDR	=	0x6233
                    6234    858 _I2CWC	=	0x6234
                    6235    859 _I2CIO	=	0x6235
                    6243    860 _OBSSEL0	=	0x6243
                    6244    861 _OBSSEL1	=	0x6244
                    6245    862 _OBSSEL2	=	0x6245
                    6246    863 _OBSSEL3	=	0x6246
                    6247    864 _OBSSEL4	=	0x6247
                    6248    865 _OBSSEL5	=	0x6248
                    6249    866 _CHVER	=	0x6249
                    624A    867 _CHIPID	=	0x624a
                    624B    868 _TESTREG0	=	0x624b
                    6260    869 _DBGDATA	=	0x6260
                    6262    870 _SRCRC	=	0x6262
                    6264    871 _BATTMON	=	0x6264
                    6265    872 _IVCTRL	=	0x6265
                    6270    873 _FCTL	=	0x6270
                    6271    874 _FADDRL	=	0x6271
                    6272    875 _FADDRH	=	0x6272
                    6273    876 _FWDATA	=	0x6273
                    6276    877 _CHIPINFO0	=	0x6276
                    6277    878 _CHIPINFO1	=	0x6277
                    6281    879 _IRCTL	=	0x6281
                    6290    880 _CLD	=	0x6290
                    62A0    881 _XX_T1CCTL0	=	0x62a0
                    62A1    882 _XX_T1CCTL1	=	0x62a1
                    62A2    883 _XX_T1CCTL2	=	0x62a2
                    62A3    884 _T1CCTL3	=	0x62a3
                    62A4    885 _T1CCTL4	=	0x62a4
                    62A6    886 _XX_T1CC0L	=	0x62a6
                    62A7    887 _XX_T1CC0H	=	0x62a7
                    62A8    888 _XX_T1CC1L	=	0x62a8
                    62A9    889 _XX_T1CC1H	=	0x62a9
                    62AA    890 _XX_T1CC2L	=	0x62aa
                    62AB    891 _XX_T1CC2H	=	0x62ab
                    62AC    892 _T1CC3L	=	0x62ac
                    62AD    893 _T1CC3H	=	0x62ad
                    62AE    894 _T1CC4L	=	0x62ae
                    62AF    895 _T1CC4H	=	0x62af
                    62B0    896 _STCC	=	0x62b0
                    62B1    897 _STCS	=	0x62b1
                    62B2    898 _STCV0	=	0x62b2
                    62B3    899 _STCV1	=	0x62b3
                    62B4    900 _STCV2	=	0x62b4
                    62C0    901 _OPAMPC	=	0x62c0
                    62C1    902 _OPAMPS	=	0x62c1
                    62D0    903 _CMPCTL	=	0x62d0
                    6000    904 _RFCORE_RAM	=	0x6000
                    6000    905 _RXFIFO	=	0x6000
                    6080    906 _TXFIFO	=	0x6080
                    6100    907 _SRC_ADDR_TABLE	=	0x6100
                    6160    908 _SRCRESMASK0	=	0x6160
                    6161    909 _SRCRESMASK1	=	0x6161
                    6162    910 _SRCRESMASK2	=	0x6162
                    6163    911 _SRCRESINDEX	=	0x6163
                    6164    912 _SRCEXTPENDEN0	=	0x6164
                    6165    913 _SRCEXTPENDEN1	=	0x6165
                    6166    914 _SRCEXTPENDEN2	=	0x6166
                    6167    915 _SRCSHORTPENDEN0	=	0x6167
                    6168    916 _SRCSHORTPENDEN1	=	0x6168
                    6169    917 _SRCSHORTPENDEN2	=	0x6169
                    616A    918 _EXT_ADDR0	=	0x616a
                    616B    919 _EXT_ADDR1	=	0x616b
                    616C    920 _EXT_ADDR2	=	0x616c
                    616D    921 _EXT_ADDR3	=	0x616d
                    616E    922 _EXT_ADDR4	=	0x616e
                    616F    923 _EXT_ADDR5	=	0x616f
                    6170    924 _EXT_ADDR6	=	0x6170
                    6171    925 _EXT_ADDR7	=	0x6171
                    6172    926 _PAN_ID0	=	0x6172
                    6173    927 _PAN_ID1	=	0x6173
                    6174    928 _SHORT_ADDR0	=	0x6174
                    6175    929 _SHORT_ADDR1	=	0x6175
                    6180    930 _FRMFILT0	=	0x6180
                    6181    931 _FRMFILT1	=	0x6181
                    6182    932 _SRCMATCH	=	0x6182
                    6183    933 _SRCSHORTEN0	=	0x6183
                    6184    934 _SRCSHORTEN1	=	0x6184
                    6185    935 _SRCSHORTEN2	=	0x6185
                    6186    936 _SRCEXTEN0	=	0x6186
                    6187    937 _SRCEXTEN1	=	0x6187
                    6188    938 _SRCEXTEN2	=	0x6188
                    6189    939 _FRMCTRL0	=	0x6189
                    618A    940 _FRMCTRL1	=	0x618a
                    618B    941 _RXENABLE	=	0x618b
                    618C    942 _RXMASKSET	=	0x618c
                    618D    943 _RXMASKCLR	=	0x618d
                    618E    944 _FREQTUNE	=	0x618e
                    618F    945 _FREQCTRL	=	0x618f
                    6190    946 _TXPOWER	=	0x6190
                    6191    947 _TXCTRL	=	0x6191
                    6192    948 _FSMSTAT0	=	0x6192
                    6193    949 _FSMSTAT1	=	0x6193
                    6194    950 _FIFOPCTRL	=	0x6194
                    6195    951 _FSMCTRL	=	0x6195
                    6196    952 _CCACTRL0	=	0x6196
                    6197    953 _CCACTRL1	=	0x6197
                    6198    954 _RSSI	=	0x6198
                    6199    955 _RSSISTAT	=	0x6199
                    619A    956 _RXFIRST	=	0x619a
                    619B    957 _RXFIFOCNT	=	0x619b
                    619C    958 _TXFIFOCNT	=	0x619c
                    619D    959 _RXFIRST_PTR	=	0x619d
                    619E    960 _RXLAST_PTR	=	0x619e
                    619F    961 _RXP1_PTR	=	0x619f
                    61A1    962 _TXFIRST_PTR	=	0x61a1
                    61A2    963 _TXLAST_PTR	=	0x61a2
                    61A3    964 _RFIRQM0	=	0x61a3
                    61A4    965 _RFIRQM1	=	0x61a4
                    61A5    966 _RFERRM	=	0x61a5
                    61A7    967 _RFRND	=	0x61a7
                    61A8    968 _MDMCTRL0	=	0x61a8
                    61A9    969 _MDMCTRL1	=	0x61a9
                    61AA    970 _FREQEST	=	0x61aa
                    61AB    971 _RXCTRL	=	0x61ab
                    61AC    972 _FSCTRL	=	0x61ac
                    61AD    973 _FSCAL0	=	0x61ad
                    61AE    974 _FSCAL1	=	0x61ae
                    61AF    975 _FSCAL2	=	0x61af
                    61B0    976 _FSCAL3	=	0x61b0
                    61B1    977 _AGCCTRL0	=	0x61b1
                    61B2    978 _AGCCTRL1	=	0x61b2
                    61B3    979 _AGCCTRL2	=	0x61b3
                    61B4    980 _AGCCTRL3	=	0x61b4
                    61B5    981 _ADCTEST0	=	0x61b5
                    61B6    982 _ADCTEST1	=	0x61b6
                    61B7    983 _ADCTEST2	=	0x61b7
                    61B8    984 _MDMTEST0	=	0x61b8
                    61B9    985 _MDMTEST1	=	0x61b9
                    61BA    986 _DACTEST0	=	0x61ba
                    61BB    987 _DACTEST1	=	0x61bb
                    61BC    988 _DACTEST2	=	0x61bc
                    61BD    989 _ATEST	=	0x61bd
                    61BE    990 _PTEST0	=	0x61be
                    61BF    991 _PTEST1	=	0x61bf
                    61FA    992 _TXFILTCFG	=	0x61fa
                    61EB    993 _RFC_OBS_CTRL0	=	0x61eb
                    61EC    994 _RFC_OBS_CTRL1	=	0x61ec
                    61ED    995 _RFC_OBS_CTRL2	=	0x61ed
                    61C0    996 _CSPPROG0	=	0x61c0
                    61C1    997 _CSPPROG1	=	0x61c1
                    61C2    998 _CSPPROG2	=	0x61c2
                    61C3    999 _CSPPROG3	=	0x61c3
                    61C4   1000 _CSPPROG4	=	0x61c4
                    61C5   1001 _CSPPROG5	=	0x61c5
                    61C6   1002 _CSPPROG6	=	0x61c6
                    61C7   1003 _CSPPROG7	=	0x61c7
                    61C8   1004 _CSPPROG8	=	0x61c8
                    61C9   1005 _CSPPROG9	=	0x61c9
                    61CA   1006 _CSPPROG10	=	0x61ca
                    61CB   1007 _CSPPROG11	=	0x61cb
                    61CC   1008 _CSPPROG12	=	0x61cc
                    61CD   1009 _CSPPROG13	=	0x61cd
                    61CE   1010 _CSPPROG14	=	0x61ce
                    61CF   1011 _CSPPROG15	=	0x61cf
                    61D0   1012 _CSPPROG16	=	0x61d0
                    61D1   1013 _CSPPROG17	=	0x61d1
                    61D2   1014 _CSPPROG18	=	0x61d2
                    61D3   1015 _CSPPROG19	=	0x61d3
                    61D4   1016 _CSPPROG20	=	0x61d4
                    61D5   1017 _CSPPROG21	=	0x61d5
                    61D6   1018 _CSPPROG22	=	0x61d6
                    61D7   1019 _CSPPROG23	=	0x61d7
                    61E0   1020 _CSPCTRL	=	0x61e0
                    61E1   1021 _CSPSTAT	=	0x61e1
                    61E2   1022 _CSPX	=	0x61e2
                    61E3   1023 _CSPY	=	0x61e3
                    61E4   1024 _CSPZ	=	0x61e4
                    61E5   1025 _CSPT	=	0x61e5
                    6200   1026 _USBADDR	=	0x6200
                    6201   1027 _USBPOW	=	0x6201
                    6202   1028 _USBIIF	=	0x6202
                    6204   1029 _USBOIF	=	0x6204
                    6206   1030 _USBCIF	=	0x6206
                    6207   1031 _USBIIE	=	0x6207
                    6209   1032 _USBOIE	=	0x6209
                    620B   1033 _USBCIE	=	0x620b
                    620C   1034 _USBFRML	=	0x620c
                    620D   1035 _USBFRMH	=	0x620d
                    620E   1036 _USBINDEX	=	0x620e
                    620F   1037 _USBCTRL	=	0x620f
                    6210   1038 _USBMAXI	=	0x6210
                    6211   1039 _USBCS0	=	0x6211
                    6211   1040 _USBCSIL	=	0x6211
                    6212   1041 _USBCSIH	=	0x6212
                    6213   1042 _USBMAXO	=	0x6213
                    6214   1043 _USBCSOL	=	0x6214
                    6215   1044 _USBCSOH	=	0x6215
                    6216   1045 _USBCNT0	=	0x6216
                    6216   1046 _USBCNTL	=	0x6216
                    6217   1047 _USBCNTH	=	0x6217
                    6220   1048 _USBF0	=	0x6220
                    6222   1049 _USBF1	=	0x6222
                    6224   1050 _USBF2	=	0x6224
                    6226   1051 _USBF3	=	0x6226
                    6228   1052 _USBF4	=	0x6228
                    622A   1053 _USBF5	=	0x622a
                    7080   1054 _X_P0	=	0x7080
                    7086   1055 _X_U0CSR	=	0x7086
                    7089   1056 _X_P0IFG	=	0x7089
                    708A   1057 _X_P1IFG	=	0x708a
                    708B   1058 _X_P2IFG	=	0x708b
                    708C   1059 _X_PICTL	=	0x708c
                    708D   1060 _X_P1IEN	=	0x708d
                    708F   1061 _X_P0INP	=	0x708f
                    7090   1062 _X_P1	=	0x7090
                    7091   1063 _X_RFIRQF1	=	0x7091
                    7093   1064 _X_MPAGE	=	0x7093
                    7093   1065 _X__XPAGE	=	0x7093
                    7094   1066 _X_T2CTRL	=	0x7094
                    7095   1067 _X_ST0	=	0x7095
                    7096   1068 _X_ST1	=	0x7096
                    7097   1069 _X_ST2	=	0x7097
                    709C   1070 _X_T2EVTCFG	=	0x709c
                    709D   1071 _X_SLEEPSTA	=	0x709d
                    709E   1072 _X_CLKCONSTA	=	0x709e
                    709F   1073 _X_FMAP	=	0x709f
                    709F   1074 _X_PSBANK	=	0x709f
                    70A0   1075 _X_P2	=	0x70a0
                    70A1   1076 _X_T2IRQF	=	0x70a1
                    70A2   1077 _X_T2M0	=	0x70a2
                    70A3   1078 _X_T2M1	=	0x70a3
                    70A4   1079 _X_T2MOVF0	=	0x70a4
                    70A5   1080 _X_T2MOVF1	=	0x70a5
                    70A6   1081 _X_T2MOVF2	=	0x70a6
                    70A7   1082 _X_T2IRQM	=	0x70a7
                    70AB   1083 _X_P0IEN	=	0x70ab
                    70AC   1084 _X_P2IEN	=	0x70ac
                    70AD   1085 _X_STLOAD	=	0x70ad
                    70AE   1086 _X_PMUX	=	0x70ae
                    70AF   1087 _X_T1STAT	=	0x70af
                    70B1   1088 _X_ENCDI	=	0x70b1
                    70B2   1089 _X_ENCDO	=	0x70b2
                    70B3   1090 _X_ENCCS	=	0x70b3
                    70B4   1091 _X_ADCCON1	=	0x70b4
                    70B5   1092 _X_ADCCON2	=	0x70b5
                    70B6   1093 _X_ADCCON3	=	0x70b6
                    70BA   1094 _X_ADCL	=	0x70ba
                    70BB   1095 _X_ADCH	=	0x70bb
                    70BC   1096 _X_RNDL	=	0x70bc
                    70BD   1097 _X_RNDH	=	0x70bd
                    70BE   1098 _X_SLEEPCMD	=	0x70be
                    70BF   1099 _X_RFERRF	=	0x70bf
                    70C1   1100 _X_U0DBUF	=	0x70c1
                    70C2   1101 _X_U0BAUD	=	0x70c2
                    70C3   1102 _X_T2MSEL	=	0x70c3
                    70C4   1103 _X_U0UCR	=	0x70c4
                    70C5   1104 _X_U0GCR	=	0x70c5
                    70C6   1105 _X_CLKCONCMD	=	0x70c6
                    70C7   1106 _X_MEMCTR	=	0x70c7
                    70C9   1107 _X_WDCTL	=	0x70c9
                    70CA   1108 _X_T3CNT	=	0x70ca
                    70CB   1109 _X_T3CTL	=	0x70cb
                    70CC   1110 _X_T3CCTL0	=	0x70cc
                    70CD   1111 _X_T3CC0	=	0x70cd
                    70CE   1112 _X_T3CCTL1	=	0x70ce
                    70CF   1113 _X_T3CC1	=	0x70cf
                    70D1   1114 _X_DMAIRQ	=	0x70d1
                    70D2   1115 _X_DMA1CFGL	=	0x70d2
                    70D3   1116 _X_DMA1CFGH	=	0x70d3
                    70D4   1117 _X_DMA0CFGL	=	0x70d4
                    70D5   1118 _X_DMA0CFGH	=	0x70d5
                    70D6   1119 _X_DMAARM	=	0x70d6
                    70D7   1120 _X_DMAREQ	=	0x70d7
                    70D8   1121 _X_TIMIF	=	0x70d8
                    70D9   1122 _X_RFD	=	0x70d9
                    70DA   1123 _X_T1CC0L	=	0x70da
                    70DB   1124 _X_T1CC0H	=	0x70db
                    70DC   1125 _X_T1CC1L	=	0x70dc
                    70DD   1126 _X_T1CC1H	=	0x70dd
                    70DE   1127 _X_T1CC2L	=	0x70de
                    70DF   1128 _X_T1CC2H	=	0x70df
                    70E1   1129 _X_RFST	=	0x70e1
                    70E2   1130 _X_T1CNTL	=	0x70e2
                    70E3   1131 _X_T1CNTH	=	0x70e3
                    70E4   1132 _X_T1CTL	=	0x70e4
                    70E5   1133 _X_T1CCTL0	=	0x70e5
                    70E6   1134 _X_T1CCTL1	=	0x70e6
                    70E7   1135 _X_T1CCTL2	=	0x70e7
                    70E9   1136 _X_RFIRQF0	=	0x70e9
                    70EA   1137 _X_T4CNT	=	0x70ea
                    70EB   1138 _X_T4CTL	=	0x70eb
                    70EC   1139 _X_T4CCTL0	=	0x70ec
                    70ED   1140 _X_T4CC0	=	0x70ed
                    70EE   1141 _X_T4CCTL1	=	0x70ee
                    70EF   1142 _X_T4CC1	=	0x70ef
                    70F1   1143 _X_PERCFG	=	0x70f1
                    70F2   1144 _X_APCFG	=	0x70f2
                    70F3   1145 _X_P0SEL	=	0x70f3
                    70F4   1146 _X_P1SEL	=	0x70f4
                    70F5   1147 _X_P2SEL	=	0x70f5
                    70F6   1148 _X_P1INP	=	0x70f6
                    70F7   1149 _X_P2INP	=	0x70f7
                    70F8   1150 _X_U1CSR	=	0x70f8
                    70F9   1151 _X_U1DBUF	=	0x70f9
                    70FA   1152 _X_U1BAUD	=	0x70fa
                    70FB   1153 _X_U1UCR	=	0x70fb
                    70FC   1154 _X_U1GCR	=	0x70fc
                    70FD   1155 _X_P0DIR	=	0x70fd
                    70FE   1156 _X_P1DIR	=	0x70fe
                    70FF   1157 _X_P2DIR	=	0x70ff
                    7800   1158 _X_INFOPAGE	=	0x7800
                    780C   1159 _X_IEEE_ADDR	=	0x780c
   0000                    1160 _uip_ds6_timer_periodic::
   0000                    1161 	.ds 10
   000A                    1162 _uip_ds6_timer_ra::
   000A                    1163 	.ds 8
   0012                    1164 _uip_ds6_if::
   0012                    1165 	.ds 221
   00EF                    1166 _uip_ds6_nbr_cache::
   00EF                    1167 	.ds 184
   01A7                    1168 _uip_ds6_prefix_list::
   01A7                    1169 	.ds 84
   01FB                    1170 _uip_ds6_addr_size::
   01FB                    1171 	.ds 1
   01FC                    1172 _uip_ds6_netif_addr_list_offset::
   01FC                    1173 	.ds 1
   01FD                    1174 _loc_fipaddr:
   01FD                    1175 	.ds 16
   020D                    1176 _locaddr:
   020D                    1177 	.ds 3
   0210                    1178 _locmaddr:
   0210                    1179 	.ds 3
   0213                    1180 _locaaddr:
   0213                    1181 	.ds 3
   0216                    1182 _locprefix:
   0216                    1183 	.ds 3
   0219                    1184 _locnbr:
   0219                    1185 	.ds 3
   021C                    1186 _locdefrt:
   021C                    1187 	.ds 3
                           1188 ;--------------------------------------------------------
                           1189 ; absolute external ram data
                           1190 ;--------------------------------------------------------
                           1191 	.area XABS    (ABS,XDATA)
                           1192 ;--------------------------------------------------------
                           1193 ; external initialized ram data
                           1194 ;--------------------------------------------------------
                           1195 	.area XISEG   (XDATA)
                           1196 	.area HOME    (CODE)
                           1197 	.area GSINIT0 (CODE)
                           1198 	.area GSINIT1 (CODE)
                           1199 	.area GSINIT2 (CODE)
                           1200 	.area GSINIT3 (CODE)
                           1201 	.area GSINIT4 (CODE)
                           1202 	.area GSINIT5 (CODE)
                           1203 	.area GSINIT  (CODE)
                           1204 	.area GSFINAL (CODE)
                           1205 	.area CSEG    (CODE)
                           1206 ;--------------------------------------------------------
                           1207 ; global & static initialisations
                           1208 ;--------------------------------------------------------
                           1209 	.area HOME    (CODE)
                           1210 	.area GSINIT  (CODE)
                           1211 	.area GSFINAL (CODE)
                           1212 	.area GSINIT  (CODE)
                           1213 ;--------------------------------------------------------
                           1214 ; Home
                           1215 ;--------------------------------------------------------
                           1216 	.area HOME    (CODE)
                           1217 	.area HOME    (CODE)
                           1218 ;--------------------------------------------------------
                           1219 ; code
                           1220 ;--------------------------------------------------------
                           1221 	.area BANK1   (CODE)
                           1222 ;------------------------------------------------------------
                           1223 ;Allocation info for local variables in function 'uip_ds6_init'
                           1224 ;------------------------------------------------------------
                           1225 ;	../../../contiki-sensinode//core/net/uip-ds6.c:101: uip_ds6_init(void)
                           1226 ;	-----------------------------------------
                           1227 ;	 function uip_ds6_init
                           1228 ;	-----------------------------------------
   0000                    1229 _uip_ds6_init:
                    0007   1230 	ar7 = 0x07
                    0006   1231 	ar6 = 0x06
                    0005   1232 	ar5 = 0x05
                    0004   1233 	ar4 = 0x04
                    0003   1234 	ar3 = 0x03
                    0002   1235 	ar2 = 0x02
                    0001   1236 	ar1 = 0x01
                    0000   1237 	ar0 = 0x00
                           1238 ;	../../../contiki-sensinode//core/net/uip-ds6.c:104: uip_ds6_route_init();
   0000 78r00              1239 	mov	r0,#_uip_ds6_route_init
   0002 79s00              1240 	mov	r1,#(_uip_ds6_route_init >> 8)
   0004 7As00              1241 	mov	r2,#(_uip_ds6_route_init >> 16)
   0006 12s00r00           1242 	lcall	__sdcc_banked_call
                           1243 ;	../../../contiki-sensinode//core/net/uip-ds6.c:110: memset(uip_ds6_nbr_cache, 0, sizeof(uip_ds6_nbr_cache));
   0009 74 B8              1244 	mov	a,#0xB8
   000B C0 E0              1245 	push	acc
   000D E4                 1246 	clr	a
   000E C0 E0              1247 	push	acc
   0010 E4                 1248 	clr	a
   0011 C0 E0              1249 	push	acc
   0013 90s00rEF           1250 	mov	dptr,#_uip_ds6_nbr_cache
   0016 75 F0 00           1251 	mov	b,#0x00
   0019 78r00              1252 	mov	r0,#_memset
   001B 79s00              1253 	mov	r1,#(_memset >> 8)
   001D 7As00              1254 	mov	r2,#(_memset >> 16)
   001F 12s00r00           1255 	lcall	__sdcc_banked_call
   0022 15 81              1256 	dec	sp
   0024 15 81              1257 	dec	sp
   0026 15 81              1258 	dec	sp
                           1259 ;	../../../contiki-sensinode//core/net/uip-ds6.c:112: memset(uip_ds6_prefix_list, 0, sizeof(uip_ds6_prefix_list));
   0028 74 54              1260 	mov	a,#0x54
   002A C0 E0              1261 	push	acc
   002C E4                 1262 	clr	a
   002D C0 E0              1263 	push	acc
   002F E4                 1264 	clr	a
   0030 C0 E0              1265 	push	acc
   0032 90s01rA7           1266 	mov	dptr,#_uip_ds6_prefix_list
   0035 75 F0 00           1267 	mov	b,#0x00
   0038 78r00              1268 	mov	r0,#_memset
   003A 79s00              1269 	mov	r1,#(_memset >> 8)
   003C 7As00              1270 	mov	r2,#(_memset >> 16)
   003E 12s00r00           1271 	lcall	__sdcc_banked_call
   0041 15 81              1272 	dec	sp
   0043 15 81              1273 	dec	sp
   0045 15 81              1274 	dec	sp
                           1275 ;	../../../contiki-sensinode//core/net/uip-ds6.c:113: memset(&uip_ds6_if, 0, sizeof(uip_ds6_if));
   0047 74 DD              1276 	mov	a,#0xDD
   0049 C0 E0              1277 	push	acc
   004B E4                 1278 	clr	a
   004C C0 E0              1279 	push	acc
   004E E4                 1280 	clr	a
   004F C0 E0              1281 	push	acc
   0051 90s00r12           1282 	mov	dptr,#_uip_ds6_if
   0054 75 F0 00           1283 	mov	b,#0x00
   0057 78r00              1284 	mov	r0,#_memset
   0059 79s00              1285 	mov	r1,#(_memset >> 8)
   005B 7As00              1286 	mov	r2,#(_memset >> 16)
   005D 12s00r00           1287 	lcall	__sdcc_banked_call
   0060 15 81              1288 	dec	sp
   0062 15 81              1289 	dec	sp
   0064 15 81              1290 	dec	sp
                           1291 ;	../../../contiki-sensinode//core/net/uip-ds6.c:115: uip_ds6_addr_size = sizeof(struct uip_ds6_addr);
   0066 90s01rFB           1292 	mov	dptr,#_uip_ds6_addr_size
   0069 74 1C              1293 	mov	a,#0x1C
   006B F0                 1294 	movx	@dptr,a
                           1295 ;	../../../contiki-sensinode//core/net/uip-ds6.c:116: uip_ds6_netif_addr_list_offset = offsetof(struct uip_ds6_netif, addr_list);
   006C 90s01rFC           1296 	mov	dptr,#_uip_ds6_netif_addr_list_offset
   006F 74 12              1297 	mov	a,#0x12
   0071 F0                 1298 	movx	@dptr,a
                           1299 ;	../../../contiki-sensinode//core/net/uip-ds6.c:119: uip_ds6_if.link_mtu = UIP_LINK_MTU;
   0072 90s00r12           1300 	mov	dptr,#_uip_ds6_if
   0075 E4                 1301 	clr	a
   0076 F0                 1302 	movx	@dptr,a
   0077 A3                 1303 	inc	dptr
   0078 74 05              1304 	mov	a,#0x05
   007A F0                 1305 	movx	@dptr,a
   007B A3                 1306 	inc	dptr
   007C E4                 1307 	clr	a
   007D F0                 1308 	movx	@dptr,a
   007E A3                 1309 	inc	dptr
   007F F0                 1310 	movx	@dptr,a
                           1311 ;	../../../contiki-sensinode//core/net/uip-ds6.c:120: uip_ds6_if.cur_hop_limit = UIP_TTL;
   0080 90s00r16           1312 	mov	dptr,#(_uip_ds6_if + 0x0004)
   0083 74 40              1313 	mov	a,#0x40
   0085 F0                 1314 	movx	@dptr,a
                           1315 ;	../../../contiki-sensinode//core/net/uip-ds6.c:121: uip_ds6_if.base_reachable_time = UIP_ND6_REACHABLE_TIME;
   0086 90s00r17           1316 	mov	dptr,#(_uip_ds6_if + 0x0005)
   0089 74 C0              1317 	mov	a,#0xC0
   008B F0                 1318 	movx	@dptr,a
   008C A3                 1319 	inc	dptr
   008D 74 27              1320 	mov	a,#0x27
   008F F0                 1321 	movx	@dptr,a
   0090 A3                 1322 	inc	dptr
   0091 74 09              1323 	mov	a,#0x09
   0093 F0                 1324 	movx	@dptr,a
   0094 A3                 1325 	inc	dptr
   0095 E4                 1326 	clr	a
   0096 F0                 1327 	movx	@dptr,a
                           1328 ;	../../../contiki-sensinode//core/net/uip-ds6.c:122: uip_ds6_if.reachable_time = uip_ds6_compute_reachable_time();
   0097 78r1A              1329 	mov	r0,#_uip_ds6_compute_reachable_time
   0099 79s1C              1330 	mov	r1,#(_uip_ds6_compute_reachable_time >> 8)
   009B 7As00              1331 	mov	r2,#(_uip_ds6_compute_reachable_time >> 16)
   009D 12s00r00           1332 	lcall	__sdcc_banked_call
   00A0 AC 82              1333 	mov	r4,dpl
   00A2 AD 83              1334 	mov	r5,dph
   00A4 AE F0              1335 	mov	r6,b
   00A6 FF                 1336 	mov	r7,a
   00A7 90s00r1B           1337 	mov	dptr,#(_uip_ds6_if + 0x0009)
   00AA EC                 1338 	mov	a,r4
   00AB F0                 1339 	movx	@dptr,a
   00AC A3                 1340 	inc	dptr
   00AD ED                 1341 	mov	a,r5
   00AE F0                 1342 	movx	@dptr,a
   00AF A3                 1343 	inc	dptr
   00B0 EE                 1344 	mov	a,r6
   00B1 F0                 1345 	movx	@dptr,a
   00B2 A3                 1346 	inc	dptr
   00B3 EF                 1347 	mov	a,r7
   00B4 F0                 1348 	movx	@dptr,a
                           1349 ;	../../../contiki-sensinode//core/net/uip-ds6.c:123: uip_ds6_if.retrans_timer = UIP_ND6_RETRANS_TIMER;
   00B5 90s00r1F           1350 	mov	dptr,#(_uip_ds6_if + 0x000d)
   00B8 74 10              1351 	mov	a,#0x10
   00BA F0                 1352 	movx	@dptr,a
   00BB A3                 1353 	inc	dptr
   00BC 74 27              1354 	mov	a,#0x27
   00BE F0                 1355 	movx	@dptr,a
   00BF A3                 1356 	inc	dptr
                           1357 ;	../../../contiki-sensinode//core/net/uip-ds6.c:124: uip_ds6_if.maxdadns = UIP_ND6_DEF_MAXDADNS;
   00C0 E4                 1358 	clr	a
   00C1 F0                 1359 	movx	@dptr,a
   00C2 A3                 1360 	inc	dptr
   00C3 F0                 1361 	movx	@dptr,a
   00C4 90s00r23           1362 	mov	dptr,#(_uip_ds6_if + 0x0011)
   00C7 F0                 1363 	movx	@dptr,a
                           1364 ;	../../../contiki-sensinode//core/net/uip-ds6.c:127: uip_create_linklocal_prefix(&loc_fipaddr);
   00C8 90s01rFD           1365 	mov	dptr,#_loc_fipaddr
   00CB 74 FE              1366 	mov	a,#0xFE
   00CD F0                 1367 	movx	@dptr,a
   00CE A3                 1368 	inc	dptr
   00CF 74 80              1369 	mov	a,#0x80
   00D1 F0                 1370 	movx	@dptr,a
   00D2 90s01rFF           1371 	mov	dptr,#(_loc_fipaddr + 0x0002)
   00D5 E4                 1372 	clr	a
   00D6 F0                 1373 	movx	@dptr,a
   00D7 A3                 1374 	inc	dptr
   00D8 F0                 1375 	movx	@dptr,a
   00D9 90s02r01           1376 	mov	dptr,#(_loc_fipaddr + 0x0004)
   00DC F0                 1377 	movx	@dptr,a
   00DD A3                 1378 	inc	dptr
   00DE E4                 1379 	clr	a
   00DF F0                 1380 	movx	@dptr,a
   00E0 90s02r03           1381 	mov	dptr,#(_loc_fipaddr + 0x0006)
   00E3 F0                 1382 	movx	@dptr,a
   00E4 A3                 1383 	inc	dptr
   00E5 E4                 1384 	clr	a
   00E6 F0                 1385 	movx	@dptr,a
                           1386 ;	../../../contiki-sensinode//core/net/uip-ds6.c:129: uip_ds6_prefix_add(&loc_fipaddr, UIP_DEFAULT_PREFIX_LEN, 0, 0, 0, 0);
   00E7 E4                 1387 	clr	a
   00E8 C0 E0              1388 	push	acc
   00EA C0 E0              1389 	push	acc
   00EC C0 E0              1390 	push	acc
   00EE C0 E0              1391 	push	acc
   00F0 E4                 1392 	clr	a
   00F1 C0 E0              1393 	push	acc
   00F3 C0 E0              1394 	push	acc
   00F5 C0 E0              1395 	push	acc
   00F7 C0 E0              1396 	push	acc
   00F9 E4                 1397 	clr	a
   00FA C0 E0              1398 	push	acc
   00FC E4                 1399 	clr	a
   00FD C0 E0              1400 	push	acc
   00FF 74 40              1401 	mov	a,#0x40
   0101 C0 E0              1402 	push	acc
   0103 90s01rFD           1403 	mov	dptr,#_loc_fipaddr
   0106 75 F0 00           1404 	mov	b,#0x00
   0109 78r4B              1405 	mov	r0,#_uip_ds6_prefix_add
   010B 79s0E              1406 	mov	r1,#(_uip_ds6_prefix_add >> 8)
   010D 7As00              1407 	mov	r2,#(_uip_ds6_prefix_add >> 16)
   010F 12s00r00           1408 	lcall	__sdcc_banked_call
   0112 E5 81              1409 	mov	a,sp
   0114 24 F5              1410 	add	a,#0xf5
   0116 F5 81              1411 	mov	sp,a
                           1412 ;	../../../contiki-sensinode//core/net/uip-ds6.c:133: uip_ds6_set_addr_iid(&loc_fipaddr, &uip_lladdr);
   0118 74r00              1413 	mov	a,#_uip_lladdr
   011A C0 E0              1414 	push	acc
   011C 74s00              1415 	mov	a,#(_uip_lladdr >> 8)
   011E C0 E0              1416 	push	acc
   0120 E4                 1417 	clr	a
   0121 C0 E0              1418 	push	acc
   0123 90s01rFD           1419 	mov	dptr,#_loc_fipaddr
   0126 75 F0 00           1420 	mov	b,#0x00
   0129 78rF6              1421 	mov	r0,#_uip_ds6_set_addr_iid
   012B 79s1A              1422 	mov	r1,#(_uip_ds6_set_addr_iid >> 8)
   012D 7As00              1423 	mov	r2,#(_uip_ds6_set_addr_iid >> 16)
   012F 12s00r00           1424 	lcall	__sdcc_banked_call
   0132 15 81              1425 	dec	sp
   0134 15 81              1426 	dec	sp
   0136 15 81              1427 	dec	sp
                           1428 ;	../../../contiki-sensinode//core/net/uip-ds6.c:134: uip_ds6_addr_add(&loc_fipaddr, 0, ADDR_AUTOCONF);
   0138 74 01              1429 	mov	a,#0x01
   013A C0 E0              1430 	push	acc
   013C E4                 1431 	clr	a
   013D C0 E0              1432 	push	acc
   013F C0 E0              1433 	push	acc
   0141 C0 E0              1434 	push	acc
   0143 C0 E0              1435 	push	acc
   0145 90s01rFD           1436 	mov	dptr,#_loc_fipaddr
   0148 75 F0 00           1437 	mov	b,#0x00
   014B 78rF5              1438 	mov	r0,#_uip_ds6_addr_add
   014D 79s10              1439 	mov	r1,#(_uip_ds6_addr_add >> 8)
   014F 7As00              1440 	mov	r2,#(_uip_ds6_addr_add >> 16)
   0151 12s00r00           1441 	lcall	__sdcc_banked_call
   0154 E5 81              1442 	mov	a,sp
   0156 24 FB              1443 	add	a,#0xfb
   0158 F5 81              1444 	mov	sp,a
                           1445 ;	../../../contiki-sensinode//core/net/uip-ds6.c:136: uip_create_linklocal_allnodes_mcast(&loc_fipaddr);
   015A 90s01rFD           1446 	mov	dptr,#_loc_fipaddr
   015D 74 FF              1447 	mov	a,#0xFF
   015F F0                 1448 	movx	@dptr,a
   0160 A3                 1449 	inc	dptr
   0161 74 02              1450 	mov	a,#0x02
   0163 F0                 1451 	movx	@dptr,a
   0164 90s01rFF           1452 	mov	dptr,#(_loc_fipaddr + 0x0002)
   0167 E4                 1453 	clr	a
   0168 F0                 1454 	movx	@dptr,a
   0169 A3                 1455 	inc	dptr
   016A F0                 1456 	movx	@dptr,a
   016B 90s02r01           1457 	mov	dptr,#(_loc_fipaddr + 0x0004)
   016E F0                 1458 	movx	@dptr,a
   016F A3                 1459 	inc	dptr
   0170 E4                 1460 	clr	a
   0171 F0                 1461 	movx	@dptr,a
   0172 90s02r03           1462 	mov	dptr,#(_loc_fipaddr + 0x0006)
   0175 F0                 1463 	movx	@dptr,a
   0176 A3                 1464 	inc	dptr
   0177 E4                 1465 	clr	a
   0178 F0                 1466 	movx	@dptr,a
   0179 90s02r05           1467 	mov	dptr,#(_loc_fipaddr + 0x0008)
   017C F0                 1468 	movx	@dptr,a
   017D A3                 1469 	inc	dptr
   017E E4                 1470 	clr	a
   017F F0                 1471 	movx	@dptr,a
   0180 90s02r07           1472 	mov	dptr,#(_loc_fipaddr + 0x000a)
   0183 F0                 1473 	movx	@dptr,a
   0184 A3                 1474 	inc	dptr
   0185 E4                 1475 	clr	a
   0186 F0                 1476 	movx	@dptr,a
   0187 90s02r09           1477 	mov	dptr,#(_loc_fipaddr + 0x000c)
   018A F0                 1478 	movx	@dptr,a
   018B A3                 1479 	inc	dptr
   018C E4                 1480 	clr	a
   018D F0                 1481 	movx	@dptr,a
   018E 90s02r0B           1482 	mov	dptr,#(_loc_fipaddr + 0x000e)
   0191 F0                 1483 	movx	@dptr,a
   0192 A3                 1484 	inc	dptr
   0193 74 01              1485 	mov	a,#0x01
   0195 F0                 1486 	movx	@dptr,a
                           1487 ;	../../../contiki-sensinode//core/net/uip-ds6.c:137: uip_ds6_maddr_add(&loc_fipaddr);
   0196 90s01rFD           1488 	mov	dptr,#_loc_fipaddr
   0199 75 F0 00           1489 	mov	b,#0x00
   019C 78rAA              1490 	mov	r0,#_uip_ds6_maddr_add
   019E 79s15              1491 	mov	r1,#(_uip_ds6_maddr_add >> 8)
   01A0 7As00              1492 	mov	r2,#(_uip_ds6_maddr_add >> 16)
   01A2 12s00r00           1493 	lcall	__sdcc_banked_call
                           1494 ;	../../../contiki-sensinode//core/net/uip-ds6.c:139: uip_create_linklocal_allrouters_mcast(&loc_fipaddr);
   01A5 90s01rFD           1495 	mov	dptr,#_loc_fipaddr
   01A8 74 FF              1496 	mov	a,#0xFF
   01AA F0                 1497 	movx	@dptr,a
   01AB A3                 1498 	inc	dptr
   01AC 74 02              1499 	mov	a,#0x02
   01AE F0                 1500 	movx	@dptr,a
   01AF 90s01rFF           1501 	mov	dptr,#(_loc_fipaddr + 0x0002)
   01B2 E4                 1502 	clr	a
   01B3 F0                 1503 	movx	@dptr,a
   01B4 A3                 1504 	inc	dptr
   01B5 F0                 1505 	movx	@dptr,a
   01B6 90s02r01           1506 	mov	dptr,#(_loc_fipaddr + 0x0004)
   01B9 F0                 1507 	movx	@dptr,a
   01BA A3                 1508 	inc	dptr
   01BB E4                 1509 	clr	a
   01BC F0                 1510 	movx	@dptr,a
   01BD 90s02r03           1511 	mov	dptr,#(_loc_fipaddr + 0x0006)
   01C0 F0                 1512 	movx	@dptr,a
   01C1 A3                 1513 	inc	dptr
   01C2 E4                 1514 	clr	a
   01C3 F0                 1515 	movx	@dptr,a
   01C4 90s02r05           1516 	mov	dptr,#(_loc_fipaddr + 0x0008)
   01C7 F0                 1517 	movx	@dptr,a
   01C8 A3                 1518 	inc	dptr
   01C9 E4                 1519 	clr	a
   01CA F0                 1520 	movx	@dptr,a
   01CB 90s02r07           1521 	mov	dptr,#(_loc_fipaddr + 0x000a)
   01CE F0                 1522 	movx	@dptr,a
   01CF A3                 1523 	inc	dptr
   01D0 E4                 1524 	clr	a
   01D1 F0                 1525 	movx	@dptr,a
   01D2 90s02r09           1526 	mov	dptr,#(_loc_fipaddr + 0x000c)
   01D5 F0                 1527 	movx	@dptr,a
   01D6 A3                 1528 	inc	dptr
   01D7 E4                 1529 	clr	a
   01D8 F0                 1530 	movx	@dptr,a
   01D9 90s02r0B           1531 	mov	dptr,#(_loc_fipaddr + 0x000e)
   01DC F0                 1532 	movx	@dptr,a
   01DD A3                 1533 	inc	dptr
   01DE 74 02              1534 	mov	a,#0x02
   01E0 F0                 1535 	movx	@dptr,a
                           1536 ;	../../../contiki-sensinode//core/net/uip-ds6.c:140: uip_ds6_maddr_add(&loc_fipaddr);
   01E1 90s01rFD           1537 	mov	dptr,#_loc_fipaddr
   01E4 75 F0 00           1538 	mov	b,#0x00
   01E7 78rAA              1539 	mov	r0,#_uip_ds6_maddr_add
   01E9 79s15              1540 	mov	r1,#(_uip_ds6_maddr_add >> 8)
   01EB 7As00              1541 	mov	r2,#(_uip_ds6_maddr_add >> 16)
   01ED 12s00r00           1542 	lcall	__sdcc_banked_call
                           1543 ;	../../../contiki-sensinode//core/net/uip-ds6.c:149: etimer_set(&uip_ds6_timer_periodic, UIP_DS6_PERIOD);
   01F0 74 0C              1544 	mov	a,#0x0C
   01F2 C0 E0              1545 	push	acc
   01F4 E4                 1546 	clr	a
   01F5 C0 E0              1547 	push	acc
   01F7 90s00r00           1548 	mov	dptr,#_uip_ds6_timer_periodic
   01FA 75 F0 00           1549 	mov	b,#0x00
   01FD 78r00              1550 	mov	r0,#_etimer_set
   01FF 79s00              1551 	mov	r1,#(_etimer_set >> 8)
   0201 7As00              1552 	mov	r2,#(_etimer_set >> 16)
   0203 12s00r00           1553 	lcall	__sdcc_banked_call
   0206 15 81              1554 	dec	sp
   0208 15 81              1555 	dec	sp
                           1556 ;	../../../contiki-sensinode//core/net/uip-ds6.c:151: return;
   020A 02s00r00           1557 	ljmp	__sdcc_banked_ret
                           1558 ;------------------------------------------------------------
                           1559 ;Allocation info for local variables in function 'uip_ds6_periodic'
                           1560 ;------------------------------------------------------------
                           1561 ;sloc0                     Allocated to stack - sp -6
                           1562 ;sloc1                     Allocated to stack - sp -6
                           1563 ;sloc2                     Allocated to stack - sp -3
                           1564 ;------------------------------------------------------------
                           1565 ;	../../../contiki-sensinode//core/net/uip-ds6.c:157: uip_ds6_periodic(void)
                           1566 ;	-----------------------------------------
                           1567 ;	 function uip_ds6_periodic
                           1568 ;	-----------------------------------------
   020D                    1569 _uip_ds6_periodic:
   020D E5 81              1570 	mov	a,sp
   020F 24 07              1571 	add	a,#0x07
   0211 F5 81              1572 	mov	sp,a
                           1573 ;	../../../contiki-sensinode//core/net/uip-ds6.c:161: for(locaddr = uip_ds6_if.addr_list;
   0213 90s02r0D           1574 	mov	dptr,#_locaddr
   0216 74r24              1575 	mov	a,#(_uip_ds6_if + 0x0012)
   0218 F0                 1576 	movx	@dptr,a
   0219 A3                 1577 	inc	dptr
   021A 74s00              1578 	mov	a,#((_uip_ds6_if + 0x0012) >> 8)
   021C F0                 1579 	movx	@dptr,a
   021D A3                 1580 	inc	dptr
   021E E4                 1581 	clr	a
   021F F0                 1582 	movx	@dptr,a
   0220                    1583 00134$:
                           1584 ;	../../../contiki-sensinode//core/net/uip-ds6.c:162: locaddr < uip_ds6_if.addr_list + UIP_DS6_ADDR_NB; locaddr++) {
   0220 90s02r0D           1585 	mov	dptr,#_locaddr
   0223 E0                 1586 	movx	a,@dptr
   0224 FD                 1587 	mov	r5,a
   0225 A3                 1588 	inc	dptr
   0226 E0                 1589 	movx	a,@dptr
   0227 FE                 1590 	mov	r6,a
   0228 A3                 1591 	inc	dptr
   0229 E0                 1592 	movx	a,@dptr
   022A FF                 1593 	mov	r7,a
   022B 74r78              1594 	mov	a,#(_uip_ds6_if + 0x0066)
   022D C0 E0              1595 	push	acc
   022F 74s00              1596 	mov	a,#((_uip_ds6_if + 0x0066) >> 8)
   0231 C0 E0              1597 	push	acc
   0233 E4                 1598 	clr	a
   0234 C0 E0              1599 	push	acc
   0236 8D 82              1600 	mov	dpl,r5
   0238 8E 83              1601 	mov	dph,r6
   023A 8F F0              1602 	mov	b,r7
   023C 12s00r00           1603 	lcall	___gptr_cmp
   023F 15 81              1604 	dec	sp
   0241 15 81              1605 	dec	sp
   0243 15 81              1606 	dec	sp
   0245 50 67              1607 	jnc	00137$
                           1608 ;	../../../contiki-sensinode//core/net/uip-ds6.c:163: if(locaddr->isused) {
   0247 8D 82              1609 	mov	dpl,r5
   0249 8E 83              1610 	mov	dph,r6
   024B 8F F0              1611 	mov	b,r7
   024D 12s00r00           1612 	lcall	__gptrget
   0250 60 4D              1613 	jz	00136$
                           1614 ;	../../../contiki-sensinode//core/net/uip-ds6.c:164: if((!locaddr->isinfinite) && (stimer_expired(&locaddr->vlifetime))) {
   0252 74 13              1615 	mov	a,#0x13
   0254 2D                 1616 	add	a,r5
   0255 FA                 1617 	mov	r2,a
   0256 E4                 1618 	clr	a
   0257 3E                 1619 	addc	a,r6
   0258 FB                 1620 	mov	r3,a
   0259 8F 04              1621 	mov	ar4,r7
   025B 8A 82              1622 	mov	dpl,r2
   025D 8B 83              1623 	mov	dph,r3
   025F 8C F0              1624 	mov	b,r4
   0261 12s00r00           1625 	lcall	__gptrget
   0264 70 39              1626 	jnz	00136$
   0266 74 14              1627 	mov	a,#0x14
   0268 2D                 1628 	add	a,r5
   0269 FD                 1629 	mov	r5,a
   026A E4                 1630 	clr	a
   026B 3E                 1631 	addc	a,r6
   026C FE                 1632 	mov	r6,a
   026D 8D 82              1633 	mov	dpl,r5
   026F 8E 83              1634 	mov	dph,r6
   0271 8F F0              1635 	mov	b,r7
   0273 78r00              1636 	mov	r0,#_stimer_expired
   0275 79s00              1637 	mov	r1,#(_stimer_expired >> 8)
   0277 7As00              1638 	mov	r2,#(_stimer_expired >> 16)
   0279 12s00r00           1639 	lcall	__sdcc_banked_call
   027C E5 82              1640 	mov	a,dpl
   027E 85 83 F0           1641 	mov	b,dph
   0281 45 F0              1642 	orl	a,b
   0283 60 1A              1643 	jz	00136$
                           1644 ;	../../../contiki-sensinode//core/net/uip-ds6.c:165: uip_ds6_addr_rm(locaddr);
   0285 90s02r0D           1645 	mov	dptr,#_locaddr
   0288 E0                 1646 	movx	a,@dptr
   0289 FD                 1647 	mov	r5,a
   028A A3                 1648 	inc	dptr
   028B E0                 1649 	movx	a,@dptr
   028C FE                 1650 	mov	r6,a
   028D A3                 1651 	inc	dptr
   028E E0                 1652 	movx	a,@dptr
   028F FF                 1653 	mov	r7,a
   0290 8D 82              1654 	mov	dpl,r5
   0292 8E 83              1655 	mov	dph,r6
   0294 8F F0              1656 	mov	b,r7
   0296 78rE0              1657 	mov	r0,#_uip_ds6_addr_rm
   0298 79s12              1658 	mov	r1,#(_uip_ds6_addr_rm >> 8)
   029A 7As00              1659 	mov	r2,#(_uip_ds6_addr_rm >> 16)
   029C 12s00r00           1660 	lcall	__sdcc_banked_call
   029F                    1661 00136$:
                           1662 ;	../../../contiki-sensinode//core/net/uip-ds6.c:162: locaddr < uip_ds6_if.addr_list + UIP_DS6_ADDR_NB; locaddr++) {
   029F 90s02r0D           1663 	mov	dptr,#_locaddr
   02A2 E0                 1664 	movx	a,@dptr
   02A3 24 1C              1665 	add	a,#0x1C
   02A5 F0                 1666 	movx	@dptr,a
   02A6 A3                 1667 	inc	dptr
   02A7 E0                 1668 	movx	a,@dptr
   02A8 34 00              1669 	addc	a,#0x00
   02AA F0                 1670 	movx	@dptr,a
   02AB 02s02r20           1671 	ljmp	00134$
   02AE                    1672 00137$:
                           1673 ;	../../../contiki-sensinode//core/net/uip-ds6.c:178: uip_ds6_defrt_periodic();
   02AE 78r00              1674 	mov	r0,#_uip_ds6_defrt_periodic
   02B0 79s00              1675 	mov	r1,#(_uip_ds6_defrt_periodic >> 8)
   02B2 7As00              1676 	mov	r2,#(_uip_ds6_defrt_periodic >> 16)
   02B4 12s00r00           1677 	lcall	__sdcc_banked_call
                           1678 ;	../../../contiki-sensinode//core/net/uip-ds6.c:200: for(locnbr = uip_ds6_nbr_cache;
   02B7 90s02r19           1679 	mov	dptr,#_locnbr
   02BA 74rEF              1680 	mov	a,#_uip_ds6_nbr_cache
   02BC F0                 1681 	movx	@dptr,a
   02BD A3                 1682 	inc	dptr
   02BE 74s00              1683 	mov	a,#(_uip_ds6_nbr_cache >> 8)
   02C0 F0                 1684 	movx	@dptr,a
   02C1 A3                 1685 	inc	dptr
   02C2 E4                 1686 	clr	a
   02C3 F0                 1687 	movx	@dptr,a
   02C4                    1688 00138$:
                           1689 ;	../../../contiki-sensinode//core/net/uip-ds6.c:201: locnbr < uip_ds6_nbr_cache + UIP_DS6_NBR_NB;
   02C4 90s02r19           1690 	mov	dptr,#_locnbr
   02C7 E5 81              1691 	mov	a,sp
   02C9 24 FD              1692 	add	a,#0xfd
   02CB F8                 1693 	mov	r0,a
   02CC E0                 1694 	movx	a,@dptr
   02CD F6                 1695 	mov	@r0,a
   02CE A3                 1696 	inc	dptr
   02CF E0                 1697 	movx	a,@dptr
   02D0 08                 1698 	inc	r0
   02D1 F6                 1699 	mov	@r0,a
   02D2 A3                 1700 	inc	dptr
   02D3 E0                 1701 	movx	a,@dptr
   02D4 08                 1702 	inc	r0
   02D5 F6                 1703 	mov	@r0,a
   02D6 E5 81              1704 	mov	a,sp
   02D8 24 FD              1705 	add	a,#0xfd
   02DA F8                 1706 	mov	r0,a
   02DB 74rA7              1707 	mov	a,#(_uip_ds6_nbr_cache + 0x00b8)
   02DD C0 E0              1708 	push	acc
   02DF 74s01              1709 	mov	a,#((_uip_ds6_nbr_cache + 0x00b8) >> 8)
   02E1 C0 E0              1710 	push	acc
   02E3 E4                 1711 	clr	a
   02E4 C0 E0              1712 	push	acc
   02E6 86 82              1713 	mov	dpl,@r0
   02E8 08                 1714 	inc	r0
   02E9 86 83              1715 	mov	dph,@r0
   02EB 08                 1716 	inc	r0
   02EC 86 F0              1717 	mov	b,@r0
   02EE 12s00r00           1718 	lcall	___gptr_cmp
   02F1 15 81              1719 	dec	sp
   02F3 15 81              1720 	dec	sp
   02F5 15 81              1721 	dec	sp
   02F7 40 03              1722 	jc	00192$
   02F9 02s07r35           1723 	ljmp	00141$
   02FC                    1724 00192$:
                           1725 ;	../../../contiki-sensinode//core/net/uip-ds6.c:203: if(locnbr->isused) {
   02FC E5 81              1726 	mov	a,sp
   02FE 24 FD              1727 	add	a,#0xfd
   0300 F8                 1728 	mov	r0,a
   0301 86 82              1729 	mov	dpl,@r0
   0303 08                 1730 	inc	r0
   0304 86 83              1731 	mov	dph,@r0
   0306 08                 1732 	inc	r0
   0307 86 F0              1733 	mov	b,@r0
   0309 12s00r00           1734 	lcall	__gptrget
   030C 70 03              1735 	jnz	00193$
   030E 02s07r26           1736 	ljmp	00140$
   0311                    1737 00193$:
                           1738 ;	../../../contiki-sensinode//core/net/uip-ds6.c:204: switch(locnbr->state) {
   0311 E5 81              1739 	mov	a,sp
   0313 24 FD              1740 	add	a,#0xfd
   0315 F8                 1741 	mov	r0,a
   0316 74 2D              1742 	mov	a,#0x2D
   0318 26                 1743 	add	a,@r0
   0319 FA                 1744 	mov	r2,a
   031A E4                 1745 	clr	a
   031B 08                 1746 	inc	r0
   031C 36                 1747 	addc	a,@r0
   031D FB                 1748 	mov	r3,a
   031E 08                 1749 	inc	r0
   031F 86 04              1750 	mov	ar4,@r0
   0321 8A 82              1751 	mov	dpl,r2
   0323 8B 83              1752 	mov	dph,r3
   0325 8C F0              1753 	mov	b,r4
   0327 12s00r00           1754 	lcall	__gptrget
   032A FC                 1755 	mov	r4,a
   032B 60 15              1756 	jz	00106$
   032D BC 01 03           1757 	cjne	r4,#0x01,00195$
   0330 02s04r8E           1758 	ljmp	00113$
   0333                    1759 00195$:
   0333 BC 03 03           1760 	cjne	r4,#0x03,00196$
   0336 02s04rD9           1761 	ljmp	00116$
   0339                    1762 00196$:
   0339 BC 04 03           1763 	cjne	r4,#0x04,00197$
   033C 02s05r7C           1764 	ljmp	00119$
   033F                    1765 00197$:
   033F 02s07r26           1766 	ljmp	00140$
                           1767 ;	../../../contiki-sensinode//core/net/uip-ds6.c:205: case NBR_INCOMPLETE:
   0342                    1768 00106$:
                           1769 ;	../../../contiki-sensinode//core/net/uip-ds6.c:206: if(locnbr->nscount >= UIP_ND6_MAX_MULTICAST_SOLICIT) {
   0342 E5 81              1770 	mov	a,sp
   0344 24 FD              1771 	add	a,#0xfd
   0346 F8                 1772 	mov	r0,a
   0347 74 2B              1773 	mov	a,#0x2B
   0349 26                 1774 	add	a,@r0
   034A FA                 1775 	mov	r2,a
   034B E4                 1776 	clr	a
   034C 08                 1777 	inc	r0
   034D 36                 1778 	addc	a,@r0
   034E FB                 1779 	mov	r3,a
   034F 08                 1780 	inc	r0
   0350 86 04              1781 	mov	ar4,@r0
   0352 8A 82              1782 	mov	dpl,r2
   0354 8B 83              1783 	mov	dph,r3
   0356 8C F0              1784 	mov	b,r4
   0358 12s00r00           1785 	lcall	__gptrget
   035B FA                 1786 	mov	r2,a
   035C BA 03 00           1787 	cjne	r2,#0x03,00198$
   035F                    1788 00198$:
   035F 40 19              1789 	jc	00111$
                           1790 ;	../../../contiki-sensinode//core/net/uip-ds6.c:207: uip_ds6_nbr_rm(locnbr);
   0361 E5 81              1791 	mov	a,sp
   0363 24 FD              1792 	add	a,#0xfd
   0365 F8                 1793 	mov	r0,a
   0366 86 82              1794 	mov	dpl,@r0
   0368 08                 1795 	inc	r0
   0369 86 83              1796 	mov	dph,@r0
   036B 08                 1797 	inc	r0
   036C 86 F0              1798 	mov	b,@r0
   036E 78rDB              1799 	mov	r0,#_uip_ds6_nbr_rm
   0370 79s0C              1800 	mov	r1,#(_uip_ds6_nbr_rm >> 8)
   0372 7As00              1801 	mov	r2,#(_uip_ds6_nbr_rm >> 16)
   0374 12s00r00           1802 	lcall	__sdcc_banked_call
   0377 02s07r26           1803 	ljmp	00140$
   037A                    1804 00111$:
                           1805 ;	../../../contiki-sensinode//core/net/uip-ds6.c:208: } else if(stimer_expired(&locnbr->sendns) && (uip_len == 0)) {
   037A E5 81              1806 	mov	a,sp
   037C 24 FD              1807 	add	a,#0xfd
   037E F8                 1808 	mov	r0,a
   037F 74 21              1809 	mov	a,#0x21
   0381 26                 1810 	add	a,@r0
   0382 FA                 1811 	mov	r2,a
   0383 E4                 1812 	clr	a
   0384 08                 1813 	inc	r0
   0385 36                 1814 	addc	a,@r0
   0386 FB                 1815 	mov	r3,a
   0387 08                 1816 	inc	r0
   0388 86 04              1817 	mov	ar4,@r0
   038A 8A 82              1818 	mov	dpl,r2
   038C 8B 83              1819 	mov	dph,r3
   038E 8C F0              1820 	mov	b,r4
   0390 78r00              1821 	mov	r0,#_stimer_expired
   0392 79s00              1822 	mov	r1,#(_stimer_expired >> 8)
   0394 7As00              1823 	mov	r2,#(_stimer_expired >> 16)
   0396 12s00r00           1824 	lcall	__sdcc_banked_call
   0399 E5 82              1825 	mov	a,dpl
   039B 85 83 F0           1826 	mov	b,dph
   039E 45 F0              1827 	orl	a,b
   03A0 70 03              1828 	jnz	00200$
   03A2 02s07r26           1829 	ljmp	00140$
   03A5                    1830 00200$:
   03A5 90s00r00           1831 	mov	dptr,#_uip_len
   03A8 E0                 1832 	movx	a,@dptr
   03A9 FB                 1833 	mov	r3,a
   03AA A3                 1834 	inc	dptr
   03AB E0                 1835 	movx	a,@dptr
   03AC FC                 1836 	mov	r4,a
   03AD 4B                 1837 	orl	a,r3
   03AE 60 03              1838 	jz	00201$
   03B0 02s07r26           1839 	ljmp	00140$
   03B3                    1840 00201$:
                           1841 ;	../../../contiki-sensinode//core/net/uip-ds6.c:209: locnbr->nscount++;
   03B3 90s02r19           1842 	mov	dptr,#_locnbr
   03B6 E0                 1843 	movx	a,@dptr
   03B7 FF                 1844 	mov	r7,a
   03B8 A3                 1845 	inc	dptr
   03B9 E0                 1846 	movx	a,@dptr
   03BA FE                 1847 	mov	r6,a
   03BB A3                 1848 	inc	dptr
   03BC E0                 1849 	movx	a,@dptr
   03BD FD                 1850 	mov	r5,a
   03BE E5 81              1851 	mov	a,sp
   03C0 24 FA              1852 	add	a,#0xfa
   03C2 F8                 1853 	mov	r0,a
   03C3 74 2B              1854 	mov	a,#0x2B
   03C5 2F                 1855 	add	a,r7
   03C6 F6                 1856 	mov	@r0,a
   03C7 E4                 1857 	clr	a
   03C8 3E                 1858 	addc	a,r6
   03C9 08                 1859 	inc	r0
   03CA F6                 1860 	mov	@r0,a
   03CB 08                 1861 	inc	r0
   03CC A6 05              1862 	mov	@r0,ar5
   03CE E5 81              1863 	mov	a,sp
   03D0 24 FA              1864 	add	a,#0xfa
   03D2 F8                 1865 	mov	r0,a
   03D3 86 82              1866 	mov	dpl,@r0
   03D5 08                 1867 	inc	r0
   03D6 86 83              1868 	mov	dph,@r0
   03D8 08                 1869 	inc	r0
   03D9 86 F0              1870 	mov	b,@r0
   03DB 12s00r00           1871 	lcall	__gptrget
   03DE FB                 1872 	mov	r3,a
   03DF 0B                 1873 	inc	r3
   03E0 E5 81              1874 	mov	a,sp
   03E2 24 FA              1875 	add	a,#0xfa
   03E4 F8                 1876 	mov	r0,a
   03E5 86 82              1877 	mov	dpl,@r0
   03E7 08                 1878 	inc	r0
   03E8 86 83              1879 	mov	dph,@r0
   03EA 08                 1880 	inc	r0
   03EB 86 F0              1881 	mov	b,@r0
   03ED EB                 1882 	mov	a,r3
   03EE 12s00r00           1883 	lcall	__gptrput
                           1884 ;	../../../contiki-sensinode//core/net/uip-ds6.c:211: uip_nd6_ns_output(NULL, NULL, &locnbr->ipaddr);
   03F1 0F                 1885 	inc	r7
   03F2 BF 00 01           1886 	cjne	r7,#0x00,00202$
   03F5 0E                 1887 	inc	r6
   03F6                    1888 00202$:
   03F6 C0 07              1889 	push	ar7
   03F8 C0 06              1890 	push	ar6
   03FA C0 05              1891 	push	ar5
   03FC E4                 1892 	clr	a
   03FD C0 E0              1893 	push	acc
   03FF C0 E0              1894 	push	acc
   0401 C0 E0              1895 	push	acc
   0403 90 00 00           1896 	mov	dptr,#0x0000
   0406 75 F0 00           1897 	mov	b,#0x00
   0409 78r00              1898 	mov	r0,#_uip_nd6_ns_output
   040B 79s00              1899 	mov	r1,#(_uip_nd6_ns_output >> 8)
   040D 7As00              1900 	mov	r2,#(_uip_nd6_ns_output >> 16)
   040F 12s00r00           1901 	lcall	__sdcc_banked_call
   0412 E5 81              1902 	mov	a,sp
   0414 24 FA              1903 	add	a,#0xfa
   0416 F5 81              1904 	mov	sp,a
                           1905 ;	../../../contiki-sensinode//core/net/uip-ds6.c:212: stimer_set(&locnbr->sendns, uip_ds6_if.retrans_timer / 1000);
   0418 90s00r1F           1906 	mov	dptr,#(_uip_ds6_if + 0x000d)
   041B E0                 1907 	movx	a,@dptr
   041C FF                 1908 	mov	r7,a
   041D A3                 1909 	inc	dptr
   041E E0                 1910 	movx	a,@dptr
   041F FE                 1911 	mov	r6,a
   0420 A3                 1912 	inc	dptr
   0421 E0                 1913 	movx	a,@dptr
   0422 FD                 1914 	mov	r5,a
   0423 A3                 1915 	inc	dptr
   0424 E0                 1916 	movx	a,@dptr
   0425 FC                 1917 	mov	r4,a
   0426 74 E8              1918 	mov	a,#0xE8
   0428 C0 E0              1919 	push	acc
   042A 74 03              1920 	mov	a,#0x03
   042C C0 E0              1921 	push	acc
   042E E4                 1922 	clr	a
   042F C0 E0              1923 	push	acc
   0431 C0 E0              1924 	push	acc
   0433 8F 82              1925 	mov	dpl,r7
   0435 8E 83              1926 	mov	dph,r6
   0437 8D F0              1927 	mov	b,r5
   0439 EC                 1928 	mov	a,r4
   043A 12s00r00           1929 	lcall	__divulong
   043D AF 82              1930 	mov	r7,dpl
   043F AE 83              1931 	mov	r6,dph
   0441 AD F0              1932 	mov	r5,b
   0443 FC                 1933 	mov	r4,a
   0444 E5 81              1934 	mov	a,sp
   0446 24 FC              1935 	add	a,#0xfc
   0448 F5 81              1936 	mov	sp,a
   044A 90s02r19           1937 	mov	dptr,#_locnbr
   044D 24 FA              1938 	add	a,#0xfa
   044F F8                 1939 	mov	r0,a
   0450 E0                 1940 	movx	a,@dptr
   0451 F6                 1941 	mov	@r0,a
   0452 A3                 1942 	inc	dptr
   0453 E0                 1943 	movx	a,@dptr
   0454 08                 1944 	inc	r0
   0455 F6                 1945 	mov	@r0,a
   0456 A3                 1946 	inc	dptr
   0457 E0                 1947 	movx	a,@dptr
   0458 08                 1948 	inc	r0
   0459 F6                 1949 	mov	@r0,a
   045A E5 81              1950 	mov	a,sp
   045C 24 FA              1951 	add	a,#0xfa
   045E F8                 1952 	mov	r0,a
   045F 74 21              1953 	mov	a,#0x21
   0461 26                 1954 	add	a,@r0
   0462 F6                 1955 	mov	@r0,a
   0463 E4                 1956 	clr	a
   0464 08                 1957 	inc	r0
   0465 36                 1958 	addc	a,@r0
   0466 F6                 1959 	mov	@r0,a
   0467 C0 07              1960 	push	ar7
   0469 C0 06              1961 	push	ar6
   046B C0 05              1962 	push	ar5
   046D C0 04              1963 	push	ar4
   046F E5 81              1964 	mov	a,sp
   0471 24 F6              1965 	add	a,#0xf6
   0473 F8                 1966 	mov	r0,a
   0474 86 82              1967 	mov	dpl,@r0
   0476 08                 1968 	inc	r0
   0477 86 83              1969 	mov	dph,@r0
   0479 08                 1970 	inc	r0
   047A 86 F0              1971 	mov	b,@r0
   047C 78r00              1972 	mov	r0,#_stimer_set
   047E 79s00              1973 	mov	r1,#(_stimer_set >> 8)
   0480 7As00              1974 	mov	r2,#(_stimer_set >> 16)
   0482 12s00r00           1975 	lcall	__sdcc_banked_call
   0485 E5 81              1976 	mov	a,sp
   0487 24 FC              1977 	add	a,#0xfc
   0489 F5 81              1978 	mov	sp,a
                           1979 ;	../../../contiki-sensinode//core/net/uip-ds6.c:214: break;
   048B 02s07r26           1980 	ljmp	00140$
                           1981 ;	../../../contiki-sensinode//core/net/uip-ds6.c:215: case NBR_REACHABLE:
   048E                    1982 00113$:
                           1983 ;	../../../contiki-sensinode//core/net/uip-ds6.c:216: if(stimer_expired(&locnbr->reachable)) {
   048E E5 81              1984 	mov	a,sp
   0490 24 FD              1985 	add	a,#0xfd
   0492 F8                 1986 	mov	r0,a
   0493 74 19              1987 	mov	a,#0x19
   0495 26                 1988 	add	a,@r0
   0496 FA                 1989 	mov	r2,a
   0497 E4                 1990 	clr	a
   0498 08                 1991 	inc	r0
   0499 36                 1992 	addc	a,@r0
   049A FB                 1993 	mov	r3,a
   049B 08                 1994 	inc	r0
   049C 86 07              1995 	mov	ar7,@r0
   049E 8A 82              1996 	mov	dpl,r2
   04A0 8B 83              1997 	mov	dph,r3
   04A2 8F F0              1998 	mov	b,r7
   04A4 78r00              1999 	mov	r0,#_stimer_expired
   04A6 79s00              2000 	mov	r1,#(_stimer_expired >> 8)
   04A8 7As00              2001 	mov	r2,#(_stimer_expired >> 16)
   04AA 12s00r00           2002 	lcall	__sdcc_banked_call
   04AD E5 82              2003 	mov	a,dpl
   04AF 85 83 F0           2004 	mov	b,dph
   04B2 45 F0              2005 	orl	a,b
   04B4 70 03              2006 	jnz	00203$
   04B6 02s07r26           2007 	ljmp	00140$
   04B9                    2008 00203$:
                           2009 ;	../../../contiki-sensinode//core/net/uip-ds6.c:220: locnbr->state = NBR_STALE;
   04B9 90s02r19           2010 	mov	dptr,#_locnbr
   04BC E0                 2011 	movx	a,@dptr
   04BD FD                 2012 	mov	r5,a
   04BE A3                 2013 	inc	dptr
   04BF E0                 2014 	movx	a,@dptr
   04C0 FE                 2015 	mov	r6,a
   04C1 A3                 2016 	inc	dptr
   04C2 E0                 2017 	movx	a,@dptr
   04C3 FF                 2018 	mov	r7,a
   04C4 74 2D              2019 	mov	a,#0x2D
   04C6 2D                 2020 	add	a,r5
   04C7 FD                 2021 	mov	r5,a
   04C8 E4                 2022 	clr	a
   04C9 3E                 2023 	addc	a,r6
   04CA FE                 2024 	mov	r6,a
   04CB 8D 82              2025 	mov	dpl,r5
   04CD 8E 83              2026 	mov	dph,r6
   04CF 8F F0              2027 	mov	b,r7
   04D1 74 02              2028 	mov	a,#0x02
   04D3 12s00r00           2029 	lcall	__gptrput
                           2030 ;	../../../contiki-sensinode//core/net/uip-ds6.c:222: break;
   04D6 02s07r26           2031 	ljmp	00140$
                           2032 ;	../../../contiki-sensinode//core/net/uip-ds6.c:223: case NBR_DELAY:
   04D9                    2033 00116$:
                           2034 ;	../../../contiki-sensinode//core/net/uip-ds6.c:224: if(stimer_expired(&locnbr->reachable)) {
   04D9 E5 81              2035 	mov	a,sp
   04DB 24 FD              2036 	add	a,#0xfd
   04DD F8                 2037 	mov	r0,a
   04DE 74 19              2038 	mov	a,#0x19
   04E0 26                 2039 	add	a,@r0
   04E1 FD                 2040 	mov	r5,a
   04E2 E4                 2041 	clr	a
   04E3 08                 2042 	inc	r0
   04E4 36                 2043 	addc	a,@r0
   04E5 FE                 2044 	mov	r6,a
   04E6 08                 2045 	inc	r0
   04E7 86 07              2046 	mov	ar7,@r0
   04E9 8D 82              2047 	mov	dpl,r5
   04EB 8E 83              2048 	mov	dph,r6
   04ED 8F F0              2049 	mov	b,r7
   04EF 78r00              2050 	mov	r0,#_stimer_expired
   04F1 79s00              2051 	mov	r1,#(_stimer_expired >> 8)
   04F3 7As00              2052 	mov	r2,#(_stimer_expired >> 16)
   04F5 12s00r00           2053 	lcall	__sdcc_banked_call
   04F8 E5 82              2054 	mov	a,dpl
   04FA 85 83 F0           2055 	mov	b,dph
   04FD 45 F0              2056 	orl	a,b
   04FF 70 03              2057 	jnz	00204$
   0501 02s07r26           2058 	ljmp	00140$
   0504                    2059 00204$:
                           2060 ;	../../../contiki-sensinode//core/net/uip-ds6.c:225: locnbr->state = NBR_PROBE;
   0504 90s02r19           2061 	mov	dptr,#_locnbr
   0507 E5 81              2062 	mov	a,sp
   0509 24 FA              2063 	add	a,#0xfa
   050B F8                 2064 	mov	r0,a
   050C E0                 2065 	movx	a,@dptr
   050D F6                 2066 	mov	@r0,a
   050E A3                 2067 	inc	dptr
   050F E0                 2068 	movx	a,@dptr
   0510 08                 2069 	inc	r0
   0511 F6                 2070 	mov	@r0,a
   0512 A3                 2071 	inc	dptr
   0513 E0                 2072 	movx	a,@dptr
   0514 08                 2073 	inc	r0
   0515 F6                 2074 	mov	@r0,a
   0516 E5 81              2075 	mov	a,sp
   0518 24 FA              2076 	add	a,#0xfa
   051A F8                 2077 	mov	r0,a
   051B 74 2D              2078 	mov	a,#0x2D
   051D 26                 2079 	add	a,@r0
   051E FA                 2080 	mov	r2,a
   051F E4                 2081 	clr	a
   0520 08                 2082 	inc	r0
   0521 36                 2083 	addc	a,@r0
   0522 FB                 2084 	mov	r3,a
   0523 08                 2085 	inc	r0
   0524 86 07              2086 	mov	ar7,@r0
   0526 8A 82              2087 	mov	dpl,r2
   0528 8B 83              2088 	mov	dph,r3
   052A 8F F0              2089 	mov	b,r7
   052C 74 04              2090 	mov	a,#0x04
   052E 12s00r00           2091 	lcall	__gptrput
                           2092 ;	../../../contiki-sensinode//core/net/uip-ds6.c:226: locnbr->nscount = 0;
   0531 E5 81              2093 	mov	a,sp
   0533 24 FA              2094 	add	a,#0xfa
   0535 F8                 2095 	mov	r0,a
   0536 74 2B              2096 	mov	a,#0x2B
   0538 26                 2097 	add	a,@r0
   0539 FD                 2098 	mov	r5,a
   053A E4                 2099 	clr	a
   053B 08                 2100 	inc	r0
   053C 36                 2101 	addc	a,@r0
   053D FE                 2102 	mov	r6,a
   053E 08                 2103 	inc	r0
   053F 86 07              2104 	mov	ar7,@r0
   0541 8D 82              2105 	mov	dpl,r5
   0543 8E 83              2106 	mov	dph,r6
   0545 8F F0              2107 	mov	b,r7
   0547 E4                 2108 	clr	a
   0548 12s00r00           2109 	lcall	__gptrput
                           2110 ;	../../../contiki-sensinode//core/net/uip-ds6.c:228: stimer_set(&locnbr->sendns, 0);
   054B E5 81              2111 	mov	a,sp
   054D 24 FA              2112 	add	a,#0xfa
   054F F8                 2113 	mov	r0,a
   0550 74 21              2114 	mov	a,#0x21
   0552 26                 2115 	add	a,@r0
   0553 FD                 2116 	mov	r5,a
   0554 E4                 2117 	clr	a
   0555 08                 2118 	inc	r0
   0556 36                 2119 	addc	a,@r0
   0557 FE                 2120 	mov	r6,a
   0558 08                 2121 	inc	r0
   0559 86 07              2122 	mov	ar7,@r0
   055B E4                 2123 	clr	a
   055C C0 E0              2124 	push	acc
   055E C0 E0              2125 	push	acc
   0560 C0 E0              2126 	push	acc
   0562 C0 E0              2127 	push	acc
   0564 8D 82              2128 	mov	dpl,r5
   0566 8E 83              2129 	mov	dph,r6
   0568 8F F0              2130 	mov	b,r7
   056A 78r00              2131 	mov	r0,#_stimer_set
   056C 79s00              2132 	mov	r1,#(_stimer_set >> 8)
   056E 7As00              2133 	mov	r2,#(_stimer_set >> 16)
   0570 12s00r00           2134 	lcall	__sdcc_banked_call
   0573 E5 81              2135 	mov	a,sp
   0575 24 FC              2136 	add	a,#0xfc
   0577 F5 81              2137 	mov	sp,a
                           2138 ;	../../../contiki-sensinode//core/net/uip-ds6.c:230: break;
   0579 02s07r26           2139 	ljmp	00140$
                           2140 ;	../../../contiki-sensinode//core/net/uip-ds6.c:231: case NBR_PROBE:
   057C                    2141 00119$:
                           2142 ;	../../../contiki-sensinode//core/net/uip-ds6.c:232: if(locnbr->nscount >= UIP_ND6_MAX_UNICAST_SOLICIT) {
   057C E5 81              2143 	mov	a,sp
   057E 24 FD              2144 	add	a,#0xfd
   0580 F8                 2145 	mov	r0,a
   0581 74 2B              2146 	mov	a,#0x2B
   0583 26                 2147 	add	a,@r0
   0584 FD                 2148 	mov	r5,a
   0585 E4                 2149 	clr	a
   0586 08                 2150 	inc	r0
   0587 36                 2151 	addc	a,@r0
   0588 FE                 2152 	mov	r6,a
   0589 08                 2153 	inc	r0
   058A 86 07              2154 	mov	ar7,@r0
   058C 8D 82              2155 	mov	dpl,r5
   058E 8E 83              2156 	mov	dph,r6
   0590 8F F0              2157 	mov	b,r7
   0592 12s00r00           2158 	lcall	__gptrget
   0595 FD                 2159 	mov	r5,a
   0596 BD 03 00           2160 	cjne	r5,#0x03,00205$
   0599                    2161 00205$:
   0599 40 74              2162 	jc	00128$
                           2163 ;	../../../contiki-sensinode//core/net/uip-ds6.c:234: if((locdefrt = uip_ds6_defrt_lookup(&locnbr->ipaddr)) != NULL) {
   059B E5 81              2164 	mov	a,sp
   059D 24 FD              2165 	add	a,#0xfd
   059F F8                 2166 	mov	r0,a
   05A0 74 01              2167 	mov	a,#0x01
   05A2 26                 2168 	add	a,@r0
   05A3 FD                 2169 	mov	r5,a
   05A4 E4                 2170 	clr	a
   05A5 08                 2171 	inc	r0
   05A6 36                 2172 	addc	a,@r0
   05A7 FE                 2173 	mov	r6,a
   05A8 08                 2174 	inc	r0
   05A9 86 07              2175 	mov	ar7,@r0
   05AB 8D 82              2176 	mov	dpl,r5
   05AD 8E 83              2177 	mov	dph,r6
   05AF 8F F0              2178 	mov	b,r7
   05B1 78r00              2179 	mov	r0,#_uip_ds6_defrt_lookup
   05B3 79s00              2180 	mov	r1,#(_uip_ds6_defrt_lookup >> 8)
   05B5 7As00              2181 	mov	r2,#(_uip_ds6_defrt_lookup >> 16)
   05B7 12s00r00           2182 	lcall	__sdcc_banked_call
   05BA AE 82              2183 	mov	r6,dpl
   05BC AD 83              2184 	mov	r5,dph
   05BE AC F0              2185 	mov	r4,b
   05C0 90s02r1C           2186 	mov	dptr,#_locdefrt
   05C3 EE                 2187 	mov	a,r6
   05C4 F0                 2188 	movx	@dptr,a
   05C5 A3                 2189 	inc	dptr
   05C6 ED                 2190 	mov	a,r5
   05C7 F0                 2191 	movx	@dptr,a
   05C8 A3                 2192 	inc	dptr
   05C9 EC                 2193 	mov	a,r4
   05CA F0                 2194 	movx	@dptr,a
   05CB EE                 2195 	mov	a,r6
   05CC 4D                 2196 	orl	a,r5
   05CD 60 23              2197 	jz	00123$
                           2198 ;	../../../contiki-sensinode//core/net/uip-ds6.c:235: if (!locdefrt->isinfinite) {
   05CF 74 1B              2199 	mov	a,#0x1B
   05D1 2E                 2200 	add	a,r6
   05D2 FA                 2201 	mov	r2,a
   05D3 E4                 2202 	clr	a
   05D4 3D                 2203 	addc	a,r5
   05D5 FB                 2204 	mov	r3,a
   05D6 8C 07              2205 	mov	ar7,r4
   05D8 8A 82              2206 	mov	dpl,r2
   05DA 8B 83              2207 	mov	dph,r3
   05DC 8F F0              2208 	mov	b,r7
   05DE 12s00r00           2209 	lcall	__gptrget
   05E1 70 0F              2210 	jnz	00123$
                           2211 ;	../../../contiki-sensinode//core/net/uip-ds6.c:236: uip_ds6_defrt_rm(locdefrt);
   05E3 8E 82              2212 	mov	dpl,r6
   05E5 8D 83              2213 	mov	dph,r5
   05E7 8C F0              2214 	mov	b,r4
   05E9 78r00              2215 	mov	r0,#_uip_ds6_defrt_rm
   05EB 79s00              2216 	mov	r1,#(_uip_ds6_defrt_rm >> 8)
   05ED 7As00              2217 	mov	r2,#(_uip_ds6_defrt_rm >> 16)
   05EF 12s00r00           2218 	lcall	__sdcc_banked_call
   05F2                    2219 00123$:
                           2220 ;	../../../contiki-sensinode//core/net/uip-ds6.c:239: uip_ds6_nbr_rm(locnbr);
   05F2 90s02r19           2221 	mov	dptr,#_locnbr
   05F5 E0                 2222 	movx	a,@dptr
   05F6 FD                 2223 	mov	r5,a
   05F7 A3                 2224 	inc	dptr
   05F8 E0                 2225 	movx	a,@dptr
   05F9 FE                 2226 	mov	r6,a
   05FA A3                 2227 	inc	dptr
   05FB E0                 2228 	movx	a,@dptr
   05FC FF                 2229 	mov	r7,a
   05FD 8D 82              2230 	mov	dpl,r5
   05FF 8E 83              2231 	mov	dph,r6
   0601 8F F0              2232 	mov	b,r7
   0603 78rDB              2233 	mov	r0,#_uip_ds6_nbr_rm
   0605 79s0C              2234 	mov	r1,#(_uip_ds6_nbr_rm >> 8)
   0607 7As00              2235 	mov	r2,#(_uip_ds6_nbr_rm >> 16)
   0609 12s00r00           2236 	lcall	__sdcc_banked_call
   060C 02s07r26           2237 	ljmp	00140$
   060F                    2238 00128$:
                           2239 ;	../../../contiki-sensinode//core/net/uip-ds6.c:240: } else if(stimer_expired(&locnbr->sendns) && (uip_len == 0)) {
   060F E5 81              2240 	mov	a,sp
   0611 24 FD              2241 	add	a,#0xfd
   0613 F8                 2242 	mov	r0,a
   0614 74 21              2243 	mov	a,#0x21
   0616 26                 2244 	add	a,@r0
   0617 FD                 2245 	mov	r5,a
   0618 E4                 2246 	clr	a
   0619 08                 2247 	inc	r0
   061A 36                 2248 	addc	a,@r0
   061B FE                 2249 	mov	r6,a
   061C 08                 2250 	inc	r0
   061D 86 07              2251 	mov	ar7,@r0
   061F 8D 82              2252 	mov	dpl,r5
   0621 8E 83              2253 	mov	dph,r6
   0623 8F F0              2254 	mov	b,r7
   0625 78r00              2255 	mov	r0,#_stimer_expired
   0627 79s00              2256 	mov	r1,#(_stimer_expired >> 8)
   0629 7As00              2257 	mov	r2,#(_stimer_expired >> 16)
   062B 12s00r00           2258 	lcall	__sdcc_banked_call
   062E E5 82              2259 	mov	a,dpl
   0630 85 83 F0           2260 	mov	b,dph
   0633 45 F0              2261 	orl	a,b
   0635 70 03              2262 	jnz	00209$
   0637 02s07r26           2263 	ljmp	00140$
   063A                    2264 00209$:
   063A 90s00r00           2265 	mov	dptr,#_uip_len
   063D E0                 2266 	movx	a,@dptr
   063E FE                 2267 	mov	r6,a
   063F A3                 2268 	inc	dptr
   0640 E0                 2269 	movx	a,@dptr
   0641 FF                 2270 	mov	r7,a
   0642 4E                 2271 	orl	a,r6
   0643 60 03              2272 	jz	00210$
   0645 02s07r26           2273 	ljmp	00140$
   0648                    2274 00210$:
                           2275 ;	../../../contiki-sensinode//core/net/uip-ds6.c:241: locnbr->nscount++;
   0648 90s02r19           2276 	mov	dptr,#_locnbr
   064B E5 81              2277 	mov	a,sp
   064D 24 FD              2278 	add	a,#0xfd
   064F F8                 2279 	mov	r0,a
   0650 E0                 2280 	movx	a,@dptr
   0651 F6                 2281 	mov	@r0,a
   0652 A3                 2282 	inc	dptr
   0653 E0                 2283 	movx	a,@dptr
   0654 08                 2284 	inc	r0
   0655 F6                 2285 	mov	@r0,a
   0656 A3                 2286 	inc	dptr
   0657 E0                 2287 	movx	a,@dptr
   0658 08                 2288 	inc	r0
   0659 F6                 2289 	mov	@r0,a
   065A E5 81              2290 	mov	a,sp
   065C 24 FD              2291 	add	a,#0xfd
   065E F8                 2292 	mov	r0,a
   065F 74 2B              2293 	mov	a,#0x2B
   0661 26                 2294 	add	a,@r0
   0662 FA                 2295 	mov	r2,a
   0663 E4                 2296 	clr	a
   0664 08                 2297 	inc	r0
   0665 36                 2298 	addc	a,@r0
   0666 FB                 2299 	mov	r3,a
   0667 08                 2300 	inc	r0
   0668 86 07              2301 	mov	ar7,@r0
   066A 8A 82              2302 	mov	dpl,r2
   066C 8B 83              2303 	mov	dph,r3
   066E 8F F0              2304 	mov	b,r7
   0670 12s00r00           2305 	lcall	__gptrget
   0673 FE                 2306 	mov	r6,a
   0674 0E                 2307 	inc	r6
   0675 8A 82              2308 	mov	dpl,r2
   0677 8B 83              2309 	mov	dph,r3
   0679 8F F0              2310 	mov	b,r7
   067B EE                 2311 	mov	a,r6
   067C 12s00r00           2312 	lcall	__gptrput
                           2313 ;	../../../contiki-sensinode//core/net/uip-ds6.c:243: uip_nd6_ns_output(NULL, &locnbr->ipaddr, &locnbr->ipaddr);
   067F E5 81              2314 	mov	a,sp
   0681 24 FD              2315 	add	a,#0xfd
   0683 F8                 2316 	mov	r0,a
   0684 74 01              2317 	mov	a,#0x01
   0686 26                 2318 	add	a,@r0
   0687 FD                 2319 	mov	r5,a
   0688 E4                 2320 	clr	a
   0689 08                 2321 	inc	r0
   068A 36                 2322 	addc	a,@r0
   068B FE                 2323 	mov	r6,a
   068C 08                 2324 	inc	r0
   068D 86 07              2325 	mov	ar7,@r0
   068F C0 05              2326 	push	ar5
   0691 C0 06              2327 	push	ar6
   0693 C0 07              2328 	push	ar7
   0695 C0 05              2329 	push	ar5
   0697 C0 06              2330 	push	ar6
   0699 C0 07              2331 	push	ar7
   069B 90 00 00           2332 	mov	dptr,#0x0000
   069E 75 F0 00           2333 	mov	b,#0x00
   06A1 78r00              2334 	mov	r0,#_uip_nd6_ns_output
   06A3 79s00              2335 	mov	r1,#(_uip_nd6_ns_output >> 8)
   06A5 7As00              2336 	mov	r2,#(_uip_nd6_ns_output >> 16)
   06A7 12s00r00           2337 	lcall	__sdcc_banked_call
   06AA E5 81              2338 	mov	a,sp
   06AC 24 FA              2339 	add	a,#0xfa
   06AE F5 81              2340 	mov	sp,a
                           2341 ;	../../../contiki-sensinode//core/net/uip-ds6.c:244: stimer_set(&locnbr->sendns, uip_ds6_if.retrans_timer / 1000);
   06B0 90s00r1F           2342 	mov	dptr,#(_uip_ds6_if + 0x000d)
   06B3 E0                 2343 	movx	a,@dptr
   06B4 FB                 2344 	mov	r3,a
   06B5 A3                 2345 	inc	dptr
   06B6 E0                 2346 	movx	a,@dptr
   06B7 FD                 2347 	mov	r5,a
   06B8 A3                 2348 	inc	dptr
   06B9 E0                 2349 	movx	a,@dptr
   06BA FE                 2350 	mov	r6,a
   06BB A3                 2351 	inc	dptr
   06BC E0                 2352 	movx	a,@dptr
   06BD FF                 2353 	mov	r7,a
   06BE 74 E8              2354 	mov	a,#0xE8
   06C0 C0 E0              2355 	push	acc
   06C2 74 03              2356 	mov	a,#0x03
   06C4 C0 E0              2357 	push	acc
   06C6 E4                 2358 	clr	a
   06C7 C0 E0              2359 	push	acc
   06C9 C0 E0              2360 	push	acc
   06CB 8B 82              2361 	mov	dpl,r3
   06CD 8D 83              2362 	mov	dph,r5
   06CF 8E F0              2363 	mov	b,r6
   06D1 EF                 2364 	mov	a,r7
   06D2 12s00r00           2365 	lcall	__divulong
   06D5 C8                 2366 	xch	a,r0
   06D6 E5 81              2367 	mov	a,sp
   06D8 24 F9              2368 	add	a,#0xf9
   06DA C8                 2369 	xch	a,r0
   06DB A6 82              2370 	mov	@r0,dpl
   06DD 08                 2371 	inc	r0
   06DE A6 83              2372 	mov	@r0,dph
   06E0 08                 2373 	inc	r0
   06E1 A6 F0              2374 	mov	@r0,b
   06E3 08                 2375 	inc	r0
   06E4 F6                 2376 	mov	@r0,a
   06E5 E5 81              2377 	mov	a,sp
   06E7 24 FC              2378 	add	a,#0xfc
   06E9 F5 81              2379 	mov	sp,a
   06EB 90s02r19           2380 	mov	dptr,#_locnbr
   06EE E0                 2381 	movx	a,@dptr
   06EF FA                 2382 	mov	r2,a
   06F0 A3                 2383 	inc	dptr
   06F1 E0                 2384 	movx	a,@dptr
   06F2 FE                 2385 	mov	r6,a
   06F3 A3                 2386 	inc	dptr
   06F4 E0                 2387 	movx	a,@dptr
   06F5 FF                 2388 	mov	r7,a
   06F6 74 21              2389 	mov	a,#0x21
   06F8 2A                 2390 	add	a,r2
   06F9 FA                 2391 	mov	r2,a
   06FA E4                 2392 	clr	a
   06FB 3E                 2393 	addc	a,r6
   06FC FE                 2394 	mov	r6,a
   06FD E5 81              2395 	mov	a,sp
   06FF 24 FD              2396 	add	a,#0xfd
   0701 F8                 2397 	mov	r0,a
   0702 E6                 2398 	mov	a,@r0
   0703 C0 E0              2399 	push	acc
   0705 08                 2400 	inc	r0
   0706 E6                 2401 	mov	a,@r0
   0707 C0 E0              2402 	push	acc
   0709 08                 2403 	inc	r0
   070A E6                 2404 	mov	a,@r0
   070B C0 E0              2405 	push	acc
   070D 08                 2406 	inc	r0
   070E E6                 2407 	mov	a,@r0
   070F C0 E0              2408 	push	acc
   0711 8A 82              2409 	mov	dpl,r2
   0713 8E 83              2410 	mov	dph,r6
   0715 8F F0              2411 	mov	b,r7
   0717 78r00              2412 	mov	r0,#_stimer_set
   0719 79s00              2413 	mov	r1,#(_stimer_set >> 8)
   071B 7As00              2414 	mov	r2,#(_stimer_set >> 16)
   071D 12s00r00           2415 	lcall	__sdcc_banked_call
   0720 E5 81              2416 	mov	a,sp
   0722 24 FC              2417 	add	a,#0xfc
   0724 F5 81              2418 	mov	sp,a
                           2419 ;	../../../contiki-sensinode//core/net/uip-ds6.c:249: }
   0726                    2420 00140$:
                           2421 ;	../../../contiki-sensinode//core/net/uip-ds6.c:202: locnbr++) {
   0726 90s02r19           2422 	mov	dptr,#_locnbr
   0729 E0                 2423 	movx	a,@dptr
   072A 24 2E              2424 	add	a,#0x2E
   072C F0                 2425 	movx	@dptr,a
   072D A3                 2426 	inc	dptr
   072E E0                 2427 	movx	a,@dptr
   072F 34 00              2428 	addc	a,#0x00
   0731 F0                 2429 	movx	@dptr,a
   0732 02s02rC4           2430 	ljmp	00138$
   0735                    2431 00141$:
                           2432 ;	../../../contiki-sensinode//core/net/uip-ds6.c:259: etimer_reset(&uip_ds6_timer_periodic);
   0735 90s00r00           2433 	mov	dptr,#_uip_ds6_timer_periodic
   0738 75 F0 00           2434 	mov	b,#0x00
   073B 78r00              2435 	mov	r0,#_etimer_reset
   073D 79s00              2436 	mov	r1,#(_etimer_reset >> 8)
   073F 7As00              2437 	mov	r2,#(_etimer_reset >> 16)
   0741 12s00r00           2438 	lcall	__sdcc_banked_call
                           2439 ;	../../../contiki-sensinode//core/net/uip-ds6.c:260: return;
   0744 E5 81              2440 	mov	a,sp
   0746 24 F9              2441 	add	a,#0xF9
   0748 F5 81              2442 	mov	sp,a
   074A 02s00r00           2443 	ljmp	__sdcc_banked_ret
                           2444 ;------------------------------------------------------------
                           2445 ;Allocation info for local variables in function 'uip_ds6_list_loop'
                           2446 ;------------------------------------------------------------
                           2447 ;size                      Allocated to stack - sp -12
                           2448 ;elementsize               Allocated to stack - sp -14
                           2449 ;ipaddr                    Allocated to stack - sp -17
                           2450 ;ipaddrlen                 Allocated to stack - sp -18
                           2451 ;out_element               Allocated to stack - sp -21
                           2452 ;list                      Allocated to stack - sp -8
                           2453 ;element                   Allocated to stack - sp -5
                           2454 ;sloc0                     Allocated to stack - sp -2
                           2455 ;sloc1                     Allocated to stack - sp -1
                           2456 ;------------------------------------------------------------
                           2457 ;	../../../contiki-sensinode//core/net/uip-ds6.c:265: uip_ds6_list_loop(uip_ds6_element_t *list, uint8_t size,
                           2458 ;	-----------------------------------------
                           2459 ;	 function uip_ds6_list_loop
                           2460 ;	-----------------------------------------
   074D                    2461 _uip_ds6_list_loop:
   074D C0 82              2462 	push	dpl
   074F C0 83              2463 	push	dph
   0751 C0 F0              2464 	push	b
   0753 E5 81              2465 	mov	a,sp
   0755 24 06              2466 	add	a,#0x06
                           2467 ;	../../../contiki-sensinode//core/net/uip-ds6.c:271: *out_element = NULL;
   0757 F5 81              2468 	mov	sp,a
   0759 24 EB              2469 	add	a,#0xeb
   075B F8                 2470 	mov	r0,a
   075C 86 02              2471 	mov	ar2,@r0
   075E 08                 2472 	inc	r0
   075F 86 03              2473 	mov	ar3,@r0
   0761 08                 2474 	inc	r0
   0762 86 04              2475 	mov	ar4,@r0
   0764 8A 82              2476 	mov	dpl,r2
   0766 8B 83              2477 	mov	dph,r3
   0768 8C F0              2478 	mov	b,r4
   076A E4                 2479 	clr	a
   076B 12s00r00           2480 	lcall	__gptrput
   076E A3                 2481 	inc	dptr
   076F E4                 2482 	clr	a
   0770 12s00r00           2483 	lcall	__gptrput
   0773 A3                 2484 	inc	dptr
   0774 E4                 2485 	clr	a
   0775 12s00r00           2486 	lcall	__gptrput
                           2487 ;	../../../contiki-sensinode//core/net/uip-ds6.c:273: for(element = list;
   0778 E5 81              2488 	mov	a,sp
   077A 24 F8              2489 	add	a,#0xf8
   077C F8                 2490 	mov	r0,a
   077D E5 81              2491 	mov	a,sp
   077F 24 FB              2492 	add	a,#0xfb
   0781 F9                 2493 	mov	r1,a
   0782 E6                 2494 	mov	a,@r0
   0783 F7                 2495 	mov	@r1,a
   0784 08                 2496 	inc	r0
   0785 09                 2497 	inc	r1
   0786 E6                 2498 	mov	a,@r0
   0787 F7                 2499 	mov	@r1,a
   0788 08                 2500 	inc	r0
   0789 09                 2501 	inc	r1
   078A E6                 2502 	mov	a,@r0
   078B F7                 2503 	mov	@r1,a
   078C E5 81              2504 	mov	a,sp
   078E 24 EE              2505 	add	a,#0xee
   0790 F8                 2506 	mov	r0,a
   0791 A9 81              2507 	mov	r1,sp
   0793 19                 2508 	dec	r1
   0794 19                 2509 	dec	r1
   0795 E6                 2510 	mov	a,@r0
   0796 C4                 2511 	swap	a
   0797 23                 2512 	rl	a
   0798 54 1F              2513 	anl	a,#0x1F
   079A F7                 2514 	mov	@r1,a
   079B                    2515 00106$:
                           2516 ;	../../../contiki-sensinode//core/net/uip-ds6.c:275: (uip_ds6_element_t *)((uint8_t *)list + (size * elementsize));
   079B C0 02              2517 	push	ar2
   079D C0 03              2518 	push	ar3
   079F C0 04              2519 	push	ar4
   07A1 E5 81              2520 	mov	a,sp
   07A3 24 F5              2521 	add	a,#0xf5
   07A5 F8                 2522 	mov	r0,a
   07A6 86 02              2523 	mov	ar2,@r0
   07A8 08                 2524 	inc	r0
   07A9 86 03              2525 	mov	ar3,@r0
   07AB 08                 2526 	inc	r0
   07AC 86 04              2527 	mov	ar4,@r0
   07AE E5 81              2528 	mov	a,sp
   07B0 24 F1              2529 	add	a,#0xf1
   07B2 F8                 2530 	mov	r0,a
   07B3 86 06              2531 	mov	ar6,@r0
   07B5 7F 00              2532 	mov	r7,#0x00
   07B7 C0 04              2533 	push	ar4
   07B9 C0 03              2534 	push	ar3
   07BB C0 02              2535 	push	ar2
   07BD E5 81              2536 	mov	a,sp
   07BF 24 EC              2537 	add	a,#0xec
   07C1 F8                 2538 	mov	r0,a
   07C2 E6                 2539 	mov	a,@r0
   07C3 C0 E0              2540 	push	acc
   07C5 08                 2541 	inc	r0
   07C6 E6                 2542 	mov	a,@r0
   07C7 C0 E0              2543 	push	acc
   07C9 8E 82              2544 	mov	dpl,r6
   07CB 8F 83              2545 	mov	dph,r7
   07CD 12s00r00           2546 	lcall	__mulint
   07D0 AE 82              2547 	mov	r6,dpl
   07D2 AF 83              2548 	mov	r7,dph
   07D4 15 81              2549 	dec	sp
   07D6 15 81              2550 	dec	sp
   07D8 D0 02              2551 	pop	ar2
   07DA D0 03              2552 	pop	ar3
   07DC D0 04              2553 	pop	ar4
   07DE EE                 2554 	mov	a,r6
   07DF 2A                 2555 	add	a,r2
   07E0 FA                 2556 	mov	r2,a
   07E1 EF                 2557 	mov	a,r7
   07E2 3B                 2558 	addc	a,r3
   07E3 FB                 2559 	mov	r3,a
   07E4 E5 81              2560 	mov	a,sp
   07E6 24 F8              2561 	add	a,#0xf8
   07E8 F8                 2562 	mov	r0,a
   07E9 C0 02              2563 	push	ar2
   07EB C0 03              2564 	push	ar3
   07ED C0 04              2565 	push	ar4
   07EF 86 82              2566 	mov	dpl,@r0
   07F1 08                 2567 	inc	r0
   07F2 86 83              2568 	mov	dph,@r0
   07F4 08                 2569 	inc	r0
   07F5 86 F0              2570 	mov	b,@r0
   07F7 12s00r00           2571 	lcall	___gptr_cmp
   07FA 15 81              2572 	dec	sp
   07FC 15 81              2573 	dec	sp
   07FE 15 81              2574 	dec	sp
   0800 D0 04              2575 	pop	ar4
   0802 D0 03              2576 	pop	ar3
   0804 D0 02              2577 	pop	ar2
   0806 40 03              2578 	jc	00124$
   0808 02s08rF7           2579 	ljmp	00109$
   080B                    2580 00124$:
                           2581 ;	../../../contiki-sensinode//core/net/uip-ds6.c:277: if(element->isused) {
   080B E5 81              2582 	mov	a,sp
   080D 24 FB              2583 	add	a,#0xfb
   080F F8                 2584 	mov	r0,a
   0810 86 82              2585 	mov	dpl,@r0
   0812 08                 2586 	inc	r0
   0813 86 83              2587 	mov	dph,@r0
   0815 08                 2588 	inc	r0
   0816 86 F0              2589 	mov	b,@r0
   0818 12s00r00           2590 	lcall	__gptrget
   081B 70 03              2591 	jnz	00125$
   081D 02s08rB3           2592 	ljmp	00104$
   0820                    2593 00125$:
                           2594 ;	../../../contiki-sensinode//core/net/uip-ds6.c:278: if(uip_ipaddr_prefixcmp(&element->ipaddr, ipaddr, ipaddrlen)) {
   0820 C0 02              2595 	push	ar2
   0822 C0 03              2596 	push	ar3
   0824 C0 04              2597 	push	ar4
   0826 E5 81              2598 	mov	a,sp
   0828 24 FB              2599 	add	a,#0xfb
   082A F8                 2600 	mov	r0,a
   082B E5 81              2601 	mov	a,sp
   082D 24 FC              2602 	add	a,#0xfc
   082F F9                 2603 	mov	r1,a
   0830 E6                 2604 	mov	a,@r0
   0831 F7                 2605 	mov	@r1,a
   0832 09                 2606 	inc	r1
   0833 77 00              2607 	mov	@r1,#0x00
   0835 E5 81              2608 	mov	a,sp
   0837 24 EC              2609 	add	a,#0xec
   0839 F8                 2610 	mov	r0,a
   083A 86 03              2611 	mov	ar3,@r0
   083C 08                 2612 	inc	r0
   083D 86 04              2613 	mov	ar4,@r0
   083F 08                 2614 	inc	r0
   0840 86 05              2615 	mov	ar5,@r0
   0842 E5 81              2616 	mov	a,sp
   0844 24 F8              2617 	add	a,#0xf8
   0846 F8                 2618 	mov	r0,a
   0847 74 01              2619 	mov	a,#0x01
   0849 26                 2620 	add	a,@r0
   084A FA                 2621 	mov	r2,a
   084B E4                 2622 	clr	a
   084C 08                 2623 	inc	r0
   084D 36                 2624 	addc	a,@r0
   084E FE                 2625 	mov	r6,a
   084F 08                 2626 	inc	r0
   0850 86 07              2627 	mov	ar7,@r0
   0852 C0 04              2628 	push	ar4
   0854 C0 03              2629 	push	ar3
   0856 C0 02              2630 	push	ar2
   0858 E5 81              2631 	mov	a,sp
   085A 24 F9              2632 	add	a,#0xf9
   085C F8                 2633 	mov	r0,a
   085D E6                 2634 	mov	a,@r0
   085E C0 E0              2635 	push	acc
   0860 08                 2636 	inc	r0
   0861 E6                 2637 	mov	a,@r0
   0862 C0 E0              2638 	push	acc
   0864 C0 03              2639 	push	ar3
   0866 C0 04              2640 	push	ar4
   0868 C0 05              2641 	push	ar5
   086A 8A 82              2642 	mov	dpl,r2
   086C 8E 83              2643 	mov	dph,r6
   086E 8F F0              2644 	mov	b,r7
   0870 78r00              2645 	mov	r0,#_memcmp
   0872 79s00              2646 	mov	r1,#(_memcmp >> 8)
   0874 7As00              2647 	mov	r2,#(_memcmp >> 16)
   0876 12s00r00           2648 	lcall	__sdcc_banked_call
   0879 AE 82              2649 	mov	r6,dpl
   087B AF 83              2650 	mov	r7,dph
   087D E5 81              2651 	mov	a,sp
   087F 24 FB              2652 	add	a,#0xfb
   0881 F5 81              2653 	mov	sp,a
   0883 D0 02              2654 	pop	ar2
   0885 D0 03              2655 	pop	ar3
   0887 D0 04              2656 	pop	ar4
   0889 D0 04              2657 	pop	ar4
   088B D0 03              2658 	pop	ar3
   088D D0 02              2659 	pop	ar2
   088F EE                 2660 	mov	a,r6
   0890 4F                 2661 	orl	a,r7
   0891 70 3B              2662 	jnz	00108$
                           2663 ;	../../../contiki-sensinode//core/net/uip-ds6.c:279: *out_element = element;
   0893 8A 82              2664 	mov	dpl,r2
   0895 8B 83              2665 	mov	dph,r3
   0897 8C F0              2666 	mov	b,r4
   0899 E5 81              2667 	mov	a,sp
   089B 24 FB              2668 	add	a,#0xfb
   089D F8                 2669 	mov	r0,a
   089E E6                 2670 	mov	a,@r0
   089F 12s00r00           2671 	lcall	__gptrput
   08A2 A3                 2672 	inc	dptr
   08A3 08                 2673 	inc	r0
   08A4 E6                 2674 	mov	a,@r0
   08A5 12s00r00           2675 	lcall	__gptrput
   08A8 A3                 2676 	inc	dptr
   08A9 08                 2677 	inc	r0
   08AA E6                 2678 	mov	a,@r0
   08AB 12s00r00           2679 	lcall	__gptrput
                           2680 ;	../../../contiki-sensinode//core/net/uip-ds6.c:280: return FOUND;
   08AE 75 82 00           2681 	mov	dpl,#0x00
   08B1 80 64              2682 	sjmp	00110$
   08B3                    2683 00104$:
                           2684 ;	../../../contiki-sensinode//core/net/uip-ds6.c:283: *out_element = element;
   08B3 8A 82              2685 	mov	dpl,r2
   08B5 8B 83              2686 	mov	dph,r3
   08B7 8C F0              2687 	mov	b,r4
   08B9 E5 81              2688 	mov	a,sp
   08BB 24 FB              2689 	add	a,#0xfb
   08BD F8                 2690 	mov	r0,a
   08BE E6                 2691 	mov	a,@r0
   08BF 12s00r00           2692 	lcall	__gptrput
   08C2 A3                 2693 	inc	dptr
   08C3 08                 2694 	inc	r0
   08C4 E6                 2695 	mov	a,@r0
   08C5 12s00r00           2696 	lcall	__gptrput
   08C8 A3                 2697 	inc	dptr
   08C9 08                 2698 	inc	r0
   08CA E6                 2699 	mov	a,@r0
   08CB 12s00r00           2700 	lcall	__gptrput
   08CE                    2701 00108$:
                           2702 ;	../../../contiki-sensinode//core/net/uip-ds6.c:276: element = (uip_ds6_element_t *)((uint8_t *)element + elementsize)) {
   08CE E5 81              2703 	mov	a,sp
   08D0 24 FB              2704 	add	a,#0xfb
   08D2 F8                 2705 	mov	r0,a
   08D3 86 05              2706 	mov	ar5,@r0
   08D5 08                 2707 	inc	r0
   08D6 86 06              2708 	mov	ar6,@r0
   08D8 08                 2709 	inc	r0
   08D9 86 07              2710 	mov	ar7,@r0
   08DB E5 81              2711 	mov	a,sp
   08DD 24 F2              2712 	add	a,#0xf2
   08DF F8                 2713 	mov	r0,a
   08E0 E6                 2714 	mov	a,@r0
   08E1 2D                 2715 	add	a,r5
   08E2 FD                 2716 	mov	r5,a
   08E3 08                 2717 	inc	r0
   08E4 E6                 2718 	mov	a,@r0
   08E5 3E                 2719 	addc	a,r6
   08E6 FE                 2720 	mov	r6,a
   08E7 E5 81              2721 	mov	a,sp
   08E9 24 FB              2722 	add	a,#0xfb
   08EB F8                 2723 	mov	r0,a
   08EC A6 05              2724 	mov	@r0,ar5
   08EE 08                 2725 	inc	r0
   08EF A6 06              2726 	mov	@r0,ar6
   08F1 08                 2727 	inc	r0
   08F2 A6 07              2728 	mov	@r0,ar7
   08F4 02s07r9B           2729 	ljmp	00106$
   08F7                    2730 00109$:
                           2731 ;	../../../contiki-sensinode//core/net/uip-ds6.c:287: return *out_element != NULL ? FREESPACE : NOSPACE;
   08F7 8A 82              2732 	mov	dpl,r2
   08F9 8B 83              2733 	mov	dph,r3
   08FB 8C F0              2734 	mov	b,r4
   08FD 12s00r00           2735 	lcall	__gptrget
   0900 FA                 2736 	mov	r2,a
   0901 A3                 2737 	inc	dptr
   0902 12s00r00           2738 	lcall	__gptrget
   0905 FB                 2739 	mov	r3,a
   0906 A3                 2740 	inc	dptr
   0907 12s00r00           2741 	lcall	__gptrget
   090A FC                 2742 	mov	r4,a
   090B EA                 2743 	mov	a,r2
   090C 4B                 2744 	orl	a,r3
   090D 60 04              2745 	jz	00112$
   090F 7F 01              2746 	mov	r7,#0x01
   0911 80 02              2747 	sjmp	00113$
   0913                    2748 00112$:
   0913 7F 02              2749 	mov	r7,#0x02
   0915                    2750 00113$:
   0915 8F 82              2751 	mov	dpl,r7
   0917                    2752 00110$:
   0917 E5 81              2753 	mov	a,sp
   0919 24 F7              2754 	add	a,#0xF7
   091B F5 81              2755 	mov	sp,a
   091D 02s00r00           2756 	ljmp	__sdcc_banked_ret
                           2757 ;------------------------------------------------------------
                           2758 ;Allocation info for local variables in function 'uip_ds6_nbr_add'
                           2759 ;------------------------------------------------------------
                           2760 ;lladdr                    Allocated to stack - sp -14
                           2761 ;isrouter                  Allocated to stack - sp -15
                           2762 ;state                     Allocated to stack - sp -16
                           2763 ;ipaddr                    Allocated to stack - sp -8
                           2764 ;r                         Allocated to registers r3 r4 
                           2765 ;n                         Allocated to registers 
                           2766 ;oldest                    Allocated to stack - sp -5
                           2767 ;oldest_time               Allocated to registers r3 r4 
                           2768 ;sloc0                     Allocated to stack - sp +5
                           2769 ;sloc1                     Allocated to stack - sp -2
                           2770 ;------------------------------------------------------------
                           2771 ;	../../../contiki-sensinode//core/net/uip-ds6.c:292: uip_ds6_nbr_add(uip_ipaddr_t *ipaddr, uip_lladdr_t *lladdr,
                           2772 ;	-----------------------------------------
                           2773 ;	 function uip_ds6_nbr_add
                           2774 ;	-----------------------------------------
   0920                    2775 _uip_ds6_nbr_add:
   0920 C0 82              2776 	push	dpl
   0922 C0 83              2777 	push	dph
   0924 C0 F0              2778 	push	b
   0926 E5 81              2779 	mov	a,sp
   0928 24 06              2780 	add	a,#0x06
   092A F5 81              2781 	mov	sp,a
                           2782 ;	../../../contiki-sensinode//core/net/uip-ds6.c:300: (uip_ds6_element_t **)&locnbr);
   092C 7Br19              2783 	mov	r3,#_locnbr
   092E 7Cs02              2784 	mov	r4,#(_locnbr >> 8)
   0930 7A 00              2785 	mov	r2,#0x00
                           2786 ;	../../../contiki-sensinode//core/net/uip-ds6.c:298: ((uip_ds6_element_t *)uip_ds6_nbr_cache, UIP_DS6_NBR_NB,
   0932 C0 03              2787 	push	ar3
   0934 C0 04              2788 	push	ar4
   0936 C0 02              2789 	push	ar2
   0938 74 80              2790 	mov	a,#0x80
   093A C0 E0              2791 	push	acc
   093C E5 81              2792 	mov	a,sp
   093E 24 F4              2793 	add	a,#0xf4
   0940 F8                 2794 	mov	r0,a
   0941 E6                 2795 	mov	a,@r0
   0942 C0 E0              2796 	push	acc
   0944 08                 2797 	inc	r0
   0945 E6                 2798 	mov	a,@r0
   0946 C0 E0              2799 	push	acc
   0948 08                 2800 	inc	r0
   0949 E6                 2801 	mov	a,@r0
   094A C0 E0              2802 	push	acc
   094C 74 2E              2803 	mov	a,#0x2E
   094E C0 E0              2804 	push	acc
   0950 E4                 2805 	clr	a
   0951 C0 E0              2806 	push	acc
   0953 74 04              2807 	mov	a,#0x04
   0955 C0 E0              2808 	push	acc
   0957 90s00rEF           2809 	mov	dptr,#_uip_ds6_nbr_cache
   095A 75 F0 00           2810 	mov	b,#0x00
   095D 78r4D              2811 	mov	r0,#_uip_ds6_list_loop
   095F 79s07              2812 	mov	r1,#(_uip_ds6_list_loop >> 8)
   0961 7As00              2813 	mov	r2,#(_uip_ds6_list_loop >> 16)
   0963 12s00r00           2814 	lcall	__sdcc_banked_call
   0966 AC 82              2815 	mov	r4,dpl
   0968 E5 81              2816 	mov	a,sp
   096A 24 F6              2817 	add	a,#0xf6
   096C F5 81              2818 	mov	sp,a
   096E 8C 03              2819 	mov	ar3,r4
   0970 7C 00              2820 	mov	r4,#0x00
                           2821 ;	../../../contiki-sensinode//core/net/uip-ds6.c:302: if(r == FREESPACE) {
   0972 BB 01 05           2822 	cjne	r3,#0x01,00141$
   0975 BC 00 02           2823 	cjne	r4,#0x00,00141$
   0978 80 03              2824 	sjmp	00142$
   097A                    2825 00141$:
   097A 02s0Br7C           2826 	ljmp	00114$
   097D                    2827 00142$:
                           2828 ;	../../../contiki-sensinode//core/net/uip-ds6.c:303: locnbr->isused = 1;
   097D 90s02r19           2829 	mov	dptr,#_locnbr
   0980 E0                 2830 	movx	a,@dptr
   0981 FD                 2831 	mov	r5,a
   0982 A3                 2832 	inc	dptr
   0983 E0                 2833 	movx	a,@dptr
   0984 FE                 2834 	mov	r6,a
   0985 A3                 2835 	inc	dptr
   0986 E0                 2836 	movx	a,@dptr
   0987 FF                 2837 	mov	r7,a
   0988 8D 82              2838 	mov	dpl,r5
   098A 8E 83              2839 	mov	dph,r6
   098C 8F F0              2840 	mov	b,r7
   098E 74 01              2841 	mov	a,#0x01
   0990 12s00r00           2842 	lcall	__gptrput
                           2843 ;	../../../contiki-sensinode//core/net/uip-ds6.c:304: uip_ipaddr_copy(&locnbr->ipaddr, ipaddr);
   0993 E5 81              2844 	mov	a,sp
   0995 24 F8              2845 	add	a,#0xf8
   0997 F8                 2846 	mov	r0,a
   0998 A9 81              2847 	mov	r1,sp
   099A 19                 2848 	dec	r1
   099B 19                 2849 	dec	r1
   099C E6                 2850 	mov	a,@r0
   099D F7                 2851 	mov	@r1,a
   099E 08                 2852 	inc	r0
   099F 09                 2853 	inc	r1
   09A0 E6                 2854 	mov	a,@r0
   09A1 F7                 2855 	mov	@r1,a
   09A2 08                 2856 	inc	r0
   09A3 09                 2857 	inc	r1
   09A4 E6                 2858 	mov	a,@r0
   09A5 F7                 2859 	mov	@r1,a
   09A6 74 01              2860 	mov	a,#0x01
   09A8 2D                 2861 	add	a,r5
   09A9 FA                 2862 	mov	r2,a
   09AA E4                 2863 	clr	a
   09AB 3E                 2864 	addc	a,r6
   09AC FE                 2865 	mov	r6,a
   09AD 74 10              2866 	mov	a,#0x10
   09AF C0 E0              2867 	push	acc
   09B1 E4                 2868 	clr	a
   09B2 C0 E0              2869 	push	acc
   09B4 E5 81              2870 	mov	a,sp
   09B6 24 FC              2871 	add	a,#0xfc
   09B8 F8                 2872 	mov	r0,a
   09B9 E6                 2873 	mov	a,@r0
   09BA C0 E0              2874 	push	acc
   09BC 08                 2875 	inc	r0
   09BD E6                 2876 	mov	a,@r0
   09BE C0 E0              2877 	push	acc
   09C0 08                 2878 	inc	r0
   09C1 E6                 2879 	mov	a,@r0
   09C2 C0 E0              2880 	push	acc
   09C4 8A 82              2881 	mov	dpl,r2
   09C6 8E 83              2882 	mov	dph,r6
   09C8 8F F0              2883 	mov	b,r7
   09CA 78r00              2884 	mov	r0,#_memcpy
   09CC 79s00              2885 	mov	r1,#(_memcpy >> 8)
   09CE 7As00              2886 	mov	r2,#(_memcpy >> 16)
   09D0 12s00r00           2887 	lcall	__sdcc_banked_call
   09D3 E5 81              2888 	mov	a,sp
   09D5 24 FB              2889 	add	a,#0xfb
                           2890 ;	../../../contiki-sensinode//core/net/uip-ds6.c:305: if(lladdr != NULL) {
   09D7 F5 81              2891 	mov	sp,a
   09D9 24 F2              2892 	add	a,#0xf2
   09DB F8                 2893 	mov	r0,a
   09DC E6                 2894 	mov	a,@r0
   09DD 08                 2895 	inc	r0
   09DE 46                 2896 	orl	a,@r0
   09DF 60 43              2897 	jz	00102$
                           2898 ;	../../../contiki-sensinode//core/net/uip-ds6.c:306: memcpy(&locnbr->lladdr, lladdr, UIP_LLADDR_LEN);
   09E1 E5 81              2899 	mov	a,sp
   09E3 24 F2              2900 	add	a,#0xf2
   09E5 F8                 2901 	mov	r0,a
   09E6 86 05              2902 	mov	ar5,@r0
   09E8 08                 2903 	inc	r0
   09E9 86 04              2904 	mov	ar4,@r0
   09EB 08                 2905 	inc	r0
   09EC 86 03              2906 	mov	ar3,@r0
   09EE 90s02r19           2907 	mov	dptr,#_locnbr
   09F1 E0                 2908 	movx	a,@dptr
   09F2 FA                 2909 	mov	r2,a
   09F3 A3                 2910 	inc	dptr
   09F4 E0                 2911 	movx	a,@dptr
   09F5 FE                 2912 	mov	r6,a
   09F6 A3                 2913 	inc	dptr
   09F7 E0                 2914 	movx	a,@dptr
   09F8 FF                 2915 	mov	r7,a
   09F9 74 11              2916 	mov	a,#0x11
   09FB 2A                 2917 	add	a,r2
   09FC FA                 2918 	mov	r2,a
   09FD E4                 2919 	clr	a
   09FE 3E                 2920 	addc	a,r6
   09FF FE                 2921 	mov	r6,a
   0A00 74 08              2922 	mov	a,#0x08
   0A02 C0 E0              2923 	push	acc
   0A04 E4                 2924 	clr	a
   0A05 C0 E0              2925 	push	acc
   0A07 C0 05              2926 	push	ar5
   0A09 C0 04              2927 	push	ar4
   0A0B C0 03              2928 	push	ar3
   0A0D 8A 82              2929 	mov	dpl,r2
   0A0F 8E 83              2930 	mov	dph,r6
   0A11 8F F0              2931 	mov	b,r7
   0A13 78r00              2932 	mov	r0,#_memcpy
   0A15 79s00              2933 	mov	r1,#(_memcpy >> 8)
   0A17 7As00              2934 	mov	r2,#(_memcpy >> 16)
   0A19 12s00r00           2935 	lcall	__sdcc_banked_call
   0A1C E5 81              2936 	mov	a,sp
   0A1E 24 FB              2937 	add	a,#0xfb
   0A20 F5 81              2938 	mov	sp,a
   0A22 80 31              2939 	sjmp	00103$
   0A24                    2940 00102$:
                           2941 ;	../../../contiki-sensinode//core/net/uip-ds6.c:308: memset(&locnbr->lladdr, 0, UIP_LLADDR_LEN);
   0A24 90s02r19           2942 	mov	dptr,#_locnbr
   0A27 E0                 2943 	movx	a,@dptr
   0A28 FD                 2944 	mov	r5,a
   0A29 A3                 2945 	inc	dptr
   0A2A E0                 2946 	movx	a,@dptr
   0A2B FE                 2947 	mov	r6,a
   0A2C A3                 2948 	inc	dptr
   0A2D E0                 2949 	movx	a,@dptr
   0A2E FF                 2950 	mov	r7,a
   0A2F 74 11              2951 	mov	a,#0x11
   0A31 2D                 2952 	add	a,r5
   0A32 FD                 2953 	mov	r5,a
   0A33 E4                 2954 	clr	a
   0A34 3E                 2955 	addc	a,r6
   0A35 FE                 2956 	mov	r6,a
   0A36 74 08              2957 	mov	a,#0x08
   0A38 C0 E0              2958 	push	acc
   0A3A E4                 2959 	clr	a
   0A3B C0 E0              2960 	push	acc
   0A3D E4                 2961 	clr	a
   0A3E C0 E0              2962 	push	acc
   0A40 8D 82              2963 	mov	dpl,r5
   0A42 8E 83              2964 	mov	dph,r6
   0A44 8F F0              2965 	mov	b,r7
   0A46 78r00              2966 	mov	r0,#_memset
   0A48 79s00              2967 	mov	r1,#(_memset >> 8)
   0A4A 7As00              2968 	mov	r2,#(_memset >> 16)
   0A4C 12s00r00           2969 	lcall	__sdcc_banked_call
   0A4F 15 81              2970 	dec	sp
   0A51 15 81              2971 	dec	sp
   0A53 15 81              2972 	dec	sp
   0A55                    2973 00103$:
                           2974 ;	../../../contiki-sensinode//core/net/uip-ds6.c:310: locnbr->isrouter = isrouter;
   0A55 90s02r19           2975 	mov	dptr,#_locnbr
   0A58 A8 81              2976 	mov	r0,sp
   0A5A 18                 2977 	dec	r0
   0A5B 18                 2978 	dec	r0
   0A5C E0                 2979 	movx	a,@dptr
   0A5D F6                 2980 	mov	@r0,a
   0A5E A3                 2981 	inc	dptr
   0A5F E0                 2982 	movx	a,@dptr
   0A60 08                 2983 	inc	r0
   0A61 F6                 2984 	mov	@r0,a
   0A62 A3                 2985 	inc	dptr
   0A63 E0                 2986 	movx	a,@dptr
   0A64 08                 2987 	inc	r0
   0A65 F6                 2988 	mov	@r0,a
   0A66 A8 81              2989 	mov	r0,sp
   0A68 18                 2990 	dec	r0
   0A69 18                 2991 	dec	r0
   0A6A 74 2C              2992 	mov	a,#0x2C
   0A6C 26                 2993 	add	a,@r0
   0A6D FA                 2994 	mov	r2,a
   0A6E E4                 2995 	clr	a
   0A6F 08                 2996 	inc	r0
   0A70 36                 2997 	addc	a,@r0
   0A71 FE                 2998 	mov	r6,a
   0A72 08                 2999 	inc	r0
   0A73 86 07              3000 	mov	ar7,@r0
   0A75 8A 82              3001 	mov	dpl,r2
   0A77 8E 83              3002 	mov	dph,r6
   0A79 8F F0              3003 	mov	b,r7
   0A7B E5 81              3004 	mov	a,sp
   0A7D 24 F1              3005 	add	a,#0xf1
   0A7F F8                 3006 	mov	r0,a
   0A80 E6                 3007 	mov	a,@r0
   0A81 12s00r00           3008 	lcall	__gptrput
                           3009 ;	../../../contiki-sensinode//core/net/uip-ds6.c:311: locnbr->state = state;
   0A84 A8 81              3010 	mov	r0,sp
   0A86 18                 3011 	dec	r0
   0A87 18                 3012 	dec	r0
   0A88 74 2D              3013 	mov	a,#0x2D
   0A8A 26                 3014 	add	a,@r0
   0A8B FD                 3015 	mov	r5,a
   0A8C E4                 3016 	clr	a
   0A8D 08                 3017 	inc	r0
   0A8E 36                 3018 	addc	a,@r0
   0A8F FE                 3019 	mov	r6,a
   0A90 08                 3020 	inc	r0
   0A91 86 07              3021 	mov	ar7,@r0
   0A93 8D 82              3022 	mov	dpl,r5
   0A95 8E 83              3023 	mov	dph,r6
   0A97 8F F0              3024 	mov	b,r7
   0A99 E5 81              3025 	mov	a,sp
   0A9B 24 F0              3026 	add	a,#0xf0
   0A9D F8                 3027 	mov	r0,a
   0A9E E6                 3028 	mov	a,@r0
   0A9F 12s00r00           3029 	lcall	__gptrput
                           3030 ;	../../../contiki-sensinode//core/net/uip-ds6.c:316: stimer_set(&locnbr->reachable, 0);
   0AA2 A8 81              3031 	mov	r0,sp
   0AA4 18                 3032 	dec	r0
   0AA5 18                 3033 	dec	r0
   0AA6 74 19              3034 	mov	a,#0x19
   0AA8 26                 3035 	add	a,@r0
   0AA9 FD                 3036 	mov	r5,a
   0AAA E4                 3037 	clr	a
   0AAB 08                 3038 	inc	r0
   0AAC 36                 3039 	addc	a,@r0
   0AAD FE                 3040 	mov	r6,a
   0AAE 08                 3041 	inc	r0
   0AAF 86 07              3042 	mov	ar7,@r0
   0AB1 E4                 3043 	clr	a
   0AB2 C0 E0              3044 	push	acc
   0AB4 C0 E0              3045 	push	acc
   0AB6 C0 E0              3046 	push	acc
   0AB8 C0 E0              3047 	push	acc
   0ABA 8D 82              3048 	mov	dpl,r5
   0ABC 8E 83              3049 	mov	dph,r6
   0ABE 8F F0              3050 	mov	b,r7
   0AC0 78r00              3051 	mov	r0,#_stimer_set
   0AC2 79s00              3052 	mov	r1,#(_stimer_set >> 8)
   0AC4 7As00              3053 	mov	r2,#(_stimer_set >> 16)
   0AC6 12s00r00           3054 	lcall	__sdcc_banked_call
   0AC9 E5 81              3055 	mov	a,sp
   0ACB 24 FC              3056 	add	a,#0xfc
   0ACD F5 81              3057 	mov	sp,a
                           3058 ;	../../../contiki-sensinode//core/net/uip-ds6.c:317: stimer_set(&locnbr->sendns, 0);
   0ACF 90s02r19           3059 	mov	dptr,#_locnbr
   0AD2 E0                 3060 	movx	a,@dptr
   0AD3 FD                 3061 	mov	r5,a
   0AD4 A3                 3062 	inc	dptr
   0AD5 E0                 3063 	movx	a,@dptr
   0AD6 FE                 3064 	mov	r6,a
   0AD7 A3                 3065 	inc	dptr
   0AD8 E0                 3066 	movx	a,@dptr
   0AD9 FF                 3067 	mov	r7,a
   0ADA 74 21              3068 	mov	a,#0x21
   0ADC 2D                 3069 	add	a,r5
   0ADD FD                 3070 	mov	r5,a
   0ADE E4                 3071 	clr	a
   0ADF 3E                 3072 	addc	a,r6
   0AE0 FE                 3073 	mov	r6,a
   0AE1 E4                 3074 	clr	a
   0AE2 C0 E0              3075 	push	acc
   0AE4 C0 E0              3076 	push	acc
   0AE6 C0 E0              3077 	push	acc
   0AE8 C0 E0              3078 	push	acc
   0AEA 8D 82              3079 	mov	dpl,r5
   0AEC 8E 83              3080 	mov	dph,r6
   0AEE 8F F0              3081 	mov	b,r7
   0AF0 78r00              3082 	mov	r0,#_stimer_set
   0AF2 79s00              3083 	mov	r1,#(_stimer_set >> 8)
   0AF4 7As00              3084 	mov	r2,#(_stimer_set >> 16)
   0AF6 12s00r00           3085 	lcall	__sdcc_banked_call
   0AF9 E5 81              3086 	mov	a,sp
   0AFB 24 FC              3087 	add	a,#0xfc
   0AFD F5 81              3088 	mov	sp,a
                           3089 ;	../../../contiki-sensinode//core/net/uip-ds6.c:318: locnbr->nscount = 0;
   0AFF 90s02r19           3090 	mov	dptr,#_locnbr
   0B02 E0                 3091 	movx	a,@dptr
   0B03 FD                 3092 	mov	r5,a
   0B04 A3                 3093 	inc	dptr
   0B05 E0                 3094 	movx	a,@dptr
   0B06 FC                 3095 	mov	r4,a
   0B07 A3                 3096 	inc	dptr
   0B08 E0                 3097 	movx	a,@dptr
   0B09 FB                 3098 	mov	r3,a
   0B0A 74 2B              3099 	mov	a,#0x2B
   0B0C 2D                 3100 	add	a,r5
   0B0D FA                 3101 	mov	r2,a
   0B0E E4                 3102 	clr	a
   0B0F 3C                 3103 	addc	a,r4
   0B10 FE                 3104 	mov	r6,a
   0B11 8B 07              3105 	mov	ar7,r3
   0B13 8A 82              3106 	mov	dpl,r2
   0B15 8E 83              3107 	mov	dph,r6
   0B17 8F F0              3108 	mov	b,r7
   0B19 E4                 3109 	clr	a
   0B1A 12s00r00           3110 	lcall	__gptrput
                           3111 ;	../../../contiki-sensinode//core/net/uip-ds6.c:324: NEIGHBOR_STATE_CHANGED(locnbr);
   0B1D 8D 82              3112 	mov	dpl,r5
   0B1F 8C 83              3113 	mov	dph,r4
   0B21 8B F0              3114 	mov	b,r3
   0B23 78r00              3115 	mov	r0,#_rpl_ipv6_neighbor_callback
   0B25 79s00              3116 	mov	r1,#(_rpl_ipv6_neighbor_callback >> 8)
   0B27 7As00              3117 	mov	r2,#(_rpl_ipv6_neighbor_callback >> 16)
   0B29 12s00r00           3118 	lcall	__sdcc_banked_call
                           3119 ;	../../../contiki-sensinode//core/net/uip-ds6.c:326: locnbr->last_lookup = clock_time();
   0B2C 90s02r19           3120 	mov	dptr,#_locnbr
   0B2F E0                 3121 	movx	a,@dptr
   0B30 FD                 3122 	mov	r5,a
   0B31 A3                 3123 	inc	dptr
   0B32 E0                 3124 	movx	a,@dptr
   0B33 FE                 3125 	mov	r6,a
   0B34 A3                 3126 	inc	dptr
   0B35 E0                 3127 	movx	a,@dptr
   0B36 FF                 3128 	mov	r7,a
   0B37 74 29              3129 	mov	a,#0x29
   0B39 2D                 3130 	add	a,r5
   0B3A FD                 3131 	mov	r5,a
   0B3B E4                 3132 	clr	a
   0B3C 3E                 3133 	addc	a,r6
   0B3D FE                 3134 	mov	r6,a
   0B3E 8F 04              3135 	mov	ar4,r7
   0B40 C0 06              3136 	push	ar6
   0B42 C0 05              3137 	push	ar5
   0B44 C0 04              3138 	push	ar4
   0B46 78r00              3139 	mov	r0,#_clock_time
   0B48 79s00              3140 	mov	r1,#(_clock_time >> 8)
   0B4A 7As00              3141 	mov	r2,#(_clock_time >> 16)
   0B4C 12s00r00           3142 	lcall	__sdcc_banked_call
   0B4F AA 82              3143 	mov	r2,dpl
   0B51 AF 83              3144 	mov	r7,dph
   0B53 D0 04              3145 	pop	ar4
   0B55 D0 05              3146 	pop	ar5
   0B57 D0 06              3147 	pop	ar6
   0B59 8D 82              3148 	mov	dpl,r5
   0B5B 8E 83              3149 	mov	dph,r6
   0B5D 8C F0              3150 	mov	b,r4
   0B5F EA                 3151 	mov	a,r2
   0B60 12s00r00           3152 	lcall	__gptrput
   0B63 A3                 3153 	inc	dptr
   0B64 EF                 3154 	mov	a,r7
   0B65 12s00r00           3155 	lcall	__gptrput
                           3156 ;	../../../contiki-sensinode//core/net/uip-ds6.c:327: return locnbr;
   0B68 90s02r19           3157 	mov	dptr,#_locnbr
   0B6B E0                 3158 	movx	a,@dptr
   0B6C FD                 3159 	mov	r5,a
   0B6D A3                 3160 	inc	dptr
   0B6E E0                 3161 	movx	a,@dptr
   0B6F FE                 3162 	mov	r6,a
   0B70 A3                 3163 	inc	dptr
   0B71 E0                 3164 	movx	a,@dptr
   0B72 FF                 3165 	mov	r7,a
   0B73 8D 82              3166 	mov	dpl,r5
   0B75 8E 83              3167 	mov	dph,r6
   0B77 8F F0              3168 	mov	b,r7
   0B79 02s0CrD0           3169 	ljmp	00120$
   0B7C                    3170 00114$:
                           3171 ;	../../../contiki-sensinode//core/net/uip-ds6.c:328: } else if(r == NOSPACE) {
   0B7C BB 02 05           3172 	cjne	r3,#0x02,00144$
   0B7F BC 00 02           3173 	cjne	r4,#0x00,00144$
   0B82 80 03              3174 	sjmp	00145$
   0B84                    3175 00144$:
   0B84 02s0CrCA           3176 	ljmp	00115$
   0B87                    3177 00145$:
                           3178 ;	../../../contiki-sensinode//core/net/uip-ds6.c:334: oldest = NULL;
   0B87 A8 81              3179 	mov	r0,sp
   0B89 18                 3180 	dec	r0
   0B8A 18                 3181 	dec	r0
   0B8B E4                 3182 	clr	a
   0B8C F6                 3183 	mov	@r0,a
   0B8D 08                 3184 	inc	r0
   0B8E F6                 3185 	mov	@r0,a
   0B8F 08                 3186 	inc	r0
   0B90 76 00              3187 	mov	@r0,#0x00
                           3188 ;	../../../contiki-sensinode//core/net/uip-ds6.c:335: oldest_time = clock_time();
   0B92 78r00              3189 	mov	r0,#_clock_time
   0B94 79s00              3190 	mov	r1,#(_clock_time >> 8)
   0B96 7As00              3191 	mov	r2,#(_clock_time >> 16)
   0B98 12s00r00           3192 	lcall	__sdcc_banked_call
   0B9B AB 82              3193 	mov	r3,dpl
   0B9D AC 83              3194 	mov	r4,dph
                           3195 ;	../../../contiki-sensinode//core/net/uip-ds6.c:337: for(n = uip_ds6_nbr_cache;
   0B9F E5 81              3196 	mov	a,sp
   0BA1 24 FB              3197 	add	a,#0xfb
   0BA3 F8                 3198 	mov	r0,a
   0BA4 76rEF              3199 	mov	@r0,#_uip_ds6_nbr_cache
   0BA6 08                 3200 	inc	r0
   0BA7 76s00              3201 	mov	@r0,#(_uip_ds6_nbr_cache >> 8)
   0BA9 08                 3202 	inc	r0
   0BAA 76 00              3203 	mov	@r0,#0x00
   0BAC                    3204 00116$:
                           3205 ;	../../../contiki-sensinode//core/net/uip-ds6.c:338: n < &uip_ds6_nbr_cache[UIP_DS6_NBR_NB];
   0BAC E5 81              3206 	mov	a,sp
   0BAE 24 FB              3207 	add	a,#0xfb
   0BB0 F8                 3208 	mov	r0,a
   0BB1 74rA7              3209 	mov	a,#(_uip_ds6_nbr_cache + 0x00b8)
   0BB3 C0 E0              3210 	push	acc
   0BB5 74s01              3211 	mov	a,#((_uip_ds6_nbr_cache + 0x00b8) >> 8)
   0BB7 C0 E0              3212 	push	acc
   0BB9 E4                 3213 	clr	a
   0BBA C0 E0              3214 	push	acc
   0BBC 86 82              3215 	mov	dpl,@r0
   0BBE 08                 3216 	inc	r0
   0BBF 86 83              3217 	mov	dph,@r0
   0BC1 08                 3218 	inc	r0
   0BC2 86 F0              3219 	mov	b,@r0
   0BC4 12s00r00           3220 	lcall	___gptr_cmp
   0BC7 15 81              3221 	dec	sp
   0BC9 15 81              3222 	dec	sp
   0BCB 15 81              3223 	dec	sp
   0BCD 40 03              3224 	jc	00146$
   0BCF 02s0Cr62           3225 	ljmp	00119$
   0BD2                    3226 00146$:
                           3227 ;	../../../contiki-sensinode//core/net/uip-ds6.c:340: if(n->isused && !uip_ds6_defrt_lookup(&n->ipaddr)) {
   0BD2 E5 81              3228 	mov	a,sp
   0BD4 24 FB              3229 	add	a,#0xfb
   0BD6 F8                 3230 	mov	r0,a
   0BD7 86 82              3231 	mov	dpl,@r0
   0BD9 08                 3232 	inc	r0
   0BDA 86 83              3233 	mov	dph,@r0
   0BDC 08                 3234 	inc	r0
   0BDD 86 F0              3235 	mov	b,@r0
   0BDF 12s00r00           3236 	lcall	__gptrget
   0BE2 60 6E              3237 	jz	00118$
   0BE4 C0 03              3238 	push	ar3
   0BE6 C0 04              3239 	push	ar4
   0BE8 E5 81              3240 	mov	a,sp
   0BEA 24 F9              3241 	add	a,#0xf9
   0BEC F8                 3242 	mov	r0,a
   0BED 74 01              3243 	mov	a,#0x01
   0BEF 26                 3244 	add	a,@r0
   0BF0 FB                 3245 	mov	r3,a
   0BF1 E4                 3246 	clr	a
   0BF2 08                 3247 	inc	r0
   0BF3 36                 3248 	addc	a,@r0
   0BF4 FC                 3249 	mov	r4,a
   0BF5 08                 3250 	inc	r0
   0BF6 86 05              3251 	mov	ar5,@r0
   0BF8 8B 82              3252 	mov	dpl,r3
   0BFA 8C 83              3253 	mov	dph,r4
   0BFC 8D F0              3254 	mov	b,r5
   0BFE 78r00              3255 	mov	r0,#_uip_ds6_defrt_lookup
   0C00 79s00              3256 	mov	r1,#(_uip_ds6_defrt_lookup >> 8)
   0C02 7As00              3257 	mov	r2,#(_uip_ds6_defrt_lookup >> 16)
   0C04 12s00r00           3258 	lcall	__sdcc_banked_call
   0C07 AB 82              3259 	mov	r3,dpl
   0C09 AC 83              3260 	mov	r4,dph
   0C0B AD F0              3261 	mov	r5,b
   0C0D EB                 3262 	mov	a,r3
   0C0E 4C                 3263 	orl	a,r4
   0C0F D0 04              3264 	pop	ar4
   0C11 D0 03              3265 	pop	ar3
   0C13 70 3D              3266 	jnz	00118$
                           3267 ;	../../../contiki-sensinode//core/net/uip-ds6.c:341: if(n->last_lookup < oldest_time) {
   0C15 E5 81              3268 	mov	a,sp
   0C17 24 FB              3269 	add	a,#0xfb
   0C19 F8                 3270 	mov	r0,a
   0C1A 74 29              3271 	mov	a,#0x29
   0C1C 26                 3272 	add	a,@r0
   0C1D FD                 3273 	mov	r5,a
   0C1E E4                 3274 	clr	a
   0C1F 08                 3275 	inc	r0
   0C20 36                 3276 	addc	a,@r0
   0C21 FE                 3277 	mov	r6,a
   0C22 08                 3278 	inc	r0
   0C23 86 07              3279 	mov	ar7,@r0
   0C25 8D 82              3280 	mov	dpl,r5
   0C27 8E 83              3281 	mov	dph,r6
   0C29 8F F0              3282 	mov	b,r7
   0C2B 12s00r00           3283 	lcall	__gptrget
   0C2E FE                 3284 	mov	r6,a
   0C2F A3                 3285 	inc	dptr
   0C30 12s00r00           3286 	lcall	__gptrget
   0C33 FF                 3287 	mov	r7,a
   0C34 C3                 3288 	clr	c
   0C35 EE                 3289 	mov	a,r6
   0C36 9B                 3290 	subb	a,r3
   0C37 EF                 3291 	mov	a,r7
   0C38 9C                 3292 	subb	a,r4
   0C39 50 17              3293 	jnc	00118$
                           3294 ;	../../../contiki-sensinode//core/net/uip-ds6.c:342: oldest = n;
   0C3B E5 81              3295 	mov	a,sp
   0C3D 24 FB              3296 	add	a,#0xfb
   0C3F F8                 3297 	mov	r0,a
   0C40 A9 81              3298 	mov	r1,sp
   0C42 19                 3299 	dec	r1
   0C43 19                 3300 	dec	r1
   0C44 E6                 3301 	mov	a,@r0
   0C45 F7                 3302 	mov	@r1,a
   0C46 08                 3303 	inc	r0
   0C47 09                 3304 	inc	r1
   0C48 E6                 3305 	mov	a,@r0
   0C49 F7                 3306 	mov	@r1,a
   0C4A 08                 3307 	inc	r0
   0C4B 09                 3308 	inc	r1
   0C4C E6                 3309 	mov	a,@r0
   0C4D F7                 3310 	mov	@r1,a
                           3311 ;	../../../contiki-sensinode//core/net/uip-ds6.c:343: oldest_time = n->last_lookup;
   0C4E 8E 03              3312 	mov	ar3,r6
   0C50 8F 04              3313 	mov	ar4,r7
   0C52                    3314 00118$:
                           3315 ;	../../../contiki-sensinode//core/net/uip-ds6.c:339: n++) {
   0C52 E5 81              3316 	mov	a,sp
   0C54 24 FB              3317 	add	a,#0xfb
   0C56 F8                 3318 	mov	r0,a
   0C57 74 2E              3319 	mov	a,#0x2E
   0C59 26                 3320 	add	a,@r0
   0C5A F6                 3321 	mov	@r0,a
   0C5B E4                 3322 	clr	a
   0C5C 08                 3323 	inc	r0
   0C5D 36                 3324 	addc	a,@r0
   0C5E F6                 3325 	mov	@r0,a
   0C5F 02s0BrAC           3326 	ljmp	00116$
   0C62                    3327 00119$:
                           3328 ;	../../../contiki-sensinode//core/net/uip-ds6.c:347: if(oldest != NULL) {
   0C62 A8 81              3329 	mov	r0,sp
   0C64 18                 3330 	dec	r0
   0C65 18                 3331 	dec	r0
   0C66 E6                 3332 	mov	a,@r0
   0C67 08                 3333 	inc	r0
   0C68 46                 3334 	orl	a,@r0
   0C69 60 5F              3335 	jz	00115$
                           3336 ;	../../../contiki-sensinode//core/net/uip-ds6.c:348: uip_ds6_nbr_rm(oldest);
   0C6B A8 81              3337 	mov	r0,sp
   0C6D 18                 3338 	dec	r0
   0C6E 18                 3339 	dec	r0
   0C6F 86 82              3340 	mov	dpl,@r0
   0C71 08                 3341 	inc	r0
   0C72 86 83              3342 	mov	dph,@r0
   0C74 08                 3343 	inc	r0
   0C75 86 F0              3344 	mov	b,@r0
   0C77 78rDB              3345 	mov	r0,#_uip_ds6_nbr_rm
   0C79 79s0C              3346 	mov	r1,#(_uip_ds6_nbr_rm >> 8)
   0C7B 7As00              3347 	mov	r2,#(_uip_ds6_nbr_rm >> 16)
   0C7D 12s00r00           3348 	lcall	__sdcc_banked_call
                           3349 ;	../../../contiki-sensinode//core/net/uip-ds6.c:349: return uip_ds6_nbr_add(ipaddr, lladdr, isrouter, state);
   0C80 E5 81              3350 	mov	a,sp
   0C82 24 F0              3351 	add	a,#0xf0
   0C84 F8                 3352 	mov	r0,a
   0C85 E6                 3353 	mov	a,@r0
   0C86 C0 E0              3354 	push	acc
   0C88 E5 81              3355 	mov	a,sp
   0C8A 24 F0              3356 	add	a,#0xf0
   0C8C F8                 3357 	mov	r0,a
   0C8D E6                 3358 	mov	a,@r0
   0C8E C0 E0              3359 	push	acc
   0C90 E5 81              3360 	mov	a,sp
   0C92 24 F0              3361 	add	a,#0xf0
   0C94 F8                 3362 	mov	r0,a
   0C95 E6                 3363 	mov	a,@r0
   0C96 C0 E0              3364 	push	acc
   0C98 08                 3365 	inc	r0
   0C99 E6                 3366 	mov	a,@r0
   0C9A C0 E0              3367 	push	acc
   0C9C 08                 3368 	inc	r0
   0C9D E6                 3369 	mov	a,@r0
   0C9E C0 E0              3370 	push	acc
   0CA0 E5 81              3371 	mov	a,sp
   0CA2 24 F3              3372 	add	a,#0xf3
   0CA4 F8                 3373 	mov	r0,a
   0CA5 86 82              3374 	mov	dpl,@r0
   0CA7 08                 3375 	inc	r0
   0CA8 86 83              3376 	mov	dph,@r0
   0CAA 08                 3377 	inc	r0
   0CAB 86 F0              3378 	mov	b,@r0
   0CAD 78r20              3379 	mov	r0,#_uip_ds6_nbr_add
   0CAF 79s09              3380 	mov	r1,#(_uip_ds6_nbr_add >> 8)
   0CB1 7As00              3381 	mov	r2,#(_uip_ds6_nbr_add >> 16)
   0CB3 12s00r00           3382 	lcall	__sdcc_banked_call
   0CB6 AD 82              3383 	mov	r5,dpl
   0CB8 AE 83              3384 	mov	r6,dph
   0CBA AF F0              3385 	mov	r7,b
   0CBC E5 81              3386 	mov	a,sp
   0CBE 24 FB              3387 	add	a,#0xfb
   0CC0 F5 81              3388 	mov	sp,a
   0CC2 8D 82              3389 	mov	dpl,r5
   0CC4 8E 83              3390 	mov	dph,r6
   0CC6 8F F0              3391 	mov	b,r7
   0CC8 80 06              3392 	sjmp	00120$
   0CCA                    3393 00115$:
                           3394 ;	../../../contiki-sensinode//core/net/uip-ds6.c:353: return NULL;
   0CCA 90 00 00           3395 	mov	dptr,#0x0000
   0CCD 75 F0 00           3396 	mov	b,#0x00
   0CD0                    3397 00120$:
   0CD0 C8                 3398 	xch	a,r0
   0CD1 E5 81              3399 	mov	a,sp
   0CD3 24 F7              3400 	add	a,#0xF7
   0CD5 F5 81              3401 	mov	sp,a
   0CD7 C8                 3402 	xch	a,r0
   0CD8 02s00r00           3403 	ljmp	__sdcc_banked_ret
                           3404 ;------------------------------------------------------------
                           3405 ;Allocation info for local variables in function 'uip_ds6_nbr_rm'
                           3406 ;------------------------------------------------------------
                           3407 ;nbr                       Allocated to registers r5 r6 r7 
                           3408 ;------------------------------------------------------------
                           3409 ;	../../../contiki-sensinode//core/net/uip-ds6.c:358: uip_ds6_nbr_rm(uip_ds6_nbr_t *nbr)
                           3410 ;	-----------------------------------------
                           3411 ;	 function uip_ds6_nbr_rm
                           3412 ;	-----------------------------------------
   0CDB                    3413 _uip_ds6_nbr_rm:
   0CDB AD 82              3414 	mov	r5,dpl
   0CDD AE 83              3415 	mov	r6,dph
   0CDF AF F0              3416 	mov	r7,b
                           3417 ;	../../../contiki-sensinode//core/net/uip-ds6.c:360: if(nbr != NULL) {
   0CE1 ED                 3418 	mov	a,r5
   0CE2 4E                 3419 	orl	a,r6
   0CE3 60 19              3420 	jz	00102$
                           3421 ;	../../../contiki-sensinode//core/net/uip-ds6.c:361: nbr->isused = 0;
   0CE5 8D 82              3422 	mov	dpl,r5
   0CE7 8E 83              3423 	mov	dph,r6
   0CE9 8F F0              3424 	mov	b,r7
   0CEB E4                 3425 	clr	a
   0CEC 12s00r00           3426 	lcall	__gptrput
                           3427 ;	../../../contiki-sensinode//core/net/uip-ds6.c:365: NEIGHBOR_STATE_CHANGED(nbr);
   0CEF 8D 82              3428 	mov	dpl,r5
   0CF1 8E 83              3429 	mov	dph,r6
   0CF3 8F F0              3430 	mov	b,r7
   0CF5 78r00              3431 	mov	r0,#_rpl_ipv6_neighbor_callback
   0CF7 79s00              3432 	mov	r1,#(_rpl_ipv6_neighbor_callback >> 8)
   0CF9 7As00              3433 	mov	r2,#(_rpl_ipv6_neighbor_callback >> 16)
   0CFB 12s00r00           3434 	lcall	__sdcc_banked_call
   0CFE                    3435 00102$:
                           3436 ;	../../../contiki-sensinode//core/net/uip-ds6.c:367: return;
   0CFE 02s00r00           3437 	ljmp	__sdcc_banked_ret
                           3438 ;------------------------------------------------------------
                           3439 ;Allocation info for local variables in function 'uip_ds6_nbr_lookup'
                           3440 ;------------------------------------------------------------
                           3441 ;ipaddr                    Allocated to registers r5 r6 r7 
                           3442 ;------------------------------------------------------------
                           3443 ;	../../../contiki-sensinode//core/net/uip-ds6.c:372: uip_ds6_nbr_lookup(uip_ipaddr_t *ipaddr)
                           3444 ;	-----------------------------------------
                           3445 ;	 function uip_ds6_nbr_lookup
                           3446 ;	-----------------------------------------
   0D01                    3447 _uip_ds6_nbr_lookup:
   0D01 AD 82              3448 	mov	r5,dpl
   0D03 AE 83              3449 	mov	r6,dph
   0D05 AF F0              3450 	mov	r7,b
                           3451 ;	../../../contiki-sensinode//core/net/uip-ds6.c:377: (uip_ds6_element_t **)&locnbr) == FOUND) {
   0D07 7Br19              3452 	mov	r3,#_locnbr
   0D09 7Cs02              3453 	mov	r4,#(_locnbr >> 8)
   0D0B 7A 00              3454 	mov	r2,#0x00
                           3455 ;	../../../contiki-sensinode//core/net/uip-ds6.c:375: ((uip_ds6_element_t *)uip_ds6_nbr_cache, UIP_DS6_NBR_NB,
   0D0D C0 03              3456 	push	ar3
   0D0F C0 04              3457 	push	ar4
   0D11 C0 02              3458 	push	ar2
   0D13 74 80              3459 	mov	a,#0x80
   0D15 C0 E0              3460 	push	acc
   0D17 C0 05              3461 	push	ar5
   0D19 C0 06              3462 	push	ar6
   0D1B C0 07              3463 	push	ar7
   0D1D 74 2E              3464 	mov	a,#0x2E
   0D1F C0 E0              3465 	push	acc
   0D21 E4                 3466 	clr	a
   0D22 C0 E0              3467 	push	acc
   0D24 74 04              3468 	mov	a,#0x04
   0D26 C0 E0              3469 	push	acc
   0D28 90s00rEF           3470 	mov	dptr,#_uip_ds6_nbr_cache
   0D2B 75 F0 00           3471 	mov	b,#0x00
   0D2E 78r4D              3472 	mov	r0,#_uip_ds6_list_loop
   0D30 79s07              3473 	mov	r1,#(_uip_ds6_list_loop >> 8)
   0D32 7As00              3474 	mov	r2,#(_uip_ds6_list_loop >> 16)
   0D34 12s00r00           3475 	lcall	__sdcc_banked_call
   0D37 AF 82              3476 	mov	r7,dpl
   0D39 E5 81              3477 	mov	a,sp
   0D3B 24 F6              3478 	add	a,#0xf6
   0D3D F5 81              3479 	mov	sp,a
   0D3F EF                 3480 	mov	a,r7
   0D40 70 4D              3481 	jnz	00102$
                           3482 ;	../../../contiki-sensinode//core/net/uip-ds6.c:378: locnbr->last_lookup = clock_time();
   0D42 90s02r19           3483 	mov	dptr,#_locnbr
   0D45 E0                 3484 	movx	a,@dptr
   0D46 FD                 3485 	mov	r5,a
   0D47 A3                 3486 	inc	dptr
   0D48 E0                 3487 	movx	a,@dptr
   0D49 FE                 3488 	mov	r6,a
   0D4A A3                 3489 	inc	dptr
   0D4B E0                 3490 	movx	a,@dptr
   0D4C FF                 3491 	mov	r7,a
   0D4D 74 29              3492 	mov	a,#0x29
   0D4F 2D                 3493 	add	a,r5
   0D50 FD                 3494 	mov	r5,a
   0D51 E4                 3495 	clr	a
   0D52 3E                 3496 	addc	a,r6
   0D53 FE                 3497 	mov	r6,a
   0D54 C0 07              3498 	push	ar7
   0D56 C0 06              3499 	push	ar6
   0D58 C0 05              3500 	push	ar5
   0D5A 78r00              3501 	mov	r0,#_clock_time
   0D5C 79s00              3502 	mov	r1,#(_clock_time >> 8)
   0D5E 7As00              3503 	mov	r2,#(_clock_time >> 16)
   0D60 12s00r00           3504 	lcall	__sdcc_banked_call
   0D63 AB 82              3505 	mov	r3,dpl
   0D65 AC 83              3506 	mov	r4,dph
   0D67 D0 05              3507 	pop	ar5
   0D69 D0 06              3508 	pop	ar6
   0D6B D0 07              3509 	pop	ar7
   0D6D 8D 82              3510 	mov	dpl,r5
   0D6F 8E 83              3511 	mov	dph,r6
   0D71 8F F0              3512 	mov	b,r7
   0D73 EB                 3513 	mov	a,r3
   0D74 12s00r00           3514 	lcall	__gptrput
   0D77 A3                 3515 	inc	dptr
   0D78 EC                 3516 	mov	a,r4
   0D79 12s00r00           3517 	lcall	__gptrput
                           3518 ;	../../../contiki-sensinode//core/net/uip-ds6.c:379: return locnbr;
   0D7C 90s02r19           3519 	mov	dptr,#_locnbr
   0D7F E0                 3520 	movx	a,@dptr
   0D80 FD                 3521 	mov	r5,a
   0D81 A3                 3522 	inc	dptr
   0D82 E0                 3523 	movx	a,@dptr
   0D83 FE                 3524 	mov	r6,a
   0D84 A3                 3525 	inc	dptr
   0D85 E0                 3526 	movx	a,@dptr
   0D86 FF                 3527 	mov	r7,a
   0D87 8D 82              3528 	mov	dpl,r5
   0D89 8E 83              3529 	mov	dph,r6
   0D8B 8F F0              3530 	mov	b,r7
   0D8D 80 06              3531 	sjmp	00103$
   0D8F                    3532 00102$:
                           3533 ;	../../../contiki-sensinode//core/net/uip-ds6.c:381: return NULL;
   0D8F 90 00 00           3534 	mov	dptr,#0x0000
   0D92 75 F0 00           3535 	mov	b,#0x00
   0D95                    3536 00103$:
   0D95 02s00r00           3537 	ljmp	__sdcc_banked_ret
                           3538 ;------------------------------------------------------------
                           3539 ;Allocation info for local variables in function 'uip_ds6_nbr_ll_lookup'
                           3540 ;------------------------------------------------------------
                           3541 ;lladdr                    Allocated to stack - sp -2
                           3542 ;fin                       Allocated to registers 
                           3543 ;------------------------------------------------------------
                           3544 ;	../../../contiki-sensinode//core/net/uip-ds6.c:386: uip_ds6_nbr_ll_lookup(uip_lladdr_t *lladdr)
                           3545 ;	-----------------------------------------
                           3546 ;	 function uip_ds6_nbr_ll_lookup
                           3547 ;	-----------------------------------------
   0D98                    3548 _uip_ds6_nbr_ll_lookup:
   0D98 C0 82              3549 	push	dpl
   0D9A C0 83              3550 	push	dph
   0D9C C0 F0              3551 	push	b
                           3552 ;	../../../contiki-sensinode//core/net/uip-ds6.c:390: for(locnbr = uip_ds6_nbr_cache, fin = locnbr + UIP_DS6_NBR_NB;
   0D9E 90s02r19           3553 	mov	dptr,#_locnbr
   0DA1 74rEF              3554 	mov	a,#_uip_ds6_nbr_cache
   0DA3 F0                 3555 	movx	@dptr,a
   0DA4 A3                 3556 	inc	dptr
   0DA5 74s00              3557 	mov	a,#(_uip_ds6_nbr_cache >> 8)
   0DA7 F0                 3558 	movx	@dptr,a
   0DA8 A3                 3559 	inc	dptr
   0DA9 E4                 3560 	clr	a
   0DAA F0                 3561 	movx	@dptr,a
   0DAB                    3562 00105$:
                           3563 ;	../../../contiki-sensinode//core/net/uip-ds6.c:391: locnbr < fin;
   0DAB 90s02r19           3564 	mov	dptr,#_locnbr
   0DAE E0                 3565 	movx	a,@dptr
   0DAF FA                 3566 	mov	r2,a
   0DB0 A3                 3567 	inc	dptr
   0DB1 E0                 3568 	movx	a,@dptr
   0DB2 FB                 3569 	mov	r3,a
   0DB3 A3                 3570 	inc	dptr
   0DB4 E0                 3571 	movx	a,@dptr
   0DB5 FC                 3572 	mov	r4,a
   0DB6 74rA7              3573 	mov	a,#(_uip_ds6_nbr_cache + 0x00b8)
   0DB8 C0 E0              3574 	push	acc
   0DBA 74s01              3575 	mov	a,#((_uip_ds6_nbr_cache + 0x00b8) >> 8)
   0DBC C0 E0              3576 	push	acc
   0DBE E4                 3577 	clr	a
   0DBF C0 E0              3578 	push	acc
   0DC1 8A 82              3579 	mov	dpl,r2
   0DC3 8B 83              3580 	mov	dph,r3
   0DC5 8C F0              3581 	mov	b,r4
   0DC7 12s00r00           3582 	lcall	___gptr_cmp
   0DCA 15 81              3583 	dec	sp
   0DCC 15 81              3584 	dec	sp
   0DCE 15 81              3585 	dec	sp
   0DD0 50 6A              3586 	jnc	00108$
                           3587 ;	../../../contiki-sensinode//core/net/uip-ds6.c:393: if(locnbr->isused) {
   0DD2 8A 82              3588 	mov	dpl,r2
   0DD4 8B 83              3589 	mov	dph,r3
   0DD6 8C F0              3590 	mov	b,r4
   0DD8 12s00r00           3591 	lcall	__gptrget
   0DDB 60 50              3592 	jz	00107$
                           3593 ;	../../../contiki-sensinode//core/net/uip-ds6.c:394: if(!memcmp(lladdr, &locnbr->lladdr, UIP_LLADDR_LEN)) {
   0DDD 74 11              3594 	mov	a,#0x11
   0DDF 2A                 3595 	add	a,r2
   0DE0 FA                 3596 	mov	r2,a
   0DE1 E4                 3597 	clr	a
   0DE2 3B                 3598 	addc	a,r3
   0DE3 FB                 3599 	mov	r3,a
   0DE4 A8 81              3600 	mov	r0,sp
   0DE6 18                 3601 	dec	r0
   0DE7 18                 3602 	dec	r0
   0DE8 86 05              3603 	mov	ar5,@r0
   0DEA 08                 3604 	inc	r0
   0DEB 86 06              3605 	mov	ar6,@r0
   0DED 08                 3606 	inc	r0
   0DEE 86 07              3607 	mov	ar7,@r0
   0DF0 74 08              3608 	mov	a,#0x08
   0DF2 C0 E0              3609 	push	acc
   0DF4 E4                 3610 	clr	a
   0DF5 C0 E0              3611 	push	acc
   0DF7 C0 02              3612 	push	ar2
   0DF9 C0 03              3613 	push	ar3
   0DFB C0 04              3614 	push	ar4
   0DFD 8D 82              3615 	mov	dpl,r5
   0DFF 8E 83              3616 	mov	dph,r6
   0E01 8F F0              3617 	mov	b,r7
   0E03 78r00              3618 	mov	r0,#_memcmp
   0E05 79s00              3619 	mov	r1,#(_memcmp >> 8)
   0E07 7As00              3620 	mov	r2,#(_memcmp >> 16)
   0E09 12s00r00           3621 	lcall	__sdcc_banked_call
   0E0C AE 82              3622 	mov	r6,dpl
   0E0E AF 83              3623 	mov	r7,dph
   0E10 E5 81              3624 	mov	a,sp
   0E12 24 FB              3625 	add	a,#0xfb
   0E14 F5 81              3626 	mov	sp,a
   0E16 EE                 3627 	mov	a,r6
   0E17 4F                 3628 	orl	a,r7
   0E18 70 13              3629 	jnz	00107$
                           3630 ;	../../../contiki-sensinode//core/net/uip-ds6.c:395: return locnbr;
   0E1A 90s02r19           3631 	mov	dptr,#_locnbr
   0E1D E0                 3632 	movx	a,@dptr
   0E1E FD                 3633 	mov	r5,a
   0E1F A3                 3634 	inc	dptr
   0E20 E0                 3635 	movx	a,@dptr
   0E21 FE                 3636 	mov	r6,a
   0E22 A3                 3637 	inc	dptr
   0E23 E0                 3638 	movx	a,@dptr
   0E24 FF                 3639 	mov	r7,a
   0E25 8D 82              3640 	mov	dpl,r5
   0E27 8E 83              3641 	mov	dph,r6
   0E29 8F F0              3642 	mov	b,r7
   0E2B 80 15              3643 	sjmp	00109$
   0E2D                    3644 00107$:
                           3645 ;	../../../contiki-sensinode//core/net/uip-ds6.c:392: ++locnbr) {
   0E2D 90s02r19           3646 	mov	dptr,#_locnbr
   0E30 E0                 3647 	movx	a,@dptr
   0E31 24 2E              3648 	add	a,#0x2E
   0E33 F0                 3649 	movx	@dptr,a
   0E34 A3                 3650 	inc	dptr
   0E35 E0                 3651 	movx	a,@dptr
   0E36 34 00              3652 	addc	a,#0x00
   0E38 F0                 3653 	movx	@dptr,a
   0E39 02s0DrAB           3654 	ljmp	00105$
   0E3C                    3655 00108$:
                           3656 ;	../../../contiki-sensinode//core/net/uip-ds6.c:399: return NULL;
   0E3C 90 00 00           3657 	mov	dptr,#0x0000
   0E3F 75 F0 00           3658 	mov	b,#0x00
   0E42                    3659 00109$:
   0E42 15 81              3660 	dec	sp
   0E44 15 81              3661 	dec	sp
   0E46 15 81              3662 	dec	sp
   0E48 02s00r00           3663 	ljmp	__sdcc_banked_ret
                           3664 ;------------------------------------------------------------
                           3665 ;Allocation info for local variables in function 'uip_ds6_prefix_add'
                           3666 ;------------------------------------------------------------
                           3667 ;ipaddrlen                 Allocated to stack - sp -3
                           3668 ;advertise                 Allocated to stack - sp -4
                           3669 ;flags                     Allocated to stack - sp -5
                           3670 ;vtime                     Allocated to stack - sp -9
                           3671 ;ptime                     Allocated to stack - sp -13
                           3672 ;ipaddr                    Allocated to registers r5 r6 r7 
                           3673 ;------------------------------------------------------------
                           3674 ;	../../../contiki-sensinode//core/net/uip-ds6.c:406: uip_ds6_prefix_add(uip_ipaddr_t *ipaddr, uint8_t ipaddrlen,
                           3675 ;	-----------------------------------------
                           3676 ;	 function uip_ds6_prefix_add
                           3677 ;	-----------------------------------------
   0E4B                    3678 _uip_ds6_prefix_add:
   0E4B AD 82              3679 	mov	r5,dpl
   0E4D AE 83              3680 	mov	r6,dph
   0E4F AF F0              3681 	mov	r7,b
                           3682 ;	../../../contiki-sensinode//core/net/uip-ds6.c:413: (uip_ds6_element_t **)&locprefix) == FREESPACE) {
   0E51 7Br16              3683 	mov	r3,#_locprefix
   0E53 7Cs02              3684 	mov	r4,#(_locprefix >> 8)
   0E55 7A 00              3685 	mov	r2,#0x00
                           3686 ;	../../../contiki-sensinode//core/net/uip-ds6.c:411: ((uip_ds6_element_t *)uip_ds6_prefix_list, UIP_DS6_PREFIX_NB,
   0E57 C0 07              3687 	push	ar7
   0E59 C0 06              3688 	push	ar6
   0E5B C0 05              3689 	push	ar5
   0E5D C0 03              3690 	push	ar3
   0E5F C0 04              3691 	push	ar4
   0E61 C0 02              3692 	push	ar2
   0E63 E5 81              3693 	mov	a,sp
   0E65 24 F7              3694 	add	a,#0xf7
   0E67 F8                 3695 	mov	r0,a
   0E68 E6                 3696 	mov	a,@r0
   0E69 C0 E0              3697 	push	acc
   0E6B C0 05              3698 	push	ar5
   0E6D C0 06              3699 	push	ar6
   0E6F C0 07              3700 	push	ar7
   0E71 74 1C              3701 	mov	a,#0x1C
   0E73 C0 E0              3702 	push	acc
   0E75 E4                 3703 	clr	a
   0E76 C0 E0              3704 	push	acc
   0E78 74 03              3705 	mov	a,#0x03
   0E7A C0 E0              3706 	push	acc
   0E7C 90s01rA7           3707 	mov	dptr,#_uip_ds6_prefix_list
   0E7F 75 F0 00           3708 	mov	b,#0x00
   0E82 78r4D              3709 	mov	r0,#_uip_ds6_list_loop
   0E84 79s07              3710 	mov	r1,#(_uip_ds6_list_loop >> 8)
   0E86 7As00              3711 	mov	r2,#(_uip_ds6_list_loop >> 16)
   0E88 12s00r00           3712 	lcall	__sdcc_banked_call
   0E8B AC 82              3713 	mov	r4,dpl
   0E8D E5 81              3714 	mov	a,sp
   0E8F 24 F6              3715 	add	a,#0xf6
   0E91 F5 81              3716 	mov	sp,a
   0E93 D0 05              3717 	pop	ar5
   0E95 D0 06              3718 	pop	ar6
   0E97 D0 07              3719 	pop	ar7
   0E99 BC 01 02           3720 	cjne	r4,#0x01,00107$
   0E9C 80 03              3721 	sjmp	00108$
   0E9E                    3722 00107$:
   0E9E 02s0Fr8D           3723 	ljmp	00102$
   0EA1                    3724 00108$:
                           3725 ;	../../../contiki-sensinode//core/net/uip-ds6.c:414: locprefix->isused = 1;
   0EA1 90s02r16           3726 	mov	dptr,#_locprefix
   0EA4 E0                 3727 	movx	a,@dptr
   0EA5 FA                 3728 	mov	r2,a
   0EA6 A3                 3729 	inc	dptr
   0EA7 E0                 3730 	movx	a,@dptr
   0EA8 FB                 3731 	mov	r3,a
   0EA9 A3                 3732 	inc	dptr
   0EAA E0                 3733 	movx	a,@dptr
   0EAB FC                 3734 	mov	r4,a
   0EAC 8A 82              3735 	mov	dpl,r2
   0EAE 8B 83              3736 	mov	dph,r3
   0EB0 8C F0              3737 	mov	b,r4
   0EB2 74 01              3738 	mov	a,#0x01
   0EB4 12s00r00           3739 	lcall	__gptrput
                           3740 ;	../../../contiki-sensinode//core/net/uip-ds6.c:415: uip_ipaddr_copy(&locprefix->ipaddr, ipaddr);
   0EB7 0A                 3741 	inc	r2
   0EB8 BA 00 01           3742 	cjne	r2,#0x00,00109$
   0EBB 0B                 3743 	inc	r3
   0EBC                    3744 00109$:
   0EBC 74 10              3745 	mov	a,#0x10
   0EBE C0 E0              3746 	push	acc
   0EC0 E4                 3747 	clr	a
   0EC1 C0 E0              3748 	push	acc
   0EC3 C0 05              3749 	push	ar5
   0EC5 C0 06              3750 	push	ar6
   0EC7 C0 07              3751 	push	ar7
   0EC9 8A 82              3752 	mov	dpl,r2
   0ECB 8B 83              3753 	mov	dph,r3
   0ECD 8C F0              3754 	mov	b,r4
   0ECF 78r00              3755 	mov	r0,#_memcpy
   0ED1 79s00              3756 	mov	r1,#(_memcpy >> 8)
   0ED3 7As00              3757 	mov	r2,#(_memcpy >> 16)
   0ED5 12s00r00           3758 	lcall	__sdcc_banked_call
   0ED8 E5 81              3759 	mov	a,sp
   0EDA 24 FB              3760 	add	a,#0xfb
   0EDC F5 81              3761 	mov	sp,a
                           3762 ;	../../../contiki-sensinode//core/net/uip-ds6.c:416: locprefix->length = ipaddrlen;
   0EDE 90s02r16           3763 	mov	dptr,#_locprefix
   0EE1 E0                 3764 	movx	a,@dptr
   0EE2 FD                 3765 	mov	r5,a
   0EE3 A3                 3766 	inc	dptr
   0EE4 E0                 3767 	movx	a,@dptr
   0EE5 FE                 3768 	mov	r6,a
   0EE6 A3                 3769 	inc	dptr
   0EE7 E0                 3770 	movx	a,@dptr
   0EE8 FF                 3771 	mov	r7,a
   0EE9 74 11              3772 	mov	a,#0x11
   0EEB 2D                 3773 	add	a,r5
   0EEC FA                 3774 	mov	r2,a
   0EED E4                 3775 	clr	a
   0EEE 3E                 3776 	addc	a,r6
   0EEF FB                 3777 	mov	r3,a
   0EF0 8F 04              3778 	mov	ar4,r7
   0EF2 8A 82              3779 	mov	dpl,r2
   0EF4 8B 83              3780 	mov	dph,r3
   0EF6 8C F0              3781 	mov	b,r4
   0EF8 E5 81              3782 	mov	a,sp
   0EFA 24 FD              3783 	add	a,#0xfd
   0EFC F8                 3784 	mov	r0,a
   0EFD E6                 3785 	mov	a,@r0
   0EFE 12s00r00           3786 	lcall	__gptrput
                           3787 ;	../../../contiki-sensinode//core/net/uip-ds6.c:417: locprefix->advertise = advertise;
   0F01 74 12              3788 	mov	a,#0x12
   0F03 2D                 3789 	add	a,r5
   0F04 FA                 3790 	mov	r2,a
   0F05 E4                 3791 	clr	a
   0F06 3E                 3792 	addc	a,r6
   0F07 FB                 3793 	mov	r3,a
   0F08 8F 04              3794 	mov	ar4,r7
   0F0A 8A 82              3795 	mov	dpl,r2
   0F0C 8B 83              3796 	mov	dph,r3
   0F0E 8C F0              3797 	mov	b,r4
   0F10 E5 81              3798 	mov	a,sp
   0F12 24 FC              3799 	add	a,#0xfc
   0F14 F8                 3800 	mov	r0,a
   0F15 E6                 3801 	mov	a,@r0
   0F16 12s00r00           3802 	lcall	__gptrput
                           3803 ;	../../../contiki-sensinode//core/net/uip-ds6.c:418: locprefix->l_a_reserved = flags;
   0F19 74 1B              3804 	mov	a,#0x1B
   0F1B 2D                 3805 	add	a,r5
   0F1C FA                 3806 	mov	r2,a
   0F1D E4                 3807 	clr	a
   0F1E 3E                 3808 	addc	a,r6
   0F1F FB                 3809 	mov	r3,a
   0F20 8F 04              3810 	mov	ar4,r7
   0F22 8A 82              3811 	mov	dpl,r2
   0F24 8B 83              3812 	mov	dph,r3
   0F26 8C F0              3813 	mov	b,r4
   0F28 E5 81              3814 	mov	a,sp
   0F2A 24 FB              3815 	add	a,#0xfb
   0F2C F8                 3816 	mov	r0,a
   0F2D E6                 3817 	mov	a,@r0
   0F2E 12s00r00           3818 	lcall	__gptrput
                           3819 ;	../../../contiki-sensinode//core/net/uip-ds6.c:419: locprefix->vlifetime = vtime;
   0F31 74 13              3820 	mov	a,#0x13
   0F33 2D                 3821 	add	a,r5
   0F34 FA                 3822 	mov	r2,a
   0F35 E4                 3823 	clr	a
   0F36 3E                 3824 	addc	a,r6
   0F37 FB                 3825 	mov	r3,a
   0F38 8F 04              3826 	mov	ar4,r7
   0F3A 8A 82              3827 	mov	dpl,r2
   0F3C 8B 83              3828 	mov	dph,r3
   0F3E 8C F0              3829 	mov	b,r4
   0F40 E5 81              3830 	mov	a,sp
   0F42 24 F7              3831 	add	a,#0xf7
   0F44 F8                 3832 	mov	r0,a
   0F45 E6                 3833 	mov	a,@r0
   0F46 12s00r00           3834 	lcall	__gptrput
   0F49 A3                 3835 	inc	dptr
   0F4A 08                 3836 	inc	r0
   0F4B E6                 3837 	mov	a,@r0
   0F4C 12s00r00           3838 	lcall	__gptrput
   0F4F A3                 3839 	inc	dptr
   0F50 08                 3840 	inc	r0
   0F51 E6                 3841 	mov	a,@r0
   0F52 12s00r00           3842 	lcall	__gptrput
   0F55 A3                 3843 	inc	dptr
   0F56 08                 3844 	inc	r0
   0F57 E6                 3845 	mov	a,@r0
   0F58 12s00r00           3846 	lcall	__gptrput
                           3847 ;	../../../contiki-sensinode//core/net/uip-ds6.c:420: locprefix->plifetime = ptime;
   0F5B 74 17              3848 	mov	a,#0x17
   0F5D 2D                 3849 	add	a,r5
   0F5E FA                 3850 	mov	r2,a
   0F5F E4                 3851 	clr	a
   0F60 3E                 3852 	addc	a,r6
   0F61 FB                 3853 	mov	r3,a
   0F62 8F 04              3854 	mov	ar4,r7
   0F64 8A 82              3855 	mov	dpl,r2
   0F66 8B 83              3856 	mov	dph,r3
   0F68 8C F0              3857 	mov	b,r4
   0F6A E5 81              3858 	mov	a,sp
   0F6C 24 F3              3859 	add	a,#0xf3
   0F6E F8                 3860 	mov	r0,a
   0F6F E6                 3861 	mov	a,@r0
   0F70 12s00r00           3862 	lcall	__gptrput
   0F73 A3                 3863 	inc	dptr
   0F74 08                 3864 	inc	r0
   0F75 E6                 3865 	mov	a,@r0
   0F76 12s00r00           3866 	lcall	__gptrput
   0F79 A3                 3867 	inc	dptr
   0F7A 08                 3868 	inc	r0
   0F7B E6                 3869 	mov	a,@r0
   0F7C 12s00r00           3870 	lcall	__gptrput
   0F7F A3                 3871 	inc	dptr
   0F80 08                 3872 	inc	r0
   0F81 E6                 3873 	mov	a,@r0
   0F82 12s00r00           3874 	lcall	__gptrput
                           3875 ;	../../../contiki-sensinode//core/net/uip-ds6.c:425: return locprefix;
   0F85 8D 82              3876 	mov	dpl,r5
   0F87 8E 83              3877 	mov	dph,r6
   0F89 8F F0              3878 	mov	b,r7
   0F8B 80 06              3879 	sjmp	00103$
   0F8D                    3880 00102$:
                           3881 ;	../../../contiki-sensinode//core/net/uip-ds6.c:429: return NULL;
   0F8D 90 00 00           3882 	mov	dptr,#0x0000
   0F90 75 F0 00           3883 	mov	b,#0x00
   0F93                    3884 00103$:
   0F93 02s00r00           3885 	ljmp	__sdcc_banked_ret
                           3886 ;------------------------------------------------------------
                           3887 ;Allocation info for local variables in function 'uip_ds6_prefix_rm'
                           3888 ;------------------------------------------------------------
                           3889 ;prefix                    Allocated to registers r5 r6 r7 
                           3890 ;------------------------------------------------------------
                           3891 ;	../../../contiki-sensinode//core/net/uip-ds6.c:461: uip_ds6_prefix_rm(uip_ds6_prefix_t *prefix)
                           3892 ;	-----------------------------------------
                           3893 ;	 function uip_ds6_prefix_rm
                           3894 ;	-----------------------------------------
   0F96                    3895 _uip_ds6_prefix_rm:
   0F96 AD 82              3896 	mov	r5,dpl
   0F98 AE 83              3897 	mov	r6,dph
   0F9A AF F0              3898 	mov	r7,b
                           3899 ;	../../../contiki-sensinode//core/net/uip-ds6.c:463: if(prefix != NULL) {
   0F9C ED                 3900 	mov	a,r5
   0F9D 4E                 3901 	orl	a,r6
   0F9E 60 0A              3902 	jz	00102$
                           3903 ;	../../../contiki-sensinode//core/net/uip-ds6.c:464: prefix->isused = 0;
   0FA0 8D 82              3904 	mov	dpl,r5
   0FA2 8E 83              3905 	mov	dph,r6
   0FA4 8F F0              3906 	mov	b,r7
   0FA6 E4                 3907 	clr	a
   0FA7 12s00r00           3908 	lcall	__gptrput
   0FAA                    3909 00102$:
                           3910 ;	../../../contiki-sensinode//core/net/uip-ds6.c:466: return;
   0FAA 02s00r00           3911 	ljmp	__sdcc_banked_ret
                           3912 ;------------------------------------------------------------
                           3913 ;Allocation info for local variables in function 'uip_ds6_prefix_lookup'
                           3914 ;------------------------------------------------------------
                           3915 ;ipaddrlen                 Allocated to stack - sp -3
                           3916 ;ipaddr                    Allocated to registers r5 r6 r7 
                           3917 ;------------------------------------------------------------
                           3918 ;	../../../contiki-sensinode//core/net/uip-ds6.c:470: uip_ds6_prefix_lookup(uip_ipaddr_t *ipaddr, uint8_t ipaddrlen)
                           3919 ;	-----------------------------------------
                           3920 ;	 function uip_ds6_prefix_lookup
                           3921 ;	-----------------------------------------
   0FAD                    3922 _uip_ds6_prefix_lookup:
   0FAD AD 82              3923 	mov	r5,dpl
   0FAF AE 83              3924 	mov	r6,dph
   0FB1 AF F0              3925 	mov	r7,b
                           3926 ;	../../../contiki-sensinode//core/net/uip-ds6.c:475: (uip_ds6_element_t **)&locprefix) == FOUND) {
   0FB3 7Br16              3927 	mov	r3,#_locprefix
   0FB5 7Cs02              3928 	mov	r4,#(_locprefix >> 8)
   0FB7 7A 00              3929 	mov	r2,#0x00
                           3930 ;	../../../contiki-sensinode//core/net/uip-ds6.c:472: if(uip_ds6_list_loop((uip_ds6_element_t *)uip_ds6_prefix_list,
   0FB9 C0 03              3931 	push	ar3
   0FBB C0 04              3932 	push	ar4
   0FBD C0 02              3933 	push	ar2
   0FBF E5 81              3934 	mov	a,sp
   0FC1 24 FA              3935 	add	a,#0xfa
   0FC3 F8                 3936 	mov	r0,a
   0FC4 E6                 3937 	mov	a,@r0
   0FC5 C0 E0              3938 	push	acc
   0FC7 C0 05              3939 	push	ar5
   0FC9 C0 06              3940 	push	ar6
   0FCB C0 07              3941 	push	ar7
   0FCD 74 1C              3942 	mov	a,#0x1C
   0FCF C0 E0              3943 	push	acc
   0FD1 E4                 3944 	clr	a
   0FD2 C0 E0              3945 	push	acc
   0FD4 74 03              3946 	mov	a,#0x03
   0FD6 C0 E0              3947 	push	acc
   0FD8 90s01rA7           3948 	mov	dptr,#_uip_ds6_prefix_list
   0FDB 75 F0 00           3949 	mov	b,#0x00
   0FDE 78r4D              3950 	mov	r0,#_uip_ds6_list_loop
   0FE0 79s07              3951 	mov	r1,#(_uip_ds6_list_loop >> 8)
   0FE2 7As00              3952 	mov	r2,#(_uip_ds6_list_loop >> 16)
   0FE4 12s00r00           3953 	lcall	__sdcc_banked_call
   0FE7 AF 82              3954 	mov	r7,dpl
   0FE9 E5 81              3955 	mov	a,sp
   0FEB 24 F6              3956 	add	a,#0xf6
   0FED F5 81              3957 	mov	sp,a
   0FEF EF                 3958 	mov	a,r7
   0FF0 70 13              3959 	jnz	00102$
                           3960 ;	../../../contiki-sensinode//core/net/uip-ds6.c:476: return locprefix;
   0FF2 90s02r16           3961 	mov	dptr,#_locprefix
   0FF5 E0                 3962 	movx	a,@dptr
   0FF6 FD                 3963 	mov	r5,a
   0FF7 A3                 3964 	inc	dptr
   0FF8 E0                 3965 	movx	a,@dptr
   0FF9 FE                 3966 	mov	r6,a
   0FFA A3                 3967 	inc	dptr
   0FFB E0                 3968 	movx	a,@dptr
   0FFC FF                 3969 	mov	r7,a
   0FFD 8D 82              3970 	mov	dpl,r5
   0FFF 8E 83              3971 	mov	dph,r6
   1001 8F F0              3972 	mov	b,r7
   1003 80 06              3973 	sjmp	00103$
   1005                    3974 00102$:
                           3975 ;	../../../contiki-sensinode//core/net/uip-ds6.c:478: return NULL;
   1005 90 00 00           3976 	mov	dptr,#0x0000
   1008 75 F0 00           3977 	mov	b,#0x00
   100B                    3978 00103$:
   100B 02s00r00           3979 	ljmp	__sdcc_banked_ret
                           3980 ;------------------------------------------------------------
                           3981 ;Allocation info for local variables in function 'uip_ds6_is_addr_onlink'
                           3982 ;------------------------------------------------------------
                           3983 ;ipaddr                    Allocated to stack - sp -8
                           3984 ;sloc0                     Allocated to stack - sp -5
                           3985 ;sloc1                     Allocated to stack - sp -2
                           3986 ;sloc2                     Allocated to stack - sp -2
                           3987 ;------------------------------------------------------------
                           3988 ;	../../../contiki-sensinode//core/net/uip-ds6.c:483: uip_ds6_is_addr_onlink(uip_ipaddr_t *ipaddr)
                           3989 ;	-----------------------------------------
                           3990 ;	 function uip_ds6_is_addr_onlink
                           3991 ;	-----------------------------------------
   100E                    3992 _uip_ds6_is_addr_onlink:
   100E C0 82              3993 	push	dpl
   1010 C0 83              3994 	push	dph
   1012 C0 F0              3995 	push	b
   1014 E5 81              3996 	mov	a,sp
   1016 24 06              3997 	add	a,#0x06
   1018 F5 81              3998 	mov	sp,a
                           3999 ;	../../../contiki-sensinode//core/net/uip-ds6.c:485: for(locprefix = uip_ds6_prefix_list;
   101A 90s02r16           4000 	mov	dptr,#_locprefix
   101D 74rA7              4001 	mov	a,#_uip_ds6_prefix_list
   101F F0                 4002 	movx	@dptr,a
   1020 A3                 4003 	inc	dptr
   1021 74s01              4004 	mov	a,#(_uip_ds6_prefix_list >> 8)
   1023 F0                 4005 	movx	@dptr,a
   1024 A3                 4006 	inc	dptr
   1025 E4                 4007 	clr	a
   1026 F0                 4008 	movx	@dptr,a
   1027                    4009 00104$:
                           4010 ;	../../../contiki-sensinode//core/net/uip-ds6.c:486: locprefix < uip_ds6_prefix_list + UIP_DS6_PREFIX_NB; locprefix++) {
   1027 90s02r16           4011 	mov	dptr,#_locprefix
   102A E0                 4012 	movx	a,@dptr
   102B FF                 4013 	mov	r7,a
   102C A3                 4014 	inc	dptr
   102D E0                 4015 	movx	a,@dptr
   102E FD                 4016 	mov	r5,a
   102F A3                 4017 	inc	dptr
   1030 E0                 4018 	movx	a,@dptr
   1031 FC                 4019 	mov	r4,a
   1032 74rFB              4020 	mov	a,#(_uip_ds6_prefix_list + 0x0054)
   1034 C0 E0              4021 	push	acc
   1036 74s01              4022 	mov	a,#((_uip_ds6_prefix_list + 0x0054) >> 8)
   1038 C0 E0              4023 	push	acc
   103A E4                 4024 	clr	a
   103B C0 E0              4025 	push	acc
   103D 8F 82              4026 	mov	dpl,r7
   103F 8D 83              4027 	mov	dph,r5
   1041 8C F0              4028 	mov	b,r4
   1043 12s00r00           4029 	lcall	___gptr_cmp
   1046 15 81              4030 	dec	sp
   1048 15 81              4031 	dec	sp
   104A 15 81              4032 	dec	sp
   104C 40 03              4033 	jc	00118$
   104E 02s10rE9           4034 	ljmp	00107$
   1051                    4035 00118$:
                           4036 ;	../../../contiki-sensinode//core/net/uip-ds6.c:487: if(locprefix->isused &&
   1051 8F 82              4037 	mov	dpl,r7
   1053 8D 83              4038 	mov	dph,r5
   1055 8C F0              4039 	mov	b,r4
   1057 12s00r00           4040 	lcall	__gptrget
   105A 70 03              4041 	jnz	00119$
   105C 02s10rDA           4042 	ljmp	00106$
   105F                    4043 00119$:
                           4044 ;	../../../contiki-sensinode//core/net/uip-ds6.c:488: uip_ipaddr_prefixcmp(&locprefix->ipaddr, ipaddr, locprefix->length)) {
   105F 74 11              4045 	mov	a,#0x11
   1061 2F                 4046 	add	a,r7
   1062 FE                 4047 	mov	r6,a
   1063 E4                 4048 	clr	a
   1064 3D                 4049 	addc	a,r5
   1065 FB                 4050 	mov	r3,a
   1066 8C 02              4051 	mov	ar2,r4
   1068 8E 82              4052 	mov	dpl,r6
   106A 8B 83              4053 	mov	dph,r3
   106C 8A F0              4054 	mov	b,r2
   106E 12s00r00           4055 	lcall	__gptrget
   1071 C4                 4056 	swap	a
   1072 23                 4057 	rl	a
   1073 54 1F              4058 	anl	a,#0x1F
   1075 FE                 4059 	mov	r6,a
   1076 E5 81              4060 	mov	a,sp
   1078 24 FB              4061 	add	a,#0xfb
   107A F8                 4062 	mov	r0,a
   107B A6 06              4063 	mov	@r0,ar6
   107D 08                 4064 	inc	r0
   107E 76 00              4065 	mov	@r0,#0x00
   1080 E5 81              4066 	mov	a,sp
   1082 24 F8              4067 	add	a,#0xf8
   1084 F8                 4068 	mov	r0,a
   1085 A9 81              4069 	mov	r1,sp
   1087 19                 4070 	dec	r1
   1088 19                 4071 	dec	r1
   1089 E6                 4072 	mov	a,@r0
   108A F7                 4073 	mov	@r1,a
   108B 08                 4074 	inc	r0
   108C 09                 4075 	inc	r1
   108D E6                 4076 	mov	a,@r0
   108E F7                 4077 	mov	@r1,a
   108F 08                 4078 	inc	r0
   1090 09                 4079 	inc	r1
   1091 E6                 4080 	mov	a,@r0
   1092 F7                 4081 	mov	@r1,a
   1093 74 01              4082 	mov	a,#0x01
   1095 2F                 4083 	add	a,r7
   1096 FA                 4084 	mov	r2,a
   1097 E4                 4085 	clr	a
   1098 3D                 4086 	addc	a,r5
   1099 FB                 4087 	mov	r3,a
   109A 8C 06              4088 	mov	ar6,r4
   109C E5 81              4089 	mov	a,sp
   109E 24 FB              4090 	add	a,#0xfb
   10A0 F8                 4091 	mov	r0,a
   10A1 E6                 4092 	mov	a,@r0
   10A2 C0 E0              4093 	push	acc
   10A4 08                 4094 	inc	r0
   10A5 E6                 4095 	mov	a,@r0
   10A6 C0 E0              4096 	push	acc
   10A8 E5 81              4097 	mov	a,sp
   10AA 24 FC              4098 	add	a,#0xfc
   10AC F8                 4099 	mov	r0,a
   10AD E6                 4100 	mov	a,@r0
   10AE C0 E0              4101 	push	acc
   10B0 08                 4102 	inc	r0
   10B1 E6                 4103 	mov	a,@r0
   10B2 C0 E0              4104 	push	acc
   10B4 08                 4105 	inc	r0
   10B5 E6                 4106 	mov	a,@r0
   10B6 C0 E0              4107 	push	acc
   10B8 8A 82              4108 	mov	dpl,r2
   10BA 8B 83              4109 	mov	dph,r3
   10BC 8E F0              4110 	mov	b,r6
   10BE 78r00              4111 	mov	r0,#_memcmp
   10C0 79s00              4112 	mov	r1,#(_memcmp >> 8)
   10C2 7As00              4113 	mov	r2,#(_memcmp >> 16)
   10C4 12s00r00           4114 	lcall	__sdcc_banked_call
   10C7 AD 82              4115 	mov	r5,dpl
   10C9 AE 83              4116 	mov	r6,dph
   10CB E5 81              4117 	mov	a,sp
   10CD 24 FB              4118 	add	a,#0xfb
   10CF F5 81              4119 	mov	sp,a
   10D1 ED                 4120 	mov	a,r5
   10D2 4E                 4121 	orl	a,r6
   10D3 70 05              4122 	jnz	00106$
                           4123 ;	../../../contiki-sensinode//core/net/uip-ds6.c:489: return 1;
   10D5 75 82 01           4124 	mov	dpl,#0x01
   10D8 80 12              4125 	sjmp	00108$
   10DA                    4126 00106$:
                           4127 ;	../../../contiki-sensinode//core/net/uip-ds6.c:486: locprefix < uip_ds6_prefix_list + UIP_DS6_PREFIX_NB; locprefix++) {
   10DA 90s02r16           4128 	mov	dptr,#_locprefix
   10DD E0                 4129 	movx	a,@dptr
   10DE 24 1C              4130 	add	a,#0x1C
   10E0 F0                 4131 	movx	@dptr,a
   10E1 A3                 4132 	inc	dptr
   10E2 E0                 4133 	movx	a,@dptr
   10E3 34 00              4134 	addc	a,#0x00
   10E5 F0                 4135 	movx	@dptr,a
   10E6 02s10r27           4136 	ljmp	00104$
   10E9                    4137 00107$:
                           4138 ;	../../../contiki-sensinode//core/net/uip-ds6.c:492: return 0;
   10E9 75 82 00           4139 	mov	dpl,#0x00
   10EC                    4140 00108$:
   10EC E5 81              4141 	mov	a,sp
   10EE 24 F7              4142 	add	a,#0xF7
   10F0 F5 81              4143 	mov	sp,a
   10F2 02s00r00           4144 	ljmp	__sdcc_banked_ret
                           4145 ;------------------------------------------------------------
                           4146 ;Allocation info for local variables in function 'uip_ds6_addr_add'
                           4147 ;------------------------------------------------------------
                           4148 ;vlifetime                 Allocated to stack - sp -9
                           4149 ;type                      Allocated to stack - sp -10
                           4150 ;ipaddr                    Allocated to stack - sp -2
                           4151 ;------------------------------------------------------------
                           4152 ;	../../../contiki-sensinode//core/net/uip-ds6.c:497: uip_ds6_addr_add(uip_ipaddr_t *ipaddr, unsigned long vlifetime, uint8_t type)
                           4153 ;	-----------------------------------------
                           4154 ;	 function uip_ds6_addr_add
                           4155 ;	-----------------------------------------
   10F5                    4156 _uip_ds6_addr_add:
   10F5 C0 82              4157 	push	dpl
   10F7 C0 83              4158 	push	dph
   10F9 C0 F0              4159 	push	b
                           4160 ;	../../../contiki-sensinode//core/net/uip-ds6.c:502: (uip_ds6_element_t **)&locaddr) == FREESPACE) {
   10FB 7Br0D              4161 	mov	r3,#_locaddr
   10FD 7Cs02              4162 	mov	r4,#(_locaddr >> 8)
   10FF 7A 00              4163 	mov	r2,#0x00
                           4164 ;	../../../contiki-sensinode//core/net/uip-ds6.c:500: ((uip_ds6_element_t *)uip_ds6_if.addr_list, UIP_DS6_ADDR_NB,
   1101 C0 03              4165 	push	ar3
   1103 C0 04              4166 	push	ar4
   1105 C0 02              4167 	push	ar2
   1107 74 80              4168 	mov	a,#0x80
   1109 C0 E0              4169 	push	acc
   110B E5 81              4170 	mov	a,sp
   110D 24 FA              4171 	add	a,#0xfa
   110F F8                 4172 	mov	r0,a
   1110 E6                 4173 	mov	a,@r0
   1111 C0 E0              4174 	push	acc
   1113 08                 4175 	inc	r0
   1114 E6                 4176 	mov	a,@r0
   1115 C0 E0              4177 	push	acc
   1117 08                 4178 	inc	r0
   1118 E6                 4179 	mov	a,@r0
   1119 C0 E0              4180 	push	acc
   111B 74 1C              4181 	mov	a,#0x1C
   111D C0 E0              4182 	push	acc
   111F E4                 4183 	clr	a
   1120 C0 E0              4184 	push	acc
   1122 74 03              4185 	mov	a,#0x03
   1124 C0 E0              4186 	push	acc
   1126 90s00r24           4187 	mov	dptr,#(_uip_ds6_if + 0x0012)
   1129 75 F0 00           4188 	mov	b,#0x00
   112C 78r4D              4189 	mov	r0,#_uip_ds6_list_loop
   112E 79s07              4190 	mov	r1,#(_uip_ds6_list_loop >> 8)
   1130 7As00              4191 	mov	r2,#(_uip_ds6_list_loop >> 16)
   1132 12s00r00           4192 	lcall	__sdcc_banked_call
   1135 AC 82              4193 	mov	r4,dpl
   1137 E5 81              4194 	mov	a,sp
   1139 24 F6              4195 	add	a,#0xf6
   113B F5 81              4196 	mov	sp,a
   113D BC 01 02           4197 	cjne	r4,#0x01,00112$
   1140 80 03              4198 	sjmp	00113$
   1142                    4199 00112$:
   1142 02s12rD1           4200 	ljmp	00105$
   1145                    4201 00113$:
                           4202 ;	../../../contiki-sensinode//core/net/uip-ds6.c:503: locaddr->isused = 1;
   1145 90s02r0D           4203 	mov	dptr,#_locaddr
   1148 E0                 4204 	movx	a,@dptr
   1149 FA                 4205 	mov	r2,a
   114A A3                 4206 	inc	dptr
   114B E0                 4207 	movx	a,@dptr
   114C FB                 4208 	mov	r3,a
   114D A3                 4209 	inc	dptr
   114E E0                 4210 	movx	a,@dptr
   114F FC                 4211 	mov	r4,a
   1150 8A 82              4212 	mov	dpl,r2
   1152 8B 83              4213 	mov	dph,r3
   1154 8C F0              4214 	mov	b,r4
   1156 74 01              4215 	mov	a,#0x01
   1158 12s00r00           4216 	lcall	__gptrput
                           4217 ;	../../../contiki-sensinode//core/net/uip-ds6.c:504: uip_ipaddr_copy(&locaddr->ipaddr, ipaddr);
   115B A8 81              4218 	mov	r0,sp
   115D 18                 4219 	dec	r0
   115E 18                 4220 	dec	r0
   115F 86 05              4221 	mov	ar5,@r0
   1161 08                 4222 	inc	r0
   1162 86 06              4223 	mov	ar6,@r0
   1164 08                 4224 	inc	r0
   1165 86 07              4225 	mov	ar7,@r0
   1167 0A                 4226 	inc	r2
   1168 BA 00 01           4227 	cjne	r2,#0x00,00114$
   116B 0B                 4228 	inc	r3
   116C                    4229 00114$:
   116C 74 10              4230 	mov	a,#0x10
   116E C0 E0              4231 	push	acc
   1170 E4                 4232 	clr	a
   1171 C0 E0              4233 	push	acc
   1173 C0 05              4234 	push	ar5
   1175 C0 06              4235 	push	ar6
   1177 C0 07              4236 	push	ar7
   1179 8A 82              4237 	mov	dpl,r2
   117B 8B 83              4238 	mov	dph,r3
   117D 8C F0              4239 	mov	b,r4
   117F 78r00              4240 	mov	r0,#_memcpy
   1181 79s00              4241 	mov	r1,#(_memcpy >> 8)
   1183 7As00              4242 	mov	r2,#(_memcpy >> 16)
   1185 12s00r00           4243 	lcall	__sdcc_banked_call
   1188 E5 81              4244 	mov	a,sp
   118A 24 FB              4245 	add	a,#0xfb
   118C F5 81              4246 	mov	sp,a
                           4247 ;	../../../contiki-sensinode//core/net/uip-ds6.c:505: locaddr->type = type;
   118E 90s02r0D           4248 	mov	dptr,#_locaddr
   1191 E0                 4249 	movx	a,@dptr
   1192 FD                 4250 	mov	r5,a
   1193 A3                 4251 	inc	dptr
   1194 E0                 4252 	movx	a,@dptr
   1195 FE                 4253 	mov	r6,a
   1196 A3                 4254 	inc	dptr
   1197 E0                 4255 	movx	a,@dptr
   1198 FF                 4256 	mov	r7,a
   1199 74 12              4257 	mov	a,#0x12
   119B 2D                 4258 	add	a,r5
   119C FA                 4259 	mov	r2,a
   119D E4                 4260 	clr	a
   119E 3E                 4261 	addc	a,r6
   119F FB                 4262 	mov	r3,a
   11A0 8F 04              4263 	mov	ar4,r7
   11A2 8A 82              4264 	mov	dpl,r2
   11A4 8B 83              4265 	mov	dph,r3
   11A6 8C F0              4266 	mov	b,r4
   11A8 E5 81              4267 	mov	a,sp
   11AA 24 F6              4268 	add	a,#0xf6
   11AC F8                 4269 	mov	r0,a
   11AD E6                 4270 	mov	a,@r0
   11AE 12s00r00           4271 	lcall	__gptrput
                           4272 ;	../../../contiki-sensinode//core/net/uip-ds6.c:506: if(vlifetime == 0) {
   11B1 E5 81              4273 	mov	a,sp
   11B3 24 F7              4274 	add	a,#0xf7
   11B5 F8                 4275 	mov	r0,a
   11B6 E6                 4276 	mov	a,@r0
   11B7 08                 4277 	inc	r0
   11B8 46                 4278 	orl	a,@r0
   11B9 08                 4279 	inc	r0
   11BA 46                 4280 	orl	a,@r0
   11BB 08                 4281 	inc	r0
   11BC 46                 4282 	orl	a,@r0
   11BD 70 16              4283 	jnz	00102$
                           4284 ;	../../../contiki-sensinode//core/net/uip-ds6.c:507: locaddr->isinfinite = 1;
   11BF 74 13              4285 	mov	a,#0x13
   11C1 2D                 4286 	add	a,r5
   11C2 FA                 4287 	mov	r2,a
   11C3 E4                 4288 	clr	a
   11C4 3E                 4289 	addc	a,r6
   11C5 FB                 4290 	mov	r3,a
   11C6 8F 04              4291 	mov	ar4,r7
   11C8 8A 82              4292 	mov	dpl,r2
   11CA 8B 83              4293 	mov	dph,r3
   11CC 8C F0              4294 	mov	b,r4
   11CE 74 01              4295 	mov	a,#0x01
   11D0 12s00r00           4296 	lcall	__gptrput
   11D3 80 43              4297 	sjmp	00103$
   11D5                    4298 00102$:
                           4299 ;	../../../contiki-sensinode//core/net/uip-ds6.c:509: locaddr->isinfinite = 0;
   11D5 74 13              4300 	mov	a,#0x13
   11D7 2D                 4301 	add	a,r5
   11D8 FA                 4302 	mov	r2,a
   11D9 E4                 4303 	clr	a
   11DA 3E                 4304 	addc	a,r6
   11DB FB                 4305 	mov	r3,a
   11DC 8F 04              4306 	mov	ar4,r7
   11DE 8A 82              4307 	mov	dpl,r2
   11E0 8B 83              4308 	mov	dph,r3
   11E2 8C F0              4309 	mov	b,r4
   11E4 E4                 4310 	clr	a
   11E5 12s00r00           4311 	lcall	__gptrput
                           4312 ;	../../../contiki-sensinode//core/net/uip-ds6.c:510: stimer_set(&(locaddr->vlifetime), vlifetime);
   11E8 74 14              4313 	mov	a,#0x14
   11EA 2D                 4314 	add	a,r5
   11EB FD                 4315 	mov	r5,a
   11EC E4                 4316 	clr	a
   11ED 3E                 4317 	addc	a,r6
   11EE FE                 4318 	mov	r6,a
   11EF E5 81              4319 	mov	a,sp
   11F1 24 F7              4320 	add	a,#0xf7
   11F3 F8                 4321 	mov	r0,a
   11F4 E6                 4322 	mov	a,@r0
   11F5 C0 E0              4323 	push	acc
   11F7 08                 4324 	inc	r0
   11F8 E6                 4325 	mov	a,@r0
   11F9 C0 E0              4326 	push	acc
   11FB 08                 4327 	inc	r0
   11FC E6                 4328 	mov	a,@r0
   11FD C0 E0              4329 	push	acc
   11FF 08                 4330 	inc	r0
   1200 E6                 4331 	mov	a,@r0
   1201 C0 E0              4332 	push	acc
   1203 8D 82              4333 	mov	dpl,r5
   1205 8E 83              4334 	mov	dph,r6
   1207 8F F0              4335 	mov	b,r7
   1209 78r00              4336 	mov	r0,#_stimer_set
   120B 79s00              4337 	mov	r1,#(_stimer_set >> 8)
   120D 7As00              4338 	mov	r2,#(_stimer_set >> 16)
   120F 12s00r00           4339 	lcall	__sdcc_banked_call
   1212 E5 81              4340 	mov	a,sp
   1214 24 FC              4341 	add	a,#0xfc
   1216 F5 81              4342 	mov	sp,a
   1218                    4343 00103$:
                           4344 ;	../../../contiki-sensinode//core/net/uip-ds6.c:519: locaddr->state = ADDR_PREFERRED;
   1218 90s02r0D           4345 	mov	dptr,#_locaddr
   121B E0                 4346 	movx	a,@dptr
   121C FD                 4347 	mov	r5,a
   121D A3                 4348 	inc	dptr
   121E E0                 4349 	movx	a,@dptr
   121F FE                 4350 	mov	r6,a
   1220 A3                 4351 	inc	dptr
   1221 E0                 4352 	movx	a,@dptr
   1222 FF                 4353 	mov	r7,a
   1223 74 11              4354 	mov	a,#0x11
   1225 2D                 4355 	add	a,r5
   1226 FD                 4356 	mov	r5,a
   1227 E4                 4357 	clr	a
   1228 3E                 4358 	addc	a,r6
   1229 FE                 4359 	mov	r6,a
   122A 8D 82              4360 	mov	dpl,r5
   122C 8E 83              4361 	mov	dph,r6
   122E 8F F0              4362 	mov	b,r7
   1230 74 01              4363 	mov	a,#0x01
   1232 12s00r00           4364 	lcall	__gptrput
                           4365 ;	../../../contiki-sensinode//core/net/uip-ds6.c:521: uip_create_solicited_node(ipaddr, &loc_fipaddr);
   1235 90s01rFD           4366 	mov	dptr,#_loc_fipaddr
   1238 74 FF              4367 	mov	a,#0xFF
   123A F0                 4368 	movx	@dptr,a
   123B 90s01rFE           4369 	mov	dptr,#(_loc_fipaddr + 0x0001)
   123E 74 02              4370 	mov	a,#0x02
   1240 F0                 4371 	movx	@dptr,a
   1241 90s01rFF           4372 	mov	dptr,#(_loc_fipaddr + 0x0002)
   1244 E4                 4373 	clr	a
   1245 F0                 4374 	movx	@dptr,a
   1246 A3                 4375 	inc	dptr
   1247 F0                 4376 	movx	@dptr,a
   1248 90s02r01           4377 	mov	dptr,#(_loc_fipaddr + 0x0004)
   124B F0                 4378 	movx	@dptr,a
   124C A3                 4379 	inc	dptr
   124D E4                 4380 	clr	a
   124E F0                 4381 	movx	@dptr,a
   124F 90s02r03           4382 	mov	dptr,#(_loc_fipaddr + 0x0006)
   1252 F0                 4383 	movx	@dptr,a
   1253 A3                 4384 	inc	dptr
   1254 E4                 4385 	clr	a
   1255 F0                 4386 	movx	@dptr,a
   1256 90s02r05           4387 	mov	dptr,#(_loc_fipaddr + 0x0008)
   1259 F0                 4388 	movx	@dptr,a
   125A A3                 4389 	inc	dptr
   125B E4                 4390 	clr	a
   125C F0                 4391 	movx	@dptr,a
   125D 90s02r07           4392 	mov	dptr,#(_loc_fipaddr + 0x000a)
   1260 F0                 4393 	movx	@dptr,a
   1261 90s02r08           4394 	mov	dptr,#(_loc_fipaddr + 0x000b)
   1264 74 01              4395 	mov	a,#0x01
   1266 F0                 4396 	movx	@dptr,a
   1267 90s02r09           4397 	mov	dptr,#(_loc_fipaddr + 0x000c)
   126A 74 FF              4398 	mov	a,#0xFF
   126C F0                 4399 	movx	@dptr,a
   126D A8 81              4400 	mov	r0,sp
   126F 18                 4401 	dec	r0
   1270 18                 4402 	dec	r0
   1271 74 0D              4403 	mov	a,#0x0D
   1273 26                 4404 	add	a,@r0
   1274 FD                 4405 	mov	r5,a
   1275 E4                 4406 	clr	a
   1276 08                 4407 	inc	r0
   1277 36                 4408 	addc	a,@r0
   1278 FE                 4409 	mov	r6,a
   1279 08                 4410 	inc	r0
   127A 86 07              4411 	mov	ar7,@r0
   127C 8D 82              4412 	mov	dpl,r5
   127E 8E 83              4413 	mov	dph,r6
   1280 8F F0              4414 	mov	b,r7
   1282 12s00r00           4415 	lcall	__gptrget
   1285 90s02r0A           4416 	mov	dptr,#(_loc_fipaddr + 0x000d)
   1288 F0                 4417 	movx	@dptr,a
   1289 A8 81              4418 	mov	r0,sp
   128B 18                 4419 	dec	r0
   128C 18                 4420 	dec	r0
   128D 74 0E              4421 	mov	a,#0x0E
   128F 26                 4422 	add	a,@r0
   1290 FD                 4423 	mov	r5,a
   1291 E4                 4424 	clr	a
   1292 08                 4425 	inc	r0
   1293 36                 4426 	addc	a,@r0
   1294 FE                 4427 	mov	r6,a
   1295 08                 4428 	inc	r0
   1296 86 07              4429 	mov	ar7,@r0
   1298 8D 82              4430 	mov	dpl,r5
   129A 8E 83              4431 	mov	dph,r6
   129C 8F F0              4432 	mov	b,r7
   129E 12s00r00           4433 	lcall	__gptrget
   12A1 FD                 4434 	mov	r5,a
   12A2 A3                 4435 	inc	dptr
   12A3 12s00r00           4436 	lcall	__gptrget
   12A6 FE                 4437 	mov	r6,a
   12A7 90s02r0B           4438 	mov	dptr,#(_loc_fipaddr + 0x000e)
   12AA ED                 4439 	mov	a,r5
   12AB F0                 4440 	movx	@dptr,a
   12AC A3                 4441 	inc	dptr
   12AD EE                 4442 	mov	a,r6
   12AE F0                 4443 	movx	@dptr,a
                           4444 ;	../../../contiki-sensinode//core/net/uip-ds6.c:522: uip_ds6_maddr_add(&loc_fipaddr);
   12AF 90s01rFD           4445 	mov	dptr,#_loc_fipaddr
   12B2 75 F0 00           4446 	mov	b,#0x00
   12B5 78rAA              4447 	mov	r0,#_uip_ds6_maddr_add
   12B7 79s15              4448 	mov	r1,#(_uip_ds6_maddr_add >> 8)
   12B9 7As00              4449 	mov	r2,#(_uip_ds6_maddr_add >> 16)
   12BB 12s00r00           4450 	lcall	__sdcc_banked_call
                           4451 ;	../../../contiki-sensinode//core/net/uip-ds6.c:523: return locaddr;
   12BE 90s02r0D           4452 	mov	dptr,#_locaddr
   12C1 E0                 4453 	movx	a,@dptr
   12C2 FD                 4454 	mov	r5,a
   12C3 A3                 4455 	inc	dptr
   12C4 E0                 4456 	movx	a,@dptr
   12C5 FE                 4457 	mov	r6,a
   12C6 A3                 4458 	inc	dptr
   12C7 E0                 4459 	movx	a,@dptr
   12C8 FF                 4460 	mov	r7,a
   12C9 8D 82              4461 	mov	dpl,r5
   12CB 8E 83              4462 	mov	dph,r6
   12CD 8F F0              4463 	mov	b,r7
   12CF 80 06              4464 	sjmp	00106$
   12D1                    4465 00105$:
                           4466 ;	../../../contiki-sensinode//core/net/uip-ds6.c:525: return NULL;
   12D1 90 00 00           4467 	mov	dptr,#0x0000
   12D4 75 F0 00           4468 	mov	b,#0x00
   12D7                    4469 00106$:
   12D7 15 81              4470 	dec	sp
   12D9 15 81              4471 	dec	sp
   12DB 15 81              4472 	dec	sp
   12DD 02s00r00           4473 	ljmp	__sdcc_banked_ret
                           4474 ;------------------------------------------------------------
                           4475 ;Allocation info for local variables in function 'uip_ds6_addr_rm'
                           4476 ;------------------------------------------------------------
                           4477 ;addr                      Allocated to registers r5 r6 r7 
                           4478 ;------------------------------------------------------------
                           4479 ;	../../../contiki-sensinode//core/net/uip-ds6.c:530: uip_ds6_addr_rm(uip_ds6_addr_t *addr)
                           4480 ;	-----------------------------------------
                           4481 ;	 function uip_ds6_addr_rm
                           4482 ;	-----------------------------------------
   12E0                    4483 _uip_ds6_addr_rm:
   12E0 AD 82              4484 	mov	r5,dpl
   12E2 AE 83              4485 	mov	r6,dph
   12E4 AF F0              4486 	mov	r7,b
                           4487 ;	../../../contiki-sensinode//core/net/uip-ds6.c:532: if(addr != NULL) {
   12E6 ED                 4488 	mov	a,r5
   12E7 4E                 4489 	orl	a,r6
   12E8 70 03              4490 	jnz	00111$
   12EA 02s13rBE           4491 	ljmp	00104$
   12ED                    4492 00111$:
                           4493 ;	../../../contiki-sensinode//core/net/uip-ds6.c:533: uip_create_solicited_node(&addr->ipaddr, &loc_fipaddr);
   12ED 90s01rFD           4494 	mov	dptr,#_loc_fipaddr
   12F0 74 FF              4495 	mov	a,#0xFF
   12F2 F0                 4496 	movx	@dptr,a
   12F3 90s01rFE           4497 	mov	dptr,#(_loc_fipaddr + 0x0001)
   12F6 74 02              4498 	mov	a,#0x02
   12F8 F0                 4499 	movx	@dptr,a
   12F9 90s01rFF           4500 	mov	dptr,#(_loc_fipaddr + 0x0002)
   12FC E4                 4501 	clr	a
   12FD F0                 4502 	movx	@dptr,a
   12FE A3                 4503 	inc	dptr
   12FF F0                 4504 	movx	@dptr,a
   1300 90s02r01           4505 	mov	dptr,#(_loc_fipaddr + 0x0004)
   1303 F0                 4506 	movx	@dptr,a
   1304 A3                 4507 	inc	dptr
   1305 E4                 4508 	clr	a
   1306 F0                 4509 	movx	@dptr,a
   1307 90s02r03           4510 	mov	dptr,#(_loc_fipaddr + 0x0006)
   130A F0                 4511 	movx	@dptr,a
   130B A3                 4512 	inc	dptr
   130C E4                 4513 	clr	a
   130D F0                 4514 	movx	@dptr,a
   130E 90s02r05           4515 	mov	dptr,#(_loc_fipaddr + 0x0008)
   1311 F0                 4516 	movx	@dptr,a
   1312 A3                 4517 	inc	dptr
   1313 E4                 4518 	clr	a
   1314 F0                 4519 	movx	@dptr,a
   1315 90s02r07           4520 	mov	dptr,#(_loc_fipaddr + 0x000a)
   1318 F0                 4521 	movx	@dptr,a
   1319 90s02r08           4522 	mov	dptr,#(_loc_fipaddr + 0x000b)
   131C 74 01              4523 	mov	a,#0x01
   131E F0                 4524 	movx	@dptr,a
   131F 90s02r09           4525 	mov	dptr,#(_loc_fipaddr + 0x000c)
   1322 74 FF              4526 	mov	a,#0xFF
   1324 F0                 4527 	movx	@dptr,a
   1325 74 01              4528 	mov	a,#0x01
   1327 2D                 4529 	add	a,r5
   1328 FA                 4530 	mov	r2,a
   1329 E4                 4531 	clr	a
   132A 3E                 4532 	addc	a,r6
   132B FB                 4533 	mov	r3,a
   132C 8F 04              4534 	mov	ar4,r7
   132E 74 0D              4535 	mov	a,#0x0D
   1330 2A                 4536 	add	a,r2
   1331 FA                 4537 	mov	r2,a
   1332 E4                 4538 	clr	a
   1333 3B                 4539 	addc	a,r3
   1334 FB                 4540 	mov	r3,a
   1335 8A 82              4541 	mov	dpl,r2
   1337 8B 83              4542 	mov	dph,r3
   1339 8C F0              4543 	mov	b,r4
   133B 12s00r00           4544 	lcall	__gptrget
   133E 90s02r0A           4545 	mov	dptr,#(_loc_fipaddr + 0x000d)
   1341 F0                 4546 	movx	@dptr,a
   1342 74 01              4547 	mov	a,#0x01
   1344 2D                 4548 	add	a,r5
   1345 FA                 4549 	mov	r2,a
   1346 E4                 4550 	clr	a
   1347 3E                 4551 	addc	a,r6
   1348 FB                 4552 	mov	r3,a
   1349 8F 04              4553 	mov	ar4,r7
   134B 74 0E              4554 	mov	a,#0x0E
   134D 2A                 4555 	add	a,r2
   134E FA                 4556 	mov	r2,a
   134F E4                 4557 	clr	a
   1350 3B                 4558 	addc	a,r3
   1351 FB                 4559 	mov	r3,a
   1352 8A 82              4560 	mov	dpl,r2
   1354 8B 83              4561 	mov	dph,r3
   1356 8C F0              4562 	mov	b,r4
   1358 12s00r00           4563 	lcall	__gptrget
   135B FA                 4564 	mov	r2,a
   135C A3                 4565 	inc	dptr
   135D 12s00r00           4566 	lcall	__gptrget
   1360 FB                 4567 	mov	r3,a
   1361 90s02r0B           4568 	mov	dptr,#(_loc_fipaddr + 0x000e)
   1364 EA                 4569 	mov	a,r2
   1365 F0                 4570 	movx	@dptr,a
   1366 A3                 4571 	inc	dptr
   1367 EB                 4572 	mov	a,r3
   1368 F0                 4573 	movx	@dptr,a
                           4574 ;	../../../contiki-sensinode//core/net/uip-ds6.c:534: if((locmaddr = uip_ds6_maddr_lookup(&loc_fipaddr)) != NULL) {
   1369 90s01rFD           4575 	mov	dptr,#_loc_fipaddr
   136C 75 F0 00           4576 	mov	b,#0x00
   136F C0 07              4577 	push	ar7
   1371 C0 06              4578 	push	ar6
   1373 C0 05              4579 	push	ar5
   1375 78r67              4580 	mov	r0,#_uip_ds6_maddr_lookup
   1377 79s16              4581 	mov	r1,#(_uip_ds6_maddr_lookup >> 8)
   1379 7As00              4582 	mov	r2,#(_uip_ds6_maddr_lookup >> 16)
   137B 12s00r00           4583 	lcall	__sdcc_banked_call
   137E AA 82              4584 	mov	r2,dpl
   1380 AB 83              4585 	mov	r3,dph
   1382 AC F0              4586 	mov	r4,b
   1384 D0 05              4587 	pop	ar5
   1386 D0 06              4588 	pop	ar6
   1388 D0 07              4589 	pop	ar7
   138A 90s02r10           4590 	mov	dptr,#_locmaddr
   138D EA                 4591 	mov	a,r2
   138E F0                 4592 	movx	@dptr,a
   138F A3                 4593 	inc	dptr
   1390 EB                 4594 	mov	a,r3
   1391 F0                 4595 	movx	@dptr,a
   1392 A3                 4596 	inc	dptr
   1393 EC                 4597 	mov	a,r4
   1394 F0                 4598 	movx	@dptr,a
   1395 EA                 4599 	mov	a,r2
   1396 4B                 4600 	orl	a,r3
   1397 60 1B              4601 	jz	00102$
                           4602 ;	../../../contiki-sensinode//core/net/uip-ds6.c:535: uip_ds6_maddr_rm(locmaddr);
   1399 8A 82              4603 	mov	dpl,r2
   139B 8B 83              4604 	mov	dph,r3
   139D 8C F0              4605 	mov	b,r4
   139F C0 07              4606 	push	ar7
   13A1 C0 06              4607 	push	ar6
   13A3 C0 05              4608 	push	ar5
   13A5 78r50              4609 	mov	r0,#_uip_ds6_maddr_rm
   13A7 79s16              4610 	mov	r1,#(_uip_ds6_maddr_rm >> 8)
   13A9 7As00              4611 	mov	r2,#(_uip_ds6_maddr_rm >> 16)
   13AB 12s00r00           4612 	lcall	__sdcc_banked_call
   13AE D0 05              4613 	pop	ar5
   13B0 D0 06              4614 	pop	ar6
   13B2 D0 07              4615 	pop	ar7
   13B4                    4616 00102$:
                           4617 ;	../../../contiki-sensinode//core/net/uip-ds6.c:537: addr->isused = 0;
   13B4 8D 82              4618 	mov	dpl,r5
   13B6 8E 83              4619 	mov	dph,r6
   13B8 8F F0              4620 	mov	b,r7
   13BA E4                 4621 	clr	a
   13BB 12s00r00           4622 	lcall	__gptrput
   13BE                    4623 00104$:
                           4624 ;	../../../contiki-sensinode//core/net/uip-ds6.c:539: return;
   13BE 02s00r00           4625 	ljmp	__sdcc_banked_ret
                           4626 ;------------------------------------------------------------
                           4627 ;Allocation info for local variables in function 'uip_ds6_addr_lookup'
                           4628 ;------------------------------------------------------------
                           4629 ;ipaddr                    Allocated to registers r5 r6 r7 
                           4630 ;------------------------------------------------------------
                           4631 ;	../../../contiki-sensinode//core/net/uip-ds6.c:544: uip_ds6_addr_lookup(uip_ipaddr_t *ipaddr)
                           4632 ;	-----------------------------------------
                           4633 ;	 function uip_ds6_addr_lookup
                           4634 ;	-----------------------------------------
   13C1                    4635 _uip_ds6_addr_lookup:
   13C1 AD 82              4636 	mov	r5,dpl
   13C3 AE 83              4637 	mov	r6,dph
   13C5 AF F0              4638 	mov	r7,b
                           4639 ;	../../../contiki-sensinode//core/net/uip-ds6.c:549: (uip_ds6_element_t **)&locaddr) == FOUND) {
   13C7 7Br0D              4640 	mov	r3,#_locaddr
   13C9 7Cs02              4641 	mov	r4,#(_locaddr >> 8)
   13CB 7A 00              4642 	mov	r2,#0x00
                           4643 ;	../../../contiki-sensinode//core/net/uip-ds6.c:547: ((uip_ds6_element_t *)uip_ds6_if.addr_list, UIP_DS6_ADDR_NB,
   13CD C0 03              4644 	push	ar3
   13CF C0 04              4645 	push	ar4
   13D1 C0 02              4646 	push	ar2
   13D3 74 80              4647 	mov	a,#0x80
   13D5 C0 E0              4648 	push	acc
   13D7 C0 05              4649 	push	ar5
   13D9 C0 06              4650 	push	ar6
   13DB C0 07              4651 	push	ar7
   13DD 74 1C              4652 	mov	a,#0x1C
   13DF C0 E0              4653 	push	acc
   13E1 E4                 4654 	clr	a
   13E2 C0 E0              4655 	push	acc
   13E4 74 03              4656 	mov	a,#0x03
   13E6 C0 E0              4657 	push	acc
   13E8 90s00r24           4658 	mov	dptr,#(_uip_ds6_if + 0x0012)
   13EB 75 F0 00           4659 	mov	b,#0x00
   13EE 78r4D              4660 	mov	r0,#_uip_ds6_list_loop
   13F0 79s07              4661 	mov	r1,#(_uip_ds6_list_loop >> 8)
   13F2 7As00              4662 	mov	r2,#(_uip_ds6_list_loop >> 16)
   13F4 12s00r00           4663 	lcall	__sdcc_banked_call
   13F7 AF 82              4664 	mov	r7,dpl
   13F9 E5 81              4665 	mov	a,sp
   13FB 24 F6              4666 	add	a,#0xf6
   13FD F5 81              4667 	mov	sp,a
   13FF EF                 4668 	mov	a,r7
   1400 70 13              4669 	jnz	00102$
                           4670 ;	../../../contiki-sensinode//core/net/uip-ds6.c:550: return locaddr;
   1402 90s02r0D           4671 	mov	dptr,#_locaddr
   1405 E0                 4672 	movx	a,@dptr
   1406 FD                 4673 	mov	r5,a
   1407 A3                 4674 	inc	dptr
   1408 E0                 4675 	movx	a,@dptr
   1409 FE                 4676 	mov	r6,a
   140A A3                 4677 	inc	dptr
   140B E0                 4678 	movx	a,@dptr
   140C FF                 4679 	mov	r7,a
   140D 8D 82              4680 	mov	dpl,r5
   140F 8E 83              4681 	mov	dph,r6
   1411 8F F0              4682 	mov	b,r7
   1413 80 06              4683 	sjmp	00103$
   1415                    4684 00102$:
                           4685 ;	../../../contiki-sensinode//core/net/uip-ds6.c:552: return NULL;
   1415 90 00 00           4686 	mov	dptr,#0x0000
   1418 75 F0 00           4687 	mov	b,#0x00
   141B                    4688 00103$:
   141B 02s00r00           4689 	ljmp	__sdcc_banked_ret
                           4690 ;------------------------------------------------------------
                           4691 ;Allocation info for local variables in function 'uip_ds6_get_link_local'
                           4692 ;------------------------------------------------------------
                           4693 ;state                     Allocated to registers r7 
                           4694 ;------------------------------------------------------------
                           4695 ;	../../../contiki-sensinode//core/net/uip-ds6.c:562: uip_ds6_get_link_local(int8_t state)
                           4696 ;	-----------------------------------------
                           4697 ;	 function uip_ds6_get_link_local
                           4698 ;	-----------------------------------------
   141E                    4699 _uip_ds6_get_link_local:
   141E AF 82              4700 	mov	r7,dpl
                           4701 ;	../../../contiki-sensinode//core/net/uip-ds6.c:564: for(locaddr = uip_ds6_if.addr_list;
   1420 90s02r0D           4702 	mov	dptr,#_locaddr
   1423 74r24              4703 	mov	a,#(_uip_ds6_if + 0x0012)
   1425 F0                 4704 	movx	@dptr,a
   1426 A3                 4705 	inc	dptr
   1427 74s00              4706 	mov	a,#((_uip_ds6_if + 0x0012) >> 8)
   1429 F0                 4707 	movx	@dptr,a
   142A A3                 4708 	inc	dptr
   142B E4                 4709 	clr	a
   142C F0                 4710 	movx	@dptr,a
   142D E4                 4711 	clr	a
   142E BF FF 01           4712 	cjne	r7,#0xFF,00125$
   1431 04                 4713 	inc	a
   1432                    4714 00125$:
   1432 FE                 4715 	mov	r6,a
   1433                    4716 00107$:
                           4717 ;	../../../contiki-sensinode//core/net/uip-ds6.c:565: locaddr < uip_ds6_if.addr_list + UIP_DS6_ADDR_NB; locaddr++) {
   1433 90s02r0D           4718 	mov	dptr,#_locaddr
   1436 E0                 4719 	movx	a,@dptr
   1437 FB                 4720 	mov	r3,a
   1438 A3                 4721 	inc	dptr
   1439 E0                 4722 	movx	a,@dptr
   143A FC                 4723 	mov	r4,a
   143B A3                 4724 	inc	dptr
   143C E0                 4725 	movx	a,@dptr
   143D FD                 4726 	mov	r5,a
   143E 74r78              4727 	mov	a,#(_uip_ds6_if + 0x0066)
   1440 C0 E0              4728 	push	acc
   1442 74s00              4729 	mov	a,#((_uip_ds6_if + 0x0066) >> 8)
   1444 C0 E0              4730 	push	acc
   1446 E4                 4731 	clr	a
   1447 C0 E0              4732 	push	acc
   1449 8B 82              4733 	mov	dpl,r3
   144B 8C 83              4734 	mov	dph,r4
   144D 8D F0              4735 	mov	b,r5
   144F 12s00r00           4736 	lcall	___gptr_cmp
   1452 15 81              4737 	dec	sp
   1454 15 81              4738 	dec	sp
   1456 15 81              4739 	dec	sp
   1458 40 03              4740 	jc	00127$
   145A 02s14rDA           4741 	ljmp	00110$
   145D                    4742 00127$:
                           4743 ;	../../../contiki-sensinode//core/net/uip-ds6.c:566: if(locaddr->isused && (state == -1 || locaddr->state == state)
   145D 8B 82              4744 	mov	dpl,r3
   145F 8C 83              4745 	mov	dph,r4
   1461 8D F0              4746 	mov	b,r5
   1463 12s00r00           4747 	lcall	__gptrget
   1466 60 63              4748 	jz	00109$
   1468 EE                 4749 	mov	a,r6
   1469 70 21              4750 	jnz	00106$
   146B 74 11              4751 	mov	a,#0x11
   146D 2B                 4752 	add	a,r3
   146E FB                 4753 	mov	r3,a
   146F E4                 4754 	clr	a
   1470 3C                 4755 	addc	a,r4
   1471 FC                 4756 	mov	r4,a
   1472 8B 82              4757 	mov	dpl,r3
   1474 8C 83              4758 	mov	dph,r4
   1476 8D F0              4759 	mov	b,r5
   1478 12s00r00           4760 	lcall	__gptrget
   147B FB                 4761 	mov	r3,a
   147C 7D 00              4762 	mov	r5,#0x00
   147E EF                 4763 	mov	a,r7
   147F FA                 4764 	mov	r2,a
   1480 33                 4765 	rlc	a
   1481 95 E0              4766 	subb	a,acc
   1483 FC                 4767 	mov	r4,a
   1484 EB                 4768 	mov	a,r3
   1485 B5 02 43           4769 	cjne	a,ar2,00109$
   1488 ED                 4770 	mov	a,r5
   1489 B5 04 3F           4771 	cjne	a,ar4,00109$
   148C                    4772 00106$:
                           4773 ;	../../../contiki-sensinode//core/net/uip-ds6.c:567: && (uip_is_addr_link_local(&locaddr->ipaddr))) {
   148C 90s02r0D           4774 	mov	dptr,#_locaddr
   148F E0                 4775 	movx	a,@dptr
   1490 FB                 4776 	mov	r3,a
   1491 A3                 4777 	inc	dptr
   1492 E0                 4778 	movx	a,@dptr
   1493 FC                 4779 	mov	r4,a
   1494 A3                 4780 	inc	dptr
   1495 E0                 4781 	movx	a,@dptr
   1496 FD                 4782 	mov	r5,a
   1497 74 01              4783 	mov	a,#0x01
   1499 2B                 4784 	add	a,r3
   149A F8                 4785 	mov	r0,a
   149B E4                 4786 	clr	a
   149C 3C                 4787 	addc	a,r4
   149D F9                 4788 	mov	r1,a
   149E 8D 02              4789 	mov	ar2,r5
   14A0 88 82              4790 	mov	dpl,r0
   14A2 89 83              4791 	mov	dph,r1
   14A4 8A F0              4792 	mov	b,r2
   14A6 12s00r00           4793 	lcall	__gptrget
   14A9 F8                 4794 	mov	r0,a
   14AA B8 FE 1E           4795 	cjne	r0,#0xFE,00109$
   14AD 74 02              4796 	mov	a,#0x02
   14AF 2B                 4797 	add	a,r3
   14B0 F8                 4798 	mov	r0,a
   14B1 E4                 4799 	clr	a
   14B2 3C                 4800 	addc	a,r4
   14B3 F9                 4801 	mov	r1,a
   14B4 8D 02              4802 	mov	ar2,r5
   14B6 88 82              4803 	mov	dpl,r0
   14B8 89 83              4804 	mov	dph,r1
   14BA 8A F0              4805 	mov	b,r2
   14BC 12s00r00           4806 	lcall	__gptrget
   14BF F8                 4807 	mov	r0,a
   14C0 B8 80 08           4808 	cjne	r0,#0x80,00109$
                           4809 ;	../../../contiki-sensinode//core/net/uip-ds6.c:568: return locaddr;
   14C3 8B 82              4810 	mov	dpl,r3
   14C5 8C 83              4811 	mov	dph,r4
   14C7 8D F0              4812 	mov	b,r5
   14C9 80 15              4813 	sjmp	00111$
   14CB                    4814 00109$:
                           4815 ;	../../../contiki-sensinode//core/net/uip-ds6.c:565: locaddr < uip_ds6_if.addr_list + UIP_DS6_ADDR_NB; locaddr++) {
   14CB 90s02r0D           4816 	mov	dptr,#_locaddr
   14CE E0                 4817 	movx	a,@dptr
   14CF 24 1C              4818 	add	a,#0x1C
   14D1 F0                 4819 	movx	@dptr,a
   14D2 A3                 4820 	inc	dptr
   14D3 E0                 4821 	movx	a,@dptr
   14D4 34 00              4822 	addc	a,#0x00
   14D6 F0                 4823 	movx	@dptr,a
   14D7 02s14r33           4824 	ljmp	00107$
   14DA                    4825 00110$:
                           4826 ;	../../../contiki-sensinode//core/net/uip-ds6.c:571: return NULL;
   14DA 90 00 00           4827 	mov	dptr,#0x0000
   14DD 75 F0 00           4828 	mov	b,#0x00
   14E0                    4829 00111$:
   14E0 02s00r00           4830 	ljmp	__sdcc_banked_ret
                           4831 ;------------------------------------------------------------
                           4832 ;Allocation info for local variables in function 'uip_ds6_get_global'
                           4833 ;------------------------------------------------------------
                           4834 ;state                     Allocated to registers r7 
                           4835 ;------------------------------------------------------------
                           4836 ;	../../../contiki-sensinode//core/net/uip-ds6.c:581: uip_ds6_get_global(int8_t state)
                           4837 ;	-----------------------------------------
                           4838 ;	 function uip_ds6_get_global
                           4839 ;	-----------------------------------------
   14E3                    4840 _uip_ds6_get_global:
   14E3 AF 82              4841 	mov	r7,dpl
                           4842 ;	../../../contiki-sensinode//core/net/uip-ds6.c:583: for(locaddr = uip_ds6_if.addr_list;
   14E5 90s02r0D           4843 	mov	dptr,#_locaddr
   14E8 74r24              4844 	mov	a,#(_uip_ds6_if + 0x0012)
   14EA F0                 4845 	movx	@dptr,a
   14EB A3                 4846 	inc	dptr
   14EC 74s00              4847 	mov	a,#((_uip_ds6_if + 0x0012) >> 8)
   14EE F0                 4848 	movx	@dptr,a
   14EF A3                 4849 	inc	dptr
   14F0 E4                 4850 	clr	a
   14F1 F0                 4851 	movx	@dptr,a
   14F2 E4                 4852 	clr	a
   14F3 BF FF 01           4853 	cjne	r7,#0xFF,00123$
   14F6 04                 4854 	inc	a
   14F7                    4855 00123$:
   14F7 FE                 4856 	mov	r6,a
   14F8                    4857 00107$:
                           4858 ;	../../../contiki-sensinode//core/net/uip-ds6.c:584: locaddr < uip_ds6_if.addr_list + UIP_DS6_ADDR_NB; locaddr++) {
   14F8 90s02r0D           4859 	mov	dptr,#_locaddr
   14FB E0                 4860 	movx	a,@dptr
   14FC FB                 4861 	mov	r3,a
   14FD A3                 4862 	inc	dptr
   14FE E0                 4863 	movx	a,@dptr
   14FF FC                 4864 	mov	r4,a
   1500 A3                 4865 	inc	dptr
   1501 E0                 4866 	movx	a,@dptr
   1502 FD                 4867 	mov	r5,a
   1503 74r78              4868 	mov	a,#(_uip_ds6_if + 0x0066)
   1505 C0 E0              4869 	push	acc
   1507 74s00              4870 	mov	a,#((_uip_ds6_if + 0x0066) >> 8)
   1509 C0 E0              4871 	push	acc
   150B E4                 4872 	clr	a
   150C C0 E0              4873 	push	acc
   150E 8B 82              4874 	mov	dpl,r3
   1510 8C 83              4875 	mov	dph,r4
   1512 8D F0              4876 	mov	b,r5
   1514 12s00r00           4877 	lcall	___gptr_cmp
   1517 15 81              4878 	dec	sp
   1519 15 81              4879 	dec	sp
   151B 15 81              4880 	dec	sp
   151D 40 03              4881 	jc	00125$
   151F 02s15rA1           4882 	ljmp	00110$
   1522                    4883 00125$:
                           4884 ;	../../../contiki-sensinode//core/net/uip-ds6.c:585: if(locaddr->isused && (state == -1 || locaddr->state == state)
   1522 8B 82              4885 	mov	dpl,r3
   1524 8C 83              4886 	mov	dph,r4
   1526 8D F0              4887 	mov	b,r5
   1528 12s00r00           4888 	lcall	__gptrget
   152B 60 65              4889 	jz	00109$
   152D EE                 4890 	mov	a,r6
   152E 70 21              4891 	jnz	00106$
   1530 74 11              4892 	mov	a,#0x11
   1532 2B                 4893 	add	a,r3
   1533 FB                 4894 	mov	r3,a
   1534 E4                 4895 	clr	a
   1535 3C                 4896 	addc	a,r4
   1536 FC                 4897 	mov	r4,a
   1537 8B 82              4898 	mov	dpl,r3
   1539 8C 83              4899 	mov	dph,r4
   153B 8D F0              4900 	mov	b,r5
   153D 12s00r00           4901 	lcall	__gptrget
   1540 FB                 4902 	mov	r3,a
   1541 7D 00              4903 	mov	r5,#0x00
   1543 EF                 4904 	mov	a,r7
   1544 FA                 4905 	mov	r2,a
   1545 33                 4906 	rlc	a
   1546 95 E0              4907 	subb	a,acc
   1548 FC                 4908 	mov	r4,a
   1549 EB                 4909 	mov	a,r3
   154A B5 02 45           4910 	cjne	a,ar2,00109$
   154D ED                 4911 	mov	a,r5
   154E B5 04 41           4912 	cjne	a,ar4,00109$
   1551                    4913 00106$:
                           4914 ;	../../../contiki-sensinode//core/net/uip-ds6.c:586: && !(uip_is_addr_link_local(&locaddr->ipaddr))) {
   1551 90s02r0D           4915 	mov	dptr,#_locaddr
   1554 E0                 4916 	movx	a,@dptr
   1555 FB                 4917 	mov	r3,a
   1556 A3                 4918 	inc	dptr
   1557 E0                 4919 	movx	a,@dptr
   1558 FC                 4920 	mov	r4,a
   1559 A3                 4921 	inc	dptr
   155A E0                 4922 	movx	a,@dptr
   155B FD                 4923 	mov	r5,a
   155C 74 01              4924 	mov	a,#0x01
   155E 2B                 4925 	add	a,r3
   155F F8                 4926 	mov	r0,a
   1560 E4                 4927 	clr	a
   1561 3C                 4928 	addc	a,r4
   1562 F9                 4929 	mov	r1,a
   1563 8D 02              4930 	mov	ar2,r5
   1565 88 82              4931 	mov	dpl,r0
   1567 89 83              4932 	mov	dph,r1
   1569 8A F0              4933 	mov	b,r2
   156B 12s00r00           4934 	lcall	__gptrget
   156E F8                 4935 	mov	r0,a
   156F B8 FE 18           4936 	cjne	r0,#0xFE,00101$
   1572 74 02              4937 	mov	a,#0x02
   1574 2B                 4938 	add	a,r3
   1575 F8                 4939 	mov	r0,a
   1576 E4                 4940 	clr	a
   1577 3C                 4941 	addc	a,r4
   1578 F9                 4942 	mov	r1,a
   1579 8D 02              4943 	mov	ar2,r5
   157B 88 82              4944 	mov	dpl,r0
   157D 89 83              4945 	mov	dph,r1
   157F 8A F0              4946 	mov	b,r2
   1581 12s00r00           4947 	lcall	__gptrget
   1584 F8                 4948 	mov	r0,a
   1585 B8 80 02           4949 	cjne	r0,#0x80,00132$
   1588 80 08              4950 	sjmp	00109$
   158A                    4951 00132$:
   158A                    4952 00101$:
                           4953 ;	../../../contiki-sensinode//core/net/uip-ds6.c:587: return locaddr;
   158A 8B 82              4954 	mov	dpl,r3
   158C 8C 83              4955 	mov	dph,r4
   158E 8D F0              4956 	mov	b,r5
   1590 80 15              4957 	sjmp	00111$
   1592                    4958 00109$:
                           4959 ;	../../../contiki-sensinode//core/net/uip-ds6.c:584: locaddr < uip_ds6_if.addr_list + UIP_DS6_ADDR_NB; locaddr++) {
   1592 90s02r0D           4960 	mov	dptr,#_locaddr
   1595 E0                 4961 	movx	a,@dptr
   1596 24 1C              4962 	add	a,#0x1C
   1598 F0                 4963 	movx	@dptr,a
   1599 A3                 4964 	inc	dptr
   159A E0                 4965 	movx	a,@dptr
   159B 34 00              4966 	addc	a,#0x00
   159D F0                 4967 	movx	@dptr,a
   159E 02s14rF8           4968 	ljmp	00107$
   15A1                    4969 00110$:
                           4970 ;	../../../contiki-sensinode//core/net/uip-ds6.c:590: return NULL;
   15A1 90 00 00           4971 	mov	dptr,#0x0000
   15A4 75 F0 00           4972 	mov	b,#0x00
   15A7                    4973 00111$:
   15A7 02s00r00           4974 	ljmp	__sdcc_banked_ret
                           4975 ;------------------------------------------------------------
                           4976 ;Allocation info for local variables in function 'uip_ds6_maddr_add'
                           4977 ;------------------------------------------------------------
                           4978 ;ipaddr                    Allocated to registers r5 r6 r7 
                           4979 ;------------------------------------------------------------
                           4980 ;	../../../contiki-sensinode//core/net/uip-ds6.c:595: uip_ds6_maddr_add(uip_ipaddr_t *ipaddr)
                           4981 ;	-----------------------------------------
                           4982 ;	 function uip_ds6_maddr_add
                           4983 ;	-----------------------------------------
   15AA                    4984 _uip_ds6_maddr_add:
   15AA AD 82              4985 	mov	r5,dpl
   15AC AE 83              4986 	mov	r6,dph
   15AE AF F0              4987 	mov	r7,b
                           4988 ;	../../../contiki-sensinode//core/net/uip-ds6.c:600: (uip_ds6_element_t **)&locmaddr) == FREESPACE) {
   15B0 7Br10              4989 	mov	r3,#_locmaddr
   15B2 7Cs02              4990 	mov	r4,#(_locmaddr >> 8)
   15B4 7A 00              4991 	mov	r2,#0x00
                           4992 ;	../../../contiki-sensinode//core/net/uip-ds6.c:598: ((uip_ds6_element_t *)uip_ds6_if.maddr_list, UIP_DS6_MADDR_NB,
   15B6 C0 07              4993 	push	ar7
   15B8 C0 06              4994 	push	ar6
   15BA C0 05              4995 	push	ar5
   15BC C0 03              4996 	push	ar3
   15BE C0 04              4997 	push	ar4
   15C0 C0 02              4998 	push	ar2
   15C2 74 80              4999 	mov	a,#0x80
   15C4 C0 E0              5000 	push	acc
   15C6 C0 05              5001 	push	ar5
   15C8 C0 06              5002 	push	ar6
   15CA C0 07              5003 	push	ar7
   15CC 74 11              5004 	mov	a,#0x11
   15CE C0 E0              5005 	push	acc
   15D0 E4                 5006 	clr	a
   15D1 C0 E0              5007 	push	acc
   15D3 74 05              5008 	mov	a,#0x05
   15D5 C0 E0              5009 	push	acc
   15D7 90s00r9A           5010 	mov	dptr,#(_uip_ds6_if + 0x0088)
   15DA 75 F0 00           5011 	mov	b,#0x00
   15DD 78r4D              5012 	mov	r0,#_uip_ds6_list_loop
   15DF 79s07              5013 	mov	r1,#(_uip_ds6_list_loop >> 8)
   15E1 7As00              5014 	mov	r2,#(_uip_ds6_list_loop >> 16)
   15E3 12s00r00           5015 	lcall	__sdcc_banked_call
   15E6 AC 82              5016 	mov	r4,dpl
   15E8 E5 81              5017 	mov	a,sp
   15EA 24 F6              5018 	add	a,#0xf6
   15EC F5 81              5019 	mov	sp,a
   15EE D0 05              5020 	pop	ar5
   15F0 D0 06              5021 	pop	ar6
   15F2 D0 07              5022 	pop	ar7
   15F4 BC 01 50           5023 	cjne	r4,#0x01,00102$
                           5024 ;	../../../contiki-sensinode//core/net/uip-ds6.c:601: locmaddr->isused = 1;
   15F7 90s02r10           5025 	mov	dptr,#_locmaddr
   15FA E0                 5026 	movx	a,@dptr
   15FB FA                 5027 	mov	r2,a
   15FC A3                 5028 	inc	dptr
   15FD E0                 5029 	movx	a,@dptr
   15FE FB                 5030 	mov	r3,a
   15FF A3                 5031 	inc	dptr
   1600 E0                 5032 	movx	a,@dptr
   1601 FC                 5033 	mov	r4,a
   1602 8A 82              5034 	mov	dpl,r2
   1604 8B 83              5035 	mov	dph,r3
   1606 8C F0              5036 	mov	b,r4
   1608 74 01              5037 	mov	a,#0x01
   160A 12s00r00           5038 	lcall	__gptrput
                           5039 ;	../../../contiki-sensinode//core/net/uip-ds6.c:602: uip_ipaddr_copy(&locmaddr->ipaddr, ipaddr);
   160D 0A                 5040 	inc	r2
   160E BA 00 01           5041 	cjne	r2,#0x00,00109$
   1611 0B                 5042 	inc	r3
   1612                    5043 00109$:
   1612 74 10              5044 	mov	a,#0x10
   1614 C0 E0              5045 	push	acc
   1616 E4                 5046 	clr	a
   1617 C0 E0              5047 	push	acc
   1619 C0 05              5048 	push	ar5
   161B C0 06              5049 	push	ar6
   161D C0 07              5050 	push	ar7
   161F 8A 82              5051 	mov	dpl,r2
   1621 8B 83              5052 	mov	dph,r3
   1623 8C F0              5053 	mov	b,r4
   1625 78r00              5054 	mov	r0,#_memcpy
   1627 79s00              5055 	mov	r1,#(_memcpy >> 8)
   1629 7As00              5056 	mov	r2,#(_memcpy >> 16)
   162B 12s00r00           5057 	lcall	__sdcc_banked_call
   162E E5 81              5058 	mov	a,sp
   1630 24 FB              5059 	add	a,#0xfb
   1632 F5 81              5060 	mov	sp,a
                           5061 ;	../../../contiki-sensinode//core/net/uip-ds6.c:603: return locmaddr;
   1634 90s02r10           5062 	mov	dptr,#_locmaddr
   1637 E0                 5063 	movx	a,@dptr
   1638 FD                 5064 	mov	r5,a
   1639 A3                 5065 	inc	dptr
   163A E0                 5066 	movx	a,@dptr
   163B FE                 5067 	mov	r6,a
   163C A3                 5068 	inc	dptr
   163D E0                 5069 	movx	a,@dptr
   163E FF                 5070 	mov	r7,a
   163F 8D 82              5071 	mov	dpl,r5
   1641 8E 83              5072 	mov	dph,r6
   1643 8F F0              5073 	mov	b,r7
   1645 80 06              5074 	sjmp	00103$
   1647                    5075 00102$:
                           5076 ;	../../../contiki-sensinode//core/net/uip-ds6.c:605: return NULL;
   1647 90 00 00           5077 	mov	dptr,#0x0000
   164A 75 F0 00           5078 	mov	b,#0x00
   164D                    5079 00103$:
   164D 02s00r00           5080 	ljmp	__sdcc_banked_ret
                           5081 ;------------------------------------------------------------
                           5082 ;Allocation info for local variables in function 'uip_ds6_maddr_rm'
                           5083 ;------------------------------------------------------------
                           5084 ;maddr                     Allocated to registers r5 r6 r7 
                           5085 ;------------------------------------------------------------
                           5086 ;	../../../contiki-sensinode//core/net/uip-ds6.c:610: uip_ds6_maddr_rm(uip_ds6_maddr_t *maddr)
                           5087 ;	-----------------------------------------
                           5088 ;	 function uip_ds6_maddr_rm
                           5089 ;	-----------------------------------------
   1650                    5090 _uip_ds6_maddr_rm:
   1650 AD 82              5091 	mov	r5,dpl
   1652 AE 83              5092 	mov	r6,dph
   1654 AF F0              5093 	mov	r7,b
                           5094 ;	../../../contiki-sensinode//core/net/uip-ds6.c:612: if(maddr != NULL) {
   1656 ED                 5095 	mov	a,r5
   1657 4E                 5096 	orl	a,r6
   1658 60 0A              5097 	jz	00102$
                           5098 ;	../../../contiki-sensinode//core/net/uip-ds6.c:613: maddr->isused = 0;
   165A 8D 82              5099 	mov	dpl,r5
   165C 8E 83              5100 	mov	dph,r6
   165E 8F F0              5101 	mov	b,r7
   1660 E4                 5102 	clr	a
   1661 12s00r00           5103 	lcall	__gptrput
   1664                    5104 00102$:
                           5105 ;	../../../contiki-sensinode//core/net/uip-ds6.c:615: return;
   1664 02s00r00           5106 	ljmp	__sdcc_banked_ret
                           5107 ;------------------------------------------------------------
                           5108 ;Allocation info for local variables in function 'uip_ds6_maddr_lookup'
                           5109 ;------------------------------------------------------------
                           5110 ;ipaddr                    Allocated to registers r5 r6 r7 
                           5111 ;------------------------------------------------------------
                           5112 ;	../../../contiki-sensinode//core/net/uip-ds6.c:620: uip_ds6_maddr_lookup(uip_ipaddr_t *ipaddr)
                           5113 ;	-----------------------------------------
                           5114 ;	 function uip_ds6_maddr_lookup
                           5115 ;	-----------------------------------------
   1667                    5116 _uip_ds6_maddr_lookup:
   1667 AD 82              5117 	mov	r5,dpl
   1669 AE 83              5118 	mov	r6,dph
   166B AF F0              5119 	mov	r7,b
                           5120 ;	../../../contiki-sensinode//core/net/uip-ds6.c:625: (uip_ds6_element_t **)&locmaddr) == FOUND) {
   166D 7Br10              5121 	mov	r3,#_locmaddr
   166F 7Cs02              5122 	mov	r4,#(_locmaddr >> 8)
   1671 7A 00              5123 	mov	r2,#0x00
                           5124 ;	../../../contiki-sensinode//core/net/uip-ds6.c:623: ((uip_ds6_element_t *)uip_ds6_if.maddr_list, UIP_DS6_MADDR_NB,
   1673 C0 03              5125 	push	ar3
   1675 C0 04              5126 	push	ar4
   1677 C0 02              5127 	push	ar2
   1679 74 80              5128 	mov	a,#0x80
   167B C0 E0              5129 	push	acc
   167D C0 05              5130 	push	ar5
   167F C0 06              5131 	push	ar6
   1681 C0 07              5132 	push	ar7
   1683 74 11              5133 	mov	a,#0x11
   1685 C0 E0              5134 	push	acc
   1687 E4                 5135 	clr	a
   1688 C0 E0              5136 	push	acc
   168A 74 05              5137 	mov	a,#0x05
   168C C0 E0              5138 	push	acc
   168E 90s00r9A           5139 	mov	dptr,#(_uip_ds6_if + 0x0088)
   1691 75 F0 00           5140 	mov	b,#0x00
   1694 78r4D              5141 	mov	r0,#_uip_ds6_list_loop
   1696 79s07              5142 	mov	r1,#(_uip_ds6_list_loop >> 8)
   1698 7As00              5143 	mov	r2,#(_uip_ds6_list_loop >> 16)
   169A 12s00r00           5144 	lcall	__sdcc_banked_call
   169D AF 82              5145 	mov	r7,dpl
   169F E5 81              5146 	mov	a,sp
   16A1 24 F6              5147 	add	a,#0xf6
   16A3 F5 81              5148 	mov	sp,a
   16A5 EF                 5149 	mov	a,r7
   16A6 70 13              5150 	jnz	00102$
                           5151 ;	../../../contiki-sensinode//core/net/uip-ds6.c:626: return locmaddr;
   16A8 90s02r10           5152 	mov	dptr,#_locmaddr
   16AB E0                 5153 	movx	a,@dptr
   16AC FD                 5154 	mov	r5,a
   16AD A3                 5155 	inc	dptr
   16AE E0                 5156 	movx	a,@dptr
   16AF FE                 5157 	mov	r6,a
   16B0 A3                 5158 	inc	dptr
   16B1 E0                 5159 	movx	a,@dptr
   16B2 FF                 5160 	mov	r7,a
   16B3 8D 82              5161 	mov	dpl,r5
   16B5 8E 83              5162 	mov	dph,r6
   16B7 8F F0              5163 	mov	b,r7
   16B9 80 06              5164 	sjmp	00103$
   16BB                    5165 00102$:
                           5166 ;	../../../contiki-sensinode//core/net/uip-ds6.c:628: return NULL;
   16BB 90 00 00           5167 	mov	dptr,#0x0000
   16BE 75 F0 00           5168 	mov	b,#0x00
   16C1                    5169 00103$:
   16C1 02s00r00           5170 	ljmp	__sdcc_banked_ret
                           5171 ;------------------------------------------------------------
                           5172 ;Allocation info for local variables in function 'uip_ds6_aaddr_add'
                           5173 ;------------------------------------------------------------
                           5174 ;ipaddr                    Allocated to registers r5 r6 r7 
                           5175 ;------------------------------------------------------------
                           5176 ;	../../../contiki-sensinode//core/net/uip-ds6.c:634: uip_ds6_aaddr_add(uip_ipaddr_t *ipaddr)
                           5177 ;	-----------------------------------------
                           5178 ;	 function uip_ds6_aaddr_add
                           5179 ;	-----------------------------------------
   16C4                    5180 _uip_ds6_aaddr_add:
   16C4 AD 82              5181 	mov	r5,dpl
   16C6 AE 83              5182 	mov	r6,dph
   16C8 AF F0              5183 	mov	r7,b
                           5184 ;	../../../contiki-sensinode//core/net/uip-ds6.c:639: (uip_ds6_element_t **)&locaaddr) == FREESPACE) {
   16CA 7Br13              5185 	mov	r3,#_locaaddr
   16CC 7Cs02              5186 	mov	r4,#(_locaaddr >> 8)
   16CE 7A 00              5187 	mov	r2,#0x00
                           5188 ;	../../../contiki-sensinode//core/net/uip-ds6.c:637: ((uip_ds6_element_t *)uip_ds6_if.aaddr_list, UIP_DS6_AADDR_NB,
   16D0 C0 07              5189 	push	ar7
   16D2 C0 06              5190 	push	ar6
   16D4 C0 05              5191 	push	ar5
   16D6 C0 03              5192 	push	ar3
   16D8 C0 04              5193 	push	ar4
   16DA C0 02              5194 	push	ar2
   16DC 74 80              5195 	mov	a,#0x80
   16DE C0 E0              5196 	push	acc
   16E0 C0 05              5197 	push	ar5
   16E2 C0 06              5198 	push	ar6
   16E4 C0 07              5199 	push	ar7
   16E6 74 11              5200 	mov	a,#0x11
   16E8 C0 E0              5201 	push	acc
   16EA E4                 5202 	clr	a
   16EB C0 E0              5203 	push	acc
   16ED 74 02              5204 	mov	a,#0x02
   16EF C0 E0              5205 	push	acc
   16F1 90s00r78           5206 	mov	dptr,#(_uip_ds6_if + 0x0066)
   16F4 75 F0 00           5207 	mov	b,#0x00
   16F7 78r4D              5208 	mov	r0,#_uip_ds6_list_loop
   16F9 79s07              5209 	mov	r1,#(_uip_ds6_list_loop >> 8)
   16FB 7As00              5210 	mov	r2,#(_uip_ds6_list_loop >> 16)
   16FD 12s00r00           5211 	lcall	__sdcc_banked_call
   1700 AC 82              5212 	mov	r4,dpl
   1702 E5 81              5213 	mov	a,sp
   1704 24 F6              5214 	add	a,#0xf6
   1706 F5 81              5215 	mov	sp,a
   1708 D0 05              5216 	pop	ar5
   170A D0 06              5217 	pop	ar6
   170C D0 07              5218 	pop	ar7
   170E BC 01 50           5219 	cjne	r4,#0x01,00102$
                           5220 ;	../../../contiki-sensinode//core/net/uip-ds6.c:640: locaaddr->isused = 1;
   1711 90s02r13           5221 	mov	dptr,#_locaaddr
   1714 E0                 5222 	movx	a,@dptr
   1715 FA                 5223 	mov	r2,a
   1716 A3                 5224 	inc	dptr
   1717 E0                 5225 	movx	a,@dptr
   1718 FB                 5226 	mov	r3,a
   1719 A3                 5227 	inc	dptr
   171A E0                 5228 	movx	a,@dptr
   171B FC                 5229 	mov	r4,a
   171C 8A 82              5230 	mov	dpl,r2
   171E 8B 83              5231 	mov	dph,r3
   1720 8C F0              5232 	mov	b,r4
   1722 74 01              5233 	mov	a,#0x01
   1724 12s00r00           5234 	lcall	__gptrput
                           5235 ;	../../../contiki-sensinode//core/net/uip-ds6.c:641: uip_ipaddr_copy(&locaaddr->ipaddr, ipaddr);
   1727 0A                 5236 	inc	r2
   1728 BA 00 01           5237 	cjne	r2,#0x00,00109$
   172B 0B                 5238 	inc	r3
   172C                    5239 00109$:
   172C 74 10              5240 	mov	a,#0x10
   172E C0 E0              5241 	push	acc
   1730 E4                 5242 	clr	a
   1731 C0 E0              5243 	push	acc
   1733 C0 05              5244 	push	ar5
   1735 C0 06              5245 	push	ar6
   1737 C0 07              5246 	push	ar7
   1739 8A 82              5247 	mov	dpl,r2
   173B 8B 83              5248 	mov	dph,r3
   173D 8C F0              5249 	mov	b,r4
   173F 78r00              5250 	mov	r0,#_memcpy
   1741 79s00              5251 	mov	r1,#(_memcpy >> 8)
   1743 7As00              5252 	mov	r2,#(_memcpy >> 16)
   1745 12s00r00           5253 	lcall	__sdcc_banked_call
   1748 E5 81              5254 	mov	a,sp
   174A 24 FB              5255 	add	a,#0xfb
   174C F5 81              5256 	mov	sp,a
                           5257 ;	../../../contiki-sensinode//core/net/uip-ds6.c:642: return locaaddr;
   174E 90s02r13           5258 	mov	dptr,#_locaaddr
   1751 E0                 5259 	movx	a,@dptr
   1752 FD                 5260 	mov	r5,a
   1753 A3                 5261 	inc	dptr
   1754 E0                 5262 	movx	a,@dptr
   1755 FE                 5263 	mov	r6,a
   1756 A3                 5264 	inc	dptr
   1757 E0                 5265 	movx	a,@dptr
   1758 FF                 5266 	mov	r7,a
   1759 8D 82              5267 	mov	dpl,r5
   175B 8E 83              5268 	mov	dph,r6
   175D 8F F0              5269 	mov	b,r7
   175F 80 06              5270 	sjmp	00103$
   1761                    5271 00102$:
                           5272 ;	../../../contiki-sensinode//core/net/uip-ds6.c:644: return NULL;
   1761 90 00 00           5273 	mov	dptr,#0x0000
   1764 75 F0 00           5274 	mov	b,#0x00
   1767                    5275 00103$:
   1767 02s00r00           5276 	ljmp	__sdcc_banked_ret
                           5277 ;------------------------------------------------------------
                           5278 ;Allocation info for local variables in function 'uip_ds6_aaddr_rm'
                           5279 ;------------------------------------------------------------
                           5280 ;aaddr                     Allocated to registers r5 r6 r7 
                           5281 ;------------------------------------------------------------
                           5282 ;	../../../contiki-sensinode//core/net/uip-ds6.c:649: uip_ds6_aaddr_rm(uip_ds6_aaddr_t *aaddr)
                           5283 ;	-----------------------------------------
                           5284 ;	 function uip_ds6_aaddr_rm
                           5285 ;	-----------------------------------------
   176A                    5286 _uip_ds6_aaddr_rm:
   176A AD 82              5287 	mov	r5,dpl
   176C AE 83              5288 	mov	r6,dph
   176E AF F0              5289 	mov	r7,b
                           5290 ;	../../../contiki-sensinode//core/net/uip-ds6.c:651: if(aaddr != NULL) {
   1770 ED                 5291 	mov	a,r5
   1771 4E                 5292 	orl	a,r6
   1772 60 0A              5293 	jz	00102$
                           5294 ;	../../../contiki-sensinode//core/net/uip-ds6.c:652: aaddr->isused = 0;
   1774 8D 82              5295 	mov	dpl,r5
   1776 8E 83              5296 	mov	dph,r6
   1778 8F F0              5297 	mov	b,r7
   177A E4                 5298 	clr	a
   177B 12s00r00           5299 	lcall	__gptrput
   177E                    5300 00102$:
                           5301 ;	../../../contiki-sensinode//core/net/uip-ds6.c:654: return;
   177E 02s00r00           5302 	ljmp	__sdcc_banked_ret
                           5303 ;------------------------------------------------------------
                           5304 ;Allocation info for local variables in function 'uip_ds6_aaddr_lookup'
                           5305 ;------------------------------------------------------------
                           5306 ;ipaddr                    Allocated to registers r5 r6 r7 
                           5307 ;------------------------------------------------------------
                           5308 ;	../../../contiki-sensinode//core/net/uip-ds6.c:659: uip_ds6_aaddr_lookup(uip_ipaddr_t *ipaddr)
                           5309 ;	-----------------------------------------
                           5310 ;	 function uip_ds6_aaddr_lookup
                           5311 ;	-----------------------------------------
   1781                    5312 _uip_ds6_aaddr_lookup:
   1781 AD 82              5313 	mov	r5,dpl
   1783 AE 83              5314 	mov	r6,dph
   1785 AF F0              5315 	mov	r7,b
                           5316 ;	../../../contiki-sensinode//core/net/uip-ds6.c:663: (uip_ds6_element_t **)&locaaddr) == FOUND) {
   1787 7Br13              5317 	mov	r3,#_locaaddr
   1789 7Cs02              5318 	mov	r4,#(_locaaddr >> 8)
   178B 7A 00              5319 	mov	r2,#0x00
                           5320 ;	../../../contiki-sensinode//core/net/uip-ds6.c:661: if(uip_ds6_list_loop((uip_ds6_element_t *)uip_ds6_if.aaddr_list,
   178D C0 03              5321 	push	ar3
   178F C0 04              5322 	push	ar4
   1791 C0 02              5323 	push	ar2
   1793 74 80              5324 	mov	a,#0x80
   1795 C0 E0              5325 	push	acc
   1797 C0 05              5326 	push	ar5
   1799 C0 06              5327 	push	ar6
   179B C0 07              5328 	push	ar7
   179D 74 11              5329 	mov	a,#0x11
   179F C0 E0              5330 	push	acc
   17A1 E4                 5331 	clr	a
   17A2 C0 E0              5332 	push	acc
   17A4 74 02              5333 	mov	a,#0x02
   17A6 C0 E0              5334 	push	acc
   17A8 90s00r78           5335 	mov	dptr,#(_uip_ds6_if + 0x0066)
   17AB 75 F0 00           5336 	mov	b,#0x00
   17AE 78r4D              5337 	mov	r0,#_uip_ds6_list_loop
   17B0 79s07              5338 	mov	r1,#(_uip_ds6_list_loop >> 8)
   17B2 7As00              5339 	mov	r2,#(_uip_ds6_list_loop >> 16)
   17B4 12s00r00           5340 	lcall	__sdcc_banked_call
   17B7 AF 82              5341 	mov	r7,dpl
   17B9 E5 81              5342 	mov	a,sp
   17BB 24 F6              5343 	add	a,#0xf6
   17BD F5 81              5344 	mov	sp,a
   17BF EF                 5345 	mov	a,r7
   17C0 70 13              5346 	jnz	00102$
                           5347 ;	../../../contiki-sensinode//core/net/uip-ds6.c:664: return locaaddr;
   17C2 90s02r13           5348 	mov	dptr,#_locaaddr
   17C5 E0                 5349 	movx	a,@dptr
   17C6 FD                 5350 	mov	r5,a
   17C7 A3                 5351 	inc	dptr
   17C8 E0                 5352 	movx	a,@dptr
   17C9 FE                 5353 	mov	r6,a
   17CA A3                 5354 	inc	dptr
   17CB E0                 5355 	movx	a,@dptr
   17CC FF                 5356 	mov	r7,a
   17CD 8D 82              5357 	mov	dpl,r5
   17CF 8E 83              5358 	mov	dph,r6
   17D1 8F F0              5359 	mov	b,r7
   17D3 80 06              5360 	sjmp	00103$
   17D5                    5361 00102$:
                           5362 ;	../../../contiki-sensinode//core/net/uip-ds6.c:666: return NULL;
   17D5 90 00 00           5363 	mov	dptr,#0x0000
   17D8 75 F0 00           5364 	mov	b,#0x00
   17DB                    5365 00103$:
   17DB 02s00r00           5366 	ljmp	__sdcc_banked_ret
                           5367 ;------------------------------------------------------------
                           5368 ;Allocation info for local variables in function 'uip_ds6_select_src'
                           5369 ;------------------------------------------------------------
                           5370 ;dst                       Allocated to stack - sp -17
                           5371 ;src                       Allocated to stack - sp -11
                           5372 ;best                      Allocated to registers r7 
                           5373 ;n                         Allocated to registers r6 
                           5374 ;matchaddr                 Allocated to stack - sp -8
                           5375 ;sloc0                     Allocated to stack - sp -5
                           5376 ;sloc1                     Allocated to stack - sp +0
                           5377 ;sloc2                     Allocated to stack - sp -2
                           5378 ;------------------------------------------------------------
                           5379 ;	../../../contiki-sensinode//core/net/uip-ds6.c:671: uip_ds6_select_src(uip_ipaddr_t *src, uip_ipaddr_t *dst)
                           5380 ;	-----------------------------------------
                           5381 ;	 function uip_ds6_select_src
                           5382 ;	-----------------------------------------
   17DE                    5383 _uip_ds6_select_src:
   17DE C0 82              5384 	push	dpl
   17E0 C0 83              5385 	push	dph
   17E2 C0 F0              5386 	push	b
   17E4 E5 81              5387 	mov	a,sp
   17E6 24 09              5388 	add	a,#0x09
   17E8 F5 81              5389 	mov	sp,a
                           5390 ;	../../../contiki-sensinode//core/net/uip-ds6.c:673: uint8_t best = 0;             /* number of bit in common with best match */
                           5391 ;	../../../contiki-sensinode//core/net/uip-ds6.c:675: uip_ds6_addr_t *matchaddr = NULL;
                           5392 ;	../../../contiki-sensinode//core/net/uip-ds6.c:677: if(!uip_is_addr_link_local(dst) && !uip_is_addr_mcast(dst)) {
   17EA E4                 5393 	clr	a
   17EB FF                 5394 	mov	r7,a
   17EC FA                 5395 	mov	r2,a
   17ED FB                 5396 	mov	r3,a
   17EE FC                 5397 	mov	r4,a
   17EF E5 81              5398 	mov	a,sp
   17F1 24 EF              5399 	add	a,#0xef
   17F3 F8                 5400 	mov	r0,a
   17F4 E5 81              5401 	mov	a,sp
   17F6 24 FB              5402 	add	a,#0xfb
   17F8 F9                 5403 	mov	r1,a
   17F9 E6                 5404 	mov	a,@r0
   17FA F7                 5405 	mov	@r1,a
   17FB 08                 5406 	inc	r0
   17FC 09                 5407 	inc	r1
   17FD E6                 5408 	mov	a,@r0
   17FE F7                 5409 	mov	@r1,a
   17FF 08                 5410 	inc	r0
   1800 09                 5411 	inc	r1
   1801 E6                 5412 	mov	a,@r0
   1802 F7                 5413 	mov	@r1,a
   1803 E5 81              5414 	mov	a,sp
   1805 24 FB              5415 	add	a,#0xfb
   1807 F8                 5416 	mov	r0,a
   1808 86 82              5417 	mov	dpl,@r0
   180A 08                 5418 	inc	r0
   180B 86 83              5419 	mov	dph,@r0
   180D 08                 5420 	inc	r0
   180E 86 F0              5421 	mov	b,@r0
   1810 12s00r00           5422 	lcall	__gptrget
   1813 FE                 5423 	mov	r6,a
   1814 BE FE 32           5424 	cjne	r6,#0xFE,00112$
   1817 C0 02              5425 	push	ar2
   1819 C0 03              5426 	push	ar3
   181B C0 04              5427 	push	ar4
   181D E5 81              5428 	mov	a,sp
   181F 24 F8              5429 	add	a,#0xf8
   1821 F8                 5430 	mov	r0,a
   1822 74 01              5431 	mov	a,#0x01
   1824 26                 5432 	add	a,@r0
   1825 FA                 5433 	mov	r2,a
   1826 E4                 5434 	clr	a
   1827 08                 5435 	inc	r0
   1828 36                 5436 	addc	a,@r0
   1829 FB                 5437 	mov	r3,a
   182A 08                 5438 	inc	r0
   182B 86 04              5439 	mov	ar4,@r0
   182D 8A 82              5440 	mov	dpl,r2
   182F 8B 83              5441 	mov	dph,r3
   1831 8C F0              5442 	mov	b,r4
   1833 12s00r00           5443 	lcall	__gptrget
   1836 FA                 5444 	mov	r2,a
   1837 BA 80 09           5445 	cjne	r2,#0x80,00145$
   183A D0 04              5446 	pop	ar4
   183C D0 03              5447 	pop	ar3
   183E D0 02              5448 	pop	ar2
   1840 02s19rA9           5449 	ljmp	00109$
   1843                    5450 00145$:
   1843 D0 04              5451 	pop	ar4
   1845 D0 03              5452 	pop	ar3
   1847 D0 02              5453 	pop	ar2
   1849                    5454 00112$:
   1849 BE FF 03           5455 	cjne	r6,#0xFF,00146$
   184C 02s19rA9           5456 	ljmp	00109$
   184F                    5457 00146$:
                           5458 ;	../../../contiki-sensinode//core/net/uip-ds6.c:679: for(locaddr = uip_ds6_if.addr_list;
   184F 90s02r0D           5459 	mov	dptr,#_locaddr
   1852 74r24              5460 	mov	a,#(_uip_ds6_if + 0x0012)
   1854 F0                 5461 	movx	@dptr,a
   1855 A3                 5462 	inc	dptr
   1856 74s00              5463 	mov	a,#((_uip_ds6_if + 0x0012) >> 8)
   1858 F0                 5464 	movx	@dptr,a
   1859 A3                 5465 	inc	dptr
   185A E4                 5466 	clr	a
   185B F0                 5467 	movx	@dptr,a
   185C                    5468 00119$:
                           5469 ;	../../../contiki-sensinode//core/net/uip-ds6.c:680: locaddr < uip_ds6_if.addr_list + UIP_DS6_ADDR_NB; locaddr++) {
   185C 90s02r0D           5470 	mov	dptr,#_locaddr
   185F A8 81              5471 	mov	r0,sp
   1861 18                 5472 	dec	r0
   1862 18                 5473 	dec	r0
   1863 E0                 5474 	movx	a,@dptr
   1864 F6                 5475 	mov	@r0,a
   1865 A3                 5476 	inc	dptr
   1866 E0                 5477 	movx	a,@dptr
   1867 08                 5478 	inc	r0
   1868 F6                 5479 	mov	@r0,a
   1869 A3                 5480 	inc	dptr
   186A E0                 5481 	movx	a,@dptr
   186B 08                 5482 	inc	r0
   186C F6                 5483 	mov	@r0,a
   186D A8 81              5484 	mov	r0,sp
   186F 18                 5485 	dec	r0
   1870 18                 5486 	dec	r0
   1871 74r78              5487 	mov	a,#(_uip_ds6_if + 0x0066)
   1873 C0 E0              5488 	push	acc
   1875 74s00              5489 	mov	a,#((_uip_ds6_if + 0x0066) >> 8)
   1877 C0 E0              5490 	push	acc
   1879 E4                 5491 	clr	a
   187A C0 E0              5492 	push	acc
   187C 86 82              5493 	mov	dpl,@r0
   187E 08                 5494 	inc	r0
   187F 86 83              5495 	mov	dph,@r0
   1881 08                 5496 	inc	r0
   1882 86 F0              5497 	mov	b,@r0
   1884 12s00r00           5498 	lcall	___gptr_cmp
   1887 15 81              5499 	dec	sp
   1889 15 81              5500 	dec	sp
   188B 15 81              5501 	dec	sp
   188D 40 03              5502 	jc	00147$
   188F 02s19rC1           5503 	ljmp	00110$
   1892                    5504 00147$:
                           5505 ;	../../../contiki-sensinode//core/net/uip-ds6.c:682: if(locaddr->isused && locaddr->state == ADDR_PREFERRED &&
   1892 A8 81              5506 	mov	r0,sp
   1894 18                 5507 	dec	r0
   1895 18                 5508 	dec	r0
   1896 86 82              5509 	mov	dpl,@r0
   1898 08                 5510 	inc	r0
   1899 86 83              5511 	mov	dph,@r0
   189B 08                 5512 	inc	r0
   189C 86 F0              5513 	mov	b,@r0
   189E 12s00r00           5514 	lcall	__gptrget
   18A1 70 03              5515 	jnz	00148$
   18A3 02s19r9A           5516 	ljmp	00121$
   18A6                    5517 00148$:
   18A6 C0 02              5518 	push	ar2
   18A8 C0 03              5519 	push	ar3
   18AA C0 04              5520 	push	ar4
   18AC E5 81              5521 	mov	a,sp
   18AE 24 FB              5522 	add	a,#0xfb
   18B0 F8                 5523 	mov	r0,a
   18B1 74 11              5524 	mov	a,#0x11
   18B3 26                 5525 	add	a,@r0
   18B4 FA                 5526 	mov	r2,a
   18B5 E4                 5527 	clr	a
   18B6 08                 5528 	inc	r0
   18B7 36                 5529 	addc	a,@r0
   18B8 FB                 5530 	mov	r3,a
   18B9 08                 5531 	inc	r0
   18BA 86 04              5532 	mov	ar4,@r0
   18BC 8A 82              5533 	mov	dpl,r2
   18BE 8B 83              5534 	mov	dph,r3
   18C0 8C F0              5535 	mov	b,r4
   18C2 12s00r00           5536 	lcall	__gptrget
   18C5 FA                 5537 	mov	r2,a
   18C6 BA 01 02           5538 	cjne	r2,#0x01,00149$
   18C9 80 09              5539 	sjmp	00150$
   18CB                    5540 00149$:
   18CB D0 04              5541 	pop	ar4
   18CD D0 03              5542 	pop	ar3
   18CF D0 02              5543 	pop	ar2
   18D1 02s19r9A           5544 	ljmp	00121$
   18D4                    5545 00150$:
                           5546 ;	../../../contiki-sensinode//core/net/uip-ds6.c:683: !uip_is_addr_link_local(&locaddr->ipaddr)) {
   18D4 E5 81              5547 	mov	a,sp
   18D6 24 FB              5548 	add	a,#0xfb
   18D8 F8                 5549 	mov	r0,a
   18D9 74 01              5550 	mov	a,#0x01
   18DB 26                 5551 	add	a,@r0
   18DC FA                 5552 	mov	r2,a
   18DD E4                 5553 	clr	a
   18DE 08                 5554 	inc	r0
   18DF 36                 5555 	addc	a,@r0
   18E0 FB                 5556 	mov	r3,a
   18E1 08                 5557 	inc	r0
   18E2 86 04              5558 	mov	ar4,@r0
   18E4 8A 82              5559 	mov	dpl,r2
   18E6 8B 83              5560 	mov	dph,r3
   18E8 8C F0              5561 	mov	b,r4
   18EA 12s00r00           5562 	lcall	__gptrget
   18ED FA                 5563 	mov	r2,a
   18EE BA FE 02           5564 	cjne	r2,#0xFE,00151$
   18F1 80 08              5565 	sjmp	00152$
   18F3                    5566 00151$:
   18F3 D0 04              5567 	pop	ar4
   18F5 D0 03              5568 	pop	ar3
   18F7 D0 02              5569 	pop	ar2
   18F9 80 2B              5570 	sjmp	00103$
   18FB                    5571 00152$:
   18FB E5 81              5572 	mov	a,sp
   18FD 24 FB              5573 	add	a,#0xfb
   18FF F8                 5574 	mov	r0,a
   1900 74 02              5575 	mov	a,#0x02
   1902 26                 5576 	add	a,@r0
   1903 FA                 5577 	mov	r2,a
   1904 E4                 5578 	clr	a
   1905 08                 5579 	inc	r0
   1906 36                 5580 	addc	a,@r0
   1907 FB                 5581 	mov	r3,a
   1908 08                 5582 	inc	r0
   1909 86 04              5583 	mov	ar4,@r0
   190B 8A 82              5584 	mov	dpl,r2
   190D 8B 83              5585 	mov	dph,r3
   190F 8C F0              5586 	mov	b,r4
   1911 12s00r00           5587 	lcall	__gptrget
   1914 FA                 5588 	mov	r2,a
   1915 BA 80 08           5589 	cjne	r2,#0x80,00153$
   1918 D0 04              5590 	pop	ar4
   191A D0 03              5591 	pop	ar3
   191C D0 02              5592 	pop	ar2
   191E 80 7A              5593 	sjmp	00121$
   1920                    5594 00153$:
   1920 D0 04              5595 	pop	ar4
   1922 D0 03              5596 	pop	ar3
   1924 D0 02              5597 	pop	ar2
   1926                    5598 00103$:
                           5599 ;	../../../contiki-sensinode//core/net/uip-ds6.c:684: n = get_match_length(dst, &locaddr->ipaddr);
   1926 C0 02              5600 	push	ar2
   1928 C0 03              5601 	push	ar3
   192A C0 04              5602 	push	ar4
   192C 90s02r0D           5603 	mov	dptr,#_locaddr
   192F E0                 5604 	movx	a,@dptr
   1930 FA                 5605 	mov	r2,a
   1931 A3                 5606 	inc	dptr
   1932 E0                 5607 	movx	a,@dptr
   1933 FB                 5608 	mov	r3,a
   1934 A3                 5609 	inc	dptr
   1935 E0                 5610 	movx	a,@dptr
   1936 FC                 5611 	mov	r4,a
   1937 0A                 5612 	inc	r2
   1938 BA 00 01           5613 	cjne	r2,#0x00,00154$
   193B 0B                 5614 	inc	r3
   193C                    5615 00154$:
   193C C0 07              5616 	push	ar7
   193E C0 03              5617 	push	ar3
   1940 C0 02              5618 	push	ar2
   1942 C0 02              5619 	push	ar2
   1944 C0 03              5620 	push	ar3
   1946 C0 04              5621 	push	ar4
   1948 E5 81              5622 	mov	a,sp
   194A 24 F2              5623 	add	a,#0xf2
   194C F8                 5624 	mov	r0,a
   194D 86 82              5625 	mov	dpl,@r0
   194F 08                 5626 	inc	r0
   1950 86 83              5627 	mov	dph,@r0
   1952 08                 5628 	inc	r0
   1953 86 F0              5629 	mov	b,@r0
   1955 78r7A              5630 	mov	r0,#_get_match_length
   1957 79s1B              5631 	mov	r1,#(_get_match_length >> 8)
   1959 7As00              5632 	mov	r2,#(_get_match_length >> 16)
   195B 12s00r00           5633 	lcall	__sdcc_banked_call
   195E AC 82              5634 	mov	r4,dpl
   1960 15 81              5635 	dec	sp
   1962 15 81              5636 	dec	sp
   1964 15 81              5637 	dec	sp
   1966 D0 02              5638 	pop	ar2
   1968 D0 03              5639 	pop	ar3
   196A D0 07              5640 	pop	ar7
   196C 8C 06              5641 	mov	ar6,r4
                           5642 ;	../../../contiki-sensinode//core/net/uip-ds6.c:685: if(n >= best) {
   196E C3                 5643 	clr	c
   196F EE                 5644 	mov	a,r6
   1970 9F                 5645 	subb	a,r7
   1971 D0 04              5646 	pop	ar4
   1973 D0 03              5647 	pop	ar3
   1975 D0 02              5648 	pop	ar2
   1977 40 21              5649 	jc	00121$
                           5650 ;	../../../contiki-sensinode//core/net/uip-ds6.c:686: best = n;
   1979 8E 07              5651 	mov	ar7,r6
                           5652 ;	../../../contiki-sensinode//core/net/uip-ds6.c:687: matchaddr = locaddr;
   197B 90s02r0D           5653 	mov	dptr,#_locaddr
   197E E5 81              5654 	mov	a,sp
   1980 24 F8              5655 	add	a,#0xf8
   1982 F8                 5656 	mov	r0,a
   1983 E0                 5657 	movx	a,@dptr
   1984 F6                 5658 	mov	@r0,a
   1985 A3                 5659 	inc	dptr
   1986 E0                 5660 	movx	a,@dptr
   1987 08                 5661 	inc	r0
   1988 F6                 5662 	mov	@r0,a
   1989 A3                 5663 	inc	dptr
   198A E0                 5664 	movx	a,@dptr
   198B 08                 5665 	inc	r0
   198C F6                 5666 	mov	@r0,a
   198D E5 81              5667 	mov	a,sp
   198F 24 F8              5668 	add	a,#0xf8
   1991 F8                 5669 	mov	r0,a
   1992 86 02              5670 	mov	ar2,@r0
   1994 08                 5671 	inc	r0
   1995 86 03              5672 	mov	ar3,@r0
   1997 08                 5673 	inc	r0
   1998 86 04              5674 	mov	ar4,@r0
   199A                    5675 00121$:
                           5676 ;	../../../contiki-sensinode//core/net/uip-ds6.c:680: locaddr < uip_ds6_if.addr_list + UIP_DS6_ADDR_NB; locaddr++) {
   199A 90s02r0D           5677 	mov	dptr,#_locaddr
   199D E0                 5678 	movx	a,@dptr
   199E 24 1C              5679 	add	a,#0x1C
   19A0 F0                 5680 	movx	@dptr,a
   19A1 A3                 5681 	inc	dptr
   19A2 E0                 5682 	movx	a,@dptr
   19A3 34 00              5683 	addc	a,#0x00
   19A5 F0                 5684 	movx	@dptr,a
   19A6 02s18r5C           5685 	ljmp	00119$
   19A9                    5686 00109$:
                           5687 ;	../../../contiki-sensinode//core/net/uip-ds6.c:692: matchaddr = uip_ds6_get_link_local(ADDR_PREFERRED);
   19A9 75 82 01           5688 	mov	dpl,#0x01
   19AC 78r1E              5689 	mov	r0,#_uip_ds6_get_link_local
   19AE 79s14              5690 	mov	r1,#(_uip_ds6_get_link_local >> 8)
   19B0 7As00              5691 	mov	r2,#(_uip_ds6_get_link_local >> 16)
   19B2 12s00r00           5692 	lcall	__sdcc_banked_call
   19B5 AF 82              5693 	mov	r7,dpl
   19B7 AE 83              5694 	mov	r6,dph
   19B9 AD F0              5695 	mov	r5,b
   19BB 8F 02              5696 	mov	ar2,r7
   19BD 8E 03              5697 	mov	ar3,r6
   19BF 8D 04              5698 	mov	ar4,r5
   19C1                    5699 00110$:
                           5700 ;	../../../contiki-sensinode//core/net/uip-ds6.c:696: if(matchaddr == NULL) {
   19C1 EA                 5701 	mov	a,r2
   19C2 4B                 5702 	orl	a,r3
   19C3 60 03              5703 	jz	00156$
   19C5 02s1ArB9           5704 	ljmp	00117$
   19C8                    5705 00156$:
                           5706 ;	../../../contiki-sensinode//core/net/uip-ds6.c:697: uip_create_unspecified(src);
   19C8 E5 81              5707 	mov	a,sp
   19CA 24 F5              5708 	add	a,#0xf5
   19CC F8                 5709 	mov	r0,a
   19CD 86 82              5710 	mov	dpl,@r0
   19CF 08                 5711 	inc	r0
   19D0 86 83              5712 	mov	dph,@r0
   19D2 08                 5713 	inc	r0
   19D3 86 F0              5714 	mov	b,@r0
   19D5 E4                 5715 	clr	a
   19D6 12s00r00           5716 	lcall	__gptrput
   19D9 A3                 5717 	inc	dptr
   19DA E4                 5718 	clr	a
   19DB 12s00r00           5719 	lcall	__gptrput
   19DE E5 81              5720 	mov	a,sp
   19E0 24 F5              5721 	add	a,#0xf5
   19E2 F8                 5722 	mov	r0,a
   19E3 74 02              5723 	mov	a,#0x02
   19E5 26                 5724 	add	a,@r0
   19E6 FD                 5725 	mov	r5,a
   19E7 E4                 5726 	clr	a
   19E8 08                 5727 	inc	r0
   19E9 36                 5728 	addc	a,@r0
   19EA FE                 5729 	mov	r6,a
   19EB 08                 5730 	inc	r0
   19EC 86 07              5731 	mov	ar7,@r0
   19EE 8D 82              5732 	mov	dpl,r5
   19F0 8E 83              5733 	mov	dph,r6
   19F2 8F F0              5734 	mov	b,r7
   19F4 E4                 5735 	clr	a
   19F5 12s00r00           5736 	lcall	__gptrput
   19F8 A3                 5737 	inc	dptr
   19F9 E4                 5738 	clr	a
   19FA 12s00r00           5739 	lcall	__gptrput
   19FD E5 81              5740 	mov	a,sp
   19FF 24 F5              5741 	add	a,#0xf5
   1A01 F8                 5742 	mov	r0,a
   1A02 74 04              5743 	mov	a,#0x04
   1A04 26                 5744 	add	a,@r0
   1A05 FD                 5745 	mov	r5,a
   1A06 E4                 5746 	clr	a
   1A07 08                 5747 	inc	r0
   1A08 36                 5748 	addc	a,@r0
   1A09 FE                 5749 	mov	r6,a
   1A0A 08                 5750 	inc	r0
   1A0B 86 07              5751 	mov	ar7,@r0
   1A0D 8D 82              5752 	mov	dpl,r5
   1A0F 8E 83              5753 	mov	dph,r6
   1A11 8F F0              5754 	mov	b,r7
   1A13 E4                 5755 	clr	a
   1A14 12s00r00           5756 	lcall	__gptrput
   1A17 A3                 5757 	inc	dptr
   1A18 E4                 5758 	clr	a
   1A19 12s00r00           5759 	lcall	__gptrput
   1A1C E5 81              5760 	mov	a,sp
   1A1E 24 F5              5761 	add	a,#0xf5
   1A20 F8                 5762 	mov	r0,a
   1A21 74 06              5763 	mov	a,#0x06
   1A23 26                 5764 	add	a,@r0
   1A24 FD                 5765 	mov	r5,a
   1A25 E4                 5766 	clr	a
   1A26 08                 5767 	inc	r0
   1A27 36                 5768 	addc	a,@r0
   1A28 FE                 5769 	mov	r6,a
   1A29 08                 5770 	inc	r0
   1A2A 86 07              5771 	mov	ar7,@r0
   1A2C 8D 82              5772 	mov	dpl,r5
   1A2E 8E 83              5773 	mov	dph,r6
   1A30 8F F0              5774 	mov	b,r7
   1A32 E4                 5775 	clr	a
   1A33 12s00r00           5776 	lcall	__gptrput
   1A36 A3                 5777 	inc	dptr
   1A37 E4                 5778 	clr	a
   1A38 12s00r00           5779 	lcall	__gptrput
   1A3B E5 81              5780 	mov	a,sp
   1A3D 24 F5              5781 	add	a,#0xf5
   1A3F F8                 5782 	mov	r0,a
   1A40 74 08              5783 	mov	a,#0x08
   1A42 26                 5784 	add	a,@r0
   1A43 FD                 5785 	mov	r5,a
   1A44 E4                 5786 	clr	a
   1A45 08                 5787 	inc	r0
   1A46 36                 5788 	addc	a,@r0
   1A47 FE                 5789 	mov	r6,a
   1A48 08                 5790 	inc	r0
   1A49 86 07              5791 	mov	ar7,@r0
   1A4B 8D 82              5792 	mov	dpl,r5
   1A4D 8E 83              5793 	mov	dph,r6
   1A4F 8F F0              5794 	mov	b,r7
   1A51 E4                 5795 	clr	a
   1A52 12s00r00           5796 	lcall	__gptrput
   1A55 A3                 5797 	inc	dptr
   1A56 E4                 5798 	clr	a
   1A57 12s00r00           5799 	lcall	__gptrput
   1A5A E5 81              5800 	mov	a,sp
   1A5C 24 F5              5801 	add	a,#0xf5
   1A5E F8                 5802 	mov	r0,a
   1A5F 74 0A              5803 	mov	a,#0x0A
   1A61 26                 5804 	add	a,@r0
   1A62 FD                 5805 	mov	r5,a
   1A63 E4                 5806 	clr	a
   1A64 08                 5807 	inc	r0
   1A65 36                 5808 	addc	a,@r0
   1A66 FE                 5809 	mov	r6,a
   1A67 08                 5810 	inc	r0
   1A68 86 07              5811 	mov	ar7,@r0
   1A6A 8D 82              5812 	mov	dpl,r5
   1A6C 8E 83              5813 	mov	dph,r6
   1A6E 8F F0              5814 	mov	b,r7
   1A70 E4                 5815 	clr	a
   1A71 12s00r00           5816 	lcall	__gptrput
   1A74 A3                 5817 	inc	dptr
   1A75 E4                 5818 	clr	a
   1A76 12s00r00           5819 	lcall	__gptrput
   1A79 E5 81              5820 	mov	a,sp
   1A7B 24 F5              5821 	add	a,#0xf5
   1A7D F8                 5822 	mov	r0,a
   1A7E 74 0C              5823 	mov	a,#0x0C
   1A80 26                 5824 	add	a,@r0
   1A81 FD                 5825 	mov	r5,a
   1A82 E4                 5826 	clr	a
   1A83 08                 5827 	inc	r0
   1A84 36                 5828 	addc	a,@r0
   1A85 FE                 5829 	mov	r6,a
   1A86 08                 5830 	inc	r0
   1A87 86 07              5831 	mov	ar7,@r0
   1A89 8D 82              5832 	mov	dpl,r5
   1A8B 8E 83              5833 	mov	dph,r6
   1A8D 8F F0              5834 	mov	b,r7
   1A8F E4                 5835 	clr	a
   1A90 12s00r00           5836 	lcall	__gptrput
   1A93 A3                 5837 	inc	dptr
   1A94 E4                 5838 	clr	a
   1A95 12s00r00           5839 	lcall	__gptrput
   1A98 E5 81              5840 	mov	a,sp
   1A9A 24 F5              5841 	add	a,#0xf5
   1A9C F8                 5842 	mov	r0,a
   1A9D 74 0E              5843 	mov	a,#0x0E
   1A9F 26                 5844 	add	a,@r0
   1AA0 FD                 5845 	mov	r5,a
   1AA1 E4                 5846 	clr	a
   1AA2 08                 5847 	inc	r0
   1AA3 36                 5848 	addc	a,@r0
   1AA4 FE                 5849 	mov	r6,a
   1AA5 08                 5850 	inc	r0
   1AA6 86 07              5851 	mov	ar7,@r0
   1AA8 8D 82              5852 	mov	dpl,r5
   1AAA 8E 83              5853 	mov	dph,r6
   1AAC 8F F0              5854 	mov	b,r7
   1AAE E4                 5855 	clr	a
   1AAF 12s00r00           5856 	lcall	__gptrput
   1AB2 A3                 5857 	inc	dptr
   1AB3 E4                 5858 	clr	a
   1AB4 12s00r00           5859 	lcall	__gptrput
   1AB7 80 34              5860 	sjmp	00123$
   1AB9                    5861 00117$:
                           5862 ;	../../../contiki-sensinode//core/net/uip-ds6.c:699: uip_ipaddr_copy(src, &matchaddr->ipaddr);
   1AB9 0A                 5863 	inc	r2
   1ABA BA 00 01           5864 	cjne	r2,#0x00,00157$
   1ABD 0B                 5865 	inc	r3
   1ABE                    5866 00157$:
   1ABE E5 81              5867 	mov	a,sp
   1AC0 24 F5              5868 	add	a,#0xf5
   1AC2 F8                 5869 	mov	r0,a
   1AC3 86 05              5870 	mov	ar5,@r0
   1AC5 08                 5871 	inc	r0
   1AC6 86 06              5872 	mov	ar6,@r0
   1AC8 08                 5873 	inc	r0
   1AC9 86 07              5874 	mov	ar7,@r0
   1ACB 74 10              5875 	mov	a,#0x10
   1ACD C0 E0              5876 	push	acc
   1ACF E4                 5877 	clr	a
   1AD0 C0 E0              5878 	push	acc
   1AD2 C0 02              5879 	push	ar2
   1AD4 C0 03              5880 	push	ar3
   1AD6 C0 04              5881 	push	ar4
   1AD8 8D 82              5882 	mov	dpl,r5
   1ADA 8E 83              5883 	mov	dph,r6
   1ADC 8F F0              5884 	mov	b,r7
   1ADE 78r00              5885 	mov	r0,#_memcpy
   1AE0 79s00              5886 	mov	r1,#(_memcpy >> 8)
   1AE2 7As00              5887 	mov	r2,#(_memcpy >> 16)
   1AE4 12s00r00           5888 	lcall	__sdcc_banked_call
   1AE7 E5 81              5889 	mov	a,sp
   1AE9 24 FB              5890 	add	a,#0xfb
   1AEB F5 81              5891 	mov	sp,a
   1AED                    5892 00123$:
   1AED E5 81              5893 	mov	a,sp
   1AEF 24 F4              5894 	add	a,#0xF4
   1AF1 F5 81              5895 	mov	sp,a
   1AF3 02s00r00           5896 	ljmp	__sdcc_banked_ret
                           5897 ;------------------------------------------------------------
                           5898 ;Allocation info for local variables in function 'uip_ds6_set_addr_iid'
                           5899 ;------------------------------------------------------------
                           5900 ;lladdr                    Allocated to stack - sp -8
                           5901 ;ipaddr                    Allocated to registers r5 r6 r7 
                           5902 ;sloc0                     Allocated to stack - sp -2
                           5903 ;------------------------------------------------------------
                           5904 ;	../../../contiki-sensinode//core/net/uip-ds6.c:705: uip_ds6_set_addr_iid(uip_ipaddr_t *ipaddr, uip_lladdr_t *lladdr)
                           5905 ;	-----------------------------------------
                           5906 ;	 function uip_ds6_set_addr_iid
                           5907 ;	-----------------------------------------
   1AF6                    5908 _uip_ds6_set_addr_iid:
   1AF6 05 81              5909 	inc	sp
   1AF8 05 81              5910 	inc	sp
   1AFA 05 81              5911 	inc	sp
   1AFC AD 82              5912 	mov	r5,dpl
   1AFE AE 83              5913 	mov	r6,dph
   1B00 AF F0              5914 	mov	r7,b
                           5915 ;	../../../contiki-sensinode//core/net/uip-ds6.c:710: memcpy(ipaddr->u8 + 8, lladdr, UIP_LLADDR_LEN);
   1B02 E5 81              5916 	mov	a,sp
   1B04 24 F8              5917 	add	a,#0xf8
   1B06 F8                 5918 	mov	r0,a
   1B07 A9 81              5919 	mov	r1,sp
   1B09 19                 5920 	dec	r1
   1B0A 19                 5921 	dec	r1
   1B0B E6                 5922 	mov	a,@r0
   1B0C F7                 5923 	mov	@r1,a
   1B0D 08                 5924 	inc	r0
   1B0E 09                 5925 	inc	r1
   1B0F E6                 5926 	mov	a,@r0
   1B10 F7                 5927 	mov	@r1,a
   1B11 08                 5928 	inc	r0
   1B12 09                 5929 	inc	r1
   1B13 E6                 5930 	mov	a,@r0
   1B14 F7                 5931 	mov	@r1,a
   1B15 74 08              5932 	mov	a,#0x08
   1B17 2D                 5933 	add	a,r5
   1B18 FD                 5934 	mov	r5,a
   1B19 E4                 5935 	clr	a
   1B1A 3E                 5936 	addc	a,r6
   1B1B FE                 5937 	mov	r6,a
   1B1C 8D 02              5938 	mov	ar2,r5
   1B1E 8E 03              5939 	mov	ar3,r6
   1B20 8F 04              5940 	mov	ar4,r7
   1B22 C0 07              5941 	push	ar7
   1B24 C0 06              5942 	push	ar6
   1B26 C0 05              5943 	push	ar5
   1B28 74 08              5944 	mov	a,#0x08
   1B2A C0 E0              5945 	push	acc
   1B2C E4                 5946 	clr	a
   1B2D C0 E0              5947 	push	acc
   1B2F E5 81              5948 	mov	a,sp
   1B31 24 F9              5949 	add	a,#0xf9
   1B33 F8                 5950 	mov	r0,a
   1B34 E6                 5951 	mov	a,@r0
   1B35 C0 E0              5952 	push	acc
   1B37 08                 5953 	inc	r0
   1B38 E6                 5954 	mov	a,@r0
   1B39 C0 E0              5955 	push	acc
   1B3B 08                 5956 	inc	r0
   1B3C E6                 5957 	mov	a,@r0
   1B3D C0 E0              5958 	push	acc
   1B3F 8A 82              5959 	mov	dpl,r2
   1B41 8B 83              5960 	mov	dph,r3
   1B43 8C F0              5961 	mov	b,r4
   1B45 78r00              5962 	mov	r0,#_memcpy
   1B47 79s00              5963 	mov	r1,#(_memcpy >> 8)
   1B49 7As00              5964 	mov	r2,#(_memcpy >> 16)
   1B4B 12s00r00           5965 	lcall	__sdcc_banked_call
   1B4E E5 81              5966 	mov	a,sp
   1B50 24 FB              5967 	add	a,#0xfb
   1B52 F5 81              5968 	mov	sp,a
   1B54 D0 05              5969 	pop	ar5
   1B56 D0 06              5970 	pop	ar6
   1B58 D0 07              5971 	pop	ar7
                           5972 ;	../../../contiki-sensinode//core/net/uip-ds6.c:711: ipaddr->u8[8] ^= 0x02;
   1B5A 8D 82              5973 	mov	dpl,r5
   1B5C 8E 83              5974 	mov	dph,r6
   1B5E 8F F0              5975 	mov	b,r7
   1B60 12s00r00           5976 	lcall	__gptrget
   1B63 FC                 5977 	mov	r4,a
   1B64 63 04 02           5978 	xrl	ar4,#0x02
   1B67 8D 82              5979 	mov	dpl,r5
   1B69 8E 83              5980 	mov	dph,r6
   1B6B 8F F0              5981 	mov	b,r7
   1B6D EC                 5982 	mov	a,r4
   1B6E 12s00r00           5983 	lcall	__gptrput
   1B71 15 81              5984 	dec	sp
   1B73 15 81              5985 	dec	sp
   1B75 15 81              5986 	dec	sp
   1B77 02s00r00           5987 	ljmp	__sdcc_banked_ret
                           5988 ;------------------------------------------------------------
                           5989 ;Allocation info for local variables in function 'get_match_length'
                           5990 ;------------------------------------------------------------
                           5991 ;dst                       Allocated to stack - sp -10
                           5992 ;src                       Allocated to stack - sp -4
                           5993 ;j                         Allocated to stack - sp -1
                           5994 ;k                         Allocated to registers r5 
                           5995 ;x_or                      Allocated to registers r7 
                           5996 ;len                       Allocated to stack - sp +0
                           5997 ;sloc0                     Allocated to stack - sp +3
                           5998 ;sloc1                     Allocated to stack - sp +4
                           5999 ;------------------------------------------------------------
                           6000 ;	../../../contiki-sensinode//core/net/uip-ds6.c:725: get_match_length(uip_ipaddr_t *src, uip_ipaddr_t *dst)
                           6001 ;	-----------------------------------------
                           6002 ;	 function get_match_length
                           6003 ;	-----------------------------------------
   1B7A                    6004 _get_match_length:
   1B7A C0 82              6005 	push	dpl
   1B7C C0 83              6006 	push	dph
   1B7E C0 F0              6007 	push	b
   1B80 05 81              6008 	inc	sp
   1B82 05 81              6009 	inc	sp
                           6010 ;	../../../contiki-sensinode//core/net/uip-ds6.c:728: uint8_t len = 0;
   1B84 7C 00              6011 	mov	r4,#0x00
                           6012 ;	../../../contiki-sensinode//core/net/uip-ds6.c:730: for(j = 0; j < 16; j++) {
   1B86 A8 81              6013 	mov	r0,sp
   1B88 76 00              6014 	mov	@r0,#0x00
   1B8A A8 81              6015 	mov	r0,sp
   1B8C 18                 6016 	dec	r0
   1B8D 76 00              6017 	mov	@r0,#0x00
   1B8F                    6018 00111$:
   1B8F A8 81              6019 	mov	r0,sp
   1B91 18                 6020 	dec	r0
   1B92 B6 10 00           6021 	cjne	@r0,#0x10,00130$
   1B95                    6022 00130$:
   1B95 50 78              6023 	jnc	00114$
                           6024 ;	../../../contiki-sensinode//core/net/uip-ds6.c:731: if(src->u8[j] == dst->u8[j]) {
   1B97 C0 04              6025 	push	ar4
   1B99 E5 81              6026 	mov	a,sp
   1B9B 24 FB              6027 	add	a,#0xfb
   1B9D F8                 6028 	mov	r0,a
   1B9E A9 81              6029 	mov	r1,sp
   1BA0 19                 6030 	dec	r1
   1BA1 19                 6031 	dec	r1
   1BA2 E7                 6032 	mov	a,@r1
   1BA3 26                 6033 	add	a,@r0
   1BA4 FC                 6034 	mov	r4,a
   1BA5 E4                 6035 	clr	a
   1BA6 08                 6036 	inc	r0
   1BA7 36                 6037 	addc	a,@r0
   1BA8 FE                 6038 	mov	r6,a
   1BA9 08                 6039 	inc	r0
   1BAA 86 07              6040 	mov	ar7,@r0
   1BAC E5 81              6041 	mov	a,sp
   1BAE 24 F5              6042 	add	a,#0xf5
   1BB0 F8                 6043 	mov	r0,a
   1BB1 86 02              6044 	mov	ar2,@r0
   1BB3 08                 6045 	inc	r0
   1BB4 86 03              6046 	mov	ar3,@r0
   1BB6 08                 6047 	inc	r0
   1BB7 86 05              6048 	mov	ar5,@r0
   1BB9 A8 81              6049 	mov	r0,sp
   1BBB 18                 6050 	dec	r0
   1BBC 18                 6051 	dec	r0
   1BBD E6                 6052 	mov	a,@r0
   1BBE 2A                 6053 	add	a,r2
   1BBF FA                 6054 	mov	r2,a
   1BC0 E4                 6055 	clr	a
   1BC1 3B                 6056 	addc	a,r3
   1BC2 FB                 6057 	mov	r3,a
   1BC3 8C 82              6058 	mov	dpl,r4
   1BC5 8E 83              6059 	mov	dph,r6
   1BC7 8F F0              6060 	mov	b,r7
   1BC9 12s00r00           6061 	lcall	__gptrget
   1BCC FF                 6062 	mov	r7,a
   1BCD 8A 82              6063 	mov	dpl,r2
   1BCF 8B 83              6064 	mov	dph,r3
   1BD1 8D F0              6065 	mov	b,r5
   1BD3 12s00r00           6066 	lcall	__gptrget
   1BD6 FE                 6067 	mov	r6,a
   1BD7 EF                 6068 	mov	a,r7
   1BD8 B5 06 02           6069 	cjne	a,ar6,00132$
   1BDB 80 04              6070 	sjmp	00133$
   1BDD                    6071 00132$:
   1BDD D0 04              6072 	pop	ar4
   1BDF 80 0E              6073 	sjmp	00109$
   1BE1                    6074 00133$:
   1BE1 D0 04              6075 	pop	ar4
                           6076 ;	../../../contiki-sensinode//core/net/uip-ds6.c:732: len += 8;
   1BE3 A8 81              6077 	mov	r0,sp
   1BE5 74 08              6078 	mov	a,#0x08
   1BE7 26                 6079 	add	a,@r0
   1BE8 F6                 6080 	mov	@r0,a
   1BE9 A8 81              6081 	mov	r0,sp
   1BEB 86 04              6082 	mov	ar4,@r0
   1BED 80 17              6083 	sjmp	00113$
   1BEF                    6084 00109$:
                           6085 ;	../../../contiki-sensinode//core/net/uip-ds6.c:734: x_or = src->u8[j] ^ dst->u8[j];
   1BEF EE                 6086 	mov	a,r6
   1BF0 62 07              6087 	xrl	ar7,a
                           6088 ;	../../../contiki-sensinode//core/net/uip-ds6.c:735: for(k = 0; k < 8; k++) {
   1BF2 8C 06              6089 	mov	ar6,r4
   1BF4 7D 00              6090 	mov	r5,#0x00
   1BF6                    6091 00104$:
   1BF6 BD 08 00           6092 	cjne	r5,#0x08,00134$
   1BF9                    6093 00134$:
   1BF9 50 12              6094 	jnc	00123$
                           6095 ;	../../../contiki-sensinode//core/net/uip-ds6.c:736: if((x_or & 0x80) == 0) {
   1BFB EF                 6096 	mov	a,r7
   1BFC 20 E7 0E           6097 	jb	acc.7,00123$
                           6098 ;	../../../contiki-sensinode//core/net/uip-ds6.c:737: len++;
   1BFF 0E                 6099 	inc	r6
                           6100 ;	../../../contiki-sensinode//core/net/uip-ds6.c:738: x_or <<= 1;
   1C00 EF                 6101 	mov	a,r7
   1C01 2F                 6102 	add	a,r7
   1C02 FF                 6103 	mov	r7,a
                           6104 ;	../../../contiki-sensinode//core/net/uip-ds6.c:735: for(k = 0; k < 8; k++) {
   1C03 0D                 6105 	inc	r5
                           6106 ;	../../../contiki-sensinode//core/net/uip-ds6.c:743: break;
   1C04 80 F0              6107 	sjmp	00104$
   1C06                    6108 00113$:
                           6109 ;	../../../contiki-sensinode//core/net/uip-ds6.c:730: for(j = 0; j < 16; j++) {
   1C06 A8 81              6110 	mov	r0,sp
   1C08 18                 6111 	dec	r0
   1C09 06                 6112 	inc	@r0
   1C0A 02s1Br8F           6113 	ljmp	00111$
   1C0D                    6114 00123$:
   1C0D 8E 04              6115 	mov	ar4,r6
   1C0F                    6116 00114$:
                           6117 ;	../../../contiki-sensinode//core/net/uip-ds6.c:746: return len;
   1C0F 8C 82              6118 	mov	dpl,r4
   1C11 E5 81              6119 	mov	a,sp
   1C13 24 FB              6120 	add	a,#0xFB
   1C15 F5 81              6121 	mov	sp,a
   1C17 02s00r00           6122 	ljmp	__sdcc_banked_ret
                           6123 ;------------------------------------------------------------
                           6124 ;Allocation info for local variables in function 'uip_ds6_compute_reachable_time'
                           6125 ;------------------------------------------------------------
                           6126 ;sloc0                     Allocated to stack - sp -7
                           6127 ;sloc1                     Allocated to stack - sp -5
                           6128 ;sloc2                     Allocated to stack - sp -3
                           6129 ;sloc3                     Allocated to stack - sp -7
                           6130 ;sloc4                     Allocated to stack - sp -3
                           6131 ;------------------------------------------------------------
                           6132 ;	../../../contiki-sensinode//core/net/uip-ds6.c:867: uip_ds6_compute_reachable_time(void)
                           6133 ;	-----------------------------------------
                           6134 ;	 function uip_ds6_compute_reachable_time
                           6135 ;	-----------------------------------------
   1C1A                    6136 _uip_ds6_compute_reachable_time:
   1C1A E5 81              6137 	mov	a,sp
   1C1C 24 08              6138 	add	a,#0x08
   1C1E F5 81              6139 	mov	sp,a
                           6140 ;	../../../contiki-sensinode//core/net/uip-ds6.c:869: return (uint32_t) (UIP_ND6_MIN_RANDOM_FACTOR
   1C20 90s00r17           6141 	mov	dptr,#(_uip_ds6_if + 0x0005)
   1C23 E0                 6142 	movx	a,@dptr
   1C24 FC                 6143 	mov	r4,a
   1C25 A3                 6144 	inc	dptr
   1C26 E0                 6145 	movx	a,@dptr
   1C27 FD                 6146 	mov	r5,a
   1C28 A3                 6147 	inc	dptr
   1C29 E0                 6148 	movx	a,@dptr
   1C2A FE                 6149 	mov	r6,a
   1C2B A3                 6150 	inc	dptr
   1C2C E0                 6151 	movx	a,@dptr
   1C2D FF                 6152 	mov	r7,a
   1C2E E5 81              6153 	mov	a,sp
   1C30 24 F9              6154 	add	a,#0xf9
   1C32 F8                 6155 	mov	r0,a
   1C33 EF                 6156 	mov	a,r7
   1C34 C3                 6157 	clr	c
   1C35 13                 6158 	rrc	a
   1C36 08                 6159 	inc	r0
   1C37 08                 6160 	inc	r0
   1C38 08                 6161 	inc	r0
   1C39 F6                 6162 	mov	@r0,a
   1C3A EE                 6163 	mov	a,r6
   1C3B 13                 6164 	rrc	a
   1C3C 18                 6165 	dec	r0
   1C3D F6                 6166 	mov	@r0,a
   1C3E ED                 6167 	mov	a,r5
   1C3F 13                 6168 	rrc	a
   1C40 18                 6169 	dec	r0
   1C41 F6                 6170 	mov	@r0,a
   1C42 EC                 6171 	mov	a,r4
   1C43 13                 6172 	rrc	a
   1C44 18                 6173 	dec	r0
   1C45 F6                 6174 	mov	@r0,a
                           6175 ;	../../../contiki-sensinode//core/net/uip-ds6.c:871: ((uint16_t) (random_rand() << 8) +
   1C46 78r00              6176 	mov	r0,#_random_rand
   1C48 79s00              6177 	mov	r1,#(_random_rand >> 8)
   1C4A 7As00              6178 	mov	r2,#(_random_rand >> 16)
   1C4C 12s00r00           6179 	lcall	__sdcc_banked_call
   1C4F AB 82              6180 	mov	r3,dpl
   1C51 7A 00              6181 	mov	r2,#0x00
                           6182 ;	../../../contiki-sensinode//core/net/uip-ds6.c:872: (uint16_t) random_rand()) %
   1C53 C0 03              6183 	push	ar3
   1C55 C0 02              6184 	push	ar2
   1C57 78r00              6185 	mov	r0,#_random_rand
   1C59 79s00              6186 	mov	r1,#(_random_rand >> 8)
   1C5B 7As00              6187 	mov	r2,#(_random_rand >> 16)
   1C5D 12s00r00           6188 	lcall	__sdcc_banked_call
   1C60 AF 82              6189 	mov	r7,dpl
   1C62 AE 83              6190 	mov	r6,dph
   1C64 D0 02              6191 	pop	ar2
   1C66 D0 03              6192 	pop	ar3
   1C68 EF                 6193 	mov	a,r7
   1C69 2A                 6194 	add	a,r2
   1C6A FA                 6195 	mov	r2,a
   1C6B EE                 6196 	mov	a,r6
   1C6C 3B                 6197 	addc	a,r3
   1C6D FB                 6198 	mov	r3,a
                           6199 ;	../../../contiki-sensinode//core/net/uip-ds6.c:873: (uint32_t) (UIP_ND6_MAX_RANDOM_FACTOR(uip_ds6_if.base_reachable_time) -
   1C6E 90s00r17           6200 	mov	dptr,#(_uip_ds6_if + 0x0005)
   1C71 E0                 6201 	movx	a,@dptr
   1C72 FC                 6202 	mov	r4,a
   1C73 A3                 6203 	inc	dptr
   1C74 E0                 6204 	movx	a,@dptr
   1C75 FD                 6205 	mov	r5,a
   1C76 A3                 6206 	inc	dptr
   1C77 E0                 6207 	movx	a,@dptr
   1C78 FE                 6208 	mov	r6,a
   1C79 A3                 6209 	inc	dptr
   1C7A E0                 6210 	movx	a,@dptr
   1C7B FF                 6211 	mov	r7,a
   1C7C E5 81              6212 	mov	a,sp
   1C7E 24 FD              6213 	add	a,#0xfd
   1C80 F8                 6214 	mov	r0,a
   1C81 EF                 6215 	mov	a,r7
   1C82 C3                 6216 	clr	c
   1C83 13                 6217 	rrc	a
   1C84 08                 6218 	inc	r0
   1C85 08                 6219 	inc	r0
   1C86 08                 6220 	inc	r0
   1C87 F6                 6221 	mov	@r0,a
   1C88 EE                 6222 	mov	a,r6
   1C89 13                 6223 	rrc	a
   1C8A 18                 6224 	dec	r0
   1C8B F6                 6225 	mov	@r0,a
   1C8C ED                 6226 	mov	a,r5
   1C8D 13                 6227 	rrc	a
   1C8E 18                 6228 	dec	r0
   1C8F F6                 6229 	mov	@r0,a
   1C90 EC                 6230 	mov	a,r4
   1C91 13                 6231 	rrc	a
   1C92 18                 6232 	dec	r0
   1C93 F6                 6233 	mov	@r0,a
   1C94 E5 81              6234 	mov	a,sp
   1C96 24 FD              6235 	add	a,#0xfd
   1C98 F8                 6236 	mov	r0,a
   1C99 E6                 6237 	mov	a,@r0
   1C9A 2C                 6238 	add	a,r4
   1C9B FC                 6239 	mov	r4,a
   1C9C 08                 6240 	inc	r0
   1C9D E6                 6241 	mov	a,@r0
   1C9E 3D                 6242 	addc	a,r5
   1C9F FD                 6243 	mov	r5,a
   1CA0 08                 6244 	inc	r0
   1CA1 E6                 6245 	mov	a,@r0
   1CA2 3E                 6246 	addc	a,r6
   1CA3 FE                 6247 	mov	r6,a
   1CA4 08                 6248 	inc	r0
   1CA5 E6                 6249 	mov	a,@r0
   1CA6 3F                 6250 	addc	a,r7
   1CA7 FF                 6251 	mov	r7,a
                           6252 ;	../../../contiki-sensinode//core/net/uip-ds6.c:874: UIP_ND6_MIN_RANDOM_FACTOR(uip_ds6_if.base_reachable_time));
   1CA8 E5 81              6253 	mov	a,sp
   1CAA 24 FD              6254 	add	a,#0xfd
   1CAC F8                 6255 	mov	r0,a
   1CAD EC                 6256 	mov	a,r4
   1CAE C3                 6257 	clr	c
   1CAF 96                 6258 	subb	a,@r0
   1CB0 F6                 6259 	mov	@r0,a
   1CB1 ED                 6260 	mov	a,r5
   1CB2 08                 6261 	inc	r0
   1CB3 96                 6262 	subb	a,@r0
   1CB4 F6                 6263 	mov	@r0,a
   1CB5 EE                 6264 	mov	a,r6
   1CB6 08                 6265 	inc	r0
   1CB7 96                 6266 	subb	a,@r0
   1CB8 F6                 6267 	mov	@r0,a
   1CB9 EF                 6268 	mov	a,r7
   1CBA 08                 6269 	inc	r0
   1CBB 96                 6270 	subb	a,@r0
   1CBC F6                 6271 	mov	@r0,a
   1CBD 8A 04              6272 	mov	ar4,r2
   1CBF 8B 05              6273 	mov	ar5,r3
   1CC1 E4                 6274 	clr	a
   1CC2 FE                 6275 	mov	r6,a
   1CC3 FF                 6276 	mov	r7,a
   1CC4 E5 81              6277 	mov	a,sp
   1CC6 24 FD              6278 	add	a,#0xfd
   1CC8 F8                 6279 	mov	r0,a
   1CC9 E6                 6280 	mov	a,@r0
   1CCA C0 E0              6281 	push	acc
   1CCC 08                 6282 	inc	r0
   1CCD E6                 6283 	mov	a,@r0
   1CCE C0 E0              6284 	push	acc
   1CD0 08                 6285 	inc	r0
   1CD1 E6                 6286 	mov	a,@r0
   1CD2 C0 E0              6287 	push	acc
   1CD4 08                 6288 	inc	r0
   1CD5 E6                 6289 	mov	a,@r0
   1CD6 C0 E0              6290 	push	acc
   1CD8 8C 82              6291 	mov	dpl,r4
   1CDA 8D 83              6292 	mov	dph,r5
   1CDC 8E F0              6293 	mov	b,r6
   1CDE EF                 6294 	mov	a,r7
   1CDF 12s00r00           6295 	lcall	__modulong
   1CE2 AC 82              6296 	mov	r4,dpl
   1CE4 AD 83              6297 	mov	r5,dph
   1CE6 AE F0              6298 	mov	r6,b
   1CE8 FF                 6299 	mov	r7,a
   1CE9 E5 81              6300 	mov	a,sp
   1CEB 24 FC              6301 	add	a,#0xfc
   1CED F5 81              6302 	mov	sp,a
   1CEF 24 F9              6303 	add	a,#0xf9
   1CF1 F8                 6304 	mov	r0,a
   1CF2 EC                 6305 	mov	a,r4
   1CF3 26                 6306 	add	a,@r0
   1CF4 FC                 6307 	mov	r4,a
   1CF5 ED                 6308 	mov	a,r5
   1CF6 08                 6309 	inc	r0
   1CF7 36                 6310 	addc	a,@r0
   1CF8 FD                 6311 	mov	r5,a
   1CF9 EE                 6312 	mov	a,r6
   1CFA 08                 6313 	inc	r0
   1CFB 36                 6314 	addc	a,@r0
   1CFC FE                 6315 	mov	r6,a
   1CFD EF                 6316 	mov	a,r7
   1CFE 08                 6317 	inc	r0
   1CFF 36                 6318 	addc	a,@r0
   1D00 FF                 6319 	mov	r7,a
   1D01 8C 82              6320 	mov	dpl,r4
   1D03 8D 83              6321 	mov	dph,r5
   1D05 8E F0              6322 	mov	b,r6
   1D07 C8                 6323 	xch	a,r0
   1D08 E5 81              6324 	mov	a,sp
   1D0A 24 F8              6325 	add	a,#0xF8
   1D0C F5 81              6326 	mov	sp,a
   1D0E C8                 6327 	xch	a,r0
   1D0F 02s00r00           6328 	ljmp	__sdcc_banked_ret
                           6329 	.area CSEG    (CODE)
                           6330 	.area CONST   (CODE)
                           6331 	.area XINIT   (CODE)
                           6332 	.area CABS    (ABS,CODE)
