                              1 ;--------------------------------------------------------
                              2 ; File Created by SDCC : free open source ANSI-C Compiler
                              3 ; Version 3.1.1 #7100 (Oct 29 2014) (Linux)
                              4 ; This file was generated Wed Dec  2 18:10:58 2015
                              5 ;--------------------------------------------------------
                              6 	.module uip6
                              7 	.optsdcc -mmcs51 --model-huge
                              8 	
                              9 ;--------------------------------------------------------
                             10 ; Public variables in this module
                             11 ;--------------------------------------------------------
                             12 	.globl _remove_ext_hdr
                             13 	.globl _rpl_verify_header
                             14 	.globl _rpl_update_header_empty
                             15 	.globl _uip_rpl_input
                             16 	.globl _uip_ds6_select_src
                             17 	.globl _uip_ds6_maddr_lookup
                             18 	.globl _uip_ds6_addr_lookup
                             19 	.globl _uip_ds6_is_addr_onlink
                             20 	.globl _uip_ds6_init
                             21 	.globl _uip_nd6_na_input
                             22 	.globl _uip_nd6_ns_input
                             23 	.globl _uip_icmp6_error_output
                             24 	.globl _uip_icmp6_echo_request_input
                             25 	.globl _tcpip_uipcall
                             26 	.globl _memset
                             27 	.globl _memcmp
                             28 	.globl _memmove
                             29 	.globl _memcpy
                             30 	.globl _ACTIVE
                             31 	.globl _TX_BYTE
                             32 	.globl _RX_BYTE
                             33 	.globl _ERR
                             34 	.globl _FE
                             35 	.globl _SLAVE
                             36 	.globl _RE
                             37 	.globl _MODE
                             38 	.globl _T3OVFIF
                             39 	.globl _T3CH0IF
                             40 	.globl _T3CH1IF
                             41 	.globl _T4OVFIF
                             42 	.globl _T4CH0IF
                             43 	.globl _T4CH1IF
                             44 	.globl _OVFIM
                             45 	.globl _B_0
                             46 	.globl _B_1
                             47 	.globl _B_2
                             48 	.globl _B_3
                             49 	.globl _B_4
                             50 	.globl _B_5
                             51 	.globl _B_6
                             52 	.globl _B_7
                             53 	.globl _P2IF
                             54 	.globl _UTX0IF
                             55 	.globl _UTX1IF
                             56 	.globl _P1IF
                             57 	.globl _WDTIF
                             58 	.globl _ACC_0
                             59 	.globl _ACC_1
                             60 	.globl _ACC_2
                             61 	.globl _ACC_3
                             62 	.globl _ACC_4
                             63 	.globl _ACC_5
                             64 	.globl _ACC_6
                             65 	.globl _ACC_7
                             66 	.globl _P
                             67 	.globl _F1
                             68 	.globl _OV
                             69 	.globl _RS0
                             70 	.globl _RS1
                             71 	.globl _F0
                             72 	.globl _AC
                             73 	.globl _CY
                             74 	.globl _DMAIF
                             75 	.globl _T1IF
                             76 	.globl _T2IF
                             77 	.globl _T3IF
                             78 	.globl _T4IF
                             79 	.globl _P0IF
                             80 	.globl _STIF
                             81 	.globl _DMAIE
                             82 	.globl _T1IE
                             83 	.globl _T2IE
                             84 	.globl _T3IE
                             85 	.globl _T4IE
                             86 	.globl _P0IE
                             87 	.globl _RFERRIE
                             88 	.globl _ADCIE
                             89 	.globl _URX0IE
                             90 	.globl _URX1IE
                             91 	.globl _ENCIE
                             92 	.globl _STIE
                             93 	.globl _EA
                             94 	.globl _P2_0
                             95 	.globl _P2_1
                             96 	.globl _P2_2
                             97 	.globl _P2_3
                             98 	.globl _P2_4
                             99 	.globl _P2_5
                            100 	.globl _P2_6
                            101 	.globl _P2_7
                            102 	.globl _ENCIF_0
                            103 	.globl _ENCIF_1
                            104 	.globl _P1_0
                            105 	.globl _P1_1
                            106 	.globl _P1_2
                            107 	.globl _P1_3
                            108 	.globl _P1_4
                            109 	.globl _P1_5
                            110 	.globl _P1_6
                            111 	.globl _P1_7
                            112 	.globl _IT0
                            113 	.globl _RFERRIF
                            114 	.globl _IT1
                            115 	.globl _URX0IF
                            116 	.globl _ADCIF
                            117 	.globl _URX1IF
                            118 	.globl _P0_0
                            119 	.globl _P0_1
                            120 	.globl _P0_2
                            121 	.globl _P0_3
                            122 	.globl _P0_4
                            123 	.globl _P0_5
                            124 	.globl _P0_6
                            125 	.globl _P0_7
                            126 	.globl _WDCTL
                            127 	.globl _U1GCR
                            128 	.globl _U1UCR
                            129 	.globl _U1BAUD
                            130 	.globl _U1DBUF
                            131 	.globl _U1CSR
                            132 	.globl _U0GCR
                            133 	.globl _U0UCR
                            134 	.globl _U0BAUD
                            135 	.globl _U0DBUF
                            136 	.globl _U0CSR
                            137 	.globl _TIMIF
                            138 	.globl _T4CC1
                            139 	.globl _T4CCTL1
                            140 	.globl _T4CC0
                            141 	.globl _T4CCTL0
                            142 	.globl _T4CTL
                            143 	.globl _T4CNT
                            144 	.globl _T3CC1
                            145 	.globl _T3CCTL1
                            146 	.globl _T3CC0
                            147 	.globl _T3CCTL0
                            148 	.globl _T3CTL
                            149 	.globl _T3CNT
                            150 	.globl _T2MSEL
                            151 	.globl _T2IRQM
                            152 	.globl _T2MOVF2
                            153 	.globl _T2MOVF1
                            154 	.globl _T2MOVF0
                            155 	.globl _T2M1
                            156 	.globl _T2M0
                            157 	.globl _T2IRQF
                            158 	.globl _T2EVTCFG
                            159 	.globl _T2CTRL
                            160 	.globl _T1STAT
                            161 	.globl _T1CCTL2
                            162 	.globl _T1CCTL1
                            163 	.globl _T1CCTL0
                            164 	.globl _T1CTL
                            165 	.globl _T1CNTH
                            166 	.globl _T1CNTL
                            167 	.globl _T1CC2H
                            168 	.globl _T1CC2L
                            169 	.globl _T1CC1H
                            170 	.globl _T1CC1L
                            171 	.globl _T1CC0H
                            172 	.globl _T1CC0L
                            173 	.globl _CLKCONSTA
                            174 	.globl _CLKCONCMD
                            175 	.globl _SLEEPSTA
                            176 	.globl _SLEEPCMD
                            177 	.globl _STLOAD
                            178 	.globl _ST2
                            179 	.globl _ST1
                            180 	.globl _ST0
                            181 	.globl _RFERRF
                            182 	.globl _RFIRQF0
                            183 	.globl _RFST
                            184 	.globl _RFD
                            185 	.globl _RFIRQF1
                            186 	.globl _PSBANK
                            187 	.globl _FMAP
                            188 	.globl _MEMCTR
                            189 	.globl __XPAGE
                            190 	.globl _MPAGE
                            191 	.globl _PMUX
                            192 	.globl _P2DIR
                            193 	.globl _P1DIR
                            194 	.globl _P0DIR
                            195 	.globl _P2INP
                            196 	.globl _P1INP
                            197 	.globl _P2SEL
                            198 	.globl _P1SEL
                            199 	.globl _P0SEL
                            200 	.globl _APCFG
                            201 	.globl _PERCFG
                            202 	.globl _P0INP
                            203 	.globl _P2IEN
                            204 	.globl _P1IEN
                            205 	.globl _P0IEN
                            206 	.globl _PICTL
                            207 	.globl _P2IFG
                            208 	.globl _P1IFG
                            209 	.globl _P0IFG
                            210 	.globl _DMAREQ
                            211 	.globl _DMAARM
                            212 	.globl _DMA0CFGH
                            213 	.globl _DMA0CFGL
                            214 	.globl _DMA1CFGH
                            215 	.globl _DMA1CFGL
                            216 	.globl _DMAIRQ
                            217 	.globl _ENCCS
                            218 	.globl _ENCDO
                            219 	.globl _ENCDI
                            220 	.globl _RNDH
                            221 	.globl _RNDL
                            222 	.globl _ADCH
                            223 	.globl _ADCL
                            224 	.globl _ADCCON3
                            225 	.globl _ADCCON2
                            226 	.globl _ADCCON1
                            227 	.globl _B
                            228 	.globl _IRCON2
                            229 	.globl _ACC
                            230 	.globl _PSW
                            231 	.globl _IRCON
                            232 	.globl _IP1
                            233 	.globl _IEN1
                            234 	.globl _IP0
                            235 	.globl _IEN0
                            236 	.globl _P2
                            237 	.globl _S1CON
                            238 	.globl _IEN2
                            239 	.globl _S0CON
                            240 	.globl _DPS
                            241 	.globl _P1
                            242 	.globl _TCON
                            243 	.globl _PCON
                            244 	.globl _DPH1
                            245 	.globl _DPL1
                            246 	.globl _DPH0
                            247 	.globl _DPL0
                            248 	.globl _SP
                            249 	.globl _P0
                            250 	.globl _uip_ext_opt_offset
                            251 	.globl _uip_ext_len
                            252 	.globl _uip_ext_bitmap
                            253 	.globl _uip_udp_conns
                            254 	.globl _uip_udp_conn
                            255 	.globl _uip_conn
                            256 	.globl _uip_flags
                            257 	.globl _uip_slen
                            258 	.globl _uip_len
                            259 	.globl _uip_sappdata
                            260 	.globl _uip_appdata
                            261 	.globl _uip_aligned_buf
                            262 	.globl _uip_next_hdr
                            263 	.globl _uip_lladdr
                            264 	.globl _X_IEEE_ADDR
                            265 	.globl _X_INFOPAGE
                            266 	.globl _X_P2DIR
                            267 	.globl _X_P1DIR
                            268 	.globl _X_P0DIR
                            269 	.globl _X_U1GCR
                            270 	.globl _X_U1UCR
                            271 	.globl _X_U1BAUD
                            272 	.globl _X_U1DBUF
                            273 	.globl _X_U1CSR
                            274 	.globl _X_P2INP
                            275 	.globl _X_P1INP
                            276 	.globl _X_P2SEL
                            277 	.globl _X_P1SEL
                            278 	.globl _X_P0SEL
                            279 	.globl _X_APCFG
                            280 	.globl _X_PERCFG
                            281 	.globl _X_T4CC1
                            282 	.globl _X_T4CCTL1
                            283 	.globl _X_T4CC0
                            284 	.globl _X_T4CCTL0
                            285 	.globl _X_T4CTL
                            286 	.globl _X_T4CNT
                            287 	.globl _X_RFIRQF0
                            288 	.globl _X_T1CCTL2
                            289 	.globl _X_T1CCTL1
                            290 	.globl _X_T1CCTL0
                            291 	.globl _X_T1CTL
                            292 	.globl _X_T1CNTH
                            293 	.globl _X_T1CNTL
                            294 	.globl _X_RFST
                            295 	.globl _X_T1CC2H
                            296 	.globl _X_T1CC2L
                            297 	.globl _X_T1CC1H
                            298 	.globl _X_T1CC1L
                            299 	.globl _X_T1CC0H
                            300 	.globl _X_T1CC0L
                            301 	.globl _X_RFD
                            302 	.globl _X_TIMIF
                            303 	.globl _X_DMAREQ
                            304 	.globl _X_DMAARM
                            305 	.globl _X_DMA0CFGH
                            306 	.globl _X_DMA0CFGL
                            307 	.globl _X_DMA1CFGH
                            308 	.globl _X_DMA1CFGL
                            309 	.globl _X_DMAIRQ
                            310 	.globl _X_T3CC1
                            311 	.globl _X_T3CCTL1
                            312 	.globl _X_T3CC0
                            313 	.globl _X_T3CCTL0
                            314 	.globl _X_T3CTL
                            315 	.globl _X_T3CNT
                            316 	.globl _X_WDCTL
                            317 	.globl _X_MEMCTR
                            318 	.globl _X_CLKCONCMD
                            319 	.globl _X_U0GCR
                            320 	.globl _X_U0UCR
                            321 	.globl _X_T2MSEL
                            322 	.globl _X_U0BAUD
                            323 	.globl _X_U0DBUF
                            324 	.globl _X_RFERRF
                            325 	.globl _X_SLEEPCMD
                            326 	.globl _X_RNDH
                            327 	.globl _X_RNDL
                            328 	.globl _X_ADCH
                            329 	.globl _X_ADCL
                            330 	.globl _X_ADCCON3
                            331 	.globl _X_ADCCON2
                            332 	.globl _X_ADCCON1
                            333 	.globl _X_ENCCS
                            334 	.globl _X_ENCDO
                            335 	.globl _X_ENCDI
                            336 	.globl _X_T1STAT
                            337 	.globl _X_PMUX
                            338 	.globl _X_STLOAD
                            339 	.globl _X_P2IEN
                            340 	.globl _X_P0IEN
                            341 	.globl _X_T2IRQM
                            342 	.globl _X_T2MOVF2
                            343 	.globl _X_T2MOVF1
                            344 	.globl _X_T2MOVF0
                            345 	.globl _X_T2M1
                            346 	.globl _X_T2M0
                            347 	.globl _X_T2IRQF
                            348 	.globl _X_P2
                            349 	.globl _X_PSBANK
                            350 	.globl _X_FMAP
                            351 	.globl _X_CLKCONSTA
                            352 	.globl _X_SLEEPSTA
                            353 	.globl _X_T2EVTCFG
                            354 	.globl _X_ST2
                            355 	.globl _X_ST1
                            356 	.globl _X_ST0
                            357 	.globl _X_T2CTRL
                            358 	.globl _X__XPAGE
                            359 	.globl _X_MPAGE
                            360 	.globl _X_RFIRQF1
                            361 	.globl _X_P1
                            362 	.globl _X_P0INP
                            363 	.globl _X_P1IEN
                            364 	.globl _X_PICTL
                            365 	.globl _X_P2IFG
                            366 	.globl _X_P1IFG
                            367 	.globl _X_P0IFG
                            368 	.globl _X_U0CSR
                            369 	.globl _X_P0
                            370 	.globl _USBF5
                            371 	.globl _USBF4
                            372 	.globl _USBF3
                            373 	.globl _USBF2
                            374 	.globl _USBF1
                            375 	.globl _USBF0
                            376 	.globl _USBCNTH
                            377 	.globl _USBCNTL
                            378 	.globl _USBCNT0
                            379 	.globl _USBCSOH
                            380 	.globl _USBCSOL
                            381 	.globl _USBMAXO
                            382 	.globl _USBCSIH
                            383 	.globl _USBCSIL
                            384 	.globl _USBCS0
                            385 	.globl _USBMAXI
                            386 	.globl _USBCTRL
                            387 	.globl _USBINDEX
                            388 	.globl _USBFRMH
                            389 	.globl _USBFRML
                            390 	.globl _USBCIE
                            391 	.globl _USBOIE
                            392 	.globl _USBIIE
                            393 	.globl _USBCIF
                            394 	.globl _USBOIF
                            395 	.globl _USBIIF
                            396 	.globl _USBPOW
                            397 	.globl _USBADDR
                            398 	.globl _CSPT
                            399 	.globl _CSPZ
                            400 	.globl _CSPY
                            401 	.globl _CSPX
                            402 	.globl _CSPSTAT
                            403 	.globl _CSPCTRL
                            404 	.globl _CSPPROG23
                            405 	.globl _CSPPROG22
                            406 	.globl _CSPPROG21
                            407 	.globl _CSPPROG20
                            408 	.globl _CSPPROG19
                            409 	.globl _CSPPROG18
                            410 	.globl _CSPPROG17
                            411 	.globl _CSPPROG16
                            412 	.globl _CSPPROG15
                            413 	.globl _CSPPROG14
                            414 	.globl _CSPPROG13
                            415 	.globl _CSPPROG12
                            416 	.globl _CSPPROG11
                            417 	.globl _CSPPROG10
                            418 	.globl _CSPPROG9
                            419 	.globl _CSPPROG8
                            420 	.globl _CSPPROG7
                            421 	.globl _CSPPROG6
                            422 	.globl _CSPPROG5
                            423 	.globl _CSPPROG4
                            424 	.globl _CSPPROG3
                            425 	.globl _CSPPROG2
                            426 	.globl _CSPPROG1
                            427 	.globl _CSPPROG0
                            428 	.globl _RFC_OBS_CTRL2
                            429 	.globl _RFC_OBS_CTRL1
                            430 	.globl _RFC_OBS_CTRL0
                            431 	.globl _TXFILTCFG
                            432 	.globl _PTEST1
                            433 	.globl _PTEST0
                            434 	.globl _ATEST
                            435 	.globl _DACTEST2
                            436 	.globl _DACTEST1
                            437 	.globl _DACTEST0
                            438 	.globl _MDMTEST1
                            439 	.globl _MDMTEST0
                            440 	.globl _ADCTEST2
                            441 	.globl _ADCTEST1
                            442 	.globl _ADCTEST0
                            443 	.globl _AGCCTRL3
                            444 	.globl _AGCCTRL2
                            445 	.globl _AGCCTRL1
                            446 	.globl _AGCCTRL0
                            447 	.globl _FSCAL3
                            448 	.globl _FSCAL2
                            449 	.globl _FSCAL1
                            450 	.globl _FSCAL0
                            451 	.globl _FSCTRL
                            452 	.globl _RXCTRL
                            453 	.globl _FREQEST
                            454 	.globl _MDMCTRL1
                            455 	.globl _MDMCTRL0
                            456 	.globl _RFRND
                            457 	.globl _RFERRM
                            458 	.globl _RFIRQM1
                            459 	.globl _RFIRQM0
                            460 	.globl _TXLAST_PTR
                            461 	.globl _TXFIRST_PTR
                            462 	.globl _RXP1_PTR
                            463 	.globl _RXLAST_PTR
                            464 	.globl _RXFIRST_PTR
                            465 	.globl _TXFIFOCNT
                            466 	.globl _RXFIFOCNT
                            467 	.globl _RXFIRST
                            468 	.globl _RSSISTAT
                            469 	.globl _RSSI
                            470 	.globl _CCACTRL1
                            471 	.globl _CCACTRL0
                            472 	.globl _FSMCTRL
                            473 	.globl _FIFOPCTRL
                            474 	.globl _FSMSTAT1
                            475 	.globl _FSMSTAT0
                            476 	.globl _TXCTRL
                            477 	.globl _TXPOWER
                            478 	.globl _FREQCTRL
                            479 	.globl _FREQTUNE
                            480 	.globl _RXMASKCLR
                            481 	.globl _RXMASKSET
                            482 	.globl _RXENABLE
                            483 	.globl _FRMCTRL1
                            484 	.globl _FRMCTRL0
                            485 	.globl _SRCEXTEN2
                            486 	.globl _SRCEXTEN1
                            487 	.globl _SRCEXTEN0
                            488 	.globl _SRCSHORTEN2
                            489 	.globl _SRCSHORTEN1
                            490 	.globl _SRCSHORTEN0
                            491 	.globl _SRCMATCH
                            492 	.globl _FRMFILT1
                            493 	.globl _FRMFILT0
                            494 	.globl _SHORT_ADDR1
                            495 	.globl _SHORT_ADDR0
                            496 	.globl _PAN_ID1
                            497 	.globl _PAN_ID0
                            498 	.globl _EXT_ADDR7
                            499 	.globl _EXT_ADDR6
                            500 	.globl _EXT_ADDR5
                            501 	.globl _EXT_ADDR4
                            502 	.globl _EXT_ADDR3
                            503 	.globl _EXT_ADDR2
                            504 	.globl _EXT_ADDR1
                            505 	.globl _EXT_ADDR0
                            506 	.globl _SRCSHORTPENDEN2
                            507 	.globl _SRCSHORTPENDEN1
                            508 	.globl _SRCSHORTPENDEN0
                            509 	.globl _SRCEXTPENDEN2
                            510 	.globl _SRCEXTPENDEN1
                            511 	.globl _SRCEXTPENDEN0
                            512 	.globl _SRCRESINDEX
                            513 	.globl _SRCRESMASK2
                            514 	.globl _SRCRESMASK1
                            515 	.globl _SRCRESMASK0
                            516 	.globl _SRC_ADDR_TABLE
                            517 	.globl _TXFIFO
                            518 	.globl _RXFIFO
                            519 	.globl _RFCORE_RAM
                            520 	.globl _CMPCTL
                            521 	.globl _OPAMPS
                            522 	.globl _OPAMPC
                            523 	.globl _STCV2
                            524 	.globl _STCV1
                            525 	.globl _STCV0
                            526 	.globl _STCS
                            527 	.globl _STCC
                            528 	.globl _T1CC4H
                            529 	.globl _T1CC4L
                            530 	.globl _T1CC3H
                            531 	.globl _T1CC3L
                            532 	.globl _XX_T1CC2H
                            533 	.globl _XX_T1CC2L
                            534 	.globl _XX_T1CC1H
                            535 	.globl _XX_T1CC1L
                            536 	.globl _XX_T1CC0H
                            537 	.globl _XX_T1CC0L
                            538 	.globl _T1CCTL4
                            539 	.globl _T1CCTL3
                            540 	.globl _XX_T1CCTL2
                            541 	.globl _XX_T1CCTL1
                            542 	.globl _XX_T1CCTL0
                            543 	.globl _CLD
                            544 	.globl _IRCTL
                            545 	.globl _CHIPINFO1
                            546 	.globl _CHIPINFO0
                            547 	.globl _FWDATA
                            548 	.globl _FADDRH
                            549 	.globl _FADDRL
                            550 	.globl _FCTL
                            551 	.globl _IVCTRL
                            552 	.globl _BATTMON
                            553 	.globl _SRCRC
                            554 	.globl _DBGDATA
                            555 	.globl _TESTREG0
                            556 	.globl _CHIPID
                            557 	.globl _CHVER
                            558 	.globl _OBSSEL5
                            559 	.globl _OBSSEL4
                            560 	.globl _OBSSEL3
                            561 	.globl _OBSSEL2
                            562 	.globl _OBSSEL1
                            563 	.globl _OBSSEL0
                            564 	.globl _I2CIO
                            565 	.globl _I2CWC
                            566 	.globl _I2CADDR
                            567 	.globl _I2CDATA
                            568 	.globl _I2CSTAT
                            569 	.globl _I2CCFG
                            570 	.globl _OPAMPMC
                            571 	.globl _MONMUX
                            572 	.globl _uip_chksum
                            573 	.globl _uip_ipchksum
                            574 	.globl _uip_icmp6chksum
                            575 	.globl _uip_udpchksum
                            576 	.globl _uip_init
                            577 	.globl _uip_udp_new
                            578 	.globl _uip_process
                            579 	.globl _uip_htons
                            580 	.globl _uip_htonl
                            581 	.globl _uip_send
                            582 ;--------------------------------------------------------
                            583 ; special function registers
                            584 ;--------------------------------------------------------
                            585 	.area RSEG    (ABS,DATA)
   0000                     586 	.org 0x0000
                    0080    587 _P0	=	0x0080
                    0081    588 _SP	=	0x0081
                    0082    589 _DPL0	=	0x0082
                    0083    590 _DPH0	=	0x0083
                    0084    591 _DPL1	=	0x0084
                    0085    592 _DPH1	=	0x0085
                    0087    593 _PCON	=	0x0087
                    0088    594 _TCON	=	0x0088
                    0090    595 _P1	=	0x0090
                    0092    596 _DPS	=	0x0092
                    0098    597 _S0CON	=	0x0098
                    009A    598 _IEN2	=	0x009a
                    009B    599 _S1CON	=	0x009b
                    00A0    600 _P2	=	0x00a0
                    00A8    601 _IEN0	=	0x00a8
                    00A9    602 _IP0	=	0x00a9
                    00B8    603 _IEN1	=	0x00b8
                    00B9    604 _IP1	=	0x00b9
                    00C0    605 _IRCON	=	0x00c0
                    00D0    606 _PSW	=	0x00d0
                    00E0    607 _ACC	=	0x00e0
                    00E8    608 _IRCON2	=	0x00e8
                    00F0    609 _B	=	0x00f0
                    00B4    610 _ADCCON1	=	0x00b4
                    00B5    611 _ADCCON2	=	0x00b5
                    00B6    612 _ADCCON3	=	0x00b6
                    00BA    613 _ADCL	=	0x00ba
                    00BB    614 _ADCH	=	0x00bb
                    00BC    615 _RNDL	=	0x00bc
                    00BD    616 _RNDH	=	0x00bd
                    00B1    617 _ENCDI	=	0x00b1
                    00B2    618 _ENCDO	=	0x00b2
                    00B3    619 _ENCCS	=	0x00b3
                    00D1    620 _DMAIRQ	=	0x00d1
                    00D2    621 _DMA1CFGL	=	0x00d2
                    00D3    622 _DMA1CFGH	=	0x00d3
                    00D4    623 _DMA0CFGL	=	0x00d4
                    00D5    624 _DMA0CFGH	=	0x00d5
                    00D6    625 _DMAARM	=	0x00d6
                    00D7    626 _DMAREQ	=	0x00d7
                    0089    627 _P0IFG	=	0x0089
                    008A    628 _P1IFG	=	0x008a
                    008B    629 _P2IFG	=	0x008b
                    008C    630 _PICTL	=	0x008c
                    00AB    631 _P0IEN	=	0x00ab
                    008D    632 _P1IEN	=	0x008d
                    00AC    633 _P2IEN	=	0x00ac
                    008F    634 _P0INP	=	0x008f
                    00F1    635 _PERCFG	=	0x00f1
                    00F2    636 _APCFG	=	0x00f2
                    00F3    637 _P0SEL	=	0x00f3
                    00F4    638 _P1SEL	=	0x00f4
                    00F5    639 _P2SEL	=	0x00f5
                    00F6    640 _P1INP	=	0x00f6
                    00F7    641 _P2INP	=	0x00f7
                    00FD    642 _P0DIR	=	0x00fd
                    00FE    643 _P1DIR	=	0x00fe
                    00FF    644 _P2DIR	=	0x00ff
                    00AE    645 _PMUX	=	0x00ae
                    0093    646 _MPAGE	=	0x0093
                    0093    647 __XPAGE	=	0x0093
                    00C7    648 _MEMCTR	=	0x00c7
                    009F    649 _FMAP	=	0x009f
                    009F    650 _PSBANK	=	0x009f
                    0091    651 _RFIRQF1	=	0x0091
                    00D9    652 _RFD	=	0x00d9
                    00E1    653 _RFST	=	0x00e1
                    00E9    654 _RFIRQF0	=	0x00e9
                    00BF    655 _RFERRF	=	0x00bf
                    0095    656 _ST0	=	0x0095
                    0096    657 _ST1	=	0x0096
                    0097    658 _ST2	=	0x0097
                    00AD    659 _STLOAD	=	0x00ad
                    00BE    660 _SLEEPCMD	=	0x00be
                    009D    661 _SLEEPSTA	=	0x009d
                    00C6    662 _CLKCONCMD	=	0x00c6
                    009E    663 _CLKCONSTA	=	0x009e
                    00DA    664 _T1CC0L	=	0x00da
                    00DB    665 _T1CC0H	=	0x00db
                    00DC    666 _T1CC1L	=	0x00dc
                    00DD    667 _T1CC1H	=	0x00dd
                    00DE    668 _T1CC2L	=	0x00de
                    00DF    669 _T1CC2H	=	0x00df
                    00E2    670 _T1CNTL	=	0x00e2
                    00E3    671 _T1CNTH	=	0x00e3
                    00E4    672 _T1CTL	=	0x00e4
                    00E5    673 _T1CCTL0	=	0x00e5
                    00E6    674 _T1CCTL1	=	0x00e6
                    00E7    675 _T1CCTL2	=	0x00e7
                    00AF    676 _T1STAT	=	0x00af
                    0094    677 _T2CTRL	=	0x0094
                    009C    678 _T2EVTCFG	=	0x009c
                    00A1    679 _T2IRQF	=	0x00a1
                    00A2    680 _T2M0	=	0x00a2
                    00A3    681 _T2M1	=	0x00a3
                    00A4    682 _T2MOVF0	=	0x00a4
                    00A5    683 _T2MOVF1	=	0x00a5
                    00A6    684 _T2MOVF2	=	0x00a6
                    00A7    685 _T2IRQM	=	0x00a7
                    00C3    686 _T2MSEL	=	0x00c3
                    00CA    687 _T3CNT	=	0x00ca
                    00CB    688 _T3CTL	=	0x00cb
                    00CC    689 _T3CCTL0	=	0x00cc
                    00CD    690 _T3CC0	=	0x00cd
                    00CE    691 _T3CCTL1	=	0x00ce
                    00CF    692 _T3CC1	=	0x00cf
                    00EA    693 _T4CNT	=	0x00ea
                    00EB    694 _T4CTL	=	0x00eb
                    00EC    695 _T4CCTL0	=	0x00ec
                    00ED    696 _T4CC0	=	0x00ed
                    00EE    697 _T4CCTL1	=	0x00ee
                    00EF    698 _T4CC1	=	0x00ef
                    00D8    699 _TIMIF	=	0x00d8
                    0086    700 _U0CSR	=	0x0086
                    00C1    701 _U0DBUF	=	0x00c1
                    00C2    702 _U0BAUD	=	0x00c2
                    00C4    703 _U0UCR	=	0x00c4
                    00C5    704 _U0GCR	=	0x00c5
                    00F8    705 _U1CSR	=	0x00f8
                    00F9    706 _U1DBUF	=	0x00f9
                    00FA    707 _U1BAUD	=	0x00fa
                    00FB    708 _U1UCR	=	0x00fb
                    00FC    709 _U1GCR	=	0x00fc
                    00C9    710 _WDCTL	=	0x00c9
                            711 ;--------------------------------------------------------
                            712 ; special function bits
                            713 ;--------------------------------------------------------
                            714 	.area RSEG    (ABS,DATA)
   0000                     715 	.org 0x0000
                    0087    716 _P0_7	=	0x0087
                    0086    717 _P0_6	=	0x0086
                    0085    718 _P0_5	=	0x0085
                    0084    719 _P0_4	=	0x0084
                    0083    720 _P0_3	=	0x0083
                    0082    721 _P0_2	=	0x0082
                    0081    722 _P0_1	=	0x0081
                    0080    723 _P0_0	=	0x0080
                    008F    724 _URX1IF	=	0x008f
                    008D    725 _ADCIF	=	0x008d
                    008B    726 _URX0IF	=	0x008b
                    008A    727 _IT1	=	0x008a
                    0089    728 _RFERRIF	=	0x0089
                    0088    729 _IT0	=	0x0088
                    0097    730 _P1_7	=	0x0097
                    0096    731 _P1_6	=	0x0096
                    0095    732 _P1_5	=	0x0095
                    0094    733 _P1_4	=	0x0094
                    0093    734 _P1_3	=	0x0093
                    0092    735 _P1_2	=	0x0092
                    0091    736 _P1_1	=	0x0091
                    0090    737 _P1_0	=	0x0090
                    0099    738 _ENCIF_1	=	0x0099
                    0098    739 _ENCIF_0	=	0x0098
                    00A7    740 _P2_7	=	0x00a7
                    00A6    741 _P2_6	=	0x00a6
                    00A5    742 _P2_5	=	0x00a5
                    00A4    743 _P2_4	=	0x00a4
                    00A3    744 _P2_3	=	0x00a3
                    00A2    745 _P2_2	=	0x00a2
                    00A1    746 _P2_1	=	0x00a1
                    00A0    747 _P2_0	=	0x00a0
                    00AF    748 _EA	=	0x00af
                    00AD    749 _STIE	=	0x00ad
                    00AC    750 _ENCIE	=	0x00ac
                    00AB    751 _URX1IE	=	0x00ab
                    00AA    752 _URX0IE	=	0x00aa
                    00A9    753 _ADCIE	=	0x00a9
                    00A8    754 _RFERRIE	=	0x00a8
                    00BD    755 _P0IE	=	0x00bd
                    00BC    756 _T4IE	=	0x00bc
                    00BB    757 _T3IE	=	0x00bb
                    00BA    758 _T2IE	=	0x00ba
                    00B9    759 _T1IE	=	0x00b9
                    00B8    760 _DMAIE	=	0x00b8
                    00C7    761 _STIF	=	0x00c7
                    00C5    762 _P0IF	=	0x00c5
                    00C4    763 _T4IF	=	0x00c4
                    00C3    764 _T3IF	=	0x00c3
                    00C2    765 _T2IF	=	0x00c2
                    00C1    766 _T1IF	=	0x00c1
                    00C0    767 _DMAIF	=	0x00c0
                    00D7    768 _CY	=	0x00d7
                    00D6    769 _AC	=	0x00d6
                    00D5    770 _F0	=	0x00d5
                    00D4    771 _RS1	=	0x00d4
                    00D3    772 _RS0	=	0x00d3
                    00D2    773 _OV	=	0x00d2
                    00D1    774 _F1	=	0x00d1
                    00D0    775 _P	=	0x00d0
                    00E7    776 _ACC_7	=	0x00e7
                    00E6    777 _ACC_6	=	0x00e6
                    00E5    778 _ACC_5	=	0x00e5
                    00E4    779 _ACC_4	=	0x00e4
                    00E3    780 _ACC_3	=	0x00e3
                    00E2    781 _ACC_2	=	0x00e2
                    00E1    782 _ACC_1	=	0x00e1
                    00E0    783 _ACC_0	=	0x00e0
                    00EC    784 _WDTIF	=	0x00ec
                    00EB    785 _P1IF	=	0x00eb
                    00EA    786 _UTX1IF	=	0x00ea
                    00E9    787 _UTX0IF	=	0x00e9
                    00E8    788 _P2IF	=	0x00e8
                    00F7    789 _B_7	=	0x00f7
                    00F6    790 _B_6	=	0x00f6
                    00F5    791 _B_5	=	0x00f5
                    00F4    792 _B_4	=	0x00f4
                    00F3    793 _B_3	=	0x00f3
                    00F2    794 _B_2	=	0x00f2
                    00F1    795 _B_1	=	0x00f1
                    00F0    796 _B_0	=	0x00f0
                    00DE    797 _OVFIM	=	0x00de
                    00DD    798 _T4CH1IF	=	0x00dd
                    00DC    799 _T4CH0IF	=	0x00dc
                    00DB    800 _T4OVFIF	=	0x00db
                    00DA    801 _T3CH1IF	=	0x00da
                    00D9    802 _T3CH0IF	=	0x00d9
                    00D8    803 _T3OVFIF	=	0x00d8
                    00FF    804 _MODE	=	0x00ff
                    00FE    805 _RE	=	0x00fe
                    00FD    806 _SLAVE	=	0x00fd
                    00FC    807 _FE	=	0x00fc
                    00FB    808 _ERR	=	0x00fb
                    00FA    809 _RX_BYTE	=	0x00fa
                    00F9    810 _TX_BYTE	=	0x00f9
                    00F8    811 _ACTIVE	=	0x00f8
                            812 ;--------------------------------------------------------
                            813 ; overlayable register banks
                            814 ;--------------------------------------------------------
                            815 	.area REG_BANK_0	(REL,OVR,DATA)
   0000                     816 	.ds 8
                            817 ;--------------------------------------------------------
                            818 ; internal ram data
                            819 ;--------------------------------------------------------
                            820 	.area DSEG    (DATA)
                            821 ;--------------------------------------------------------
                            822 ; overlayable items in internal ram 
                            823 ;--------------------------------------------------------
                            824 	.area OSEG    (OVR,DATA)
                            825 ;--------------------------------------------------------
                            826 ; indirectly addressable internal ram data
                            827 ;--------------------------------------------------------
                            828 	.area ISEG    (DATA)
                            829 ;--------------------------------------------------------
                            830 ; absolute internal ram data
                            831 ;--------------------------------------------------------
                            832 	.area IABS    (ABS,DATA)
                            833 	.area IABS    (ABS,DATA)
                            834 ;--------------------------------------------------------
                            835 ; bit data
                            836 ;--------------------------------------------------------
                            837 	.area BSEG    (BIT)
                            838 ;--------------------------------------------------------
                            839 ; paged external ram data
                            840 ;--------------------------------------------------------
                            841 	.area PSEG    (PAG,XDATA)
                            842 ;--------------------------------------------------------
                            843 ; external ram data
                            844 ;--------------------------------------------------------
                            845 	.area XSEG    (XDATA)
                    61A6    846 _MONMUX	=	0x61a6
                    61A6    847 _OPAMPMC	=	0x61a6
                    6230    848 _I2CCFG	=	0x6230
                    6231    849 _I2CSTAT	=	0x6231
                    6232    850 _I2CDATA	=	0x6232
                    6233    851 _I2CADDR	=	0x6233
                    6234    852 _I2CWC	=	0x6234
                    6235    853 _I2CIO	=	0x6235
                    6243    854 _OBSSEL0	=	0x6243
                    6244    855 _OBSSEL1	=	0x6244
                    6245    856 _OBSSEL2	=	0x6245
                    6246    857 _OBSSEL3	=	0x6246
                    6247    858 _OBSSEL4	=	0x6247
                    6248    859 _OBSSEL5	=	0x6248
                    6249    860 _CHVER	=	0x6249
                    624A    861 _CHIPID	=	0x624a
                    624B    862 _TESTREG0	=	0x624b
                    6260    863 _DBGDATA	=	0x6260
                    6262    864 _SRCRC	=	0x6262
                    6264    865 _BATTMON	=	0x6264
                    6265    866 _IVCTRL	=	0x6265
                    6270    867 _FCTL	=	0x6270
                    6271    868 _FADDRL	=	0x6271
                    6272    869 _FADDRH	=	0x6272
                    6273    870 _FWDATA	=	0x6273
                    6276    871 _CHIPINFO0	=	0x6276
                    6277    872 _CHIPINFO1	=	0x6277
                    6281    873 _IRCTL	=	0x6281
                    6290    874 _CLD	=	0x6290
                    62A0    875 _XX_T1CCTL0	=	0x62a0
                    62A1    876 _XX_T1CCTL1	=	0x62a1
                    62A2    877 _XX_T1CCTL2	=	0x62a2
                    62A3    878 _T1CCTL3	=	0x62a3
                    62A4    879 _T1CCTL4	=	0x62a4
                    62A6    880 _XX_T1CC0L	=	0x62a6
                    62A7    881 _XX_T1CC0H	=	0x62a7
                    62A8    882 _XX_T1CC1L	=	0x62a8
                    62A9    883 _XX_T1CC1H	=	0x62a9
                    62AA    884 _XX_T1CC2L	=	0x62aa
                    62AB    885 _XX_T1CC2H	=	0x62ab
                    62AC    886 _T1CC3L	=	0x62ac
                    62AD    887 _T1CC3H	=	0x62ad
                    62AE    888 _T1CC4L	=	0x62ae
                    62AF    889 _T1CC4H	=	0x62af
                    62B0    890 _STCC	=	0x62b0
                    62B1    891 _STCS	=	0x62b1
                    62B2    892 _STCV0	=	0x62b2
                    62B3    893 _STCV1	=	0x62b3
                    62B4    894 _STCV2	=	0x62b4
                    62C0    895 _OPAMPC	=	0x62c0
                    62C1    896 _OPAMPS	=	0x62c1
                    62D0    897 _CMPCTL	=	0x62d0
                    6000    898 _RFCORE_RAM	=	0x6000
                    6000    899 _RXFIFO	=	0x6000
                    6080    900 _TXFIFO	=	0x6080
                    6100    901 _SRC_ADDR_TABLE	=	0x6100
                    6160    902 _SRCRESMASK0	=	0x6160
                    6161    903 _SRCRESMASK1	=	0x6161
                    6162    904 _SRCRESMASK2	=	0x6162
                    6163    905 _SRCRESINDEX	=	0x6163
                    6164    906 _SRCEXTPENDEN0	=	0x6164
                    6165    907 _SRCEXTPENDEN1	=	0x6165
                    6166    908 _SRCEXTPENDEN2	=	0x6166
                    6167    909 _SRCSHORTPENDEN0	=	0x6167
                    6168    910 _SRCSHORTPENDEN1	=	0x6168
                    6169    911 _SRCSHORTPENDEN2	=	0x6169
                    616A    912 _EXT_ADDR0	=	0x616a
                    616B    913 _EXT_ADDR1	=	0x616b
                    616C    914 _EXT_ADDR2	=	0x616c
                    616D    915 _EXT_ADDR3	=	0x616d
                    616E    916 _EXT_ADDR4	=	0x616e
                    616F    917 _EXT_ADDR5	=	0x616f
                    6170    918 _EXT_ADDR6	=	0x6170
                    6171    919 _EXT_ADDR7	=	0x6171
                    6172    920 _PAN_ID0	=	0x6172
                    6173    921 _PAN_ID1	=	0x6173
                    6174    922 _SHORT_ADDR0	=	0x6174
                    6175    923 _SHORT_ADDR1	=	0x6175
                    6180    924 _FRMFILT0	=	0x6180
                    6181    925 _FRMFILT1	=	0x6181
                    6182    926 _SRCMATCH	=	0x6182
                    6183    927 _SRCSHORTEN0	=	0x6183
                    6184    928 _SRCSHORTEN1	=	0x6184
                    6185    929 _SRCSHORTEN2	=	0x6185
                    6186    930 _SRCEXTEN0	=	0x6186
                    6187    931 _SRCEXTEN1	=	0x6187
                    6188    932 _SRCEXTEN2	=	0x6188
                    6189    933 _FRMCTRL0	=	0x6189
                    618A    934 _FRMCTRL1	=	0x618a
                    618B    935 _RXENABLE	=	0x618b
                    618C    936 _RXMASKSET	=	0x618c
                    618D    937 _RXMASKCLR	=	0x618d
                    618E    938 _FREQTUNE	=	0x618e
                    618F    939 _FREQCTRL	=	0x618f
                    6190    940 _TXPOWER	=	0x6190
                    6191    941 _TXCTRL	=	0x6191
                    6192    942 _FSMSTAT0	=	0x6192
                    6193    943 _FSMSTAT1	=	0x6193
                    6194    944 _FIFOPCTRL	=	0x6194
                    6195    945 _FSMCTRL	=	0x6195
                    6196    946 _CCACTRL0	=	0x6196
                    6197    947 _CCACTRL1	=	0x6197
                    6198    948 _RSSI	=	0x6198
                    6199    949 _RSSISTAT	=	0x6199
                    619A    950 _RXFIRST	=	0x619a
                    619B    951 _RXFIFOCNT	=	0x619b
                    619C    952 _TXFIFOCNT	=	0x619c
                    619D    953 _RXFIRST_PTR	=	0x619d
                    619E    954 _RXLAST_PTR	=	0x619e
                    619F    955 _RXP1_PTR	=	0x619f
                    61A1    956 _TXFIRST_PTR	=	0x61a1
                    61A2    957 _TXLAST_PTR	=	0x61a2
                    61A3    958 _RFIRQM0	=	0x61a3
                    61A4    959 _RFIRQM1	=	0x61a4
                    61A5    960 _RFERRM	=	0x61a5
                    61A7    961 _RFRND	=	0x61a7
                    61A8    962 _MDMCTRL0	=	0x61a8
                    61A9    963 _MDMCTRL1	=	0x61a9
                    61AA    964 _FREQEST	=	0x61aa
                    61AB    965 _RXCTRL	=	0x61ab
                    61AC    966 _FSCTRL	=	0x61ac
                    61AD    967 _FSCAL0	=	0x61ad
                    61AE    968 _FSCAL1	=	0x61ae
                    61AF    969 _FSCAL2	=	0x61af
                    61B0    970 _FSCAL3	=	0x61b0
                    61B1    971 _AGCCTRL0	=	0x61b1
                    61B2    972 _AGCCTRL1	=	0x61b2
                    61B3    973 _AGCCTRL2	=	0x61b3
                    61B4    974 _AGCCTRL3	=	0x61b4
                    61B5    975 _ADCTEST0	=	0x61b5
                    61B6    976 _ADCTEST1	=	0x61b6
                    61B7    977 _ADCTEST2	=	0x61b7
                    61B8    978 _MDMTEST0	=	0x61b8
                    61B9    979 _MDMTEST1	=	0x61b9
                    61BA    980 _DACTEST0	=	0x61ba
                    61BB    981 _DACTEST1	=	0x61bb
                    61BC    982 _DACTEST2	=	0x61bc
                    61BD    983 _ATEST	=	0x61bd
                    61BE    984 _PTEST0	=	0x61be
                    61BF    985 _PTEST1	=	0x61bf
                    61FA    986 _TXFILTCFG	=	0x61fa
                    61EB    987 _RFC_OBS_CTRL0	=	0x61eb
                    61EC    988 _RFC_OBS_CTRL1	=	0x61ec
                    61ED    989 _RFC_OBS_CTRL2	=	0x61ed
                    61C0    990 _CSPPROG0	=	0x61c0
                    61C1    991 _CSPPROG1	=	0x61c1
                    61C2    992 _CSPPROG2	=	0x61c2
                    61C3    993 _CSPPROG3	=	0x61c3
                    61C4    994 _CSPPROG4	=	0x61c4
                    61C5    995 _CSPPROG5	=	0x61c5
                    61C6    996 _CSPPROG6	=	0x61c6
                    61C7    997 _CSPPROG7	=	0x61c7
                    61C8    998 _CSPPROG8	=	0x61c8
                    61C9    999 _CSPPROG9	=	0x61c9
                    61CA   1000 _CSPPROG10	=	0x61ca
                    61CB   1001 _CSPPROG11	=	0x61cb
                    61CC   1002 _CSPPROG12	=	0x61cc
                    61CD   1003 _CSPPROG13	=	0x61cd
                    61CE   1004 _CSPPROG14	=	0x61ce
                    61CF   1005 _CSPPROG15	=	0x61cf
                    61D0   1006 _CSPPROG16	=	0x61d0
                    61D1   1007 _CSPPROG17	=	0x61d1
                    61D2   1008 _CSPPROG18	=	0x61d2
                    61D3   1009 _CSPPROG19	=	0x61d3
                    61D4   1010 _CSPPROG20	=	0x61d4
                    61D5   1011 _CSPPROG21	=	0x61d5
                    61D6   1012 _CSPPROG22	=	0x61d6
                    61D7   1013 _CSPPROG23	=	0x61d7
                    61E0   1014 _CSPCTRL	=	0x61e0
                    61E1   1015 _CSPSTAT	=	0x61e1
                    61E2   1016 _CSPX	=	0x61e2
                    61E3   1017 _CSPY	=	0x61e3
                    61E4   1018 _CSPZ	=	0x61e4
                    61E5   1019 _CSPT	=	0x61e5
                    6200   1020 _USBADDR	=	0x6200
                    6201   1021 _USBPOW	=	0x6201
                    6202   1022 _USBIIF	=	0x6202
                    6204   1023 _USBOIF	=	0x6204
                    6206   1024 _USBCIF	=	0x6206
                    6207   1025 _USBIIE	=	0x6207
                    6209   1026 _USBOIE	=	0x6209
                    620B   1027 _USBCIE	=	0x620b
                    620C   1028 _USBFRML	=	0x620c
                    620D   1029 _USBFRMH	=	0x620d
                    620E   1030 _USBINDEX	=	0x620e
                    620F   1031 _USBCTRL	=	0x620f
                    6210   1032 _USBMAXI	=	0x6210
                    6211   1033 _USBCS0	=	0x6211
                    6211   1034 _USBCSIL	=	0x6211
                    6212   1035 _USBCSIH	=	0x6212
                    6213   1036 _USBMAXO	=	0x6213
                    6214   1037 _USBCSOL	=	0x6214
                    6215   1038 _USBCSOH	=	0x6215
                    6216   1039 _USBCNT0	=	0x6216
                    6216   1040 _USBCNTL	=	0x6216
                    6217   1041 _USBCNTH	=	0x6217
                    6220   1042 _USBF0	=	0x6220
                    6222   1043 _USBF1	=	0x6222
                    6224   1044 _USBF2	=	0x6224
                    6226   1045 _USBF3	=	0x6226
                    6228   1046 _USBF4	=	0x6228
                    622A   1047 _USBF5	=	0x622a
                    7080   1048 _X_P0	=	0x7080
                    7086   1049 _X_U0CSR	=	0x7086
                    7089   1050 _X_P0IFG	=	0x7089
                    708A   1051 _X_P1IFG	=	0x708a
                    708B   1052 _X_P2IFG	=	0x708b
                    708C   1053 _X_PICTL	=	0x708c
                    708D   1054 _X_P1IEN	=	0x708d
                    708F   1055 _X_P0INP	=	0x708f
                    7090   1056 _X_P1	=	0x7090
                    7091   1057 _X_RFIRQF1	=	0x7091
                    7093   1058 _X_MPAGE	=	0x7093
                    7093   1059 _X__XPAGE	=	0x7093
                    7094   1060 _X_T2CTRL	=	0x7094
                    7095   1061 _X_ST0	=	0x7095
                    7096   1062 _X_ST1	=	0x7096
                    7097   1063 _X_ST2	=	0x7097
                    709C   1064 _X_T2EVTCFG	=	0x709c
                    709D   1065 _X_SLEEPSTA	=	0x709d
                    709E   1066 _X_CLKCONSTA	=	0x709e
                    709F   1067 _X_FMAP	=	0x709f
                    709F   1068 _X_PSBANK	=	0x709f
                    70A0   1069 _X_P2	=	0x70a0
                    70A1   1070 _X_T2IRQF	=	0x70a1
                    70A2   1071 _X_T2M0	=	0x70a2
                    70A3   1072 _X_T2M1	=	0x70a3
                    70A4   1073 _X_T2MOVF0	=	0x70a4
                    70A5   1074 _X_T2MOVF1	=	0x70a5
                    70A6   1075 _X_T2MOVF2	=	0x70a6
                    70A7   1076 _X_T2IRQM	=	0x70a7
                    70AB   1077 _X_P0IEN	=	0x70ab
                    70AC   1078 _X_P2IEN	=	0x70ac
                    70AD   1079 _X_STLOAD	=	0x70ad
                    70AE   1080 _X_PMUX	=	0x70ae
                    70AF   1081 _X_T1STAT	=	0x70af
                    70B1   1082 _X_ENCDI	=	0x70b1
                    70B2   1083 _X_ENCDO	=	0x70b2
                    70B3   1084 _X_ENCCS	=	0x70b3
                    70B4   1085 _X_ADCCON1	=	0x70b4
                    70B5   1086 _X_ADCCON2	=	0x70b5
                    70B6   1087 _X_ADCCON3	=	0x70b6
                    70BA   1088 _X_ADCL	=	0x70ba
                    70BB   1089 _X_ADCH	=	0x70bb
                    70BC   1090 _X_RNDL	=	0x70bc
                    70BD   1091 _X_RNDH	=	0x70bd
                    70BE   1092 _X_SLEEPCMD	=	0x70be
                    70BF   1093 _X_RFERRF	=	0x70bf
                    70C1   1094 _X_U0DBUF	=	0x70c1
                    70C2   1095 _X_U0BAUD	=	0x70c2
                    70C3   1096 _X_T2MSEL	=	0x70c3
                    70C4   1097 _X_U0UCR	=	0x70c4
                    70C5   1098 _X_U0GCR	=	0x70c5
                    70C6   1099 _X_CLKCONCMD	=	0x70c6
                    70C7   1100 _X_MEMCTR	=	0x70c7
                    70C9   1101 _X_WDCTL	=	0x70c9
                    70CA   1102 _X_T3CNT	=	0x70ca
                    70CB   1103 _X_T3CTL	=	0x70cb
                    70CC   1104 _X_T3CCTL0	=	0x70cc
                    70CD   1105 _X_T3CC0	=	0x70cd
                    70CE   1106 _X_T3CCTL1	=	0x70ce
                    70CF   1107 _X_T3CC1	=	0x70cf
                    70D1   1108 _X_DMAIRQ	=	0x70d1
                    70D2   1109 _X_DMA1CFGL	=	0x70d2
                    70D3   1110 _X_DMA1CFGH	=	0x70d3
                    70D4   1111 _X_DMA0CFGL	=	0x70d4
                    70D5   1112 _X_DMA0CFGH	=	0x70d5
                    70D6   1113 _X_DMAARM	=	0x70d6
                    70D7   1114 _X_DMAREQ	=	0x70d7
                    70D8   1115 _X_TIMIF	=	0x70d8
                    70D9   1116 _X_RFD	=	0x70d9
                    70DA   1117 _X_T1CC0L	=	0x70da
                    70DB   1118 _X_T1CC0H	=	0x70db
                    70DC   1119 _X_T1CC1L	=	0x70dc
                    70DD   1120 _X_T1CC1H	=	0x70dd
                    70DE   1121 _X_T1CC2L	=	0x70de
                    70DF   1122 _X_T1CC2H	=	0x70df
                    70E1   1123 _X_RFST	=	0x70e1
                    70E2   1124 _X_T1CNTL	=	0x70e2
                    70E3   1125 _X_T1CNTH	=	0x70e3
                    70E4   1126 _X_T1CTL	=	0x70e4
                    70E5   1127 _X_T1CCTL0	=	0x70e5
                    70E6   1128 _X_T1CCTL1	=	0x70e6
                    70E7   1129 _X_T1CCTL2	=	0x70e7
                    70E9   1130 _X_RFIRQF0	=	0x70e9
                    70EA   1131 _X_T4CNT	=	0x70ea
                    70EB   1132 _X_T4CTL	=	0x70eb
                    70EC   1133 _X_T4CCTL0	=	0x70ec
                    70ED   1134 _X_T4CC0	=	0x70ed
                    70EE   1135 _X_T4CCTL1	=	0x70ee
                    70EF   1136 _X_T4CC1	=	0x70ef
                    70F1   1137 _X_PERCFG	=	0x70f1
                    70F2   1138 _X_APCFG	=	0x70f2
                    70F3   1139 _X_P0SEL	=	0x70f3
                    70F4   1140 _X_P1SEL	=	0x70f4
                    70F5   1141 _X_P2SEL	=	0x70f5
                    70F6   1142 _X_P1INP	=	0x70f6
                    70F7   1143 _X_P2INP	=	0x70f7
                    70F8   1144 _X_U1CSR	=	0x70f8
                    70F9   1145 _X_U1DBUF	=	0x70f9
                    70FA   1146 _X_U1BAUD	=	0x70fa
                    70FB   1147 _X_U1UCR	=	0x70fb
                    70FC   1148 _X_U1GCR	=	0x70fc
                    70FD   1149 _X_P0DIR	=	0x70fd
                    70FE   1150 _X_P1DIR	=	0x70fe
                    70FF   1151 _X_P2DIR	=	0x70ff
                    7800   1152 _X_INFOPAGE	=	0x7800
                    780C   1153 _X_IEEE_ADDR	=	0x780c
   0000                    1154 _uip_lladdr::
   0000                    1155 	.ds 8
   0008                    1156 _uip_next_hdr::
   0008                    1157 	.ds 3
   000B                    1158 _uip_aligned_buf::
   000B                    1159 	.ds 336
   015B                    1160 _uip_appdata::
   015B                    1161 	.ds 3
   015E                    1162 _uip_sappdata::
   015E                    1163 	.ds 3
   0161                    1164 _uip_len::
   0161                    1165 	.ds 2
   0163                    1166 _uip_slen::
   0163                    1167 	.ds 2
   0165                    1168 _uip_flags::
   0165                    1169 	.ds 1
   0166                    1170 _uip_conn::
   0166                    1171 	.ds 3
   0169                    1172 _c:
   0169                    1173 	.ds 1
   016A                    1174 _lastport:
   016A                    1175 	.ds 2
   016C                    1176 _uip_udp_conn::
   016C                    1177 	.ds 3
   016F                    1178 _uip_udp_conns::
   016F                    1179 	.ds 270
                           1180 ;--------------------------------------------------------
                           1181 ; absolute external ram data
                           1182 ;--------------------------------------------------------
                           1183 	.area XABS    (ABS,XDATA)
                           1184 ;--------------------------------------------------------
                           1185 ; external initialized ram data
                           1186 ;--------------------------------------------------------
                           1187 	.area XISEG   (XDATA)
   0000                    1188 _uip_ext_bitmap::
   0000                    1189 	.ds 1
   0001                    1190 _uip_ext_len::
   0001                    1191 	.ds 1
   0002                    1192 _uip_ext_opt_offset::
   0002                    1193 	.ds 1
                           1194 	.area HOME    (CODE)
                           1195 	.area GSINIT0 (CODE)
                           1196 	.area GSINIT1 (CODE)
                           1197 	.area GSINIT2 (CODE)
                           1198 	.area GSINIT3 (CODE)
                           1199 	.area GSINIT4 (CODE)
                           1200 	.area GSINIT5 (CODE)
                           1201 	.area GSINIT  (CODE)
                           1202 	.area GSFINAL (CODE)
                           1203 	.area CSEG    (CODE)
                           1204 ;--------------------------------------------------------
                           1205 ; global & static initialisations
                           1206 ;--------------------------------------------------------
                           1207 	.area HOME    (CODE)
                           1208 	.area GSINIT  (CODE)
                           1209 	.area GSFINAL (CODE)
                           1210 	.area GSINIT  (CODE)
                           1211 ;--------------------------------------------------------
                           1212 ; Home
                           1213 ;--------------------------------------------------------
                           1214 	.area HOME    (CODE)
                           1215 	.area HOME    (CODE)
                           1216 ;--------------------------------------------------------
                           1217 ; code
                           1218 ;--------------------------------------------------------
                           1219 	.area BANK1   (CODE)
                           1220 ;------------------------------------------------------------
                           1221 ;Allocation info for local variables in function 'chksum'
                           1222 ;------------------------------------------------------------
                           1223 ;data                      Allocated to stack - sp -12
                           1224 ;len                       Allocated to stack - sp -14
                           1225 ;sum                       Allocated to stack - sp -6
                           1226 ;t                         Allocated to registers r3 r7 
                           1227 ;dataptr                   Allocated to registers r7 r6 r3 
                           1228 ;last_byte                 Allocated to stack - sp -4
                           1229 ;sloc0                     Allocated to stack - sp -1
                           1230 ;------------------------------------------------------------
                           1231 ;	../../../contiki-sensinode//core/net/uip6.c:302: chksum(uint16_t sum, const uint8_t *data, uint16_t len)
                           1232 ;	-----------------------------------------
                           1233 ;	 function chksum
                           1234 ;	-----------------------------------------
   0000                    1235 _chksum:
                    0007   1236 	ar7 = 0x07
                    0006   1237 	ar6 = 0x06
                    0005   1238 	ar5 = 0x05
                    0004   1239 	ar4 = 0x04
                    0003   1240 	ar3 = 0x03
                    0002   1241 	ar2 = 0x02
                    0001   1242 	ar1 = 0x01
                    0000   1243 	ar0 = 0x00
   0000 C0 82              1244 	push	dpl
   0002 C0 83              1245 	push	dph
   0004 E5 81              1246 	mov	a,sp
   0006 24 05              1247 	add	a,#0x05
                           1248 ;	../../../contiki-sensinode//core/net/uip6.c:308: dataptr = data;
   0008 F5 81              1249 	mov	sp,a
   000A 24 F4              1250 	add	a,#0xf4
   000C F8                 1251 	mov	r0,a
   000D 86 07              1252 	mov	ar7,@r0
   000F 08                 1253 	inc	r0
   0010 86 06              1254 	mov	ar6,@r0
   0012 08                 1255 	inc	r0
   0013 86 03              1256 	mov	ar3,@r0
                           1257 ;	../../../contiki-sensinode//core/net/uip6.c:309: last_byte = data + len - 1;
   0015 E5 81              1258 	mov	a,sp
   0017 24 F2              1259 	add	a,#0xf2
   0019 F8                 1260 	mov	r0,a
   001A E6                 1261 	mov	a,@r0
   001B 2F                 1262 	add	a,r7
   001C FA                 1263 	mov	r2,a
   001D 08                 1264 	inc	r0
   001E E6                 1265 	mov	a,@r0
   001F 3E                 1266 	addc	a,r6
   0020 FC                 1267 	mov	r4,a
   0021 8B 05              1268 	mov	ar5,r3
   0023 E5 81              1269 	mov	a,sp
   0025 24 FC              1270 	add	a,#0xfc
   0027 F8                 1271 	mov	r0,a
   0028 EA                 1272 	mov	a,r2
   0029 24 FF              1273 	add	a,#0xFF
   002B F6                 1274 	mov	@r0,a
   002C EC                 1275 	mov	a,r4
   002D 34 FF              1276 	addc	a,#0xFF
   002F 08                 1277 	inc	r0
   0030 F6                 1278 	mov	@r0,a
   0031 08                 1279 	inc	r0
   0032 A6 05              1280 	mov	@r0,ar5
                           1281 ;	../../../contiki-sensinode//core/net/uip6.c:311: while(dataptr < last_byte) {   /* At least two more bytes */
   0034 8F 02              1282 	mov	ar2,r7
   0036 8E 04              1283 	mov	ar4,r6
   0038 8B 05              1284 	mov	ar5,r3
   003A                    1285 00103$:
   003A E5 81              1286 	mov	a,sp
   003C 24 FC              1287 	add	a,#0xfc
   003E F8                 1288 	mov	r0,a
   003F E6                 1289 	mov	a,@r0
   0040 C0 E0              1290 	push	acc
   0042 08                 1291 	inc	r0
   0043 E6                 1292 	mov	a,@r0
   0044 C0 E0              1293 	push	acc
   0046 08                 1294 	inc	r0
   0047 E6                 1295 	mov	a,@r0
   0048 C0 E0              1296 	push	acc
   004A 8A 82              1297 	mov	dpl,r2
   004C 8C 83              1298 	mov	dph,r4
   004E 8D F0              1299 	mov	b,r5
   0050 12s00r00           1300 	lcall	___gptr_cmp
   0053 15 81              1301 	dec	sp
   0055 15 81              1302 	dec	sp
   0057 15 81              1303 	dec	sp
   0059 50 5E              1304 	jnc	00105$
                           1305 ;	../../../contiki-sensinode//core/net/uip6.c:312: t = (dataptr[0] << 8) + dataptr[1];
   005B 8A 82              1306 	mov	dpl,r2
   005D 8C 83              1307 	mov	dph,r4
   005F 8D F0              1308 	mov	b,r5
   0061 12s00r00           1309 	lcall	__gptrget
   0064 FB                 1310 	mov	r3,a
   0065 A8 81              1311 	mov	r0,sp
   0067 A6 03              1312 	mov	@r0,ar3
   0069 18                 1313 	dec	r0
   006A 76 00              1314 	mov	@r0,#0x00
   006C 74 01              1315 	mov	a,#0x01
   006E 2A                 1316 	add	a,r2
   006F FB                 1317 	mov	r3,a
   0070 E4                 1318 	clr	a
   0071 3C                 1319 	addc	a,r4
   0072 FE                 1320 	mov	r6,a
   0073 8D 07              1321 	mov	ar7,r5
   0075 8B 82              1322 	mov	dpl,r3
   0077 8E 83              1323 	mov	dph,r6
   0079 8F F0              1324 	mov	b,r7
   007B 12s00r00           1325 	lcall	__gptrget
   007E FB                 1326 	mov	r3,a
   007F 7F 00              1327 	mov	r7,#0x00
   0081 A8 81              1328 	mov	r0,sp
   0083 18                 1329 	dec	r0
   0084 EB                 1330 	mov	a,r3
   0085 26                 1331 	add	a,@r0
   0086 FB                 1332 	mov	r3,a
   0087 EF                 1333 	mov	a,r7
   0088 08                 1334 	inc	r0
   0089 36                 1335 	addc	a,@r0
   008A FF                 1336 	mov	r7,a
                           1337 ;	../../../contiki-sensinode//core/net/uip6.c:313: sum += t;
   008B E5 81              1338 	mov	a,sp
   008D 24 FA              1339 	add	a,#0xfa
   008F F8                 1340 	mov	r0,a
   0090 EB                 1341 	mov	a,r3
   0091 26                 1342 	add	a,@r0
   0092 F6                 1343 	mov	@r0,a
   0093 EF                 1344 	mov	a,r7
   0094 08                 1345 	inc	r0
   0095 36                 1346 	addc	a,@r0
   0096 F6                 1347 	mov	@r0,a
                           1348 ;	../../../contiki-sensinode//core/net/uip6.c:314: if(sum < t) {
   0097 E5 81              1349 	mov	a,sp
   0099 24 FA              1350 	add	a,#0xfa
   009B F8                 1351 	mov	r0,a
   009C C3                 1352 	clr	c
   009D E6                 1353 	mov	a,@r0
   009E 9B                 1354 	subb	a,r3
   009F 08                 1355 	inc	r0
   00A0 E6                 1356 	mov	a,@r0
   00A1 9F                 1357 	subb	a,r7
   00A2 50 0B              1358 	jnc	00102$
                           1359 ;	../../../contiki-sensinode//core/net/uip6.c:315: sum++;      /* carry */
   00A4 E5 81              1360 	mov	a,sp
   00A6 24 FA              1361 	add	a,#0xfa
   00A8 F8                 1362 	mov	r0,a
   00A9 06                 1363 	inc	@r0
   00AA B6 00 02           1364 	cjne	@r0,#0x00,00125$
   00AD 08                 1365 	inc	r0
   00AE 06                 1366 	inc	@r0
   00AF                    1367 00125$:
   00AF                    1368 00102$:
                           1369 ;	../../../contiki-sensinode//core/net/uip6.c:317: dataptr += 2;
   00AF 74 02              1370 	mov	a,#0x02
   00B1 2A                 1371 	add	a,r2
   00B2 FA                 1372 	mov	r2,a
   00B3 E4                 1373 	clr	a
   00B4 3C                 1374 	addc	a,r4
   00B5 FC                 1375 	mov	r4,a
   00B6 02s00r3A           1376 	ljmp	00103$
   00B9                    1377 00105$:
                           1378 ;	../../../contiki-sensinode//core/net/uip6.c:320: if(dataptr == last_byte) {
   00B9 E5 81              1379 	mov	a,sp
   00BB 24 FC              1380 	add	a,#0xfc
   00BD F8                 1381 	mov	r0,a
   00BE C0 02              1382 	push	ar2
   00C0 C0 04              1383 	push	ar4
   00C2 C0 05              1384 	push	ar5
   00C4 86 82              1385 	mov	dpl,@r0
   00C6 08                 1386 	inc	r0
   00C7 86 83              1387 	mov	dph,@r0
   00C9 08                 1388 	inc	r0
   00CA 86 F0              1389 	mov	b,@r0
   00CC 12s00r00           1390 	lcall	___gptr_cmp
   00CF 15 81              1391 	dec	sp
   00D1 15 81              1392 	dec	sp
   00D3 15 81              1393 	dec	sp
   00D5 60 02              1394 	jz	00127$
   00D7 80 34              1395 	sjmp	00109$
   00D9                    1396 00127$:
                           1397 ;	../../../contiki-sensinode//core/net/uip6.c:321: t = (dataptr[0] << 8) + 0;
   00D9 8A 82              1398 	mov	dpl,r2
   00DB 8C 83              1399 	mov	dph,r4
   00DD 8D F0              1400 	mov	b,r5
   00DF 12s00r00           1401 	lcall	__gptrget
   00E2 FE                 1402 	mov	r6,a
   00E3 7A 00              1403 	mov	r2,#0x00
   00E5 8A 03              1404 	mov	ar3,r2
   00E7 8E 07              1405 	mov	ar7,r6
                           1406 ;	../../../contiki-sensinode//core/net/uip6.c:322: sum += t;
   00E9 E5 81              1407 	mov	a,sp
   00EB 24 FA              1408 	add	a,#0xfa
   00ED F8                 1409 	mov	r0,a
   00EE EB                 1410 	mov	a,r3
   00EF 26                 1411 	add	a,@r0
   00F0 F6                 1412 	mov	@r0,a
   00F1 EF                 1413 	mov	a,r7
   00F2 08                 1414 	inc	r0
   00F3 36                 1415 	addc	a,@r0
   00F4 F6                 1416 	mov	@r0,a
                           1417 ;	../../../contiki-sensinode//core/net/uip6.c:323: if(sum < t) {
   00F5 E5 81              1418 	mov	a,sp
   00F7 24 FA              1419 	add	a,#0xfa
   00F9 F8                 1420 	mov	r0,a
   00FA C3                 1421 	clr	c
   00FB E6                 1422 	mov	a,@r0
   00FC 9B                 1423 	subb	a,r3
   00FD 08                 1424 	inc	r0
   00FE E6                 1425 	mov	a,@r0
   00FF 9F                 1426 	subb	a,r7
   0100 50 0B              1427 	jnc	00109$
                           1428 ;	../../../contiki-sensinode//core/net/uip6.c:324: sum++;      /* carry */
   0102 E5 81              1429 	mov	a,sp
   0104 24 FA              1430 	add	a,#0xfa
   0106 F8                 1431 	mov	r0,a
   0107 06                 1432 	inc	@r0
   0108 B6 00 02           1433 	cjne	@r0,#0x00,00129$
   010B 08                 1434 	inc	r0
   010C 06                 1435 	inc	@r0
   010D                    1436 00129$:
   010D                    1437 00109$:
                           1438 ;	../../../contiki-sensinode//core/net/uip6.c:329: return sum;
   010D E5 81              1439 	mov	a,sp
   010F 24 FA              1440 	add	a,#0xfa
   0111 F8                 1441 	mov	r0,a
   0112 86 82              1442 	mov	dpl,@r0
   0114 08                 1443 	inc	r0
   0115 86 83              1444 	mov	dph,@r0
   0117 E5 81              1445 	mov	a,sp
   0119 24 F9              1446 	add	a,#0xF9
   011B F5 81              1447 	mov	sp,a
   011D 02s00r00           1448 	ljmp	__sdcc_banked_ret
                           1449 ;------------------------------------------------------------
                           1450 ;Allocation info for local variables in function 'uip_chksum'
                           1451 ;------------------------------------------------------------
                           1452 ;len                       Allocated to stack - sp -4
                           1453 ;data                      Allocated to registers r5 r6 r7 
                           1454 ;------------------------------------------------------------
                           1455 ;	../../../contiki-sensinode//core/net/uip6.c:333: uip_chksum(uint16_t *data, uint16_t len)
                           1456 ;	-----------------------------------------
                           1457 ;	 function uip_chksum
                           1458 ;	-----------------------------------------
   0120                    1459 _uip_chksum:
   0120 AD 82              1460 	mov	r5,dpl
   0122 AE 83              1461 	mov	r6,dph
   0124 AF F0              1462 	mov	r7,b
                           1463 ;	../../../contiki-sensinode//core/net/uip6.c:335: return uip_htons(chksum(0, (uint8_t *)data, len));
   0126 E5 81              1464 	mov	a,sp
   0128 24 FC              1465 	add	a,#0xfc
   012A F8                 1466 	mov	r0,a
   012B E6                 1467 	mov	a,@r0
   012C C0 E0              1468 	push	acc
   012E 08                 1469 	inc	r0
   012F E6                 1470 	mov	a,@r0
   0130 C0 E0              1471 	push	acc
   0132 C0 05              1472 	push	ar5
   0134 C0 06              1473 	push	ar6
   0136 C0 07              1474 	push	ar7
   0138 90 00 00           1475 	mov	dptr,#0x0000
   013B 78r00              1476 	mov	r0,#_chksum
   013D 79s00              1477 	mov	r1,#(_chksum >> 8)
   013F 7As00              1478 	mov	r2,#(_chksum >> 16)
   0141 12s00r00           1479 	lcall	__sdcc_banked_call
   0144 AE 82              1480 	mov	r6,dpl
   0146 AF 83              1481 	mov	r7,dph
   0148 E5 81              1482 	mov	a,sp
   014A 24 FB              1483 	add	a,#0xfb
   014C F5 81              1484 	mov	sp,a
   014E 8E 82              1485 	mov	dpl,r6
   0150 8F 83              1486 	mov	dph,r7
   0152 78r8E              1487 	mov	r0,#_uip_htons
   0154 79s15              1488 	mov	r1,#(_uip_htons >> 8)
   0156 7As00              1489 	mov	r2,#(_uip_htons >> 16)
   0158 12s00r00           1490 	lcall	__sdcc_banked_call
   015B AE 82              1491 	mov	r6,dpl
   015D AF 83              1492 	mov  r7,dph
   015F 02s00r00           1493 	ljmp	__sdcc_banked_ret
                           1494 ;------------------------------------------------------------
                           1495 ;Allocation info for local variables in function 'uip_ipchksum'
                           1496 ;------------------------------------------------------------
                           1497 ;sum                       Allocated to registers r6 r7 
                           1498 ;------------------------------------------------------------
                           1499 ;	../../../contiki-sensinode//core/net/uip6.c:340: uip_ipchksum(void)
                           1500 ;	-----------------------------------------
                           1501 ;	 function uip_ipchksum
                           1502 ;	-----------------------------------------
   0162                    1503 _uip_ipchksum:
                           1504 ;	../../../contiki-sensinode//core/net/uip6.c:344: sum = chksum(0, &uip_buf[UIP_LLH_LEN], UIP_IPH_LEN);
   0162 74 28              1505 	mov	a,#0x28
   0164 C0 E0              1506 	push	acc
   0166 E4                 1507 	clr	a
   0167 C0 E0              1508 	push	acc
   0169 74r0B              1509 	mov	a,#_uip_aligned_buf
   016B C0 E0              1510 	push	acc
   016D 74s00              1511 	mov	a,#(_uip_aligned_buf >> 8)
   016F C0 E0              1512 	push	acc
   0171 E4                 1513 	clr	a
   0172 C0 E0              1514 	push	acc
   0174 90 00 00           1515 	mov	dptr,#0x0000
   0177 78r00              1516 	mov	r0,#_chksum
   0179 79s00              1517 	mov	r1,#(_chksum >> 8)
   017B 7As00              1518 	mov	r2,#(_chksum >> 16)
   017D 12s00r00           1519 	lcall	__sdcc_banked_call
   0180 AE 82              1520 	mov	r6,dpl
   0182 AF 83              1521 	mov	r7,dph
   0184 E5 81              1522 	mov	a,sp
   0186 24 FB              1523 	add	a,#0xfb
   0188 F5 81              1524 	mov	sp,a
                           1525 ;	../../../contiki-sensinode//core/net/uip6.c:346: return (sum == 0) ? 0xffff : uip_htons(sum);
   018A EE                 1526 	mov	a,r6
   018B 4F                 1527 	orl	a,r7
   018C B4 01 00           1528 	cjne	a,#0x01,00107$
   018F                    1529 00107$:
   018F E4                 1530 	clr	a
   0190 33                 1531 	rlc	a
   0191 FD                 1532 	mov	r5,a
   0192 60 06              1533 	jz	00103$
   0194 7C FF              1534 	mov	r4,#0xFF
   0196 7D FF              1535 	mov	r5,#0xFF
   0198 80 11              1536 	sjmp	00104$
   019A                    1537 00103$:
   019A 8E 82              1538 	mov	dpl,r6
   019C 8F 83              1539 	mov	dph,r7
   019E 78r8E              1540 	mov	r0,#_uip_htons
   01A0 79s15              1541 	mov	r1,#(_uip_htons >> 8)
   01A2 7As00              1542 	mov	r2,#(_uip_htons >> 16)
   01A4 12s00r00           1543 	lcall	__sdcc_banked_call
   01A7 AC 82              1544 	mov	r4,dpl
   01A9 AD 83              1545 	mov	r5,dph
   01AB                    1546 00104$:
   01AB 8C 82              1547 	mov	dpl,r4
   01AD 8D 83              1548 	mov	dph,r5
   01AF 02s00r00           1549 	ljmp	__sdcc_banked_ret
                           1550 ;------------------------------------------------------------
                           1551 ;Allocation info for local variables in function 'upper_layer_chksum'
                           1552 ;------------------------------------------------------------
                           1553 ;proto                     Allocated to registers r7 
                           1554 ;upper_layer_len           Allocated to stack - sp -1
                           1555 ;sum                       Allocated to registers r7 r6 
                           1556 ;------------------------------------------------------------
                           1557 ;	../../../contiki-sensinode//core/net/uip6.c:351: upper_layer_chksum(uint8_t proto)
                           1558 ;	-----------------------------------------
                           1559 ;	 function upper_layer_chksum
                           1560 ;	-----------------------------------------
   01B2                    1561 _upper_layer_chksum:
   01B2 05 81              1562 	inc	sp
   01B4 05 81              1563 	inc	sp
   01B6 AF 82              1564 	mov	r7,dpl
                           1565 ;	../../../contiki-sensinode//core/net/uip6.c:365: upper_layer_len = (((uint16_t)(UIP_IP_BUF->len[0]) << 8) + UIP_IP_BUF->len[1] - uip_ext_len);
   01B8 7Dr0B              1566 	mov	r5,#_uip_aligned_buf
   01BA 7Es00              1567 	mov	r6,#(_uip_aligned_buf >> 8)
   01BC 8D 82              1568 	mov	dpl,r5
   01BE 8E 83              1569 	mov	dph,r6
   01C0 A3                 1570 	inc	dptr
   01C1 A3                 1571 	inc	dptr
   01C2 A3                 1572 	inc	dptr
   01C3 A3                 1573 	inc	dptr
   01C4 E0                 1574 	movx	a,@dptr
   01C5 FD                 1575 	mov	r5,a
   01C6 7E 00              1576 	mov	r6,#0x00
   01C8 7Br0B              1577 	mov	r3,#_uip_aligned_buf
   01CA 7Cs00              1578 	mov	r4,#(_uip_aligned_buf >> 8)
   01CC 8B 82              1579 	mov	dpl,r3
   01CE 8C 83              1580 	mov	dph,r4
   01D0 A3                 1581 	inc	dptr
   01D1 A3                 1582 	inc	dptr
   01D2 A3                 1583 	inc	dptr
   01D3 A3                 1584 	inc	dptr
   01D4 A3                 1585 	inc	dptr
   01D5 E0                 1586 	movx	a,@dptr
   01D6 7B 00              1587 	mov	r3,#0x00
   01D8 2E                 1588 	add	a,r6
   01D9 FE                 1589 	mov	r6,a
   01DA EB                 1590 	mov	a,r3
   01DB 3D                 1591 	addc	a,r5
   01DC FD                 1592 	mov	r5,a
   01DD 90s00r01           1593 	mov	dptr,#_uip_ext_len
   01E0 E0                 1594 	movx	a,@dptr
   01E1 FC                 1595 	mov	r4,a
   01E2 7B 00              1596 	mov	r3,#0x00
   01E4 EE                 1597 	mov	a,r6
   01E5 C3                 1598 	clr	c
   01E6 9C                 1599 	subb	a,r4
   01E7 FE                 1600 	mov	r6,a
   01E8 ED                 1601 	mov	a,r5
   01E9 9B                 1602 	subb	a,r3
   01EA FD                 1603 	mov	r5,a
   01EB A8 81              1604 	mov	r0,sp
   01ED 18                 1605 	dec	r0
   01EE A6 06              1606 	mov	@r0,ar6
   01F0 08                 1607 	inc	r0
   01F1 A6 05              1608 	mov	@r0,ar5
                           1609 ;	../../../contiki-sensinode//core/net/uip6.c:372: sum = upper_layer_len + proto;
   01F3 7E 00              1610 	mov	r6,#0x00
   01F5 A8 81              1611 	mov	r0,sp
   01F7 18                 1612 	dec	r0
   01F8 EF                 1613 	mov	a,r7
   01F9 26                 1614 	add	a,@r0
   01FA FF                 1615 	mov	r7,a
   01FB EE                 1616 	mov	a,r6
   01FC 08                 1617 	inc	r0
   01FD 36                 1618 	addc	a,@r0
   01FE FE                 1619 	mov	r6,a
                           1620 ;	../../../contiki-sensinode//core/net/uip6.c:374: sum = chksum(sum, (uint8_t *)&UIP_IP_BUF->srcipaddr, 2 * sizeof(uip_ipaddr_t));
   01FF 7Cr0B              1621 	mov	r4,#_uip_aligned_buf
   0201 7Ds00              1622 	mov	r5,#(_uip_aligned_buf >> 8)
   0203 74 08              1623 	mov	a,#0x08
   0205 2C                 1624 	add	a,r4
   0206 FC                 1625 	mov	r4,a
   0207 E4                 1626 	clr	a
   0208 3D                 1627 	addc	a,r5
   0209 FD                 1628 	mov	r5,a
   020A 7B 00              1629 	mov	r3,#0x00
   020C 74 20              1630 	mov	a,#0x20
   020E C0 E0              1631 	push	acc
   0210 E4                 1632 	clr	a
   0211 C0 E0              1633 	push	acc
   0213 C0 04              1634 	push	ar4
   0215 C0 05              1635 	push	ar5
   0217 C0 03              1636 	push	ar3
   0219 8F 82              1637 	mov	dpl,r7
   021B 8E 83              1638 	mov	dph,r6
   021D 78r00              1639 	mov	r0,#_chksum
   021F 79s00              1640 	mov	r1,#(_chksum >> 8)
   0221 7As00              1641 	mov	r2,#(_chksum >> 16)
   0223 12s00r00           1642 	lcall	__sdcc_banked_call
   0226 AC 82              1643 	mov	r4,dpl
   0228 AD 83              1644 	mov	r5,dph
   022A E5 81              1645 	mov	a,sp
   022C 24 FB              1646 	add	a,#0xfb
   022E F5 81              1647 	mov	sp,a
   0230 8C 07              1648 	mov	ar7,r4
   0232 8D 06              1649 	mov	ar6,r5
                           1650 ;	../../../contiki-sensinode//core/net/uip6.c:377: sum = chksum(sum, &uip_buf[UIP_IPH_LEN + UIP_LLH_LEN + uip_ext_len],
   0234 90s00r01           1651 	mov	dptr,#_uip_ext_len
   0237 E0                 1652 	movx	a,@dptr
   0238 FD                 1653 	mov	r5,a
   0239 7C 00              1654 	mov	r4,#0x00
   023B 74 28              1655 	mov	a,#0x28
   023D 2D                 1656 	add	a,r5
   023E FD                 1657 	mov	r5,a
   023F E4                 1658 	clr	a
   0240 3C                 1659 	addc	a,r4
   0241 FC                 1660 	mov	r4,a
   0242 ED                 1661 	mov	a,r5
   0243 24r0B              1662 	add	a,#_uip_aligned_buf
   0245 FD                 1663 	mov	r5,a
   0246 EC                 1664 	mov	a,r4
   0247 34s00              1665 	addc	a,#(_uip_aligned_buf >> 8)
   0249 FC                 1666 	mov	r4,a
   024A 7B 00              1667 	mov	r3,#0x00
   024C A8 81              1668 	mov	r0,sp
   024E 18                 1669 	dec	r0
   024F E6                 1670 	mov	a,@r0
   0250 C0 E0              1671 	push	acc
   0252 08                 1672 	inc	r0
   0253 E6                 1673 	mov	a,@r0
   0254 C0 E0              1674 	push	acc
   0256 C0 05              1675 	push	ar5
   0258 C0 04              1676 	push	ar4
   025A C0 03              1677 	push	ar3
   025C 8F 82              1678 	mov	dpl,r7
   025E 8E 83              1679 	mov	dph,r6
   0260 78r00              1680 	mov	r0,#_chksum
   0262 79s00              1681 	mov	r1,#(_chksum >> 8)
   0264 7As00              1682 	mov	r2,#(_chksum >> 16)
   0266 12s00r00           1683 	lcall	__sdcc_banked_call
   0269 AC 82              1684 	mov	r4,dpl
   026B AD 83              1685 	mov	r5,dph
   026D E5 81              1686 	mov	a,sp
   026F 24 FB              1687 	add	a,#0xfb
   0271 F5 81              1688 	mov	sp,a
   0273 8C 07              1689 	mov	ar7,r4
   0275 8D 06              1690 	mov	ar6,r5
                           1691 ;	../../../contiki-sensinode//core/net/uip6.c:380: return (sum == 0) ? 0xffff : uip_htons(sum);
   0277 EF                 1692 	mov	a,r7
   0278 4E                 1693 	orl	a,r6
   0279 B4 01 00           1694 	cjne	a,#0x01,00107$
   027C                    1695 00107$:
   027C E4                 1696 	clr	a
   027D 33                 1697 	rlc	a
   027E FD                 1698 	mov	r5,a
   027F 60 06              1699 	jz	00103$
   0281 7C FF              1700 	mov	r4,#0xFF
   0283 7D FF              1701 	mov	r5,#0xFF
   0285 80 11              1702 	sjmp	00104$
   0287                    1703 00103$:
   0287 8F 82              1704 	mov	dpl,r7
   0289 8E 83              1705 	mov	dph,r6
   028B 78r8E              1706 	mov	r0,#_uip_htons
   028D 79s15              1707 	mov	r1,#(_uip_htons >> 8)
   028F 7As00              1708 	mov	r2,#(_uip_htons >> 16)
   0291 12s00r00           1709 	lcall	__sdcc_banked_call
   0294 AC 82              1710 	mov	r4,dpl
   0296 AD 83              1711 	mov	r5,dph
   0298                    1712 00104$:
   0298 8C 82              1713 	mov	dpl,r4
   029A 8D 83              1714 	mov	dph,r5
   029C 15 81              1715 	dec	sp
   029E 15 81              1716 	dec	sp
   02A0 02s00r00           1717 	ljmp	__sdcc_banked_ret
                           1718 ;------------------------------------------------------------
                           1719 ;Allocation info for local variables in function 'uip_icmp6chksum'
                           1720 ;------------------------------------------------------------
                           1721 ;	../../../contiki-sensinode//core/net/uip6.c:384: uip_icmp6chksum(void)
                           1722 ;	-----------------------------------------
                           1723 ;	 function uip_icmp6chksum
                           1724 ;	-----------------------------------------
   02A3                    1725 _uip_icmp6chksum:
                           1726 ;	../../../contiki-sensinode//core/net/uip6.c:386: return upper_layer_chksum(UIP_PROTO_ICMP6);
   02A3 75 82 3A           1727 	mov	dpl,#0x3A
   02A6 78rB2              1728 	mov	r0,#_upper_layer_chksum
   02A8 79s01              1729 	mov	r1,#(_upper_layer_chksum >> 8)
   02AA 7As00              1730 	mov	r2,#(_upper_layer_chksum >> 16)
   02AC 12s00r00           1731 	lcall	__sdcc_banked_call
   02AF AE 82              1732 	mov	r6,dpl
   02B1 AF 83              1733 	mov  r7,dph
   02B3 02s00r00           1734 	ljmp	__sdcc_banked_ret
                           1735 ;------------------------------------------------------------
                           1736 ;Allocation info for local variables in function 'uip_udpchksum'
                           1737 ;------------------------------------------------------------
                           1738 ;	../../../contiki-sensinode//core/net/uip6.c:400: uip_udpchksum(void)
                           1739 ;	-----------------------------------------
                           1740 ;	 function uip_udpchksum
                           1741 ;	-----------------------------------------
   02B6                    1742 _uip_udpchksum:
                           1743 ;	../../../contiki-sensinode//core/net/uip6.c:402: return upper_layer_chksum(UIP_PROTO_UDP);
   02B6 75 82 11           1744 	mov	dpl,#0x11
   02B9 78rB2              1745 	mov	r0,#_upper_layer_chksum
   02BB 79s01              1746 	mov	r1,#(_upper_layer_chksum >> 8)
   02BD 7As00              1747 	mov	r2,#(_upper_layer_chksum >> 16)
   02BF 12s00r00           1748 	lcall	__sdcc_banked_call
   02C2 AE 82              1749 	mov	r6,dpl
   02C4 AF 83              1750 	mov  r7,dph
   02C6 02s00r00           1751 	ljmp	__sdcc_banked_ret
                           1752 ;------------------------------------------------------------
                           1753 ;Allocation info for local variables in function 'uip_init'
                           1754 ;------------------------------------------------------------
                           1755 ;	../../../contiki-sensinode//core/net/uip6.c:408: uip_init(void)
                           1756 ;	-----------------------------------------
                           1757 ;	 function uip_init
                           1758 ;	-----------------------------------------
   02C9                    1759 _uip_init:
                           1760 ;	../../../contiki-sensinode//core/net/uip6.c:411: uip_ds6_init();
   02C9 78r00              1761 	mov	r0,#_uip_ds6_init
   02CB 79s00              1762 	mov	r1,#(_uip_ds6_init >> 8)
   02CD 7As00              1763 	mov	r2,#(_uip_ds6_init >> 16)
   02CF 12s00r00           1764 	lcall	__sdcc_banked_call
                           1765 ;	../../../contiki-sensinode//core/net/uip6.c:423: lastport = 1024;
   02D2 90s01r6A           1766 	mov	dptr,#_lastport
   02D5 E4                 1767 	clr	a
   02D6 F0                 1768 	movx	@dptr,a
   02D7 A3                 1769 	inc	dptr
   02D8 74 04              1770 	mov	a,#0x04
   02DA F0                 1771 	movx	@dptr,a
                           1772 ;	../../../contiki-sensinode//core/net/uip6.c:427: for(c = 0; c < UIP_UDP_CONNS; ++c) {
   02DB 90s01r69           1773 	mov	dptr,#_c
   02DE E4                 1774 	clr	a
   02DF F0                 1775 	movx	@dptr,a
   02E0                    1776 00101$:
   02E0 90s01r69           1777 	mov	dptr,#_c
   02E3 E0                 1778 	movx	a,@dptr
   02E4 FF                 1779 	mov	r7,a
   02E5 BF 0A 00           1780 	cjne	r7,#0x0A,00111$
   02E8                    1781 00111$:
   02E8 50 22              1782 	jnc	00105$
                           1783 ;	../../../contiki-sensinode//core/net/uip6.c:428: uip_udp_conns[c].lport = 0;
   02EA EF                 1784 	mov	a,r7
   02EB 75 F0 1B           1785 	mov	b,#0x1B
   02EE A4                 1786 	mul	ab
   02EF 24r6F              1787 	add	a,#_uip_udp_conns
   02F1 FD                 1788 	mov	r5,a
   02F2 74s01              1789 	mov	a,#(_uip_udp_conns >> 8)
   02F4 35 F0              1790 	addc	a,b
   02F6 FE                 1791 	mov	r6,a
   02F7 74 10              1792 	mov	a,#0x10
   02F9 2D                 1793 	add	a,r5
   02FA F5 82              1794 	mov	dpl,a
   02FC E4                 1795 	clr	a
   02FD 3E                 1796 	addc	a,r6
   02FE F5 83              1797 	mov	dph,a
   0300 E4                 1798 	clr	a
   0301 F0                 1799 	movx	@dptr,a
   0302 A3                 1800 	inc	dptr
   0303 F0                 1801 	movx	@dptr,a
                           1802 ;	../../../contiki-sensinode//core/net/uip6.c:427: for(c = 0; c < UIP_UDP_CONNS; ++c) {
   0304 90s01r69           1803 	mov	dptr,#_c
   0307 EF                 1804 	mov	a,r7
   0308 04                 1805 	inc	a
   0309 F0                 1806 	movx	@dptr,a
   030A 80 D4              1807 	sjmp	00101$
   030C                    1808 00105$:
   030C 02s00r00           1809 	ljmp	__sdcc_banked_ret
                           1810 ;------------------------------------------------------------
                           1811 ;Allocation info for local variables in function 'remove_ext_hdr'
                           1812 ;------------------------------------------------------------
                           1813 ;	../../../contiki-sensinode//core/net/uip6.c:505: remove_ext_hdr(void)
                           1814 ;	-----------------------------------------
                           1815 ;	 function remove_ext_hdr
                           1816 ;	-----------------------------------------
   030F                    1817 _remove_ext_hdr:
                           1818 ;	../../../contiki-sensinode//core/net/uip6.c:508: if(uip_ext_len > 0) {
   030F 90s00r01           1819 	mov	dptr,#_uip_ext_len
   0312 E0                 1820 	movx	a,@dptr
   0313 FF                 1821 	mov	r7,a
   0314 70 03              1822 	jnz	00111$
   0316 02s03rD0           1823 	ljmp	00105$
   0319                    1824 00111$:
                           1825 ;	../../../contiki-sensinode//core/net/uip6.c:511: if(uip_len < UIP_IPH_LEN + uip_ext_len) {
   0319 8F 05              1826 	mov	ar5,r7
   031B 7E 00              1827 	mov	r6,#0x00
   031D 74 28              1828 	mov	a,#0x28
   031F 2D                 1829 	add	a,r5
   0320 FD                 1830 	mov	r5,a
   0321 E4                 1831 	clr	a
   0322 3E                 1832 	addc	a,r6
   0323 FE                 1833 	mov	r6,a
   0324 90s01r61           1834 	mov	dptr,#_uip_len
   0327 E0                 1835 	movx	a,@dptr
   0328 FB                 1836 	mov	r3,a
   0329 A3                 1837 	inc	dptr
   032A E0                 1838 	movx	a,@dptr
   032B FC                 1839 	mov	r4,a
   032C C3                 1840 	clr	c
   032D EB                 1841 	mov	a,r3
   032E 9D                 1842 	subb	a,r5
   032F EC                 1843 	mov	a,r4
   0330 9E                 1844 	subb	a,r6
   0331 50 0F              1845 	jnc	00102$
                           1846 ;	../../../contiki-sensinode//core/net/uip6.c:513: uip_ext_len = 0;
   0333 90s00r01           1847 	mov	dptr,#_uip_ext_len
                           1848 ;	../../../contiki-sensinode//core/net/uip6.c:514: uip_len = 0;
   0336 E4                 1849 	clr	a
   0337 F0                 1850 	movx	@dptr,a
   0338 90s01r61           1851 	mov	dptr,#_uip_len
   033B F0                 1852 	movx	@dptr,a
   033C A3                 1853 	inc	dptr
   033D E4                 1854 	clr	a
   033E F0                 1855 	movx	@dptr,a
                           1856 ;	../../../contiki-sensinode//core/net/uip6.c:515: return;
   033F 02s03rD0           1857 	ljmp	00105$
   0342                    1858 00102$:
                           1859 ;	../../../contiki-sensinode//core/net/uip6.c:518: uip_len - UIP_IPH_LEN - uip_ext_len);
   0342 EB                 1860 	mov	a,r3
   0343 24 D8              1861 	add	a,#0xD8
   0345 FB                 1862 	mov	r3,a
   0346 EC                 1863 	mov	a,r4
   0347 34 FF              1864 	addc	a,#0xFF
   0349 FC                 1865 	mov	r4,a
   034A 8F 05              1866 	mov	ar5,r7
   034C 7E 00              1867 	mov	r6,#0x00
   034E EB                 1868 	mov	a,r3
   034F C3                 1869 	clr	c
   0350 9D                 1870 	subb	a,r5
   0351 FB                 1871 	mov	r3,a
   0352 EC                 1872 	mov	a,r4
   0353 9E                 1873 	subb	a,r6
   0354 FC                 1874 	mov	r4,a
                           1875 ;	../../../contiki-sensinode//core/net/uip6.c:517: memmove(((uint8_t *)UIP_TCP_BUF), (uint8_t *)UIP_TCP_BUF + uip_ext_len,
   0355 EF                 1876 	mov	a,r7
   0356 24r33              1877 	add	a,#(_uip_aligned_buf + 0x0028)
   0358 FF                 1878 	mov	r7,a
   0359 E4                 1879 	clr	a
   035A 34s00              1880 	addc	a,#((_uip_aligned_buf + 0x0028) >> 8)
   035C FE                 1881 	mov	r6,a
   035D 7D 00              1882 	mov	r5,#0x00
   035F C0 03              1883 	push	ar3
   0361 C0 04              1884 	push	ar4
   0363 C0 07              1885 	push	ar7
   0365 C0 06              1886 	push	ar6
   0367 C0 05              1887 	push	ar5
   0369 90s00r33           1888 	mov	dptr,#(_uip_aligned_buf + 0x0028)
   036C 75 F0 00           1889 	mov	b,#0x00
   036F 78r00              1890 	mov	r0,#_memmove
   0371 79s00              1891 	mov	r1,#(_memmove >> 8)
   0373 7As00              1892 	mov	r2,#(_memmove >> 16)
   0375 12s00r00           1893 	lcall	__sdcc_banked_call
   0378 E5 81              1894 	mov	a,sp
   037A 24 FB              1895 	add	a,#0xfb
   037C F5 81              1896 	mov	sp,a
                           1897 ;	../../../contiki-sensinode//core/net/uip6.c:520: uip_len -= uip_ext_len;
   037E 90s00r01           1898 	mov	dptr,#_uip_ext_len
   0381 E0                 1899 	movx	a,@dptr
   0382 FF                 1900 	mov	r7,a
   0383 90s01r61           1901 	mov	dptr,#_uip_len
   0386 E0                 1902 	movx	a,@dptr
   0387 FD                 1903 	mov	r5,a
   0388 A3                 1904 	inc	dptr
   0389 E0                 1905 	movx	a,@dptr
   038A FE                 1906 	mov	r6,a
   038B 7C 00              1907 	mov	r4,#0x00
   038D 90s01r61           1908 	mov	dptr,#_uip_len
   0390 ED                 1909 	mov	a,r5
   0391 C3                 1910 	clr	c
   0392 9F                 1911 	subb	a,r7
   0393 F0                 1912 	movx	@dptr,a
   0394 EE                 1913 	mov	a,r6
   0395 9C                 1914 	subb	a,r4
   0396 A3                 1915 	inc	dptr
   0397 F0                 1916 	movx	@dptr,a
                           1917 ;	../../../contiki-sensinode//core/net/uip6.c:523: UIP_IP_BUF->len[0] = (uip_len - UIP_IPH_LEN) >> 8;
   0398 7Er0B              1918 	mov	r6,#_uip_aligned_buf
   039A 7Fs00              1919 	mov	r7,#(_uip_aligned_buf >> 8)
   039C 74 04              1920 	mov	a,#0x04
   039E 2E                 1921 	add	a,r6
   039F FE                 1922 	mov	r6,a
   03A0 E4                 1923 	clr	a
   03A1 3F                 1924 	addc	a,r7
   03A2 FF                 1925 	mov	r7,a
   03A3 90s01r61           1926 	mov	dptr,#_uip_len
   03A6 E0                 1927 	movx	a,@dptr
   03A7 FC                 1928 	mov	r4,a
   03A8 A3                 1929 	inc	dptr
   03A9 E0                 1930 	movx	a,@dptr
   03AA FD                 1931 	mov	r5,a
   03AB EC                 1932 	mov	a,r4
   03AC 24 D8              1933 	add	a,#0xD8
   03AE ED                 1934 	mov	a,r5
   03AF 34 FF              1935 	addc	a,#0xFF
   03B1 FB                 1936 	mov	r3,a
   03B2 FA                 1937 	mov	r2,a
   03B3 8E 82              1938 	mov	dpl,r6
   03B5 8F 83              1939 	mov	dph,r7
   03B7 EA                 1940 	mov	a,r2
   03B8 F0                 1941 	movx	@dptr,a
                           1942 ;	../../../contiki-sensinode//core/net/uip6.c:524: UIP_IP_BUF->len[1] = (uip_len - UIP_IPH_LEN) & 0xff;
   03B9 7Er0B              1943 	mov	r6,#_uip_aligned_buf
   03BB 7Fs00              1944 	mov	r7,#(_uip_aligned_buf >> 8)
   03BD 8E 82              1945 	mov	dpl,r6
   03BF 8F 83              1946 	mov	dph,r7
   03C1 A3                 1947 	inc	dptr
   03C2 A3                 1948 	inc	dptr
   03C3 A3                 1949 	inc	dptr
   03C4 A3                 1950 	inc	dptr
   03C5 A3                 1951 	inc	dptr
   03C6 EC                 1952 	mov	a,r4
   03C7 24 D8              1953 	add	a,#0xD8
   03C9 FC                 1954 	mov	r4,a
   03CA F0                 1955 	movx	@dptr,a
                           1956 ;	../../../contiki-sensinode//core/net/uip6.c:525: uip_ext_len = 0;
   03CB 90s00r01           1957 	mov	dptr,#_uip_ext_len
   03CE E4                 1958 	clr	a
   03CF F0                 1959 	movx	@dptr,a
   03D0                    1960 00105$:
   03D0 02s00r00           1961 	ljmp	__sdcc_banked_ret
                           1962 ;------------------------------------------------------------
                           1963 ;Allocation info for local variables in function 'uip_udp_new'
                           1964 ;------------------------------------------------------------
                           1965 ;rport                     Allocated to stack - sp -13
                           1966 ;ripaddr                   Allocated to stack - sp -8
                           1967 ;conn                      Allocated to stack - sp -5
                           1968 ;sloc0                     Allocated to stack - sp -2
                           1969 ;------------------------------------------------------------
                           1970 ;	../../../contiki-sensinode//core/net/uip6.c:531: uip_udp_new(const uip_ipaddr_t *ripaddr, uint16_t rport)
                           1971 ;	-----------------------------------------
                           1972 ;	 function uip_udp_new
                           1973 ;	-----------------------------------------
   03D3                    1974 _uip_udp_new:
   03D3 C0 82              1975 	push	dpl
   03D5 C0 83              1976 	push	dph
   03D7 C0 F0              1977 	push	b
   03D9 E5 81              1978 	mov	a,sp
   03DB 24 06              1979 	add	a,#0x06
   03DD F5 81              1980 	mov	sp,a
                           1981 ;	../../../contiki-sensinode//core/net/uip6.c:536: again:
   03DF                    1982 00101$:
                           1983 ;	../../../contiki-sensinode//core/net/uip6.c:537: ++lastport;
   03DF 90s01r6A           1984 	mov	dptr,#_lastport
   03E2 E0                 1985 	movx	a,@dptr
   03E3 24 01              1986 	add	a,#0x01
   03E5 F0                 1987 	movx	@dptr,a
   03E6 A3                 1988 	inc	dptr
   03E7 E0                 1989 	movx	a,@dptr
   03E8 34 00              1990 	addc	a,#0x00
   03EA F0                 1991 	movx	@dptr,a
                           1992 ;	../../../contiki-sensinode//core/net/uip6.c:539: if(lastport >= 32000) {
   03EB 90s01r6A           1993 	mov	dptr,#_lastport
   03EE E0                 1994 	movx	a,@dptr
   03EF FB                 1995 	mov	r3,a
   03F0 A3                 1996 	inc	dptr
   03F1 E0                 1997 	movx	a,@dptr
   03F2 FC                 1998 	mov	r4,a
   03F3 C3                 1999 	clr	c
   03F4 94 7D              2000 	subb	a,#0x7D
   03F6 40 09              2001 	jc	00103$
                           2002 ;	../../../contiki-sensinode//core/net/uip6.c:540: lastport = 4096;
   03F8 90s01r6A           2003 	mov	dptr,#_lastport
   03FB E4                 2004 	clr	a
   03FC F0                 2005 	movx	@dptr,a
   03FD A3                 2006 	inc	dptr
   03FE 74 10              2007 	mov	a,#0x10
   0400 F0                 2008 	movx	@dptr,a
   0401                    2009 00103$:
                           2010 ;	../../../contiki-sensinode//core/net/uip6.c:543: for(c = 0; c < UIP_UDP_CONNS; ++c) {
   0401 90s01r69           2011 	mov	dptr,#_c
   0404 E4                 2012 	clr	a
   0405 F0                 2013 	movx	@dptr,a
   0406                    2014 00117$:
   0406 90s01r69           2015 	mov	dptr,#_c
   0409 E0                 2016 	movx	a,@dptr
   040A FC                 2017 	mov	r4,a
   040B BC 0A 00           2018 	cjne	r4,#0x0A,00144$
   040E                    2019 00144$:
   040E 50 4F              2020 	jnc	00120$
                           2021 ;	../../../contiki-sensinode//core/net/uip6.c:544: if(uip_udp_conns[c].lport == uip_htons(lastport)) {
   0410 EC                 2022 	mov	a,r4
   0411 75 F0 1B           2023 	mov	b,#0x1B
   0414 A4                 2024 	mul	ab
   0415 24r6F              2025 	add	a,#_uip_udp_conns
   0417 FB                 2026 	mov	r3,a
   0418 74s01              2027 	mov	a,#(_uip_udp_conns >> 8)
   041A 35 F0              2028 	addc	a,b
   041C FC                 2029 	mov	r4,a
   041D 74 10              2030 	mov	a,#0x10
   041F 2B                 2031 	add	a,r3
   0420 F5 82              2032 	mov	dpl,a
   0422 E4                 2033 	clr	a
   0423 3C                 2034 	addc	a,r4
   0424 F5 83              2035 	mov	dph,a
   0426 E0                 2036 	movx	a,@dptr
   0427 FB                 2037 	mov	r3,a
   0428 A3                 2038 	inc	dptr
   0429 E0                 2039 	movx	a,@dptr
   042A FC                 2040 	mov	r4,a
   042B 90s01r6A           2041 	mov	dptr,#_lastport
   042E E0                 2042 	movx	a,@dptr
   042F FA                 2043 	mov	r2,a
   0430 A3                 2044 	inc	dptr
   0431 E0                 2045 	movx	a,@dptr
   0432 FF                 2046 	mov	r7,a
   0433 8A 82              2047 	mov	dpl,r2
   0435 8F 83              2048 	mov	dph,r7
   0437 C0 04              2049 	push	ar4
   0439 C0 03              2050 	push	ar3
   043B 78r8E              2051 	mov	r0,#_uip_htons
   043D 79s15              2052 	mov	r1,#(_uip_htons >> 8)
   043F 7As00              2053 	mov	r2,#(_uip_htons >> 16)
   0441 12s00r00           2054 	lcall	__sdcc_banked_call
   0444 AE 82              2055 	mov	r6,dpl
   0446 AF 83              2056 	mov	r7,dph
   0448 D0 03              2057 	pop	ar3
   044A D0 04              2058 	pop	ar4
   044C EB                 2059 	mov	a,r3
   044D B5 06 06           2060 	cjne	a,ar6,00146$
   0450 EC                 2061 	mov	a,r4
   0451 B5 07 02           2062 	cjne	a,ar7,00146$
   0454 80 89              2063 	sjmp	00101$
   0456                    2064 00146$:
                           2065 ;	../../../contiki-sensinode//core/net/uip6.c:543: for(c = 0; c < UIP_UDP_CONNS; ++c) {
   0456 90s01r69           2066 	mov	dptr,#_c
   0459 E0                 2067 	movx	a,@dptr
   045A 24 01              2068 	add	a,#0x01
   045C F0                 2069 	movx	@dptr,a
   045D 80 A7              2070 	sjmp	00117$
   045F                    2071 00120$:
                           2072 ;	../../../contiki-sensinode//core/net/uip6.c:549: conn = 0;
   045F E5 81              2073 	mov	a,sp
   0461 24 FB              2074 	add	a,#0xfb
   0463 F8                 2075 	mov	r0,a
   0464 E4                 2076 	clr	a
   0465 F6                 2077 	mov	@r0,a
   0466 08                 2078 	inc	r0
   0467 F6                 2079 	mov	@r0,a
   0468 08                 2080 	inc	r0
   0469 76 00              2081 	mov	@r0,#0x00
                           2082 ;	../../../contiki-sensinode//core/net/uip6.c:550: for(c = 0; c < UIP_UDP_CONNS; ++c) {
   046B 90s01r69           2083 	mov	dptr,#_c
   046E E4                 2084 	clr	a
   046F F0                 2085 	movx	@dptr,a
   0470                    2086 00108$:
   0470 90s01r69           2087 	mov	dptr,#_c
   0473 E0                 2088 	movx	a,@dptr
   0474 FF                 2089 	mov	r7,a
   0475 BF 0A 00           2090 	cjne	r7,#0x0A,00147$
   0478                    2091 00147$:
   0478 50 35              2092 	jnc	00111$
                           2093 ;	../../../contiki-sensinode//core/net/uip6.c:551: if(uip_udp_conns[c].lport == 0) {
   047A EF                 2094 	mov	a,r7
   047B 75 F0 1B           2095 	mov	b,#0x1B
   047E A4                 2096 	mul	ab
   047F 24r6F              2097 	add	a,#_uip_udp_conns
   0481 FD                 2098 	mov	r5,a
   0482 74s01              2099 	mov	a,#(_uip_udp_conns >> 8)
   0484 35 F0              2100 	addc	a,b
   0486 FE                 2101 	mov	r6,a
   0487 74 10              2102 	mov	a,#0x10
   0489 2D                 2103 	add	a,r5
   048A F5 82              2104 	mov	dpl,a
   048C E4                 2105 	clr	a
   048D 3E                 2106 	addc	a,r6
   048E F5 83              2107 	mov	dph,a
   0490 E0                 2108 	movx	a,@dptr
   0491 FB                 2109 	mov	r3,a
   0492 A3                 2110 	inc	dptr
   0493 E0                 2111 	movx	a,@dptr
   0494 FC                 2112 	mov	r4,a
   0495 4B                 2113 	orl	a,r3
   0496 70 0F              2114 	jnz	00110$
                           2115 ;	../../../contiki-sensinode//core/net/uip6.c:552: conn = &uip_udp_conns[c];
   0498 E5 81              2116 	mov	a,sp
   049A 24 FB              2117 	add	a,#0xfb
   049C F8                 2118 	mov	r0,a
   049D A6 05              2119 	mov	@r0,ar5
   049F 08                 2120 	inc	r0
   04A0 A6 06              2121 	mov	@r0,ar6
   04A2 08                 2122 	inc	r0
   04A3 76 00              2123 	mov	@r0,#0x00
                           2124 ;	../../../contiki-sensinode//core/net/uip6.c:553: break;
   04A5 80 08              2125 	sjmp	00111$
   04A7                    2126 00110$:
                           2127 ;	../../../contiki-sensinode//core/net/uip6.c:550: for(c = 0; c < UIP_UDP_CONNS; ++c) {
   04A7 90s01r69           2128 	mov	dptr,#_c
   04AA EF                 2129 	mov	a,r7
   04AB 04                 2130 	inc	a
   04AC F0                 2131 	movx	@dptr,a
   04AD 80 C1              2132 	sjmp	00108$
   04AF                    2133 00111$:
                           2134 ;	../../../contiki-sensinode//core/net/uip6.c:557: if(conn == 0) {
   04AF E5 81              2135 	mov	a,sp
   04B1 24 FB              2136 	add	a,#0xfb
   04B3 F8                 2137 	mov	r0,a
   04B4 E6                 2138 	mov	a,@r0
   04B5 08                 2139 	inc	r0
   04B6 46                 2140 	orl	a,@r0
                           2141 ;	../../../contiki-sensinode//core/net/uip6.c:558: return 0;
   04B7 70 08              2142 	jnz	00113$
   04B9 90 00 00           2143 	mov	dptr,#0x0000
   04BC F5 F0              2144 	mov	b,a
   04BE 02s05rC6           2145 	ljmp	00121$
   04C1                    2146 00113$:
                           2147 ;	../../../contiki-sensinode//core/net/uip6.c:561: conn->lport = UIP_HTONS(lastport);
   04C1 E5 81              2148 	mov	a,sp
   04C3 24 FB              2149 	add	a,#0xfb
   04C5 F8                 2150 	mov	r0,a
   04C6 A9 81              2151 	mov	r1,sp
   04C8 19                 2152 	dec	r1
   04C9 19                 2153 	dec	r1
   04CA 74 10              2154 	mov	a,#0x10
   04CC 26                 2155 	add	a,@r0
   04CD F7                 2156 	mov	@r1,a
   04CE E4                 2157 	clr	a
   04CF 08                 2158 	inc	r0
   04D0 36                 2159 	addc	a,@r0
   04D1 09                 2160 	inc	r1
   04D2 F7                 2161 	mov	@r1,a
   04D3 08                 2162 	inc	r0
   04D4 09                 2163 	inc	r1
   04D5 E6                 2164 	mov	a,@r0
   04D6 F7                 2165 	mov	@r1,a
   04D7 90s01r6A           2166 	mov	dptr,#_lastport
   04DA E0                 2167 	movx	a,@dptr
   04DB FB                 2168 	mov	r3,a
   04DC A3                 2169 	inc	dptr
   04DD E0                 2170 	movx	a,@dptr
   04DE FC                 2171 	mov	r4,a
   04DF 8B 07              2172 	mov	ar7,r3
   04E1 7A 00              2173 	mov	r2,#0x00
   04E3 8C 03              2174 	mov	ar3,r4
   04E5 7C 00              2175 	mov	r4,#0x00
   04E7 EB                 2176 	mov	a,r3
   04E8 42 02              2177 	orl	ar2,a
   04EA EC                 2178 	mov	a,r4
   04EB 42 07              2179 	orl	ar7,a
   04ED A8 81              2180 	mov	r0,sp
   04EF 18                 2181 	dec	r0
   04F0 18                 2182 	dec	r0
   04F1 86 82              2183 	mov	dpl,@r0
   04F3 08                 2184 	inc	r0
   04F4 86 83              2185 	mov	dph,@r0
   04F6 08                 2186 	inc	r0
   04F7 86 F0              2187 	mov	b,@r0
   04F9 EA                 2188 	mov	a,r2
   04FA 12s00r00           2189 	lcall	__gptrput
   04FD A3                 2190 	inc	dptr
   04FE EF                 2191 	mov	a,r7
   04FF 12s00r00           2192 	lcall	__gptrput
                           2193 ;	../../../contiki-sensinode//core/net/uip6.c:562: conn->rport = rport;
   0502 E5 81              2194 	mov	a,sp
   0504 24 FB              2195 	add	a,#0xfb
   0506 F8                 2196 	mov	r0,a
   0507 74 12              2197 	mov	a,#0x12
   0509 26                 2198 	add	a,@r0
   050A FD                 2199 	mov	r5,a
   050B E4                 2200 	clr	a
   050C 08                 2201 	inc	r0
   050D 36                 2202 	addc	a,@r0
   050E FE                 2203 	mov	r6,a
   050F 08                 2204 	inc	r0
   0510 86 07              2205 	mov	ar7,@r0
   0512 8D 82              2206 	mov	dpl,r5
   0514 8E 83              2207 	mov	dph,r6
   0516 8F F0              2208 	mov	b,r7
   0518 E5 81              2209 	mov	a,sp
   051A 24 F3              2210 	add	a,#0xf3
   051C F8                 2211 	mov	r0,a
   051D E6                 2212 	mov	a,@r0
   051E 12s00r00           2213 	lcall	__gptrput
   0521 A3                 2214 	inc	dptr
   0522 08                 2215 	inc	r0
   0523 E6                 2216 	mov	a,@r0
   0524 12s00r00           2217 	lcall	__gptrput
                           2218 ;	../../../contiki-sensinode//core/net/uip6.c:563: if(ripaddr == NULL) {
   0527 E5 81              2219 	mov	a,sp
   0529 24 F8              2220 	add	a,#0xf8
   052B F8                 2221 	mov	r0,a
   052C E6                 2222 	mov	a,@r0
   052D 08                 2223 	inc	r0
   052E 46                 2224 	orl	a,@r0
   052F 70 2E              2225 	jnz	00115$
                           2226 ;	../../../contiki-sensinode//core/net/uip6.c:564: memset(&conn->ripaddr, 0, sizeof(uip_ipaddr_t));
   0531 E5 81              2227 	mov	a,sp
   0533 24 FB              2228 	add	a,#0xfb
   0535 F8                 2229 	mov	r0,a
   0536 86 05              2230 	mov	ar5,@r0
   0538 08                 2231 	inc	r0
   0539 86 06              2232 	mov	ar6,@r0
   053B 08                 2233 	inc	r0
   053C 86 07              2234 	mov	ar7,@r0
   053E 74 10              2235 	mov	a,#0x10
   0540 C0 E0              2236 	push	acc
   0542 E4                 2237 	clr	a
   0543 C0 E0              2238 	push	acc
   0545 E4                 2239 	clr	a
   0546 C0 E0              2240 	push	acc
   0548 8D 82              2241 	mov	dpl,r5
   054A 8E 83              2242 	mov	dph,r6
   054C 8F F0              2243 	mov	b,r7
   054E 78r00              2244 	mov	r0,#_memset
   0550 79s00              2245 	mov	r1,#(_memset >> 8)
   0552 7As00              2246 	mov	r2,#(_memset >> 16)
   0554 12s00r00           2247 	lcall	__sdcc_banked_call
   0557 15 81              2248 	dec	sp
   0559 15 81              2249 	dec	sp
   055B 15 81              2250 	dec	sp
   055D 80 3C              2251 	sjmp	00116$
   055F                    2252 00115$:
                           2253 ;	../../../contiki-sensinode//core/net/uip6.c:566: uip_ipaddr_copy(&conn->ripaddr, ripaddr);
   055F E5 81              2254 	mov	a,sp
   0561 24 F8              2255 	add	a,#0xf8
   0563 F8                 2256 	mov	r0,a
   0564 86 05              2257 	mov	ar5,@r0
   0566 08                 2258 	inc	r0
   0567 86 06              2259 	mov	ar6,@r0
   0569 08                 2260 	inc	r0
   056A 86 07              2261 	mov	ar7,@r0
   056C E5 81              2262 	mov	a,sp
   056E 24 FB              2263 	add	a,#0xfb
   0570 F8                 2264 	mov	r0,a
   0571 86 02              2265 	mov	ar2,@r0
   0573 08                 2266 	inc	r0
   0574 86 03              2267 	mov	ar3,@r0
   0576 08                 2268 	inc	r0
   0577 86 04              2269 	mov	ar4,@r0
   0579 74 10              2270 	mov	a,#0x10
   057B C0 E0              2271 	push	acc
   057D E4                 2272 	clr	a
   057E C0 E0              2273 	push	acc
   0580 C0 05              2274 	push	ar5
   0582 C0 06              2275 	push	ar6
   0584 C0 07              2276 	push	ar7
   0586 8A 82              2277 	mov	dpl,r2
   0588 8B 83              2278 	mov	dph,r3
   058A 8C F0              2279 	mov	b,r4
   058C 78r00              2280 	mov	r0,#_memcpy
   058E 79s00              2281 	mov	r1,#(_memcpy >> 8)
   0590 7As00              2282 	mov	r2,#(_memcpy >> 16)
   0592 12s00r00           2283 	lcall	__sdcc_banked_call
   0595 E5 81              2284 	mov	a,sp
   0597 24 FB              2285 	add	a,#0xfb
   0599 F5 81              2286 	mov	sp,a
   059B                    2287 00116$:
                           2288 ;	../../../contiki-sensinode//core/net/uip6.c:568: conn->ttl = uip_ds6_if.cur_hop_limit;
   059B E5 81              2289 	mov	a,sp
   059D 24 FB              2290 	add	a,#0xfb
   059F F8                 2291 	mov	r0,a
   05A0 74 14              2292 	mov	a,#0x14
   05A2 26                 2293 	add	a,@r0
   05A3 FD                 2294 	mov	r5,a
   05A4 E4                 2295 	clr	a
   05A5 08                 2296 	inc	r0
   05A6 36                 2297 	addc	a,@r0
   05A7 FE                 2298 	mov	r6,a
   05A8 08                 2299 	inc	r0
   05A9 86 07              2300 	mov	ar7,@r0
   05AB 90s00r04           2301 	mov	dptr,#(_uip_ds6_if + 0x0004)
   05AE E0                 2302 	movx	a,@dptr
   05AF FC                 2303 	mov	r4,a
   05B0 8D 82              2304 	mov	dpl,r5
   05B2 8E 83              2305 	mov	dph,r6
   05B4 8F F0              2306 	mov	b,r7
   05B6 12s00r00           2307 	lcall	__gptrput
                           2308 ;	../../../contiki-sensinode//core/net/uip6.c:570: return conn;
   05B9 E5 81              2309 	mov	a,sp
   05BB 24 FB              2310 	add	a,#0xfb
   05BD F8                 2311 	mov	r0,a
   05BE 86 82              2312 	mov	dpl,@r0
   05C0 08                 2313 	inc	r0
   05C1 86 83              2314 	mov	dph,@r0
   05C3 08                 2315 	inc	r0
   05C4 86 F0              2316 	mov	b,@r0
   05C6                    2317 00121$:
   05C6 C8                 2318 	xch	a,r0
   05C7 E5 81              2319 	mov	a,sp
   05C9 24 F7              2320 	add	a,#0xF7
   05CB F5 81              2321 	mov	sp,a
   05CD C8                 2322 	xch	a,r0
   05CE 02s00r00           2323 	ljmp	__sdcc_banked_ret
                           2324 ;------------------------------------------------------------
                           2325 ;Allocation info for local variables in function 'ext_hdr_options_process'
                           2326 ;------------------------------------------------------------
                           2327 ;sloc0                     Allocated to stack - sp -5
                           2328 ;sloc1                     Allocated to stack - sp -5
                           2329 ;sloc2                     Allocated to stack - sp -3
                           2330 ;------------------------------------------------------------
                           2331 ;	../../../contiki-sensinode//core/net/uip6.c:831: ext_hdr_options_process(void)
                           2332 ;	-----------------------------------------
                           2333 ;	 function ext_hdr_options_process
                           2334 ;	-----------------------------------------
   05D1                    2335 _ext_hdr_options_process:
   05D1 E5 81              2336 	mov	a,sp
   05D3 24 06              2337 	add	a,#0x06
   05D5 F5 81              2338 	mov	sp,a
                           2339 ;	../../../contiki-sensinode//core/net/uip6.c:838: uip_ext_opt_offset = 2;
   05D7 90s00r02           2340 	mov	dptr,#_uip_ext_opt_offset
   05DA 74 02              2341 	mov	a,#0x02
   05DC F0                 2342 	movx	@dptr,a
                           2343 ;	../../../contiki-sensinode//core/net/uip6.c:839: while(uip_ext_opt_offset < ((UIP_EXT_BUF->len << 3) + 8)) {
   05DD                    2344 00115$:
   05DD 90s00r01           2345 	mov	dptr,#_uip_ext_len
   05E0 E0                 2346 	movx	a,@dptr
   05E1 FF                 2347 	mov	r7,a
   05E2 FD                 2348 	mov	r5,a
   05E3 7E 00              2349 	mov	r6,#0x00
   05E5 74 28              2350 	mov	a,#0x28
   05E7 2D                 2351 	add	a,r5
   05E8 FB                 2352 	mov	r3,a
   05E9 E4                 2353 	clr	a
   05EA 3E                 2354 	addc	a,r6
   05EB FC                 2355 	mov	r4,a
   05EC EB                 2356 	mov	a,r3
   05ED 24r0B              2357 	add	a,#_uip_aligned_buf
   05EF FB                 2358 	mov	r3,a
   05F0 EC                 2359 	mov	a,r4
   05F1 34s00              2360 	addc	a,#(_uip_aligned_buf >> 8)
   05F3 FC                 2361 	mov	r4,a
   05F4 8B 82              2362 	mov	dpl,r3
   05F6 8C 83              2363 	mov	dph,r4
   05F8 A3                 2364 	inc	dptr
   05F9 E0                 2365 	movx	a,@dptr
   05FA FC                 2366 	mov	r4,a
   05FB E4                 2367 	clr	a
   05FC 03                 2368 	rr	a
   05FD 54 F8              2369 	anl	a,#0xF8
   05FF CC                 2370 	xch	a,r4
   0600 C4                 2371 	swap	a
   0601 03                 2372 	rr	a
   0602 CC                 2373 	xch	a,r4
   0603 6C                 2374 	xrl	a,r4
   0604 CC                 2375 	xch	a,r4
   0605 54 F8              2376 	anl	a,#0xF8
   0607 CC                 2377 	xch	a,r4
   0608 6C                 2378 	xrl	a,r4
   0609 FB                 2379 	mov	r3,a
   060A 74 08              2380 	mov	a,#0x08
   060C 2C                 2381 	add	a,r4
   060D FC                 2382 	mov	r4,a
   060E E4                 2383 	clr	a
   060F 3B                 2384 	addc	a,r3
   0610 FB                 2385 	mov	r3,a
   0611 90s00r02           2386 	mov	dptr,#_uip_ext_opt_offset
   0614 E0                 2387 	movx	a,@dptr
   0615 FA                 2388 	mov	r2,a
   0616 E5 81              2389 	mov	a,sp
   0618 24 FB              2390 	add	a,#0xfb
   061A F8                 2391 	mov	r0,a
   061B A6 02              2392 	mov	@r0,ar2
   061D 08                 2393 	inc	r0
   061E 76 00              2394 	mov	@r0,#0x00
   0620 E5 81              2395 	mov	a,sp
   0622 24 FB              2396 	add	a,#0xfb
   0624 F8                 2397 	mov	r0,a
   0625 C3                 2398 	clr	c
   0626 E6                 2399 	mov	a,@r0
   0627 9C                 2400 	subb	a,r4
   0628 08                 2401 	inc	r0
   0629 E6                 2402 	mov	a,@r0
   062A 64 80              2403 	xrl	a,#0x80
   062C 8B F0              2404 	mov	b,r3
   062E 63 F0 80           2405 	xrl	b,#0x80
   0631 95 F0              2406 	subb	a,b
   0633 40 03              2407 	jc	00142$
   0635 02s07rCE           2408 	ljmp	00117$
   0638                    2409 00142$:
                           2410 ;	../../../contiki-sensinode//core/net/uip6.c:840: switch(UIP_EXT_HDR_OPT_BUF->type) {
   0638 74 28              2411 	mov	a,#0x28
   063A 2D                 2412 	add	a,r5
   063B FB                 2413 	mov	r3,a
   063C E4                 2414 	clr	a
   063D 3E                 2415 	addc	a,r6
   063E FC                 2416 	mov	r4,a
   063F E5 81              2417 	mov	a,sp
   0641 24 FB              2418 	add	a,#0xfb
   0643 F8                 2419 	mov	r0,a
   0644 E6                 2420 	mov	a,@r0
   0645 2B                 2421 	add	a,r3
   0646 FB                 2422 	mov	r3,a
   0647 08                 2423 	inc	r0
   0648 E6                 2424 	mov	a,@r0
   0649 3C                 2425 	addc	a,r4
   064A FC                 2426 	mov	r4,a
   064B EB                 2427 	mov	a,r3
   064C 24r0B              2428 	add	a,#_uip_aligned_buf
   064E F5 82              2429 	mov	dpl,a
   0650 EC                 2430 	mov	a,r4
   0651 34s00              2431 	addc	a,#(_uip_aligned_buf >> 8)
   0653 F5 83              2432 	mov	dph,a
   0655 E0                 2433 	movx	a,@dptr
   0656 FC                 2434 	mov	r4,a
   0657 60 0D              2435 	jz	00101$
   0659 BC 01 02           2436 	cjne	r4,#0x01,00144$
   065C 80 11              2437 	sjmp	00102$
   065E                    2438 00144$:
   065E BC 63 02           2439 	cjne	r4,#0x63,00145$
   0661 80 38              2440 	sjmp	00103$
   0663                    2441 00145$:
   0663 02s06rF3           2442 	ljmp	00106$
                           2443 ;	../../../contiki-sensinode//core/net/uip6.c:846: case UIP_EXT_HDR_OPT_PAD1:
   0666                    2444 00101$:
                           2445 ;	../../../contiki-sensinode//core/net/uip6.c:848: uip_ext_opt_offset += 1;
   0666 90s00r02           2446 	mov	dptr,#_uip_ext_opt_offset
   0669 EA                 2447 	mov	a,r2
   066A 04                 2448 	inc	a
   066B F0                 2449 	movx	@dptr,a
                           2450 ;	../../../contiki-sensinode//core/net/uip6.c:849: break;
   066C 02s05rDD           2451 	ljmp	00115$
                           2452 ;	../../../contiki-sensinode//core/net/uip6.c:850: case UIP_EXT_HDR_OPT_PADN:
   066F                    2453 00102$:
                           2454 ;	../../../contiki-sensinode//core/net/uip6.c:852: uip_ext_opt_offset += UIP_EXT_HDR_OPT_PADN_BUF->opt_len + 2;
   066F 74 28              2455 	mov	a,#0x28
   0671 2D                 2456 	add	a,r5
   0672 FB                 2457 	mov	r3,a
   0673 E4                 2458 	clr	a
   0674 3E                 2459 	addc	a,r6
   0675 FC                 2460 	mov	r4,a
   0676 E5 81              2461 	mov	a,sp
   0678 24 FB              2462 	add	a,#0xfb
   067A F8                 2463 	mov	r0,a
   067B E6                 2464 	mov	a,@r0
   067C 2B                 2465 	add	a,r3
   067D FB                 2466 	mov	r3,a
   067E 08                 2467 	inc	r0
   067F E6                 2468 	mov	a,@r0
   0680 3C                 2469 	addc	a,r4
   0681 FC                 2470 	mov	r4,a
   0682 EB                 2471 	mov	a,r3
   0683 24r0B              2472 	add	a,#_uip_aligned_buf
   0685 FB                 2473 	mov	r3,a
   0686 EC                 2474 	mov	a,r4
   0687 34s00              2475 	addc	a,#(_uip_aligned_buf >> 8)
   0689 FC                 2476 	mov	r4,a
   068A 8B 82              2477 	mov	dpl,r3
   068C 8C 83              2478 	mov	dph,r4
   068E A3                 2479 	inc	dptr
   068F E0                 2480 	movx	a,@dptr
   0690 FC                 2481 	mov	r4,a
   0691 24 02              2482 	add	a,#0x02
   0693 90s00r02           2483 	mov	dptr,#_uip_ext_opt_offset
   0696 2A                 2484 	add	a,r2
   0697 F0                 2485 	movx	@dptr,a
                           2486 ;	../../../contiki-sensinode//core/net/uip6.c:853: break;
   0698 02s05rDD           2487 	ljmp	00115$
                           2488 ;	../../../contiki-sensinode//core/net/uip6.c:855: case UIP_EXT_HDR_OPT_RPL:
   069B                    2489 00103$:
                           2490 ;	../../../contiki-sensinode//core/net/uip6.c:857: if(rpl_verify_header(uip_ext_opt_offset)) {
   069B E5 81              2491 	mov	a,sp
   069D 24 FB              2492 	add	a,#0xfb
   069F F8                 2493 	mov	r0,a
   06A0 86 82              2494 	mov	dpl,@r0
   06A2 08                 2495 	inc	r0
   06A3 86 83              2496 	mov	dph,@r0
   06A5 78r00              2497 	mov	r0,#_rpl_verify_header
   06A7 79s00              2498 	mov	r1,#(_rpl_verify_header >> 8)
   06A9 7As00              2499 	mov	r2,#(_rpl_verify_header >> 16)
   06AB 12s00r00           2500 	lcall	__sdcc_banked_call
   06AE E5 82              2501 	mov	a,dpl
   06B0 85 83 F0           2502 	mov	b,dph
   06B3 45 F0              2503 	orl	a,b
   06B5 60 06              2504 	jz	00105$
                           2505 ;	../../../contiki-sensinode//core/net/uip6.c:859: return 1;
   06B7 75 82 01           2506 	mov	dpl,#0x01
   06BA 02s07rD1           2507 	ljmp	00118$
   06BD                    2508 00105$:
                           2509 ;	../../../contiki-sensinode//core/net/uip6.c:861: uip_ext_opt_offset += (UIP_EXT_HDR_OPT_RPL_BUF->opt_len) + 2;
   06BD 90s00r01           2510 	mov	dptr,#_uip_ext_len
   06C0 E0                 2511 	movx	a,@dptr
   06C1 FC                 2512 	mov	r4,a
   06C2 7B 00              2513 	mov	r3,#0x00
   06C4 74 28              2514 	mov	a,#0x28
   06C6 2C                 2515 	add	a,r4
   06C7 FF                 2516 	mov	r7,a
   06C8 E4                 2517 	clr	a
   06C9 3B                 2518 	addc	a,r3
   06CA FE                 2519 	mov	r6,a
   06CB 90s00r02           2520 	mov	dptr,#_uip_ext_opt_offset
   06CE E0                 2521 	movx	a,@dptr
   06CF FA                 2522 	mov	r2,a
   06D0 7C 00              2523 	mov	r4,#0x00
   06D2 2F                 2524 	add	a,r7
   06D3 FB                 2525 	mov	r3,a
   06D4 EC                 2526 	mov	a,r4
   06D5 3E                 2527 	addc	a,r6
   06D6 FC                 2528 	mov	r4,a
   06D7 EB                 2529 	mov	a,r3
   06D8 24r0B              2530 	add	a,#_uip_aligned_buf
   06DA FB                 2531 	mov	r3,a
   06DB EC                 2532 	mov	a,r4
   06DC 34s00              2533 	addc	a,#(_uip_aligned_buf >> 8)
   06DE FC                 2534 	mov	r4,a
   06DF 8B 82              2535 	mov	dpl,r3
   06E1 8C 83              2536 	mov	dph,r4
   06E3 A3                 2537 	inc	dptr
   06E4 E0                 2538 	movx	a,@dptr
   06E5 FC                 2539 	mov	r4,a
   06E6 24 02              2540 	add	a,#0x02
   06E8 90s00r02           2541 	mov	dptr,#_uip_ext_opt_offset
   06EB 2A                 2542 	add	a,r2
   06EC F0                 2543 	movx	@dptr,a
                           2544 ;	../../../contiki-sensinode//core/net/uip6.c:862: return 0;
   06ED 75 82 00           2545 	mov	dpl,#0x00
   06F0 02s07rD1           2546 	ljmp	00118$
                           2547 ;	../../../contiki-sensinode//core/net/uip6.c:864: default:
   06F3                    2548 00106$:
                           2549 ;	../../../contiki-sensinode//core/net/uip6.c:879: switch(UIP_EXT_HDR_OPT_BUF->type & 0xC0) {
   06F3 74 28              2550 	mov	a,#0x28
   06F5 2D                 2551 	add	a,r5
   06F6 FB                 2552 	mov	r3,a
   06F7 E4                 2553 	clr	a
   06F8 3E                 2554 	addc	a,r6
   06F9 FC                 2555 	mov	r4,a
   06FA E5 81              2556 	mov	a,sp
   06FC 24 FB              2557 	add	a,#0xfb
   06FE F8                 2558 	mov	r0,a
   06FF E6                 2559 	mov	a,@r0
   0700 2B                 2560 	add	a,r3
   0701 FB                 2561 	mov	r3,a
   0702 08                 2562 	inc	r0
   0703 E6                 2563 	mov	a,@r0
   0704 3C                 2564 	addc	a,r4
   0705 FC                 2565 	mov	r4,a
   0706 EB                 2566 	mov	a,r3
   0707 24r0B              2567 	add	a,#_uip_aligned_buf
   0709 F5 82              2568 	mov	dpl,a
   070B EC                 2569 	mov	a,r4
   070C 34s00              2570 	addc	a,#(_uip_aligned_buf >> 8)
   070E F5 83              2571 	mov	dph,a
   0710 E0                 2572 	movx	a,@dptr
   0711 FC                 2573 	mov	r4,a
   0712 53 04 C0           2574 	anl	ar4,#0xC0
   0715 BC 00 03           2575 	cjne	r4,#0x00,00147$
   0718 02s07rA1           2576 	ljmp	00113$
   071B                    2577 00147$:
   071B BC 40 02           2578 	cjne	r4,#0x40,00148$
   071E 80 0A              2579 	sjmp	00108$
   0720                    2580 00148$:
   0720 BC 80 02           2581 	cjne	r4,#0x80,00149$
   0723 80 23              2582 	sjmp	00112$
   0725                    2583 00149$:
                           2584 ;	../../../contiki-sensinode//core/net/uip6.c:882: case 0x40:
   0725 BC C0 79           2585 	cjne	r4,#0xC0,00113$
   0728 80 06              2586 	sjmp	00109$
   072A                    2587 00108$:
                           2588 ;	../../../contiki-sensinode//core/net/uip6.c:883: return 1;
   072A 75 82 01           2589 	mov	dpl,#0x01
   072D 02s07rD1           2590 	ljmp	00118$
                           2591 ;	../../../contiki-sensinode//core/net/uip6.c:884: case 0xC0:
   0730                    2592 00109$:
                           2593 ;	../../../contiki-sensinode//core/net/uip6.c:885: if(uip_is_addr_mcast(&UIP_IP_BUF->destipaddr)) {
   0730 7Br0B              2594 	mov	r3,#_uip_aligned_buf
   0732 7Cs00              2595 	mov	r4,#(_uip_aligned_buf >> 8)
   0734 74 18              2596 	mov	a,#0x18
   0736 2B                 2597 	add	a,r3
   0737 F5 82              2598 	mov	dpl,a
   0739 E4                 2599 	clr	a
   073A 3C                 2600 	addc	a,r4
   073B F5 83              2601 	mov	dph,a
   073D E0                 2602 	movx	a,@dptr
   073E FC                 2603 	mov	r4,a
   073F BC FF 06           2604 	cjne	r4,#0xFF,00112$
                           2605 ;	../../../contiki-sensinode//core/net/uip6.c:886: return 1;
   0742 75 82 01           2606 	mov	dpl,#0x01
   0745 02s07rD1           2607 	ljmp	00118$
                           2608 ;	../../../contiki-sensinode//core/net/uip6.c:888: case 0x80:
   0748                    2609 00112$:
                           2610 ;	../../../contiki-sensinode//core/net/uip6.c:890: (uint32_t)UIP_IPH_LEN + uip_ext_len + uip_ext_opt_offset);
   0748 E4                 2611 	clr	a
   0749 FC                 2612 	mov	r4,a
   074A FB                 2613 	mov	r3,a
   074B FA                 2614 	mov	r2,a
   074C E5 81              2615 	mov	a,sp
   074E 24 FD              2616 	add	a,#0xfd
   0750 F8                 2617 	mov	r0,a
   0751 74 28              2618 	mov	a,#0x28
   0753 2F                 2619 	add	a,r7
   0754 F6                 2620 	mov	@r0,a
   0755 E4                 2621 	clr	a
   0756 3C                 2622 	addc	a,r4
   0757 08                 2623 	inc	r0
   0758 F6                 2624 	mov	@r0,a
   0759 E4                 2625 	clr	a
   075A 3B                 2626 	addc	a,r3
   075B 08                 2627 	inc	r0
   075C F6                 2628 	mov	@r0,a
   075D E4                 2629 	clr	a
   075E 3A                 2630 	addc	a,r2
   075F 08                 2631 	inc	r0
   0760 F6                 2632 	mov	@r0,a
   0761 90s00r02           2633 	mov	dptr,#_uip_ext_opt_offset
   0764 E0                 2634 	movx	a,@dptr
   0765 FF                 2635 	mov	r7,a
   0766 E4                 2636 	clr	a
   0767 FC                 2637 	mov	r4,a
   0768 FB                 2638 	mov	r3,a
   0769 FA                 2639 	mov	r2,a
   076A E5 81              2640 	mov	a,sp
   076C 24 FD              2641 	add	a,#0xfd
   076E F8                 2642 	mov	r0,a
   076F EF                 2643 	mov	a,r7
   0770 26                 2644 	add	a,@r0
   0771 FF                 2645 	mov	r7,a
   0772 EC                 2646 	mov	a,r4
   0773 08                 2647 	inc	r0
   0774 36                 2648 	addc	a,@r0
   0775 FC                 2649 	mov	r4,a
   0776 EB                 2650 	mov	a,r3
   0777 08                 2651 	inc	r0
   0778 36                 2652 	addc	a,@r0
   0779 FB                 2653 	mov	r3,a
   077A EA                 2654 	mov	a,r2
   077B 08                 2655 	inc	r0
   077C 36                 2656 	addc	a,@r0
   077D FA                 2657 	mov	r2,a
                           2658 ;	../../../contiki-sensinode//core/net/uip6.c:889: uip_icmp6_error_output(ICMP6_PARAM_PROB, ICMP6_PARAMPROB_OPTION,
   077E C0 07              2659 	push	ar7
   0780 C0 04              2660 	push	ar4
   0782 C0 03              2661 	push	ar3
   0784 C0 02              2662 	push	ar2
   0786 74 02              2663 	mov	a,#0x02
   0788 C0 E0              2664 	push	acc
   078A 75 82 04           2665 	mov	dpl,#0x04
   078D 78r00              2666 	mov	r0,#_uip_icmp6_error_output
   078F 79s00              2667 	mov	r1,#(_uip_icmp6_error_output >> 8)
   0791 7As00              2668 	mov	r2,#(_uip_icmp6_error_output >> 16)
   0793 12s00r00           2669 	lcall	__sdcc_banked_call
   0796 E5 81              2670 	mov	a,sp
   0798 24 FB              2671 	add	a,#0xfb
   079A F5 81              2672 	mov	sp,a
                           2673 ;	../../../contiki-sensinode//core/net/uip6.c:891: return 2;
   079C 75 82 02           2674 	mov	dpl,#0x02
                           2675 ;	../../../contiki-sensinode//core/net/uip6.c:892: }
   079F 80 30              2676 	sjmp	00118$
   07A1                    2677 00113$:
                           2678 ;	../../../contiki-sensinode//core/net/uip6.c:894: uip_ext_opt_offset += UIP_EXT_HDR_OPT_BUF->len + 2;
   07A1 74 28              2679 	mov	a,#0x28
   07A3 2D                 2680 	add	a,r5
   07A4 FD                 2681 	mov	r5,a
   07A5 E4                 2682 	clr	a
   07A6 3E                 2683 	addc	a,r6
   07A7 FE                 2684 	mov	r6,a
   07A8 90s00r02           2685 	mov	dptr,#_uip_ext_opt_offset
   07AB E0                 2686 	movx	a,@dptr
   07AC FF                 2687 	mov	r7,a
   07AD FB                 2688 	mov	r3,a
   07AE 7C 00              2689 	mov	r4,#0x00
   07B0 2D                 2690 	add	a,r5
   07B1 FD                 2691 	mov	r5,a
   07B2 EC                 2692 	mov	a,r4
   07B3 3E                 2693 	addc	a,r6
   07B4 FE                 2694 	mov	r6,a
   07B5 ED                 2695 	mov	a,r5
   07B6 24r0B              2696 	add	a,#_uip_aligned_buf
   07B8 FD                 2697 	mov	r5,a
   07B9 EE                 2698 	mov	a,r6
   07BA 34s00              2699 	addc	a,#(_uip_aligned_buf >> 8)
   07BC FE                 2700 	mov	r6,a
   07BD 8D 82              2701 	mov	dpl,r5
   07BF 8E 83              2702 	mov	dph,r6
   07C1 A3                 2703 	inc	dptr
   07C2 E0                 2704 	movx	a,@dptr
   07C3 FE                 2705 	mov	r6,a
   07C4 24 02              2706 	add	a,#0x02
   07C6 90s00r02           2707 	mov	dptr,#_uip_ext_opt_offset
   07C9 2F                 2708 	add	a,r7
   07CA F0                 2709 	movx	@dptr,a
                           2710 ;	../../../contiki-sensinode//core/net/uip6.c:896: }
   07CB 02s05rDD           2711 	ljmp	00115$
   07CE                    2712 00117$:
                           2713 ;	../../../contiki-sensinode//core/net/uip6.c:898: return 0;
   07CE 75 82 00           2714 	mov	dpl,#0x00
   07D1                    2715 00118$:
   07D1 E5 81              2716 	mov	a,sp
   07D3 24 FA              2717 	add	a,#0xFA
   07D5 F5 81              2718 	mov	sp,a
   07D7 02s00r00           2719 	ljmp	__sdcc_banked_ret
                           2720 ;------------------------------------------------------------
                           2721 ;Allocation info for local variables in function 'uip_process'
                           2722 ;------------------------------------------------------------
                           2723 ;flag                      Allocated to registers r7 
                           2724 ;------------------------------------------------------------
                           2725 ;	../../../contiki-sensinode//core/net/uip6.c:904: uip_process(uint8_t flag)
                           2726 ;	-----------------------------------------
                           2727 ;	 function uip_process
                           2728 ;	-----------------------------------------
   07DA                    2729 _uip_process:
   07DA AF 82              2730 	mov	r7,dpl
                           2731 ;	../../../contiki-sensinode//core/net/uip6.c:910: if(flag == UIP_UDP_SEND_CONN) {
   07DC BF 04 03           2732 	cjne	r7,#0x04,00453$
   07DF 02s13r5C           2733 	ljmp	00248$
   07E2                    2734 00453$:
                           2735 ;	../../../contiki-sensinode//core/net/uip6.c:914: uip_sappdata = uip_appdata = &uip_buf[UIP_IPTCPH_LEN + UIP_LLH_LEN];
   07E2 90s01r5B           2736 	mov	dptr,#_uip_appdata
   07E5 74r47              2737 	mov	a,#(_uip_aligned_buf + 0x003c)
   07E7 F0                 2738 	movx	@dptr,a
   07E8 A3                 2739 	inc	dptr
   07E9 74s00              2740 	mov	a,#((_uip_aligned_buf + 0x003c) >> 8)
   07EB F0                 2741 	movx	@dptr,a
   07EC A3                 2742 	inc	dptr
   07ED E4                 2743 	clr	a
   07EE F0                 2744 	movx	@dptr,a
   07EF 90s01r5E           2745 	mov	dptr,#_uip_sappdata
   07F2 74r47              2746 	mov	a,#(_uip_aligned_buf + 0x003c)
   07F4 F0                 2747 	movx	@dptr,a
   07F5 A3                 2748 	inc	dptr
   07F6 74s00              2749 	mov	a,#((_uip_aligned_buf + 0x003c) >> 8)
   07F8 F0                 2750 	movx	@dptr,a
   07F9 A3                 2751 	inc	dptr
   07FA E4                 2752 	clr	a
   07FB F0                 2753 	movx	@dptr,a
                           2754 ;	../../../contiki-sensinode//core/net/uip6.c:1048: if(flag == UIP_UDP_TIMER) {
   07FC BF 05 6A           2755 	cjne	r7,#0x05,00110$
                           2756 ;	../../../contiki-sensinode//core/net/uip6.c:1049: if(uip_udp_conn->lport != 0) {
   07FF 90s01r6C           2757 	mov	dptr,#_uip_udp_conn
   0802 E0                 2758 	movx	a,@dptr
   0803 FD                 2759 	mov	r5,a
   0804 A3                 2760 	inc	dptr
   0805 E0                 2761 	movx	a,@dptr
   0806 FE                 2762 	mov	r6,a
   0807 A3                 2763 	inc	dptr
   0808 E0                 2764 	movx	a,@dptr
   0809 FF                 2765 	mov	r7,a
   080A 74 10              2766 	mov	a,#0x10
   080C 2D                 2767 	add	a,r5
   080D FD                 2768 	mov	r5,a
   080E E4                 2769 	clr	a
   080F 3E                 2770 	addc	a,r6
   0810 FE                 2771 	mov	r6,a
   0811 8D 82              2772 	mov	dpl,r5
   0813 8E 83              2773 	mov	dph,r6
   0815 8F F0              2774 	mov	b,r7
   0817 12s00r00           2775 	lcall	__gptrget
   081A FD                 2776 	mov	r5,a
   081B A3                 2777 	inc	dptr
   081C 12s00r00           2778 	lcall	__gptrget
   081F FE                 2779 	mov	r6,a
   0820 4D                 2780 	orl	a,r5
   0821 70 03              2781 	jnz	00456$
   0823 02s15r78           2782 	ljmp	00255$
   0826                    2783 00456$:
                           2784 ;	../../../contiki-sensinode//core/net/uip6.c:1050: uip_conn = NULL;
   0826 90s01r66           2785 	mov	dptr,#_uip_conn
   0829 E4                 2786 	clr	a
   082A F0                 2787 	movx	@dptr,a
   082B A3                 2788 	inc	dptr
   082C F0                 2789 	movx	@dptr,a
   082D A3                 2790 	inc	dptr
   082E F0                 2791 	movx	@dptr,a
                           2792 ;	../../../contiki-sensinode//core/net/uip6.c:1051: uip_sappdata = uip_appdata = &uip_buf[UIP_IPUDPH_LEN + UIP_LLH_LEN];
   082F 90s01r5B           2793 	mov	dptr,#_uip_appdata
   0832 74r3B              2794 	mov	a,#(_uip_aligned_buf + 0x0030)
   0834 F0                 2795 	movx	@dptr,a
   0835 A3                 2796 	inc	dptr
   0836 74s00              2797 	mov	a,#((_uip_aligned_buf + 0x0030) >> 8)
   0838 F0                 2798 	movx	@dptr,a
   0839 A3                 2799 	inc	dptr
   083A E4                 2800 	clr	a
   083B F0                 2801 	movx	@dptr,a
   083C 90s01r5E           2802 	mov	dptr,#_uip_sappdata
   083F 74r3B              2803 	mov	a,#(_uip_aligned_buf + 0x0030)
   0841 F0                 2804 	movx	@dptr,a
   0842 A3                 2805 	inc	dptr
   0843 74s00              2806 	mov	a,#((_uip_aligned_buf + 0x0030) >> 8)
   0845 F0                 2807 	movx	@dptr,a
   0846 A3                 2808 	inc	dptr
                           2809 ;	../../../contiki-sensinode//core/net/uip6.c:1052: uip_len = uip_slen = 0;
   0847 E4                 2810 	clr	a
   0848 F0                 2811 	movx	@dptr,a
   0849 90s01r63           2812 	mov	dptr,#_uip_slen
   084C F0                 2813 	movx	@dptr,a
   084D A3                 2814 	inc	dptr
   084E E4                 2815 	clr	a
   084F F0                 2816 	movx	@dptr,a
   0850 90s01r61           2817 	mov	dptr,#_uip_len
   0853 F0                 2818 	movx	@dptr,a
   0854 A3                 2819 	inc	dptr
   0855 E4                 2820 	clr	a
   0856 F0                 2821 	movx	@dptr,a
                           2822 ;	../../../contiki-sensinode//core/net/uip6.c:1053: uip_flags = UIP_POLL;
   0857 90s01r65           2823 	mov	dptr,#_uip_flags
   085A 74 08              2824 	mov	a,#0x08
   085C F0                 2825 	movx	@dptr,a
                           2826 ;	../../../contiki-sensinode//core/net/uip6.c:1054: UIP_UDP_APPCALL();
   085D 78r00              2827 	mov	r0,#_tcpip_uipcall
   085F 79s00              2828 	mov	r1,#(_tcpip_uipcall >> 8)
   0861 7As00              2829 	mov	r2,#(_tcpip_uipcall >> 16)
   0863 12s00r00           2830 	lcall	__sdcc_banked_call
                           2831 ;	../../../contiki-sensinode//core/net/uip6.c:1055: goto udp_send;
   0866 02s13r5C           2832 	ljmp	00248$
                           2833 ;	../../../contiki-sensinode//core/net/uip6.c:1057: goto drop;
   0869                    2834 00110$:
                           2835 ;	../../../contiki-sensinode//core/net/uip6.c:1069: if((UIP_IP_BUF->vtc & 0xf0) != 0x60)  { /* IP version and header length. */
   0869 90s00r0B           2836 	mov	dptr,#_uip_aligned_buf
   086C E0                 2837 	movx	a,@dptr
   086D FF                 2838 	mov	r7,a
   086E 53 07 F0           2839 	anl	ar7,#0xF0
   0871 BF 60 02           2840 	cjne	r7,#0x60,00457$
   0874 80 03              2841 	sjmp	00458$
   0876                    2842 00457$:
   0876 02s15r78           2843 	ljmp	00255$
   0879                    2844 00458$:
                           2845 ;	../../../contiki-sensinode//core/net/uip6.c:1084: if((UIP_IP_BUF->len[0] << 8) + UIP_IP_BUF->len[1] <= uip_len) {
   0879 7Er0B              2846 	mov	r6,#_uip_aligned_buf
   087B 7Fs00              2847 	mov	r7,#(_uip_aligned_buf >> 8)
   087D 8E 82              2848 	mov	dpl,r6
   087F 8F 83              2849 	mov	dph,r7
   0881 A3                 2850 	inc	dptr
   0882 A3                 2851 	inc	dptr
   0883 A3                 2852 	inc	dptr
   0884 A3                 2853 	inc	dptr
   0885 E0                 2854 	movx	a,@dptr
   0886 FE                 2855 	mov	r6,a
   0887 7F 00              2856 	mov	r7,#0x00
   0889 7Cr0B              2857 	mov	r4,#_uip_aligned_buf
   088B 7Ds00              2858 	mov	r5,#(_uip_aligned_buf >> 8)
   088D 8C 82              2859 	mov	dpl,r4
   088F 8D 83              2860 	mov	dph,r5
   0891 A3                 2861 	inc	dptr
   0892 A3                 2862 	inc	dptr
   0893 A3                 2863 	inc	dptr
   0894 A3                 2864 	inc	dptr
   0895 A3                 2865 	inc	dptr
   0896 E0                 2866 	movx	a,@dptr
   0897 7C 00              2867 	mov	r4,#0x00
   0899 2F                 2868 	add	a,r7
   089A FF                 2869 	mov	r7,a
   089B EC                 2870 	mov	a,r4
   089C 3E                 2871 	addc	a,r6
   089D FE                 2872 	mov	r6,a
   089E 90s01r61           2873 	mov	dptr,#_uip_len
   08A1 E0                 2874 	movx	a,@dptr
   08A2 FC                 2875 	mov	r4,a
   08A3 A3                 2876 	inc	dptr
   08A4 E0                 2877 	movx	a,@dptr
   08A5 FD                 2878 	mov	r5,a
   08A6 C3                 2879 	clr	c
   08A7 EC                 2880 	mov	a,r4
   08A8 9F                 2881 	subb	a,r7
   08A9 ED                 2882 	mov	a,r5
   08AA 9E                 2883 	subb	a,r6
   08AB 50 03              2884 	jnc	00459$
   08AD 02s15r78           2885 	ljmp	00255$
   08B0                    2886 00459$:
                           2887 ;	../../../contiki-sensinode//core/net/uip6.c:1085: uip_len = (UIP_IP_BUF->len[0] << 8) + UIP_IP_BUF->len[1] + UIP_IPH_LEN;
   08B0 7Er0B              2888 	mov	r6,#_uip_aligned_buf
   08B2 7Fs00              2889 	mov	r7,#(_uip_aligned_buf >> 8)
   08B4 8E 82              2890 	mov	dpl,r6
   08B6 8F 83              2891 	mov	dph,r7
   08B8 A3                 2892 	inc	dptr
   08B9 A3                 2893 	inc	dptr
   08BA A3                 2894 	inc	dptr
   08BB A3                 2895 	inc	dptr
   08BC E0                 2896 	movx	a,@dptr
   08BD FE                 2897 	mov	r6,a
   08BE 7F 00              2898 	mov	r7,#0x00
   08C0 7Cr0B              2899 	mov	r4,#_uip_aligned_buf
   08C2 7Ds00              2900 	mov	r5,#(_uip_aligned_buf >> 8)
   08C4 8C 82              2901 	mov	dpl,r4
   08C6 8D 83              2902 	mov	dph,r5
   08C8 A3                 2903 	inc	dptr
   08C9 A3                 2904 	inc	dptr
   08CA A3                 2905 	inc	dptr
   08CB A3                 2906 	inc	dptr
   08CC A3                 2907 	inc	dptr
   08CD E0                 2908 	movx	a,@dptr
   08CE FD                 2909 	mov	r5,a
   08CF 7C 00              2910 	mov	r4,#0x00
   08D1 2F                 2911 	add	a,r7
   08D2 FF                 2912 	mov	r7,a
   08D3 EC                 2913 	mov	a,r4
   08D4 3E                 2914 	addc	a,r6
   08D5 FE                 2915 	mov	r6,a
   08D6 74 28              2916 	mov	a,#0x28
   08D8 2F                 2917 	add	a,r7
   08D9 FF                 2918 	mov	r7,a
   08DA E4                 2919 	clr	a
   08DB 3E                 2920 	addc	a,r6
   08DC FE                 2921 	mov	r6,a
   08DD 90s01r61           2922 	mov	dptr,#_uip_len
   08E0 EF                 2923 	mov	a,r7
   08E1 F0                 2924 	movx	@dptr,a
   08E2 A3                 2925 	inc	dptr
   08E3 EE                 2926 	mov	a,r6
   08E4 F0                 2927 	movx	@dptr,a
                           2928 ;	../../../contiki-sensinode//core/net/uip6.c:1108: if(uip_is_addr_mcast(&UIP_IP_BUF->srcipaddr)){
   08E5 7Er0B              2929 	mov	r6,#_uip_aligned_buf
   08E7 7Fs00              2930 	mov	r7,#(_uip_aligned_buf >> 8)
   08E9 74 08              2931 	mov	a,#0x08
   08EB 2E                 2932 	add	a,r6
   08EC F5 82              2933 	mov	dpl,a
   08EE E4                 2934 	clr	a
   08EF 3F                 2935 	addc	a,r7
   08F0 F5 83              2936 	mov	dph,a
   08F2 E0                 2937 	movx	a,@dptr
   08F3 FF                 2938 	mov	r7,a
   08F4 BF FF 03           2939 	cjne	r7,#0xFF,00460$
   08F7 02s15r78           2940 	ljmp	00255$
   08FA                    2941 00460$:
                           2942 ;	../../../contiki-sensinode//core/net/uip6.c:1120: uip_next_hdr = &UIP_IP_BUF->proto;
   08FA 7Er0B              2943 	mov	r6,#_uip_aligned_buf
   08FC 7Fs00              2944 	mov	r7,#(_uip_aligned_buf >> 8)
   08FE 74 06              2945 	mov	a,#0x06
   0900 2E                 2946 	add	a,r6
   0901 FE                 2947 	mov	r6,a
   0902 E4                 2948 	clr	a
   0903 3F                 2949 	addc	a,r7
   0904 FF                 2950 	mov	r7,a
   0905 7D 00              2951 	mov	r5,#0x00
   0907 90s00r08           2952 	mov	dptr,#_uip_next_hdr
   090A EE                 2953 	mov	a,r6
   090B F0                 2954 	movx	@dptr,a
   090C A3                 2955 	inc	dptr
   090D EF                 2956 	mov	a,r7
   090E F0                 2957 	movx	@dptr,a
   090F A3                 2958 	inc	dptr
   0910 ED                 2959 	mov	a,r5
   0911 F0                 2960 	movx	@dptr,a
                           2961 ;	../../../contiki-sensinode//core/net/uip6.c:1121: uip_ext_len = 0;
   0912 90s00r01           2962 	mov	dptr,#_uip_ext_len
                           2963 ;	../../../contiki-sensinode//core/net/uip6.c:1122: uip_ext_bitmap = 0;
   0915 E4                 2964 	clr	a
   0916 F0                 2965 	movx	@dptr,a
   0917 90s00r00           2966 	mov	dptr,#_uip_ext_bitmap
   091A F0                 2967 	movx	@dptr,a
                           2968 ;	../../../contiki-sensinode//core/net/uip6.c:1123: if(*uip_next_hdr == UIP_PROTO_HBHO) {
   091B 8E 82              2969 	mov	dpl,r6
   091D 8F 83              2970 	mov	dph,r7
   091F 8D F0              2971 	mov	b,r5
   0921 12s00r00           2972 	lcall	__gptrget
   0924 70 5C              2973 	jnz	00123$
                           2974 ;	../../../contiki-sensinode//core/net/uip6.c:1125: uip_ext_bitmap |= UIP_EXT_HDR_BITMAP_HBHO;
   0926 90s00r00           2975 	mov	dptr,#_uip_ext_bitmap
   0929 74 01              2976 	mov	a,#0x01
   092B F0                 2977 	movx	@dptr,a
                           2978 ;	../../../contiki-sensinode//core/net/uip6.c:1127: switch(ext_hdr_options_process()) {
   092C 78rD1              2979 	mov	r0,#_ext_hdr_options_process
   092E 79s05              2980 	mov	r1,#(_ext_hdr_options_process >> 8)
   0930 7As00              2981 	mov	r2,#(_ext_hdr_options_process >> 16)
   0932 12s00r00           2982 	lcall	__sdcc_banked_call
   0935 AF 82              2983 	mov	r7,dpl
   0937 BF 00 02           2984 	cjne	r7,#0x00,00462$
   093A 80 0E              2985 	sjmp	00118$
   093C                    2986 00462$:
   093C BF 01 03           2987 	cjne	r7,#0x01,00463$
   093F 02s15r78           2988 	ljmp	00255$
   0942                    2989 00463$:
   0942 BF 02 03           2990 	cjne	r7,#0x02,00464$
   0945 02s15r71           2991 	ljmp	00254$
   0948                    2992 00464$:
                           2993 ;	../../../contiki-sensinode//core/net/uip6.c:1128: case 0:
   0948 80 38              2994 	sjmp	00123$
   094A                    2995 00118$:
                           2996 ;	../../../contiki-sensinode//core/net/uip6.c:1130: uip_next_hdr = &UIP_EXT_BUF->next;
   094A 90s00r01           2997 	mov	dptr,#_uip_ext_len
   094D E0                 2998 	movx	a,@dptr
   094E FF                 2999 	mov	r7,a
   094F FD                 3000 	mov	r5,a
   0950 7E 00              3001 	mov	r6,#0x00
   0952 74 28              3002 	mov	a,#0x28
   0954 2D                 3003 	add	a,r5
   0955 FD                 3004 	mov	r5,a
   0956 E4                 3005 	clr	a
   0957 3E                 3006 	addc	a,r6
   0958 FE                 3007 	mov	r6,a
   0959 ED                 3008 	mov	a,r5
   095A 24r0B              3009 	add	a,#_uip_aligned_buf
   095C FD                 3010 	mov	r5,a
   095D EE                 3011 	mov	a,r6
   095E 34s00              3012 	addc	a,#(_uip_aligned_buf >> 8)
   0960 FE                 3013 	mov	r6,a
   0961 8D 03              3014 	mov	ar3,r5
   0963 8E 04              3015 	mov	ar4,r6
   0965 90s00r08           3016 	mov	dptr,#_uip_next_hdr
   0968 EB                 3017 	mov	a,r3
   0969 F0                 3018 	movx	@dptr,a
   096A A3                 3019 	inc	dptr
   096B EC                 3020 	mov	a,r4
   096C F0                 3021 	movx	@dptr,a
   096D A3                 3022 	inc	dptr
   096E E4                 3023 	clr	a
   096F F0                 3024 	movx	@dptr,a
                           3025 ;	../../../contiki-sensinode//core/net/uip6.c:1131: uip_ext_len += (UIP_EXT_BUF->len << 3) + 8;
   0970 8D 82              3026 	mov	dpl,r5
   0972 8E 83              3027 	mov	dph,r6
   0974 A3                 3028 	inc	dptr
   0975 E0                 3029 	movx	a,@dptr
   0976 C4                 3030 	swap	a
   0977 03                 3031 	rr	a
   0978 54 F8              3032 	anl	a,#0xF8
   097A FE                 3033 	mov	r6,a
   097B 24 08              3034 	add	a,#0x08
   097D 90s00r01           3035 	mov	dptr,#_uip_ext_len
   0980 2F                 3036 	add	a,r7
   0981 F0                 3037 	movx	@dptr,a
                           3038 ;	../../../contiki-sensinode//core/net/uip6.c:1142: }
   0982                    3039 00123$:
                           3040 ;	../../../contiki-sensinode//core/net/uip6.c:1147: if(!uip_ds6_is_my_addr(&UIP_IP_BUF->destipaddr) &&
   0982 7Er0B              3041 	mov	r6,#_uip_aligned_buf
   0984 7Fs00              3042 	mov	r7,#(_uip_aligned_buf >> 8)
   0986 74 18              3043 	mov	a,#0x18
   0988 2E                 3044 	add	a,r6
   0989 FE                 3045 	mov	r6,a
   098A E4                 3046 	clr	a
   098B 3F                 3047 	addc	a,r7
   098C FF                 3048 	mov	r7,a
   098D 7D 00              3049 	mov	r5,#0x00
   098F 8E 82              3050 	mov	dpl,r6
   0991 8F 83              3051 	mov	dph,r7
   0993 8D F0              3052 	mov	b,r5
   0995 78r00              3053 	mov	r0,#_uip_ds6_addr_lookup
   0997 79s00              3054 	mov	r1,#(_uip_ds6_addr_lookup >> 8)
   0999 7As00              3055 	mov	r2,#(_uip_ds6_addr_lookup >> 16)
   099B 12s00r00           3056 	lcall	__sdcc_banked_call
   099E AD 82              3057 	mov	r5,dpl
   09A0 AE 83              3058 	mov	r6,dph
   09A2 AF F0              3059 	mov	r7,b
   09A4 ED                 3060 	mov	a,r5
   09A5 4E                 3061 	orl	a,r6
   09A6 60 03              3062 	jz	00465$
   09A8 02s0Er36           3063 	ljmp	00209$
   09AB                    3064 00465$:
                           3065 ;	../../../contiki-sensinode//core/net/uip6.c:1148: !uip_ds6_is_my_maddr(&UIP_IP_BUF->destipaddr)) {
   09AB 7Er0B              3066 	mov	r6,#_uip_aligned_buf
   09AD 7Fs00              3067 	mov	r7,#(_uip_aligned_buf >> 8)
   09AF 74 18              3068 	mov	a,#0x18
   09B1 2E                 3069 	add	a,r6
   09B2 FE                 3070 	mov	r6,a
   09B3 E4                 3071 	clr	a
   09B4 3F                 3072 	addc	a,r7
   09B5 FF                 3073 	mov	r7,a
   09B6 7D 00              3074 	mov	r5,#0x00
   09B8 8E 82              3075 	mov	dpl,r6
   09BA 8F 83              3076 	mov	dph,r7
   09BC 8D F0              3077 	mov	b,r5
   09BE 78r00              3078 	mov	r0,#_uip_ds6_maddr_lookup
   09C0 79s00              3079 	mov	r1,#(_uip_ds6_maddr_lookup >> 8)
   09C2 7As00              3080 	mov	r2,#(_uip_ds6_maddr_lookup >> 16)
   09C4 12s00r00           3081 	lcall	__sdcc_banked_call
   09C7 AD 82              3082 	mov	r5,dpl
   09C9 AE 83              3083 	mov	r6,dph
   09CB AF F0              3084 	mov	r7,b
   09CD ED                 3085 	mov	a,r5
   09CE 4E                 3086 	orl	a,r6
   09CF 60 03              3087 	jz	00466$
   09D1 02s0Er36           3088 	ljmp	00209$
   09D4                    3089 00466$:
                           3090 ;	../../../contiki-sensinode//core/net/uip6.c:1149: if(!uip_is_addr_mcast(&UIP_IP_BUF->destipaddr) &&
   09D4 7Er0B              3091 	mov	r6,#_uip_aligned_buf
   09D6 7Fs00              3092 	mov	r7,#(_uip_aligned_buf >> 8)
   09D8 74 18              3093 	mov	a,#0x18
   09DA 2E                 3094 	add	a,r6
   09DB F5 82              3095 	mov	dpl,a
   09DD E4                 3096 	clr	a
   09DE 3F                 3097 	addc	a,r7
   09DF F5 83              3098 	mov	dph,a
   09E1 E0                 3099 	movx	a,@dptr
   09E2 FF                 3100 	mov	r7,a
   09E3 BF FF 03           3101 	cjne	r7,#0xFF,00467$
   09E6 02s0Cr3D           3102 	ljmp	00151$
   09E9                    3103 00467$:
                           3104 ;	../../../contiki-sensinode//core/net/uip6.c:1150: !uip_is_addr_link_local(&UIP_IP_BUF->destipaddr) &&
   09E9 7Er0B              3105 	mov	r6,#_uip_aligned_buf
   09EB 7Fs00              3106 	mov	r7,#(_uip_aligned_buf >> 8)
   09ED 74 18              3107 	mov	a,#0x18
   09EF 2E                 3108 	add	a,r6
   09F0 F5 82              3109 	mov	dpl,a
   09F2 E4                 3110 	clr	a
   09F3 3F                 3111 	addc	a,r7
   09F4 F5 83              3112 	mov	dph,a
   09F6 E0                 3113 	movx	a,@dptr
   09F7 FF                 3114 	mov	r7,a
   09F8 BF FE 15           3115 	cjne	r7,#0xFE,00156$
   09FB 7Er0B              3116 	mov	r6,#_uip_aligned_buf
   09FD 7Fs00              3117 	mov	r7,#(_uip_aligned_buf >> 8)
   09FF 74 19              3118 	mov	a,#0x19
   0A01 2E                 3119 	add	a,r6
   0A02 F5 82              3120 	mov	dpl,a
   0A04 E4                 3121 	clr	a
   0A05 3F                 3122 	addc	a,r7
   0A06 F5 83              3123 	mov	dph,a
   0A08 E0                 3124 	movx	a,@dptr
   0A09 FF                 3125 	mov	r7,a
   0A0A BF 80 03           3126 	cjne	r7,#0x80,00470$
   0A0D 02s0Cr3D           3127 	ljmp	00151$
   0A10                    3128 00470$:
   0A10                    3129 00156$:
                           3130 ;	../../../contiki-sensinode//core/net/uip6.c:1151: !uip_is_addr_link_local(&UIP_IP_BUF->srcipaddr) &&
   0A10 7Er0B              3131 	mov	r6,#_uip_aligned_buf
   0A12 7Fs00              3132 	mov	r7,#(_uip_aligned_buf >> 8)
   0A14 74 08              3133 	mov	a,#0x08
   0A16 2E                 3134 	add	a,r6
   0A17 F5 82              3135 	mov	dpl,a
   0A19 E4                 3136 	clr	a
   0A1A 3F                 3137 	addc	a,r7
   0A1B F5 83              3138 	mov	dph,a
   0A1D E0                 3139 	movx	a,@dptr
   0A1E FF                 3140 	mov	r7,a
   0A1F BF FE 15           3141 	cjne	r7,#0xFE,00164$
   0A22 7Er0B              3142 	mov	r6,#_uip_aligned_buf
   0A24 7Fs00              3143 	mov	r7,#(_uip_aligned_buf >> 8)
   0A26 74 09              3144 	mov	a,#0x09
   0A28 2E                 3145 	add	a,r6
   0A29 F5 82              3146 	mov	dpl,a
   0A2B E4                 3147 	clr	a
   0A2C 3F                 3148 	addc	a,r7
   0A2D F5 83              3149 	mov	dph,a
   0A2F E0                 3150 	movx	a,@dptr
   0A30 FF                 3151 	mov	r7,a
   0A31 BF 80 03           3152 	cjne	r7,#0x80,00473$
   0A34 02s0Cr3D           3153 	ljmp	00151$
   0A37                    3154 00473$:
   0A37                    3155 00164$:
                           3156 ;	../../../contiki-sensinode//core/net/uip6.c:1152: !uip_is_addr_unspecified(&UIP_IP_BUF->srcipaddr) &&
   0A37 7Er0B              3157 	mov	r6,#_uip_aligned_buf
   0A39 7Fs00              3158 	mov	r7,#(_uip_aligned_buf >> 8)
   0A3B 74 08              3159 	mov	a,#0x08
   0A3D 2E                 3160 	add	a,r6
   0A3E F5 82              3161 	mov	dpl,a
   0A40 E4                 3162 	clr	a
   0A41 3F                 3163 	addc	a,r7
   0A42 F5 83              3164 	mov	dph,a
   0A44 E0                 3165 	movx	a,@dptr
   0A45 FE                 3166 	mov	r6,a
   0A46 A3                 3167 	inc	dptr
   0A47 E0                 3168 	movx	a,@dptr
   0A48 FF                 3169 	mov	r7,a
   0A49 4E                 3170 	orl	a,r6
   0A4A 60 03              3171 	jz	00474$
   0A4C 02s0ArE8           3172 	ljmp	00173$
   0A4F                    3173 00474$:
   0A4F 7Er0B              3174 	mov	r6,#_uip_aligned_buf
   0A51 7Fs00              3175 	mov	r7,#(_uip_aligned_buf >> 8)
   0A53 74 0A              3176 	mov	a,#0x0A
   0A55 2E                 3177 	add	a,r6
   0A56 F5 82              3178 	mov	dpl,a
   0A58 E4                 3179 	clr	a
   0A59 3F                 3180 	addc	a,r7
   0A5A F5 83              3181 	mov	dph,a
   0A5C E0                 3182 	movx	a,@dptr
   0A5D FE                 3183 	mov	r6,a
   0A5E A3                 3184 	inc	dptr
   0A5F E0                 3185 	movx	a,@dptr
   0A60 FF                 3186 	mov	r7,a
   0A61 4E                 3187 	orl	a,r6
   0A62 60 03              3188 	jz	00475$
   0A64 02s0ArE8           3189 	ljmp	00173$
   0A67                    3190 00475$:
   0A67 7Er0B              3191 	mov	r6,#_uip_aligned_buf
   0A69 7Fs00              3192 	mov	r7,#(_uip_aligned_buf >> 8)
   0A6B 74 0C              3193 	mov	a,#0x0C
   0A6D 2E                 3194 	add	a,r6
   0A6E F5 82              3195 	mov	dpl,a
   0A70 E4                 3196 	clr	a
   0A71 3F                 3197 	addc	a,r7
   0A72 F5 83              3198 	mov	dph,a
   0A74 E0                 3199 	movx	a,@dptr
   0A75 FE                 3200 	mov	r6,a
   0A76 A3                 3201 	inc	dptr
   0A77 E0                 3202 	movx	a,@dptr
   0A78 FF                 3203 	mov	r7,a
   0A79 4E                 3204 	orl	a,r6
   0A7A 70 6C              3205 	jnz	00173$
   0A7C 7Er0B              3206 	mov	r6,#_uip_aligned_buf
   0A7E 7Fs00              3207 	mov	r7,#(_uip_aligned_buf >> 8)
   0A80 74 0E              3208 	mov	a,#0x0E
   0A82 2E                 3209 	add	a,r6
   0A83 F5 82              3210 	mov	dpl,a
   0A85 E4                 3211 	clr	a
   0A86 3F                 3212 	addc	a,r7
   0A87 F5 83              3213 	mov	dph,a
   0A89 E0                 3214 	movx	a,@dptr
   0A8A FE                 3215 	mov	r6,a
   0A8B A3                 3216 	inc	dptr
   0A8C E0                 3217 	movx	a,@dptr
   0A8D FF                 3218 	mov	r7,a
   0A8E 4E                 3219 	orl	a,r6
   0A8F 70 57              3220 	jnz	00173$
   0A91 7Er0B              3221 	mov	r6,#_uip_aligned_buf
   0A93 7Fs00              3222 	mov	r7,#(_uip_aligned_buf >> 8)
   0A95 74 10              3223 	mov	a,#0x10
   0A97 2E                 3224 	add	a,r6
   0A98 F5 82              3225 	mov	dpl,a
   0A9A E4                 3226 	clr	a
   0A9B 3F                 3227 	addc	a,r7
   0A9C F5 83              3228 	mov	dph,a
   0A9E E0                 3229 	movx	a,@dptr
   0A9F FE                 3230 	mov	r6,a
   0AA0 A3                 3231 	inc	dptr
   0AA1 E0                 3232 	movx	a,@dptr
   0AA2 FF                 3233 	mov	r7,a
   0AA3 4E                 3234 	orl	a,r6
   0AA4 70 42              3235 	jnz	00173$
   0AA6 7Er0B              3236 	mov	r6,#_uip_aligned_buf
   0AA8 7Fs00              3237 	mov	r7,#(_uip_aligned_buf >> 8)
   0AAA 74 12              3238 	mov	a,#0x12
   0AAC 2E                 3239 	add	a,r6
   0AAD F5 82              3240 	mov	dpl,a
   0AAF E4                 3241 	clr	a
   0AB0 3F                 3242 	addc	a,r7
   0AB1 F5 83              3243 	mov	dph,a
   0AB3 E0                 3244 	movx	a,@dptr
   0AB4 FE                 3245 	mov	r6,a
   0AB5 A3                 3246 	inc	dptr
   0AB6 E0                 3247 	movx	a,@dptr
   0AB7 FF                 3248 	mov	r7,a
   0AB8 4E                 3249 	orl	a,r6
   0AB9 70 2D              3250 	jnz	00173$
   0ABB 7Er0B              3251 	mov	r6,#_uip_aligned_buf
   0ABD 7Fs00              3252 	mov	r7,#(_uip_aligned_buf >> 8)
   0ABF 74 14              3253 	mov	a,#0x14
   0AC1 2E                 3254 	add	a,r6
   0AC2 F5 82              3255 	mov	dpl,a
   0AC4 E4                 3256 	clr	a
   0AC5 3F                 3257 	addc	a,r7
   0AC6 F5 83              3258 	mov	dph,a
   0AC8 E0                 3259 	movx	a,@dptr
   0AC9 FE                 3260 	mov	r6,a
   0ACA A3                 3261 	inc	dptr
   0ACB E0                 3262 	movx	a,@dptr
   0ACC FF                 3263 	mov	r7,a
   0ACD 4E                 3264 	orl	a,r6
   0ACE 70 18              3265 	jnz	00173$
   0AD0 7Er0B              3266 	mov	r6,#_uip_aligned_buf
   0AD2 7Fs00              3267 	mov	r7,#(_uip_aligned_buf >> 8)
   0AD4 74 16              3268 	mov	a,#0x16
   0AD6 2E                 3269 	add	a,r6
   0AD7 F5 82              3270 	mov	dpl,a
   0AD9 E4                 3271 	clr	a
   0ADA 3F                 3272 	addc	a,r7
   0ADB F5 83              3273 	mov	dph,a
   0ADD E0                 3274 	movx	a,@dptr
   0ADE FE                 3275 	mov	r6,a
   0ADF A3                 3276 	inc	dptr
   0AE0 E0                 3277 	movx	a,@dptr
   0AE1 FF                 3278 	mov	r7,a
   0AE2 4E                 3279 	orl	a,r6
   0AE3 70 03              3280 	jnz	00481$
   0AE5 02s0Cr3D           3281 	ljmp	00151$
   0AE8                    3282 00481$:
   0AE8                    3283 00173$:
                           3284 ;	../../../contiki-sensinode//core/net/uip6.c:1153: !uip_is_addr_loopback(&UIP_IP_BUF->destipaddr)) {
   0AE8 7Er0B              3285 	mov	r6,#_uip_aligned_buf
   0AEA 7Fs00              3286 	mov	r7,#(_uip_aligned_buf >> 8)
   0AEC 74 18              3287 	mov	a,#0x18
   0AEE 2E                 3288 	add	a,r6
   0AEF F5 82              3289 	mov	dpl,a
   0AF1 E4                 3290 	clr	a
   0AF2 3F                 3291 	addc	a,r7
   0AF3 F5 83              3292 	mov	dph,a
   0AF5 E0                 3293 	movx	a,@dptr
   0AF6 FE                 3294 	mov	r6,a
   0AF7 A3                 3295 	inc	dptr
   0AF8 E0                 3296 	movx	a,@dptr
   0AF9 FF                 3297 	mov	r7,a
   0AFA 4E                 3298 	orl	a,r6
   0AFB 60 03              3299 	jz	00482$
   0AFD 02s0BrA8           3300 	ljmp	00150$
   0B00                    3301 00482$:
   0B00 7Er0B              3302 	mov	r6,#_uip_aligned_buf
   0B02 7Fs00              3303 	mov	r7,#(_uip_aligned_buf >> 8)
   0B04 74 1A              3304 	mov	a,#0x1A
   0B06 2E                 3305 	add	a,r6
   0B07 F5 82              3306 	mov	dpl,a
   0B09 E4                 3307 	clr	a
   0B0A 3F                 3308 	addc	a,r7
   0B0B F5 83              3309 	mov	dph,a
   0B0D E0                 3310 	movx	a,@dptr
   0B0E FE                 3311 	mov	r6,a
   0B0F A3                 3312 	inc	dptr
   0B10 E0                 3313 	movx	a,@dptr
   0B11 FF                 3314 	mov	r7,a
   0B12 4E                 3315 	orl	a,r6
   0B13 60 03              3316 	jz	00483$
   0B15 02s0BrA8           3317 	ljmp	00150$
   0B18                    3318 00483$:
   0B18 7Er0B              3319 	mov	r6,#_uip_aligned_buf
   0B1A 7Fs00              3320 	mov	r7,#(_uip_aligned_buf >> 8)
   0B1C 74 1C              3321 	mov	a,#0x1C
   0B1E 2E                 3322 	add	a,r6
   0B1F F5 82              3323 	mov	dpl,a
   0B21 E4                 3324 	clr	a
   0B22 3F                 3325 	addc	a,r7
   0B23 F5 83              3326 	mov	dph,a
   0B25 E0                 3327 	movx	a,@dptr
   0B26 FE                 3328 	mov	r6,a
   0B27 A3                 3329 	inc	dptr
   0B28 E0                 3330 	movx	a,@dptr
   0B29 FF                 3331 	mov	r7,a
   0B2A 4E                 3332 	orl	a,r6
   0B2B 70 7B              3333 	jnz	00150$
   0B2D 7Er0B              3334 	mov	r6,#_uip_aligned_buf
   0B2F 7Fs00              3335 	mov	r7,#(_uip_aligned_buf >> 8)
   0B31 74 1E              3336 	mov	a,#0x1E
   0B33 2E                 3337 	add	a,r6
   0B34 F5 82              3338 	mov	dpl,a
   0B36 E4                 3339 	clr	a
   0B37 3F                 3340 	addc	a,r7
   0B38 F5 83              3341 	mov	dph,a
   0B3A E0                 3342 	movx	a,@dptr
   0B3B FE                 3343 	mov	r6,a
   0B3C A3                 3344 	inc	dptr
   0B3D E0                 3345 	movx	a,@dptr
   0B3E FF                 3346 	mov	r7,a
   0B3F 4E                 3347 	orl	a,r6
   0B40 70 66              3348 	jnz	00150$
   0B42 7Er0B              3349 	mov	r6,#_uip_aligned_buf
   0B44 7Fs00              3350 	mov	r7,#(_uip_aligned_buf >> 8)
   0B46 74 20              3351 	mov	a,#0x20
   0B48 2E                 3352 	add	a,r6
   0B49 F5 82              3353 	mov	dpl,a
   0B4B E4                 3354 	clr	a
   0B4C 3F                 3355 	addc	a,r7
   0B4D F5 83              3356 	mov	dph,a
   0B4F E0                 3357 	movx	a,@dptr
   0B50 FE                 3358 	mov	r6,a
   0B51 A3                 3359 	inc	dptr
   0B52 E0                 3360 	movx	a,@dptr
   0B53 FF                 3361 	mov	r7,a
   0B54 4E                 3362 	orl	a,r6
   0B55 70 51              3363 	jnz	00150$
   0B57 7Er0B              3364 	mov	r6,#_uip_aligned_buf
   0B59 7Fs00              3365 	mov	r7,#(_uip_aligned_buf >> 8)
   0B5B 74 22              3366 	mov	a,#0x22
   0B5D 2E                 3367 	add	a,r6
   0B5E F5 82              3368 	mov	dpl,a
   0B60 E4                 3369 	clr	a
   0B61 3F                 3370 	addc	a,r7
   0B62 F5 83              3371 	mov	dph,a
   0B64 E0                 3372 	movx	a,@dptr
   0B65 FE                 3373 	mov	r6,a
   0B66 A3                 3374 	inc	dptr
   0B67 E0                 3375 	movx	a,@dptr
   0B68 FF                 3376 	mov	r7,a
   0B69 4E                 3377 	orl	a,r6
   0B6A 70 3C              3378 	jnz	00150$
   0B6C 7Er0B              3379 	mov	r6,#_uip_aligned_buf
   0B6E 7Fs00              3380 	mov	r7,#(_uip_aligned_buf >> 8)
   0B70 74 24              3381 	mov	a,#0x24
   0B72 2E                 3382 	add	a,r6
   0B73 F5 82              3383 	mov	dpl,a
   0B75 E4                 3384 	clr	a
   0B76 3F                 3385 	addc	a,r7
   0B77 F5 83              3386 	mov	dph,a
   0B79 E0                 3387 	movx	a,@dptr
   0B7A FE                 3388 	mov	r6,a
   0B7B A3                 3389 	inc	dptr
   0B7C E0                 3390 	movx	a,@dptr
   0B7D FF                 3391 	mov	r7,a
   0B7E 4E                 3392 	orl	a,r6
   0B7F 70 27              3393 	jnz	00150$
   0B81 7Er0B              3394 	mov	r6,#_uip_aligned_buf
   0B83 7Fs00              3395 	mov	r7,#(_uip_aligned_buf >> 8)
   0B85 74 26              3396 	mov	a,#0x26
   0B87 2E                 3397 	add	a,r6
   0B88 FE                 3398 	mov	r6,a
   0B89 E4                 3399 	clr	a
   0B8A 3F                 3400 	addc	a,r7
   0B8B FF                 3401 	mov	r7,a
   0B8C 8E 82              3402 	mov	dpl,r6
   0B8E 8F 83              3403 	mov	dph,r7
   0B90 E0                 3404 	movx	a,@dptr
   0B91 70 15              3405 	jnz	00150$
   0B93 7Er0B              3406 	mov	r6,#_uip_aligned_buf
   0B95 7Fs00              3407 	mov	r7,#(_uip_aligned_buf >> 8)
   0B97 74 27              3408 	mov	a,#0x27
   0B99 2E                 3409 	add	a,r6
   0B9A F5 82              3410 	mov	dpl,a
   0B9C E4                 3411 	clr	a
   0B9D 3F                 3412 	addc	a,r7
   0B9E F5 83              3413 	mov	dph,a
   0BA0 E0                 3414 	movx	a,@dptr
   0BA1 FF                 3415 	mov	r7,a
   0BA2 BF 01 03           3416 	cjne	r7,#0x01,00490$
   0BA5 02s0Cr3D           3417 	ljmp	00151$
   0BA8                    3418 00490$:
   0BA8                    3419 00150$:
                           3420 ;	../../../contiki-sensinode//core/net/uip6.c:1157: if(uip_len > UIP_LINK_MTU) {
   0BA8 90s01r61           3421 	mov	dptr,#_uip_len
   0BAB E0                 3422 	movx	a,@dptr
   0BAC FE                 3423 	mov	r6,a
   0BAD A3                 3424 	inc	dptr
   0BAE E0                 3425 	movx	a,@dptr
   0BAF FF                 3426 	mov	r7,a
   0BB0 C3                 3427 	clr	c
   0BB1 E4                 3428 	clr	a
   0BB2 9E                 3429 	subb	a,r6
   0BB3 74 05              3430 	mov	a,#0x05
   0BB5 9F                 3431 	subb	a,r7
   0BB6 50 24              3432 	jnc	00125$
                           3433 ;	../../../contiki-sensinode//core/net/uip6.c:1158: uip_icmp6_error_output(ICMP6_PACKET_TOO_BIG, 0, UIP_LINK_MTU);
   0BB8 E4                 3434 	clr	a
   0BB9 C0 E0              3435 	push	acc
   0BBB 74 05              3436 	mov	a,#0x05
   0BBD C0 E0              3437 	push	acc
   0BBF E4                 3438 	clr	a
   0BC0 C0 E0              3439 	push	acc
   0BC2 C0 E0              3440 	push	acc
   0BC4 E4                 3441 	clr	a
   0BC5 C0 E0              3442 	push	acc
   0BC7 75 82 02           3443 	mov	dpl,#0x02
   0BCA 78r00              3444 	mov	r0,#_uip_icmp6_error_output
   0BCC 79s00              3445 	mov	r1,#(_uip_icmp6_error_output >> 8)
   0BCE 7As00              3446 	mov	r2,#(_uip_icmp6_error_output >> 16)
   0BD0 12s00r00           3447 	lcall	__sdcc_banked_call
   0BD3 E5 81              3448 	mov	a,sp
   0BD5 24 FB              3449 	add	a,#0xfb
   0BD7 F5 81              3450 	mov	sp,a
                           3451 ;	../../../contiki-sensinode//core/net/uip6.c:1160: goto send;
   0BD9 02s15r71           3452 	ljmp	00254$
   0BDC                    3453 00125$:
                           3454 ;	../../../contiki-sensinode//core/net/uip6.c:1163: if(UIP_IP_BUF->ttl <= 1) {
   0BDC 7Er0B              3455 	mov	r6,#_uip_aligned_buf
   0BDE 7Fs00              3456 	mov	r7,#(_uip_aligned_buf >> 8)
   0BE0 74 07              3457 	mov	a,#0x07
   0BE2 2E                 3458 	add	a,r6
   0BE3 F5 82              3459 	mov	dpl,a
   0BE5 E4                 3460 	clr	a
   0BE6 3F                 3461 	addc	a,r7
   0BE7 F5 83              3462 	mov	dph,a
   0BE9 E0                 3463 	movx	a,@dptr
   0BEA FF                 3464 	mov  r7,a
   0BEB 24 FE              3465 	add	a,#0xff - 0x01
   0BED 40 21              3466 	jc	00127$
                           3467 ;	../../../contiki-sensinode//core/net/uip6.c:1164: uip_icmp6_error_output(ICMP6_TIME_EXCEEDED,
   0BEF E4                 3468 	clr	a
   0BF0 C0 E0              3469 	push	acc
   0BF2 C0 E0              3470 	push	acc
   0BF4 C0 E0              3471 	push	acc
   0BF6 C0 E0              3472 	push	acc
   0BF8 E4                 3473 	clr	a
   0BF9 C0 E0              3474 	push	acc
   0BFB 75 82 03           3475 	mov	dpl,#0x03
   0BFE 78r00              3476 	mov	r0,#_uip_icmp6_error_output
   0C00 79s00              3477 	mov	r1,#(_uip_icmp6_error_output >> 8)
   0C02 7As00              3478 	mov	r2,#(_uip_icmp6_error_output >> 16)
   0C04 12s00r00           3479 	lcall	__sdcc_banked_call
   0C07 E5 81              3480 	mov	a,sp
   0C09 24 FB              3481 	add	a,#0xfb
   0C0B F5 81              3482 	mov	sp,a
                           3483 ;	../../../contiki-sensinode//core/net/uip6.c:1167: goto send;
   0C0D 02s15r71           3484 	ljmp	00254$
   0C10                    3485 00127$:
                           3486 ;	../../../contiki-sensinode//core/net/uip6.c:1171: rpl_update_header_empty();
   0C10 78r00              3487 	mov	r0,#_rpl_update_header_empty
   0C12 79s00              3488 	mov	r1,#(_rpl_update_header_empty >> 8)
   0C14 7As00              3489 	mov	r2,#(_rpl_update_header_empty >> 16)
   0C16 12s00r00           3490 	lcall	__sdcc_banked_call
                           3491 ;	../../../contiki-sensinode//core/net/uip6.c:1174: UIP_IP_BUF->ttl = UIP_IP_BUF->ttl - 1;
   0C19 7Er0B              3492 	mov	r6,#_uip_aligned_buf
   0C1B 7Fs00              3493 	mov	r7,#(_uip_aligned_buf >> 8)
   0C1D 74 07              3494 	mov	a,#0x07
   0C1F 2E                 3495 	add	a,r6
   0C20 FE                 3496 	mov	r6,a
   0C21 E4                 3497 	clr	a
   0C22 3F                 3498 	addc	a,r7
   0C23 FF                 3499 	mov	r7,a
   0C24 7Cr0B              3500 	mov	r4,#_uip_aligned_buf
   0C26 7Ds00              3501 	mov	r5,#(_uip_aligned_buf >> 8)
   0C28 74 07              3502 	mov	a,#0x07
   0C2A 2C                 3503 	add	a,r4
   0C2B F5 82              3504 	mov	dpl,a
   0C2D E4                 3505 	clr	a
   0C2E 3D                 3506 	addc	a,r5
   0C2F F5 83              3507 	mov	dph,a
   0C31 E0                 3508 	movx	a,@dptr
   0C32 FD                 3509 	mov	r5,a
   0C33 1D                 3510 	dec	r5
   0C34 8E 82              3511 	mov	dpl,r6
   0C36 8F 83              3512 	mov	dph,r7
   0C38 ED                 3513 	mov	a,r5
   0C39 F0                 3514 	movx	@dptr,a
                           3515 ;	../../../contiki-sensinode//core/net/uip6.c:1179: goto send;
   0C3A 02s15r71           3516 	ljmp	00254$
   0C3D                    3517 00151$:
                           3518 ;	../../../contiki-sensinode//core/net/uip6.c:1181: if((uip_is_addr_link_local(&UIP_IP_BUF->srcipaddr)) &&
   0C3D 7Er0B              3519 	mov	r6,#_uip_aligned_buf
   0C3F 7Fs00              3520 	mov	r7,#(_uip_aligned_buf >> 8)
   0C41 74 08              3521 	mov	a,#0x08
   0C43 2E                 3522 	add	a,r6
   0C44 F5 82              3523 	mov	dpl,a
   0C46 E4                 3524 	clr	a
   0C47 3F                 3525 	addc	a,r7
   0C48 F5 83              3526 	mov	dph,a
   0C4A E0                 3527 	movx	a,@dptr
   0C4B FF                 3528 	mov	r7,a
   0C4C BF FE 02           3529 	cjne	r7,#0xFE,00493$
   0C4F 80 03              3530 	sjmp	00494$
   0C51                    3531 00493$:
   0C51 02s15r78           3532 	ljmp	00255$
   0C54                    3533 00494$:
   0C54 7Er0B              3534 	mov	r6,#_uip_aligned_buf
   0C56 7Fs00              3535 	mov	r7,#(_uip_aligned_buf >> 8)
   0C58 74 09              3536 	mov	a,#0x09
   0C5A 2E                 3537 	add	a,r6
   0C5B F5 82              3538 	mov	dpl,a
   0C5D E4                 3539 	clr	a
   0C5E 3F                 3540 	addc	a,r7
   0C5F F5 83              3541 	mov	dph,a
   0C61 E0                 3542 	movx	a,@dptr
   0C62 FF                 3543 	mov	r7,a
   0C63 BF 80 02           3544 	cjne	r7,#0x80,00495$
   0C66 80 03              3545 	sjmp	00496$
   0C68                    3546 00495$:
   0C68 02s15r78           3547 	ljmp	00255$
   0C6B                    3548 00496$:
                           3549 ;	../../../contiki-sensinode//core/net/uip6.c:1182: (!uip_is_addr_unspecified(&UIP_IP_BUF->srcipaddr)) &&
   0C6B 7Er0B              3550 	mov	r6,#_uip_aligned_buf
   0C6D 7Fs00              3551 	mov	r7,#(_uip_aligned_buf >> 8)
   0C6F 74 08              3552 	mov	a,#0x08
   0C71 2E                 3553 	add	a,r6
   0C72 F5 82              3554 	mov	dpl,a
   0C74 E4                 3555 	clr	a
   0C75 3F                 3556 	addc	a,r7
   0C76 F5 83              3557 	mov	dph,a
   0C78 E0                 3558 	movx	a,@dptr
   0C79 FE                 3559 	mov	r6,a
   0C7A A3                 3560 	inc	dptr
   0C7B E0                 3561 	movx	a,@dptr
   0C7C FF                 3562 	mov	r7,a
   0C7D 4E                 3563 	orl	a,r6
   0C7E 60 03              3564 	jz	00497$
   0C80 02s0Dr1C           3565 	ljmp	00147$
   0C83                    3566 00497$:
   0C83 7Er0B              3567 	mov	r6,#_uip_aligned_buf
   0C85 7Fs00              3568 	mov	r7,#(_uip_aligned_buf >> 8)
   0C87 74 0A              3569 	mov	a,#0x0A
   0C89 2E                 3570 	add	a,r6
   0C8A F5 82              3571 	mov	dpl,a
   0C8C E4                 3572 	clr	a
   0C8D 3F                 3573 	addc	a,r7
   0C8E F5 83              3574 	mov	dph,a
   0C90 E0                 3575 	movx	a,@dptr
   0C91 FE                 3576 	mov	r6,a
   0C92 A3                 3577 	inc	dptr
   0C93 E0                 3578 	movx	a,@dptr
   0C94 FF                 3579 	mov	r7,a
   0C95 4E                 3580 	orl	a,r6
   0C96 60 03              3581 	jz	00498$
   0C98 02s0Dr1C           3582 	ljmp	00147$
   0C9B                    3583 00498$:
   0C9B 7Er0B              3584 	mov	r6,#_uip_aligned_buf
   0C9D 7Fs00              3585 	mov	r7,#(_uip_aligned_buf >> 8)
   0C9F 74 0C              3586 	mov	a,#0x0C
   0CA1 2E                 3587 	add	a,r6
   0CA2 F5 82              3588 	mov	dpl,a
   0CA4 E4                 3589 	clr	a
   0CA5 3F                 3590 	addc	a,r7
   0CA6 F5 83              3591 	mov	dph,a
   0CA8 E0                 3592 	movx	a,@dptr
   0CA9 FE                 3593 	mov	r6,a
   0CAA A3                 3594 	inc	dptr
   0CAB E0                 3595 	movx	a,@dptr
   0CAC FF                 3596 	mov	r7,a
   0CAD 4E                 3597 	orl	a,r6
   0CAE 70 6C              3598 	jnz	00147$
   0CB0 7Er0B              3599 	mov	r6,#_uip_aligned_buf
   0CB2 7Fs00              3600 	mov	r7,#(_uip_aligned_buf >> 8)
   0CB4 74 0E              3601 	mov	a,#0x0E
   0CB6 2E                 3602 	add	a,r6
   0CB7 F5 82              3603 	mov	dpl,a
   0CB9 E4                 3604 	clr	a
   0CBA 3F                 3605 	addc	a,r7
   0CBB F5 83              3606 	mov	dph,a
   0CBD E0                 3607 	movx	a,@dptr
   0CBE FE                 3608 	mov	r6,a
   0CBF A3                 3609 	inc	dptr
   0CC0 E0                 3610 	movx	a,@dptr
   0CC1 FF                 3611 	mov	r7,a
   0CC2 4E                 3612 	orl	a,r6
   0CC3 70 57              3613 	jnz	00147$
   0CC5 7Er0B              3614 	mov	r6,#_uip_aligned_buf
   0CC7 7Fs00              3615 	mov	r7,#(_uip_aligned_buf >> 8)
   0CC9 74 10              3616 	mov	a,#0x10
   0CCB 2E                 3617 	add	a,r6
   0CCC F5 82              3618 	mov	dpl,a
   0CCE E4                 3619 	clr	a
   0CCF 3F                 3620 	addc	a,r7
   0CD0 F5 83              3621 	mov	dph,a
   0CD2 E0                 3622 	movx	a,@dptr
   0CD3 FE                 3623 	mov	r6,a
   0CD4 A3                 3624 	inc	dptr
   0CD5 E0                 3625 	movx	a,@dptr
   0CD6 FF                 3626 	mov	r7,a
   0CD7 4E                 3627 	orl	a,r6
   0CD8 70 42              3628 	jnz	00147$
   0CDA 7Er0B              3629 	mov	r6,#_uip_aligned_buf
   0CDC 7Fs00              3630 	mov	r7,#(_uip_aligned_buf >> 8)
   0CDE 74 12              3631 	mov	a,#0x12
   0CE0 2E                 3632 	add	a,r6
   0CE1 F5 82              3633 	mov	dpl,a
   0CE3 E4                 3634 	clr	a
   0CE4 3F                 3635 	addc	a,r7
   0CE5 F5 83              3636 	mov	dph,a
   0CE7 E0                 3637 	movx	a,@dptr
   0CE8 FE                 3638 	mov	r6,a
   0CE9 A3                 3639 	inc	dptr
   0CEA E0                 3640 	movx	a,@dptr
   0CEB FF                 3641 	mov	r7,a
   0CEC 4E                 3642 	orl	a,r6
   0CED 70 2D              3643 	jnz	00147$
   0CEF 7Er0B              3644 	mov	r6,#_uip_aligned_buf
   0CF1 7Fs00              3645 	mov	r7,#(_uip_aligned_buf >> 8)
   0CF3 74 14              3646 	mov	a,#0x14
   0CF5 2E                 3647 	add	a,r6
   0CF6 F5 82              3648 	mov	dpl,a
   0CF8 E4                 3649 	clr	a
   0CF9 3F                 3650 	addc	a,r7
   0CFA F5 83              3651 	mov	dph,a
   0CFC E0                 3652 	movx	a,@dptr
   0CFD FE                 3653 	mov	r6,a
   0CFE A3                 3654 	inc	dptr
   0CFF E0                 3655 	movx	a,@dptr
   0D00 FF                 3656 	mov	r7,a
   0D01 4E                 3657 	orl	a,r6
   0D02 70 18              3658 	jnz	00147$
   0D04 7Er0B              3659 	mov	r6,#_uip_aligned_buf
   0D06 7Fs00              3660 	mov	r7,#(_uip_aligned_buf >> 8)
   0D08 74 16              3661 	mov	a,#0x16
   0D0A 2E                 3662 	add	a,r6
   0D0B F5 82              3663 	mov	dpl,a
   0D0D E4                 3664 	clr	a
   0D0E 3F                 3665 	addc	a,r7
   0D0F F5 83              3666 	mov	dph,a
   0D11 E0                 3667 	movx	a,@dptr
   0D12 FE                 3668 	mov	r6,a
   0D13 A3                 3669 	inc	dptr
   0D14 E0                 3670 	movx	a,@dptr
   0D15 FF                 3671 	mov	r7,a
   0D16 4E                 3672 	orl	a,r6
   0D17 70 03              3673 	jnz	00504$
   0D19 02s15r78           3674 	ljmp	00255$
   0D1C                    3675 00504$:
   0D1C                    3676 00147$:
                           3677 ;	../../../contiki-sensinode//core/net/uip6.c:1183: (!uip_is_addr_loopback(&UIP_IP_BUF->destipaddr)) &&
   0D1C 7Er0B              3678 	mov	r6,#_uip_aligned_buf
   0D1E 7Fs00              3679 	mov	r7,#(_uip_aligned_buf >> 8)
   0D20 74 18              3680 	mov	a,#0x18
   0D22 2E                 3681 	add	a,r6
   0D23 F5 82              3682 	mov	dpl,a
   0D25 E4                 3683 	clr	a
   0D26 3F                 3684 	addc	a,r7
   0D27 F5 83              3685 	mov	dph,a
   0D29 E0                 3686 	movx	a,@dptr
   0D2A FE                 3687 	mov	r6,a
   0D2B A3                 3688 	inc	dptr
   0D2C E0                 3689 	movx	a,@dptr
   0D2D FF                 3690 	mov	r7,a
   0D2E 4E                 3691 	orl	a,r6
   0D2F 60 03              3692 	jz	00505$
   0D31 02s0DrDC           3693 	ljmp	00148$
   0D34                    3694 00505$:
   0D34 7Er0B              3695 	mov	r6,#_uip_aligned_buf
   0D36 7Fs00              3696 	mov	r7,#(_uip_aligned_buf >> 8)
   0D38 74 1A              3697 	mov	a,#0x1A
   0D3A 2E                 3698 	add	a,r6
   0D3B F5 82              3699 	mov	dpl,a
   0D3D E4                 3700 	clr	a
   0D3E 3F                 3701 	addc	a,r7
   0D3F F5 83              3702 	mov	dph,a
   0D41 E0                 3703 	movx	a,@dptr
   0D42 FE                 3704 	mov	r6,a
   0D43 A3                 3705 	inc	dptr
   0D44 E0                 3706 	movx	a,@dptr
   0D45 FF                 3707 	mov	r7,a
   0D46 4E                 3708 	orl	a,r6
   0D47 60 03              3709 	jz	00506$
   0D49 02s0DrDC           3710 	ljmp	00148$
   0D4C                    3711 00506$:
   0D4C 7Er0B              3712 	mov	r6,#_uip_aligned_buf
   0D4E 7Fs00              3713 	mov	r7,#(_uip_aligned_buf >> 8)
   0D50 74 1C              3714 	mov	a,#0x1C
   0D52 2E                 3715 	add	a,r6
   0D53 F5 82              3716 	mov	dpl,a
   0D55 E4                 3717 	clr	a
   0D56 3F                 3718 	addc	a,r7
   0D57 F5 83              3719 	mov	dph,a
   0D59 E0                 3720 	movx	a,@dptr
   0D5A FE                 3721 	mov	r6,a
   0D5B A3                 3722 	inc	dptr
   0D5C E0                 3723 	movx	a,@dptr
   0D5D FF                 3724 	mov	r7,a
   0D5E 4E                 3725 	orl	a,r6
   0D5F 70 7B              3726 	jnz	00148$
   0D61 7Er0B              3727 	mov	r6,#_uip_aligned_buf
   0D63 7Fs00              3728 	mov	r7,#(_uip_aligned_buf >> 8)
   0D65 74 1E              3729 	mov	a,#0x1E
   0D67 2E                 3730 	add	a,r6
   0D68 F5 82              3731 	mov	dpl,a
   0D6A E4                 3732 	clr	a
   0D6B 3F                 3733 	addc	a,r7
   0D6C F5 83              3734 	mov	dph,a
   0D6E E0                 3735 	movx	a,@dptr
   0D6F FE                 3736 	mov	r6,a
   0D70 A3                 3737 	inc	dptr
   0D71 E0                 3738 	movx	a,@dptr
   0D72 FF                 3739 	mov	r7,a
   0D73 4E                 3740 	orl	a,r6
   0D74 70 66              3741 	jnz	00148$
   0D76 7Er0B              3742 	mov	r6,#_uip_aligned_buf
   0D78 7Fs00              3743 	mov	r7,#(_uip_aligned_buf >> 8)
   0D7A 74 20              3744 	mov	a,#0x20
   0D7C 2E                 3745 	add	a,r6
   0D7D F5 82              3746 	mov	dpl,a
   0D7F E4                 3747 	clr	a
   0D80 3F                 3748 	addc	a,r7
   0D81 F5 83              3749 	mov	dph,a
   0D83 E0                 3750 	movx	a,@dptr
   0D84 FE                 3751 	mov	r6,a
   0D85 A3                 3752 	inc	dptr
   0D86 E0                 3753 	movx	a,@dptr
   0D87 FF                 3754 	mov	r7,a
   0D88 4E                 3755 	orl	a,r6
   0D89 70 51              3756 	jnz	00148$
   0D8B 7Er0B              3757 	mov	r6,#_uip_aligned_buf
   0D8D 7Fs00              3758 	mov	r7,#(_uip_aligned_buf >> 8)
   0D8F 74 22              3759 	mov	a,#0x22
   0D91 2E                 3760 	add	a,r6
   0D92 F5 82              3761 	mov	dpl,a
   0D94 E4                 3762 	clr	a
   0D95 3F                 3763 	addc	a,r7
   0D96 F5 83              3764 	mov	dph,a
   0D98 E0                 3765 	movx	a,@dptr
   0D99 FE                 3766 	mov	r6,a
   0D9A A3                 3767 	inc	dptr
   0D9B E0                 3768 	movx	a,@dptr
   0D9C FF                 3769 	mov	r7,a
   0D9D 4E                 3770 	orl	a,r6
   0D9E 70 3C              3771 	jnz	00148$
   0DA0 7Er0B              3772 	mov	r6,#_uip_aligned_buf
   0DA2 7Fs00              3773 	mov	r7,#(_uip_aligned_buf >> 8)
   0DA4 74 24              3774 	mov	a,#0x24
   0DA6 2E                 3775 	add	a,r6
   0DA7 F5 82              3776 	mov	dpl,a
   0DA9 E4                 3777 	clr	a
   0DAA 3F                 3778 	addc	a,r7
   0DAB F5 83              3779 	mov	dph,a
   0DAD E0                 3780 	movx	a,@dptr
   0DAE FE                 3781 	mov	r6,a
   0DAF A3                 3782 	inc	dptr
   0DB0 E0                 3783 	movx	a,@dptr
   0DB1 FF                 3784 	mov	r7,a
   0DB2 4E                 3785 	orl	a,r6
   0DB3 70 27              3786 	jnz	00148$
   0DB5 7Er0B              3787 	mov	r6,#_uip_aligned_buf
   0DB7 7Fs00              3788 	mov	r7,#(_uip_aligned_buf >> 8)
   0DB9 74 26              3789 	mov	a,#0x26
   0DBB 2E                 3790 	add	a,r6
   0DBC FE                 3791 	mov	r6,a
   0DBD E4                 3792 	clr	a
   0DBE 3F                 3793 	addc	a,r7
   0DBF FF                 3794 	mov	r7,a
   0DC0 8E 82              3795 	mov	dpl,r6
   0DC2 8F 83              3796 	mov	dph,r7
   0DC4 E0                 3797 	movx	a,@dptr
   0DC5 70 15              3798 	jnz	00148$
   0DC7 7Er0B              3799 	mov	r6,#_uip_aligned_buf
   0DC9 7Fs00              3800 	mov	r7,#(_uip_aligned_buf >> 8)
   0DCB 74 27              3801 	mov	a,#0x27
   0DCD 2E                 3802 	add	a,r6
   0DCE F5 82              3803 	mov	dpl,a
   0DD0 E4                 3804 	clr	a
   0DD1 3F                 3805 	addc	a,r7
   0DD2 F5 83              3806 	mov	dph,a
   0DD4 E0                 3807 	movx	a,@dptr
   0DD5 FF                 3808 	mov	r7,a
   0DD6 BF 01 03           3809 	cjne	r7,#0x01,00513$
   0DD9 02s15r78           3810 	ljmp	00255$
   0DDC                    3811 00513$:
   0DDC                    3812 00148$:
                           3813 ;	../../../contiki-sensinode//core/net/uip6.c:1184: (!uip_is_addr_mcast(&UIP_IP_BUF->destipaddr)) &&
   0DDC 7Er0B              3814 	mov	r6,#_uip_aligned_buf
   0DDE 7Fs00              3815 	mov	r7,#(_uip_aligned_buf >> 8)
   0DE0 74 18              3816 	mov	a,#0x18
   0DE2 2E                 3817 	add	a,r6
   0DE3 F5 82              3818 	mov	dpl,a
   0DE5 E4                 3819 	clr	a
   0DE6 3F                 3820 	addc	a,r7
   0DE7 F5 83              3821 	mov	dph,a
   0DE9 E0                 3822 	movx	a,@dptr
   0DEA FF                 3823 	mov	r7,a
   0DEB BF FF 03           3824 	cjne	r7,#0xFF,00514$
   0DEE 02s15r78           3825 	ljmp	00255$
   0DF1                    3826 00514$:
                           3827 ;	../../../contiki-sensinode//core/net/uip6.c:1185: (!uip_ds6_is_addr_onlink((&UIP_IP_BUF->destipaddr)))) {
   0DF1 7Er0B              3828 	mov	r6,#_uip_aligned_buf
   0DF3 7Fs00              3829 	mov	r7,#(_uip_aligned_buf >> 8)
   0DF5 74 18              3830 	mov	a,#0x18
   0DF7 2E                 3831 	add	a,r6
   0DF8 FE                 3832 	mov	r6,a
   0DF9 E4                 3833 	clr	a
   0DFA 3F                 3834 	addc	a,r7
   0DFB FF                 3835 	mov	r7,a
   0DFC 7D 00              3836 	mov	r5,#0x00
   0DFE 8E 82              3837 	mov	dpl,r6
   0E00 8F 83              3838 	mov	dph,r7
   0E02 8D F0              3839 	mov	b,r5
   0E04 78r00              3840 	mov	r0,#_uip_ds6_is_addr_onlink
   0E06 79s00              3841 	mov	r1,#(_uip_ds6_is_addr_onlink >> 8)
   0E08 7As00              3842 	mov	r2,#(_uip_ds6_is_addr_onlink >> 16)
   0E0A 12s00r00           3843 	lcall	__sdcc_banked_call
   0E0D E5 82              3844 	mov	a,dpl
   0E0F 60 03              3845 	jz	00515$
   0E11 02s15r78           3846 	ljmp	00255$
   0E14                    3847 00515$:
                           3848 ;	../../../contiki-sensinode//core/net/uip6.c:1187: uip_icmp6_error_output(ICMP6_DST_UNREACH,
   0E14 E4                 3849 	clr	a
   0E15 C0 E0              3850 	push	acc
   0E17 C0 E0              3851 	push	acc
   0E19 C0 E0              3852 	push	acc
   0E1B C0 E0              3853 	push	acc
   0E1D 74 02              3854 	mov	a,#0x02
   0E1F C0 E0              3855 	push	acc
   0E21 75 82 01           3856 	mov	dpl,#0x01
   0E24 78r00              3857 	mov	r0,#_uip_icmp6_error_output
   0E26 79s00              3858 	mov	r1,#(_uip_icmp6_error_output >> 8)
   0E28 7As00              3859 	mov	r2,#(_uip_icmp6_error_output >> 16)
   0E2A 12s00r00           3860 	lcall	__sdcc_banked_call
   0E2D E5 81              3861 	mov	a,sp
   0E2F 24 FB              3862 	add	a,#0xfb
   0E31 F5 81              3863 	mov	sp,a
                           3864 ;	../../../contiki-sensinode//core/net/uip6.c:1189: goto send;
   0E33 02s15r71           3865 	ljmp	00254$
                           3866 ;	../../../contiki-sensinode//core/net/uip6.c:1213: while(1) {
   0E36                    3867 00209$:
                           3868 ;	../../../contiki-sensinode//core/net/uip6.c:1214: switch(*uip_next_hdr){
   0E36 90s00r08           3869 	mov	dptr,#_uip_next_hdr
   0E39 E0                 3870 	movx	a,@dptr
   0E3A FD                 3871 	mov	r5,a
   0E3B A3                 3872 	inc	dptr
   0E3C E0                 3873 	movx	a,@dptr
   0E3D FE                 3874 	mov	r6,a
   0E3E A3                 3875 	inc	dptr
   0E3F E0                 3876 	movx	a,@dptr
   0E40 FF                 3877 	mov	r7,a
   0E41 8D 82              3878 	mov	dpl,r5
   0E43 8E 83              3879 	mov	dph,r6
   0E45 8F F0              3880 	mov	b,r7
   0E47 12s00r00           3881 	lcall	__gptrget
   0E4A FF                 3882 	mov	r7,a
   0E4B 60 26              3883 	jz	00179$
   0E4D BF 11 03           3884 	cjne	r7,#0x11,00517$
   0E50 02s10rDC           3885 	ljmp	00227$
   0E53                    3886 00517$:
   0E53 BF 2B 03           3887 	cjne	r7,#0x2B,00518$
   0E56 02s0Fr57           3888 	ljmp	00198$
   0E59                    3889 00518$:
   0E59 BF 2C 03           3890 	cjne	r7,#0x2C,00519$
   0E5C 02s15r78           3891 	ljmp	00255$
   0E5F                    3892 00519$:
   0E5F BF 3A 03           3893 	cjne	r7,#0x3A,00520$
   0E62 02s10r28           3894 	ljmp	00212$
   0E65                    3895 00520$:
   0E65 BF 3B 03           3896 	cjne	r7,#0x3B,00521$
   0E68 02s15r78           3897 	ljmp	00255$
   0E6B                    3898 00521$:
   0E6B BF 3C 02           3899 	cjne	r7,#0x3C,00522$
   0E6E 80 6E              3900 	sjmp	00187$
   0E70                    3901 00522$:
   0E70 02s0FrEF           3902 	ljmp	00211$
                           3903 ;	../../../contiki-sensinode//core/net/uip6.c:1228: case UIP_PROTO_HBHO:
   0E73                    3904 00179$:
                           3905 ;	../../../contiki-sensinode//core/net/uip6.c:1233: if(uip_ext_bitmap & UIP_EXT_HDR_BITMAP_HBHO) {
   0E73 90s00r00           3906 	mov	dptr,#_uip_ext_bitmap
   0E76 E0                 3907 	movx	a,@dptr
   0E77 FF                 3908 	mov	r7,a
   0E78 30 E0 03           3909 	jnb	acc.0,00523$
   0E7B 02s0FrEF           3910 	ljmp	00211$
   0E7E                    3911 00523$:
                           3912 ;	../../../contiki-sensinode//core/net/uip6.c:1236: uip_ext_bitmap |= UIP_EXT_HDR_BITMAP_HBHO;
   0E7E 90s00r00           3913 	mov	dptr,#_uip_ext_bitmap
   0E81 74 01              3914 	mov	a,#0x01
   0E83 4F                 3915 	orl	a,r7
   0E84 F0                 3916 	movx	@dptr,a
                           3917 ;	../../../contiki-sensinode//core/net/uip6.c:1239: switch(ext_hdr_options_process()) {
   0E85 78rD1              3918 	mov	r0,#_ext_hdr_options_process
   0E87 79s05              3919 	mov	r1,#(_ext_hdr_options_process >> 8)
   0E89 7As00              3920 	mov	r2,#(_ext_hdr_options_process >> 16)
   0E8B 12s00r00           3921 	lcall	__sdcc_banked_call
   0E8E AF 82              3922 	mov	r7,dpl
   0E90 BF 00 02           3923 	cjne	r7,#0x00,00524$
   0E93 80 0E              3924 	sjmp	00183$
   0E95                    3925 00524$:
   0E95 BF 01 03           3926 	cjne	r7,#0x01,00525$
   0E98 02s15r78           3927 	ljmp	00255$
   0E9B                    3928 00525$:
   0E9B BF 02 03           3929 	cjne	r7,#0x02,00526$
   0E9E 02s15r71           3930 	ljmp	00254$
   0EA1                    3931 00526$:
                           3932 ;	../../../contiki-sensinode//core/net/uip6.c:1240: case 0:
   0EA1 80 93              3933 	sjmp	00209$
   0EA3                    3934 00183$:
                           3935 ;	../../../contiki-sensinode//core/net/uip6.c:1242: uip_next_hdr = &UIP_EXT_BUF->next;
   0EA3 90s00r01           3936 	mov	dptr,#_uip_ext_len
   0EA6 E0                 3937 	movx	a,@dptr
   0EA7 FF                 3938 	mov	r7,a
   0EA8 FD                 3939 	mov	r5,a
   0EA9 7E 00              3940 	mov	r6,#0x00
   0EAB 74 28              3941 	mov	a,#0x28
   0EAD 2D                 3942 	add	a,r5
   0EAE FD                 3943 	mov	r5,a
   0EAF E4                 3944 	clr	a
   0EB0 3E                 3945 	addc	a,r6
   0EB1 FE                 3946 	mov	r6,a
   0EB2 ED                 3947 	mov	a,r5
   0EB3 24r0B              3948 	add	a,#_uip_aligned_buf
   0EB5 FD                 3949 	mov	r5,a
   0EB6 EE                 3950 	mov	a,r6
   0EB7 34s00              3951 	addc	a,#(_uip_aligned_buf >> 8)
   0EB9 FE                 3952 	mov	r6,a
   0EBA 8D 03              3953 	mov	ar3,r5
   0EBC 8E 04              3954 	mov	ar4,r6
   0EBE 90s00r08           3955 	mov	dptr,#_uip_next_hdr
   0EC1 EB                 3956 	mov	a,r3
   0EC2 F0                 3957 	movx	@dptr,a
   0EC3 A3                 3958 	inc	dptr
   0EC4 EC                 3959 	mov	a,r4
   0EC5 F0                 3960 	movx	@dptr,a
   0EC6 A3                 3961 	inc	dptr
   0EC7 E4                 3962 	clr	a
   0EC8 F0                 3963 	movx	@dptr,a
                           3964 ;	../../../contiki-sensinode//core/net/uip6.c:1243: uip_ext_len += (UIP_EXT_BUF->len << 3) + 8;
   0EC9 8D 82              3965 	mov	dpl,r5
   0ECB 8E 83              3966 	mov	dph,r6
   0ECD A3                 3967 	inc	dptr
   0ECE E0                 3968 	movx	a,@dptr
   0ECF C4                 3969 	swap	a
   0ED0 03                 3970 	rr	a
   0ED1 54 F8              3971 	anl	a,#0xF8
   0ED3 FE                 3972 	mov	r6,a
   0ED4 24 08              3973 	add	a,#0x08
   0ED6 90s00r01           3974 	mov	dptr,#_uip_ext_len
   0ED9 2F                 3975 	add	a,r7
   0EDA F0                 3976 	movx	@dptr,a
                           3977 ;	../../../contiki-sensinode//core/net/uip6.c:1244: break;
   0EDB 02s0Er36           3978 	ljmp	00209$
                           3979 ;	../../../contiki-sensinode//core/net/uip6.c:1254: case UIP_PROTO_DESTO:
   0EDE                    3980 00187$:
                           3981 ;	../../../contiki-sensinode//core/net/uip6.c:1258: if(uip_ext_bitmap & UIP_EXT_HDR_BITMAP_DESTO1) {
   0EDE 90s00r00           3982 	mov	dptr,#_uip_ext_bitmap
   0EE1 E0                 3983 	movx	a,@dptr
   0EE2 FF                 3984 	mov	r7,a
   0EE3 30 E1 10           3985 	jnb	acc.1,00192$
                           3986 ;	../../../contiki-sensinode//core/net/uip6.c:1259: if(uip_ext_bitmap & UIP_EXT_HDR_BITMAP_DESTO2) {
   0EE6 EF                 3987 	mov	a,r7
   0EE7 30 E6 03           3988 	jnb	acc.6,00528$
   0EEA 02s0FrEF           3989 	ljmp	00211$
   0EED                    3990 00528$:
                           3991 ;	../../../contiki-sensinode//core/net/uip6.c:1262: uip_ext_bitmap |= UIP_EXT_HDR_BITMAP_DESTO2;
   0EED 90s00r00           3992 	mov	dptr,#_uip_ext_bitmap
   0EF0 74 40              3993 	mov	a,#0x40
   0EF2 4F                 3994 	orl	a,r7
   0EF3 F0                 3995 	movx	@dptr,a
   0EF4 80 07              3996 	sjmp	00193$
   0EF6                    3997 00192$:
                           3998 ;	../../../contiki-sensinode//core/net/uip6.c:1265: uip_ext_bitmap |= UIP_EXT_HDR_BITMAP_DESTO1;
   0EF6 90s00r00           3999 	mov	dptr,#_uip_ext_bitmap
   0EF9 74 02              4000 	mov	a,#0x02
   0EFB 4F                 4001 	orl	a,r7
   0EFC F0                 4002 	movx	@dptr,a
   0EFD                    4003 00193$:
                           4004 ;	../../../contiki-sensinode//core/net/uip6.c:1268: switch(ext_hdr_options_process()) {
   0EFD 78rD1              4005 	mov	r0,#_ext_hdr_options_process
   0EFF 79s05              4006 	mov	r1,#(_ext_hdr_options_process >> 8)
   0F01 7As00              4007 	mov	r2,#(_ext_hdr_options_process >> 16)
   0F03 12s00r00           4008 	lcall	__sdcc_banked_call
   0F06 AF 82              4009 	mov	r7,dpl
   0F08 BF 00 02           4010 	cjne	r7,#0x00,00529$
   0F0B 80 0F              4011 	sjmp	00194$
   0F0D                    4012 00529$:
   0F0D BF 01 03           4013 	cjne	r7,#0x01,00530$
   0F10 02s15r78           4014 	ljmp	00255$
   0F13                    4015 00530$:
   0F13 BF 02 03           4016 	cjne	r7,#0x02,00531$
   0F16 02s15r71           4017 	ljmp	00254$
   0F19                    4018 00531$:
   0F19 02s0Er36           4019 	ljmp	00209$
                           4020 ;	../../../contiki-sensinode//core/net/uip6.c:1269: case 0:
   0F1C                    4021 00194$:
                           4022 ;	../../../contiki-sensinode//core/net/uip6.c:1271: uip_next_hdr = &UIP_EXT_BUF->next;
   0F1C 90s00r01           4023 	mov	dptr,#_uip_ext_len
   0F1F E0                 4024 	movx	a,@dptr
   0F20 FF                 4025 	mov	r7,a
   0F21 FD                 4026 	mov	r5,a
   0F22 7E 00              4027 	mov	r6,#0x00
   0F24 74 28              4028 	mov	a,#0x28
   0F26 2D                 4029 	add	a,r5
   0F27 FD                 4030 	mov	r5,a
   0F28 E4                 4031 	clr	a
   0F29 3E                 4032 	addc	a,r6
   0F2A FE                 4033 	mov	r6,a
   0F2B ED                 4034 	mov	a,r5
   0F2C 24r0B              4035 	add	a,#_uip_aligned_buf
   0F2E FD                 4036 	mov	r5,a
   0F2F EE                 4037 	mov	a,r6
   0F30 34s00              4038 	addc	a,#(_uip_aligned_buf >> 8)
   0F32 FE                 4039 	mov	r6,a
   0F33 8D 03              4040 	mov	ar3,r5
   0F35 8E 04              4041 	mov	ar4,r6
   0F37 90s00r08           4042 	mov	dptr,#_uip_next_hdr
   0F3A EB                 4043 	mov	a,r3
   0F3B F0                 4044 	movx	@dptr,a
   0F3C A3                 4045 	inc	dptr
   0F3D EC                 4046 	mov	a,r4
   0F3E F0                 4047 	movx	@dptr,a
   0F3F A3                 4048 	inc	dptr
   0F40 E4                 4049 	clr	a
   0F41 F0                 4050 	movx	@dptr,a
                           4051 ;	../../../contiki-sensinode//core/net/uip6.c:1272: uip_ext_len += (UIP_EXT_BUF->len << 3) + 8;
   0F42 8D 82              4052 	mov	dpl,r5
   0F44 8E 83              4053 	mov	dph,r6
   0F46 A3                 4054 	inc	dptr
   0F47 E0                 4055 	movx	a,@dptr
   0F48 C4                 4056 	swap	a
   0F49 03                 4057 	rr	a
   0F4A 54 F8              4058 	anl	a,#0xF8
   0F4C FE                 4059 	mov	r6,a
   0F4D 24 08              4060 	add	a,#0x08
   0F4F 90s00r01           4061 	mov	dptr,#_uip_ext_len
   0F52 2F                 4062 	add	a,r7
   0F53 F0                 4063 	movx	@dptr,a
                           4064 ;	../../../contiki-sensinode//core/net/uip6.c:1273: break;
   0F54 02s0Er36           4065 	ljmp	00209$
                           4066 ;	../../../contiki-sensinode//core/net/uip6.c:1283: case UIP_PROTO_ROUTING:
   0F57                    4067 00198$:
                           4068 ;	../../../contiki-sensinode//core/net/uip6.c:1286: if(uip_ext_bitmap & UIP_EXT_HDR_BITMAP_ROUTING) {
   0F57 90s00r00           4069 	mov	dptr,#_uip_ext_bitmap
   0F5A E0                 4070 	movx	a,@dptr
   0F5B FF                 4071 	mov	r7,a
   0F5C 30 E2 03           4072 	jnb	acc.2,00532$
   0F5F 02s0FrEF           4073 	ljmp	00211$
   0F62                    4074 00532$:
                           4075 ;	../../../contiki-sensinode//core/net/uip6.c:1289: uip_ext_bitmap |= UIP_EXT_HDR_BITMAP_ROUTING;
   0F62 90s00r00           4076 	mov	dptr,#_uip_ext_bitmap
   0F65 74 04              4077 	mov	a,#0x04
   0F67 4F                 4078 	orl	a,r7
   0F68 F0                 4079 	movx	@dptr,a
                           4080 ;	../../../contiki-sensinode//core/net/uip6.c:1301: if(UIP_ROUTING_BUF->seg_left > 0) {
   0F69 90s00r01           4081 	mov	dptr,#_uip_ext_len
   0F6C E0                 4082 	movx	a,@dptr
   0F6D FF                 4083 	mov	r7,a
   0F6E FD                 4084 	mov	r5,a
   0F6F 7E 00              4085 	mov	r6,#0x00
   0F71 74 28              4086 	mov	a,#0x28
   0F73 2D                 4087 	add	a,r5
   0F74 FB                 4088 	mov	r3,a
   0F75 E4                 4089 	clr	a
   0F76 3E                 4090 	addc	a,r6
   0F77 FC                 4091 	mov	r4,a
   0F78 EB                 4092 	mov	a,r3
   0F79 24r0B              4093 	add	a,#_uip_aligned_buf
   0F7B FB                 4094 	mov	r3,a
   0F7C EC                 4095 	mov	a,r4
   0F7D 34s00              4096 	addc	a,#(_uip_aligned_buf >> 8)
   0F7F FC                 4097 	mov	r4,a
   0F80 74 03              4098 	mov	a,#0x03
   0F82 2B                 4099 	add	a,r3
   0F83 FB                 4100 	mov	r3,a
   0F84 E4                 4101 	clr	a
   0F85 3C                 4102 	addc	a,r4
   0F86 FC                 4103 	mov	r4,a
   0F87 8B 82              4104 	mov	dpl,r3
   0F89 8C 83              4105 	mov	dph,r4
   0F8B E0                 4106 	movx	a,@dptr
   0F8C 60 2E              4107 	jz	00203$
                           4108 ;	../../../contiki-sensinode//core/net/uip6.c:1302: uip_icmp6_error_output(ICMP6_PARAM_PROB, ICMP6_PARAMPROB_HEADER, UIP_IPH_LEN + uip_ext_len + 2);
   0F8E 74 2A              4109 	mov	a,#0x2A
   0F90 2D                 4110 	add	a,r5
   0F91 FB                 4111 	mov	r3,a
   0F92 E4                 4112 	clr	a
   0F93 3E                 4113 	addc	a,r6
   0F94 8B 01              4114 	mov	ar1,r3
   0F96 FA                 4115 	mov	r2,a
   0F97 33                 4116 	rlc	a
   0F98 95 E0              4117 	subb	a,acc
   0F9A FB                 4118 	mov	r3,a
   0F9B FC                 4119 	mov	r4,a
   0F9C C0 01              4120 	push	ar1
   0F9E C0 02              4121 	push	ar2
   0FA0 C0 03              4122 	push	ar3
   0FA2 C0 04              4123 	push	ar4
   0FA4 E4                 4124 	clr	a
   0FA5 C0 E0              4125 	push	acc
   0FA7 75 82 04           4126 	mov	dpl,#0x04
   0FAA 78r00              4127 	mov	r0,#_uip_icmp6_error_output
   0FAC 79s00              4128 	mov	r1,#(_uip_icmp6_error_output >> 8)
   0FAE 7As00              4129 	mov	r2,#(_uip_icmp6_error_output >> 16)
   0FB0 12s00r00           4130 	lcall	__sdcc_banked_call
   0FB3 E5 81              4131 	mov	a,sp
   0FB5 24 FB              4132 	add	a,#0xfb
   0FB7 F5 81              4133 	mov	sp,a
                           4134 ;	../../../contiki-sensinode//core/net/uip6.c:1305: goto send;
   0FB9 02s15r71           4135 	ljmp	00254$
   0FBC                    4136 00203$:
                           4137 ;	../../../contiki-sensinode//core/net/uip6.c:1307: uip_next_hdr = &UIP_EXT_BUF->next;
   0FBC 74 28              4138 	mov	a,#0x28
   0FBE 2D                 4139 	add	a,r5
   0FBF FD                 4140 	mov	r5,a
   0FC0 E4                 4141 	clr	a
   0FC1 3E                 4142 	addc	a,r6
   0FC2 FE                 4143 	mov	r6,a
   0FC3 ED                 4144 	mov	a,r5
   0FC4 24r0B              4145 	add	a,#_uip_aligned_buf
   0FC6 FD                 4146 	mov	r5,a
   0FC7 EE                 4147 	mov	a,r6
   0FC8 34s00              4148 	addc	a,#(_uip_aligned_buf >> 8)
   0FCA FE                 4149 	mov	r6,a
   0FCB 8D 03              4150 	mov	ar3,r5
   0FCD 8E 04              4151 	mov	ar4,r6
   0FCF 90s00r08           4152 	mov	dptr,#_uip_next_hdr
   0FD2 EB                 4153 	mov	a,r3
   0FD3 F0                 4154 	movx	@dptr,a
   0FD4 A3                 4155 	inc	dptr
   0FD5 EC                 4156 	mov	a,r4
   0FD6 F0                 4157 	movx	@dptr,a
   0FD7 A3                 4158 	inc	dptr
   0FD8 E4                 4159 	clr	a
   0FD9 F0                 4160 	movx	@dptr,a
                           4161 ;	../../../contiki-sensinode//core/net/uip6.c:1308: uip_ext_len += (UIP_EXT_BUF->len << 3) + 8;
   0FDA 8D 82              4162 	mov	dpl,r5
   0FDC 8E 83              4163 	mov	dph,r6
   0FDE A3                 4164 	inc	dptr
   0FDF E0                 4165 	movx	a,@dptr
   0FE0 C4                 4166 	swap	a
   0FE1 03                 4167 	rr	a
   0FE2 54 F8              4168 	anl	a,#0xF8
   0FE4 FE                 4169 	mov	r6,a
   0FE5 24 08              4170 	add	a,#0x08
   0FE7 90s00r01           4171 	mov	dptr,#_uip_ext_len
   0FEA 2F                 4172 	add	a,r7
   0FEB F0                 4173 	movx	@dptr,a
                           4174 ;	../../../contiki-sensinode//core/net/uip6.c:1309: break;
   0FEC 02s0Er36           4175 	ljmp	00209$
                           4176 ;	../../../contiki-sensinode//core/net/uip6.c:1341: bad_hdr:
   0FEF                    4177 00211$:
                           4178 ;	../../../contiki-sensinode//core/net/uip6.c:1346: uip_icmp6_error_output(ICMP6_PARAM_PROB, ICMP6_PARAMPROB_NEXTHEADER, (uint32_t)(uip_next_hdr - (uint8_t *)UIP_IP_BUF));
   0FEF 90s00r08           4179 	mov	dptr,#_uip_next_hdr
   0FF2 E0                 4180 	movx	a,@dptr
   0FF3 FD                 4181 	mov	r5,a
   0FF4 A3                 4182 	inc	dptr
   0FF5 E0                 4183 	movx	a,@dptr
   0FF6 FE                 4184 	mov	r6,a
   0FF7 A3                 4185 	inc	dptr
   0FF8 E0                 4186 	movx	a,@dptr
   0FF9 ED                 4187 	mov	a,r5
   0FFA C3                 4188 	clr	c
   0FFB 94r0B              4189 	subb	a,#_uip_aligned_buf
   0FFD FD                 4190 	mov	r5,a
   0FFE EE                 4191 	mov	a,r6
   0FFF 94s00              4192 	subb	a,#(_uip_aligned_buf >> 8)
   1001 FE                 4193 	mov	r6,a
   1002 33                 4194 	rlc	a
   1003 95 E0              4195 	subb	a,acc
   1005 FF                 4196 	mov	r7,a
   1006 FC                 4197 	mov	r4,a
   1007 C0 05              4198 	push	ar5
   1009 C0 06              4199 	push	ar6
   100B C0 07              4200 	push	ar7
   100D C0 04              4201 	push	ar4
   100F 74 01              4202 	mov	a,#0x01
   1011 C0 E0              4203 	push	acc
   1013 75 82 04           4204 	mov	dpl,#0x04
   1016 78r00              4205 	mov	r0,#_uip_icmp6_error_output
   1018 79s00              4206 	mov	r1,#(_uip_icmp6_error_output >> 8)
   101A 7As00              4207 	mov	r2,#(_uip_icmp6_error_output >> 16)
   101C 12s00r00           4208 	lcall	__sdcc_banked_call
   101F E5 81              4209 	mov	a,sp
   1021 24 FB              4210 	add	a,#0xfb
   1023 F5 81              4211 	mov	sp,a
                           4212 ;	../../../contiki-sensinode//core/net/uip6.c:1350: goto send;
   1025 02s15r71           4213 	ljmp	00254$
                           4214 ;	../../../contiki-sensinode//core/net/uip6.c:1353: icmp6_input:
   1028                    4215 00212$:
                           4216 ;	../../../contiki-sensinode//core/net/uip6.c:1359: if(uip_icmp6chksum() != 0xffff) {
   1028 78rA3              4217 	mov	r0,#_uip_icmp6chksum
   102A 79s02              4218 	mov	r1,#(_uip_icmp6chksum >> 8)
   102C 7As00              4219 	mov	r2,#(_uip_icmp6chksum >> 16)
   102E 12s00r00           4220 	lcall	__sdcc_banked_call
   1031 AE 82              4221 	mov	r6,dpl
   1033 AF 83              4222 	mov	r7,dph
   1035 BE FF 05           4223 	cjne	r6,#0xFF,00534$
   1038 BF FF 02           4224 	cjne	r7,#0xFF,00534$
   103B 80 03              4225 	sjmp	00535$
   103D                    4226 00534$:
   103D 02s15r78           4227 	ljmp	00255$
   1040                    4228 00535$:
                           4229 ;	../../../contiki-sensinode//core/net/uip6.c:1382: switch(UIP_ICMP_BUF->type) {
   1040 90s00r01           4230 	mov	dptr,#_uip_ext_len
   1043 E0                 4231 	movx	a,@dptr
   1044 FF                 4232 	mov	r7,a
   1045 7E 00              4233 	mov	r6,#0x00
   1047 74 28              4234 	mov	a,#0x28
   1049 2F                 4235 	add	a,r7
   104A FF                 4236 	mov	r7,a
   104B E4                 4237 	clr	a
   104C 3E                 4238 	addc	a,r6
   104D FE                 4239 	mov	r6,a
   104E EF                 4240 	mov	a,r7
   104F 24r0B              4241 	add	a,#_uip_aligned_buf
   1051 F5 82              4242 	mov	dpl,a
   1053 EE                 4243 	mov	a,r6
   1054 34s00              4244 	addc	a,#(_uip_aligned_buf >> 8)
   1056 F5 83              4245 	mov	dph,a
   1058 E0                 4246 	movx	a,@dptr
   1059 FF                 4247 	mov	r7,a
   105A BF 80 02           4248 	cjne	r7,#0x80,00536$
   105D 80 51              4249 	sjmp	00220$
   105F                    4250 00536$:
   105F BF 81 02           4251 	cjne	r7,#0x81,00537$
   1062 80 57              4252 	sjmp	00221$
   1064                    4253 00537$:
   1064 BF 85 02           4254 	cjne	r7,#0x85,00538$
   1067 80 2A              4255 	sjmp	00217$
   1069                    4256 00538$:
   1069 BF 86 02           4257 	cjne	r7,#0x86,00539$
   106C 80 2E              4258 	sjmp	00218$
   106E                    4259 00539$:
   106E BF 87 02           4260 	cjne	r7,#0x87,00540$
   1071 80 0A              4261 	sjmp	00215$
   1073                    4262 00540$:
   1073 BF 88 02           4263 	cjne	r7,#0x88,00541$
   1076 80 10              4264 	sjmp	00216$
   1078                    4265 00541$:
                           4266 ;	../../../contiki-sensinode//core/net/uip6.c:1383: case ICMP6_NS:
   1078 BF 9B 49           4267 	cjne	r7,#0x9B,00222$
   107B 80 28              4268 	sjmp	00219$
   107D                    4269 00215$:
                           4270 ;	../../../contiki-sensinode//core/net/uip6.c:1384: uip_nd6_ns_input();
   107D 78r00              4271 	mov	r0,#_uip_nd6_ns_input
   107F 79s00              4272 	mov	r1,#(_uip_nd6_ns_input >> 8)
   1081 7As00              4273 	mov	r2,#(_uip_nd6_ns_input >> 16)
   1083 12s00r00           4274 	lcall	__sdcc_banked_call
                           4275 ;	../../../contiki-sensinode//core/net/uip6.c:1385: break;
                           4276 ;	../../../contiki-sensinode//core/net/uip6.c:1386: case ICMP6_NA:
   1086 80 43              4277 	sjmp	00223$
   1088                    4278 00216$:
                           4279 ;	../../../contiki-sensinode//core/net/uip6.c:1387: uip_nd6_na_input();
   1088 78r00              4280 	mov	r0,#_uip_nd6_na_input
   108A 79s00              4281 	mov	r1,#(_uip_nd6_na_input >> 8)
   108C 7As00              4282 	mov	r2,#(_uip_nd6_na_input >> 16)
   108E 12s00r00           4283 	lcall	__sdcc_banked_call
                           4284 ;	../../../contiki-sensinode//core/net/uip6.c:1388: break;
                           4285 ;	../../../contiki-sensinode//core/net/uip6.c:1389: case ICMP6_RS:
   1091 80 38              4286 	sjmp	00223$
   1093                    4287 00217$:
                           4288 ;	../../../contiki-sensinode//core/net/uip6.c:1394: uip_len = 0;
   1093 90s01r61           4289 	mov	dptr,#_uip_len
   1096 E4                 4290 	clr	a
   1097 F0                 4291 	movx	@dptr,a
   1098 A3                 4292 	inc	dptr
   1099 F0                 4293 	movx	@dptr,a
                           4294 ;	../../../contiki-sensinode//core/net/uip6.c:1396: break;
                           4295 ;	../../../contiki-sensinode//core/net/uip6.c:1397: case ICMP6_RA:
   109A 80 2F              4296 	sjmp	00223$
   109C                    4297 00218$:
                           4298 ;	../../../contiki-sensinode//core/net/uip6.c:1400: uip_len = 0;
   109C 90s01r61           4299 	mov	dptr,#_uip_len
   109F E4                 4300 	clr	a
   10A0 F0                 4301 	movx	@dptr,a
   10A1 A3                 4302 	inc	dptr
   10A2 F0                 4303 	movx	@dptr,a
                           4304 ;	../../../contiki-sensinode//core/net/uip6.c:1404: break;
                           4305 ;	../../../contiki-sensinode//core/net/uip6.c:1406: case ICMP6_RPL:
   10A3 80 26              4306 	sjmp	00223$
   10A5                    4307 00219$:
                           4308 ;	../../../contiki-sensinode//core/net/uip6.c:1407: uip_rpl_input();
   10A5 78r00              4309 	mov	r0,#_uip_rpl_input
   10A7 79s00              4310 	mov	r1,#(_uip_rpl_input >> 8)
   10A9 7As00              4311 	mov	r2,#(_uip_rpl_input >> 16)
   10AB 12s00r00           4312 	lcall	__sdcc_banked_call
                           4313 ;	../../../contiki-sensinode//core/net/uip6.c:1408: break;
                           4314 ;	../../../contiki-sensinode//core/net/uip6.c:1410: case ICMP6_ECHO_REQUEST:
   10AE 80 1B              4315 	sjmp	00223$
   10B0                    4316 00220$:
                           4317 ;	../../../contiki-sensinode//core/net/uip6.c:1411: uip_icmp6_echo_request_input();
   10B0 78r00              4318 	mov	r0,#_uip_icmp6_echo_request_input
   10B2 79s00              4319 	mov	r1,#(_uip_icmp6_echo_request_input >> 8)
   10B4 7As00              4320 	mov	r2,#(_uip_icmp6_echo_request_input >> 16)
   10B6 12s00r00           4321 	lcall	__sdcc_banked_call
                           4322 ;	../../../contiki-sensinode//core/net/uip6.c:1412: break;
                           4323 ;	../../../contiki-sensinode//core/net/uip6.c:1413: case ICMP6_ECHO_REPLY:
   10B9 80 10              4324 	sjmp	00223$
   10BB                    4325 00221$:
                           4326 ;	../../../contiki-sensinode//core/net/uip6.c:1417: uip_len = 0;
   10BB 90s01r61           4327 	mov	dptr,#_uip_len
   10BE E4                 4328 	clr	a
   10BF F0                 4329 	movx	@dptr,a
   10C0 A3                 4330 	inc	dptr
   10C1 F0                 4331 	movx	@dptr,a
                           4332 ;	../../../contiki-sensinode//core/net/uip6.c:1418: break;
                           4333 ;	../../../contiki-sensinode//core/net/uip6.c:1419: default:
   10C2 80 07              4334 	sjmp	00223$
   10C4                    4335 00222$:
                           4336 ;	../../../contiki-sensinode//core/net/uip6.c:1424: uip_len = 0;
   10C4 90s01r61           4337 	mov	dptr,#_uip_len
   10C7 E4                 4338 	clr	a
   10C8 F0                 4339 	movx	@dptr,a
   10C9 A3                 4340 	inc	dptr
   10CA F0                 4341 	movx	@dptr,a
                           4342 ;	../../../contiki-sensinode//core/net/uip6.c:1426: }
   10CB                    4343 00223$:
                           4344 ;	../../../contiki-sensinode//core/net/uip6.c:1428: if(uip_len > 0) {
   10CB 90s01r61           4345 	mov	dptr,#_uip_len
   10CE E0                 4346 	movx	a,@dptr
   10CF FE                 4347 	mov	r6,a
   10D0 A3                 4348 	inc	dptr
   10D1 E0                 4349 	movx	a,@dptr
   10D2 FF                 4350 	mov	r7,a
   10D3 4E                 4351 	orl	a,r6
   10D4 70 03              4352 	jnz	00543$
   10D6 02s15r78           4353 	ljmp	00255$
   10D9                    4354 00543$:
                           4355 ;	../../../contiki-sensinode//core/net/uip6.c:1429: goto send;
   10D9 02s15r71           4356 	ljmp	00254$
                           4357 ;	../../../contiki-sensinode//core/net/uip6.c:1438: udp_input:
   10DC                    4358 00227$:
                           4359 ;	../../../contiki-sensinode//core/net/uip6.c:1440: remove_ext_hdr();
   10DC 78r0F              4360 	mov	r0,#_remove_ext_hdr
   10DE 79s03              4361 	mov	r1,#(_remove_ext_hdr >> 8)
   10E0 7As00              4362 	mov	r2,#(_remove_ext_hdr >> 16)
   10E2 12s00r00           4363 	lcall	__sdcc_banked_call
                           4364 ;	../../../contiki-sensinode//core/net/uip6.c:1450: uip_len = uip_len - UIP_IPUDPH_LEN;
   10E5 90s01r61           4365 	mov	dptr,#_uip_len
   10E8 E0                 4366 	movx	a,@dptr
   10E9 FE                 4367 	mov	r6,a
   10EA A3                 4368 	inc	dptr
   10EB E0                 4369 	movx	a,@dptr
   10EC FF                 4370 	mov	r7,a
   10ED EE                 4371 	mov	a,r6
   10EE 24 D0              4372 	add	a,#0xD0
   10F0 FE                 4373 	mov	r6,a
   10F1 EF                 4374 	mov	a,r7
   10F2 34 FF              4375 	addc	a,#0xFF
   10F4 FF                 4376 	mov	r7,a
   10F5 90s01r61           4377 	mov	dptr,#_uip_len
   10F8 EE                 4378 	mov	a,r6
   10F9 F0                 4379 	movx	@dptr,a
   10FA A3                 4380 	inc	dptr
   10FB EF                 4381 	mov	a,r7
   10FC F0                 4382 	movx	@dptr,a
                           4383 ;	../../../contiki-sensinode//core/net/uip6.c:1451: uip_appdata = &uip_buf[UIP_IPUDPH_LEN + UIP_LLH_LEN];
   10FD 90s01r5B           4384 	mov	dptr,#_uip_appdata
   1100 74r3B              4385 	mov	a,#(_uip_aligned_buf + 0x0030)
   1102 F0                 4386 	movx	@dptr,a
   1103 A3                 4387 	inc	dptr
   1104 74s00              4388 	mov	a,#((_uip_aligned_buf + 0x0030) >> 8)
   1106 F0                 4389 	movx	@dptr,a
   1107 A3                 4390 	inc	dptr
   1108 E4                 4391 	clr	a
   1109 F0                 4392 	movx	@dptr,a
                           4393 ;	../../../contiki-sensinode//core/net/uip6.c:1457: if(UIP_UDP_BUF->udpchksum != 0 && uip_udpchksum() != 0xffff) {
   110A 7Er33              4394 	mov	r6,#(_uip_aligned_buf + 0x0028)
   110C 7Fs00              4395 	mov	r7,#((_uip_aligned_buf + 0x0028) >> 8)
   110E 74 06              4396 	mov	a,#0x06
   1110 2E                 4397 	add	a,r6
   1111 F5 82              4398 	mov	dpl,a
   1113 E4                 4399 	clr	a
   1114 3F                 4400 	addc	a,r7
   1115 F5 83              4401 	mov	dph,a
   1117 E0                 4402 	movx	a,@dptr
   1118 FE                 4403 	mov	r6,a
   1119 A3                 4404 	inc	dptr
   111A E0                 4405 	movx	a,@dptr
   111B FF                 4406 	mov	r7,a
   111C 4E                 4407 	orl	a,r6
   111D 60 18              4408 	jz	00229$
   111F 78rB6              4409 	mov	r0,#_uip_udpchksum
   1121 79s02              4410 	mov	r1,#(_uip_udpchksum >> 8)
   1123 7As00              4411 	mov	r2,#(_uip_udpchksum >> 16)
   1125 12s00r00           4412 	lcall	__sdcc_banked_call
   1128 AE 82              4413 	mov	r6,dpl
   112A AF 83              4414 	mov	r7,dph
   112C BE FF 05           4415 	cjne	r6,#0xFF,00545$
   112F BF FF 02           4416 	cjne	r7,#0xFF,00545$
   1132 80 03              4417 	sjmp	00546$
   1134                    4418 00545$:
   1134 02s15r78           4419 	ljmp	00255$
   1137                    4420 00546$:
                           4421 ;	../../../contiki-sensinode//core/net/uip6.c:1462: goto drop;
   1137                    4422 00229$:
                           4423 ;	../../../contiki-sensinode//core/net/uip6.c:1469: if(UIP_UDP_BUF->destport == 0) {
   1137 7Er33              4424 	mov	r6,#(_uip_aligned_buf + 0x0028)
   1139 7Fs00              4425 	mov	r7,#((_uip_aligned_buf + 0x0028) >> 8)
   113B 8E 82              4426 	mov	dpl,r6
   113D 8F 83              4427 	mov	dph,r7
   113F A3                 4428 	inc	dptr
   1140 A3                 4429 	inc	dptr
   1141 E0                 4430 	movx	a,@dptr
   1142 FE                 4431 	mov	r6,a
   1143 A3                 4432 	inc	dptr
   1144 E0                 4433 	movx	a,@dptr
   1145 FF                 4434 	mov	r7,a
   1146 4E                 4435 	orl	a,r6
   1147 70 03              4436 	jnz	00547$
   1149 02s15r78           4437 	ljmp	00255$
   114C                    4438 00547$:
                           4439 ;	../../../contiki-sensinode//core/net/uip6.c:1475: for(uip_udp_conn = &uip_udp_conns[0];
   114C 90s01r6C           4440 	mov	dptr,#_uip_udp_conn
   114F 74r6F              4441 	mov	a,#_uip_udp_conns
   1151 F0                 4442 	movx	@dptr,a
   1152 A3                 4443 	inc	dptr
   1153 74s01              4444 	mov	a,#(_uip_udp_conns >> 8)
   1155 F0                 4445 	movx	@dptr,a
   1156 A3                 4446 	inc	dptr
   1157 E4                 4447 	clr	a
   1158 F0                 4448 	movx	@dptr,a
   1159                    4449 00256$:
                           4450 ;	../../../contiki-sensinode//core/net/uip6.c:1476: uip_udp_conn < &uip_udp_conns[UIP_UDP_CONNS];
   1159 90s01r6C           4451 	mov	dptr,#_uip_udp_conn
   115C E0                 4452 	movx	a,@dptr
   115D FD                 4453 	mov	r5,a
   115E A3                 4454 	inc	dptr
   115F E0                 4455 	movx	a,@dptr
   1160 FE                 4456 	mov	r6,a
   1161 A3                 4457 	inc	dptr
   1162 E0                 4458 	movx	a,@dptr
   1163 FF                 4459 	mov	r7,a
   1164 74r7D              4460 	mov	a,#(_uip_udp_conns + 0x010e)
   1166 C0 E0              4461 	push	acc
   1168 74s02              4462 	mov	a,#((_uip_udp_conns + 0x010e) >> 8)
   116A C0 E0              4463 	push	acc
   116C E4                 4464 	clr	a
   116D C0 E0              4465 	push	acc
   116F 8D 82              4466 	mov	dpl,r5
   1171 8E 83              4467 	mov	dph,r6
   1173 8F F0              4468 	mov	b,r7
   1175 12s00r00           4469 	lcall	___gptr_cmp
   1178 15 81              4470 	dec	sp
   117A 15 81              4471 	dec	sp
   117C 15 81              4472 	dec	sp
   117E 40 03              4473 	jc	00548$
   1180 02s15r78           4474 	ljmp	00255$
   1183                    4475 00548$:
                           4476 ;	../../../contiki-sensinode//core/net/uip6.c:1485: if(uip_udp_conn->lport != 0 &&
   1183 74 10              4477 	mov	a,#0x10
   1185 2D                 4478 	add	a,r5
   1186 FA                 4479 	mov	r2,a
   1187 E4                 4480 	clr	a
   1188 3E                 4481 	addc	a,r6
   1189 FB                 4482 	mov	r3,a
   118A 8F 04              4483 	mov	ar4,r7
   118C 8A 82              4484 	mov	dpl,r2
   118E 8B 83              4485 	mov	dph,r3
   1190 8C F0              4486 	mov	b,r4
   1192 12s00r00           4487 	lcall	__gptrget
   1195 FB                 4488 	mov	r3,a
   1196 A3                 4489 	inc	dptr
   1197 12s00r00           4490 	lcall	__gptrget
   119A FC                 4491 	mov	r4,a
   119B 4B                 4492 	orl	a,r3
   119C 70 03              4493 	jnz	00549$
   119E 02s13r14           4494 	ljmp	00258$
   11A1                    4495 00549$:
                           4496 ;	../../../contiki-sensinode//core/net/uip6.c:1486: UIP_UDP_BUF->destport == uip_udp_conn->lport &&
   11A1 79r33              4497 	mov	r1,#(_uip_aligned_buf + 0x0028)
   11A3 7As00              4498 	mov	r2,#((_uip_aligned_buf + 0x0028) >> 8)
   11A5 89 82              4499 	mov	dpl,r1
   11A7 8A 83              4500 	mov	dph,r2
   11A9 A3                 4501 	inc	dptr
   11AA A3                 4502 	inc	dptr
   11AB E0                 4503 	movx	a,@dptr
   11AC F9                 4504 	mov	r1,a
   11AD A3                 4505 	inc	dptr
   11AE E0                 4506 	movx	a,@dptr
   11AF FA                 4507 	mov	r2,a
   11B0 E9                 4508 	mov	a,r1
   11B1 B5 03 06           4509 	cjne	a,ar3,00550$
   11B4 EA                 4510 	mov	a,r2
   11B5 B5 04 02           4511 	cjne	a,ar4,00550$
   11B8 80 03              4512 	sjmp	00551$
   11BA                    4513 00550$:
   11BA 02s13r14           4514 	ljmp	00258$
   11BD                    4515 00551$:
                           4516 ;	../../../contiki-sensinode//core/net/uip6.c:1487: (uip_udp_conn->rport == 0 ||
   11BD 74 12              4517 	mov	a,#0x12
   11BF 2D                 4518 	add	a,r5
   11C0 FD                 4519 	mov	r5,a
   11C1 E4                 4520 	clr	a
   11C2 3E                 4521 	addc	a,r6
   11C3 FE                 4522 	mov	r6,a
   11C4 8D 82              4523 	mov	dpl,r5
   11C6 8E 83              4524 	mov	dph,r6
   11C8 8F F0              4525 	mov	b,r7
   11CA 12s00r00           4526 	lcall	__gptrget
   11CD FE                 4527 	mov	r6,a
   11CE A3                 4528 	inc	dptr
   11CF 12s00r00           4529 	lcall	__gptrget
   11D2 FF                 4530 	mov	r7,a
   11D3 4E                 4531 	orl	a,r6
   11D4 60 15              4532 	jz	00246$
                           4533 ;	../../../contiki-sensinode//core/net/uip6.c:1488: UIP_UDP_BUF->srcport == uip_udp_conn->rport) &&
   11D6 90s00r33           4534 	mov	dptr,#(_uip_aligned_buf + 0x0028)
   11D9 E0                 4535 	movx	a,@dptr
   11DA FC                 4536 	mov	r4,a
   11DB A3                 4537 	inc	dptr
   11DC E0                 4538 	movx	a,@dptr
   11DD FD                 4539 	mov	r5,a
   11DE EC                 4540 	mov	a,r4
   11DF B5 06 06           4541 	cjne	a,ar6,00553$
   11E2 ED                 4542 	mov	a,r5
   11E3 B5 07 02           4543 	cjne	a,ar7,00553$
   11E6 80 03              4544 	sjmp	00554$
   11E8                    4545 00553$:
   11E8 02s13r14           4546 	ljmp	00258$
   11EB                    4547 00554$:
   11EB                    4548 00246$:
                           4549 ;	../../../contiki-sensinode//core/net/uip6.c:1489: (uip_is_addr_unspecified(&uip_udp_conn->ripaddr) ||
   11EB 90s01r6C           4550 	mov	dptr,#_uip_udp_conn
   11EE E0                 4551 	movx	a,@dptr
   11EF FD                 4552 	mov	r5,a
   11F0 A3                 4553 	inc	dptr
   11F1 E0                 4554 	movx	a,@dptr
   11F2 FE                 4555 	mov	r6,a
   11F3 A3                 4556 	inc	dptr
   11F4 E0                 4557 	movx	a,@dptr
   11F5 FF                 4558 	mov	r7,a
   11F6 8D 02              4559 	mov	ar2,r5
   11F8 8E 03              4560 	mov	ar3,r6
   11FA 8F 04              4561 	mov	ar4,r7
   11FC 8A 82              4562 	mov	dpl,r2
   11FE 8B 83              4563 	mov	dph,r3
   1200 8C F0              4564 	mov	b,r4
   1202 12s00r00           4565 	lcall	__gptrget
   1205 FA                 4566 	mov	r2,a
   1206 A3                 4567 	inc	dptr
   1207 12s00r00           4568 	lcall	__gptrget
   120A FB                 4569 	mov	r3,a
   120B 4A                 4570 	orl	a,r2
   120C 60 03              4571 	jz	00555$
   120E 02s12rD2           4572 	ljmp	00245$
   1211                    4573 00555$:
   1211 74 02              4574 	mov	a,#0x02
   1213 2D                 4575 	add	a,r5
   1214 FA                 4576 	mov	r2,a
   1215 E4                 4577 	clr	a
   1216 3E                 4578 	addc	a,r6
   1217 FB                 4579 	mov	r3,a
   1218 8F 04              4580 	mov	ar4,r7
   121A 8A 82              4581 	mov	dpl,r2
   121C 8B 83              4582 	mov	dph,r3
   121E 8C F0              4583 	mov	b,r4
   1220 12s00r00           4584 	lcall	__gptrget
   1223 FA                 4585 	mov	r2,a
   1224 A3                 4586 	inc	dptr
   1225 12s00r00           4587 	lcall	__gptrget
   1228 FB                 4588 	mov	r3,a
   1229 4A                 4589 	orl	a,r2
   122A 60 03              4590 	jz	00556$
   122C 02s12rD2           4591 	ljmp	00245$
   122F                    4592 00556$:
   122F 74 04              4593 	mov	a,#0x04
   1231 2D                 4594 	add	a,r5
   1232 FA                 4595 	mov	r2,a
   1233 E4                 4596 	clr	a
   1234 3E                 4597 	addc	a,r6
   1235 FB                 4598 	mov	r3,a
   1236 8F 04              4599 	mov	ar4,r7
   1238 8A 82              4600 	mov	dpl,r2
   123A 8B 83              4601 	mov	dph,r3
   123C 8C F0              4602 	mov	b,r4
   123E 12s00r00           4603 	lcall	__gptrget
   1241 FA                 4604 	mov	r2,a
   1242 A3                 4605 	inc	dptr
   1243 12s00r00           4606 	lcall	__gptrget
   1246 FB                 4607 	mov	r3,a
   1247 4A                 4608 	orl	a,r2
   1248 60 03              4609 	jz	00557$
   124A 02s12rD2           4610 	ljmp	00245$
   124D                    4611 00557$:
   124D 74 06              4612 	mov	a,#0x06
   124F 2D                 4613 	add	a,r5
   1250 FA                 4614 	mov	r2,a
   1251 E4                 4615 	clr	a
   1252 3E                 4616 	addc	a,r6
   1253 FB                 4617 	mov	r3,a
   1254 8F 04              4618 	mov	ar4,r7
   1256 8A 82              4619 	mov	dpl,r2
   1258 8B 83              4620 	mov	dph,r3
   125A 8C F0              4621 	mov	b,r4
   125C 12s00r00           4622 	lcall	__gptrget
   125F FA                 4623 	mov	r2,a
   1260 A3                 4624 	inc	dptr
   1261 12s00r00           4625 	lcall	__gptrget
   1264 FB                 4626 	mov	r3,a
   1265 4A                 4627 	orl	a,r2
   1266 70 6A              4628 	jnz	00245$
   1268 74 08              4629 	mov	a,#0x08
   126A 2D                 4630 	add	a,r5
   126B FA                 4631 	mov	r2,a
   126C E4                 4632 	clr	a
   126D 3E                 4633 	addc	a,r6
   126E FB                 4634 	mov	r3,a
   126F 8F 04              4635 	mov	ar4,r7
   1271 8A 82              4636 	mov	dpl,r2
   1273 8B 83              4637 	mov	dph,r3
   1275 8C F0              4638 	mov	b,r4
   1277 12s00r00           4639 	lcall	__gptrget
   127A FA                 4640 	mov	r2,a
   127B A3                 4641 	inc	dptr
   127C 12s00r00           4642 	lcall	__gptrget
   127F FB                 4643 	mov	r3,a
   1280 4A                 4644 	orl	a,r2
   1281 70 4F              4645 	jnz	00245$
   1283 74 0A              4646 	mov	a,#0x0A
   1285 2D                 4647 	add	a,r5
   1286 FA                 4648 	mov	r2,a
   1287 E4                 4649 	clr	a
   1288 3E                 4650 	addc	a,r6
   1289 FB                 4651 	mov	r3,a
   128A 8F 04              4652 	mov	ar4,r7
   128C 8A 82              4653 	mov	dpl,r2
   128E 8B 83              4654 	mov	dph,r3
   1290 8C F0              4655 	mov	b,r4
   1292 12s00r00           4656 	lcall	__gptrget
   1295 FA                 4657 	mov	r2,a
   1296 A3                 4658 	inc	dptr
   1297 12s00r00           4659 	lcall	__gptrget
   129A FB                 4660 	mov	r3,a
   129B 4A                 4661 	orl	a,r2
   129C 70 34              4662 	jnz	00245$
   129E 74 0C              4663 	mov	a,#0x0C
   12A0 2D                 4664 	add	a,r5
   12A1 FA                 4665 	mov	r2,a
   12A2 E4                 4666 	clr	a
   12A3 3E                 4667 	addc	a,r6
   12A4 FB                 4668 	mov	r3,a
   12A5 8F 04              4669 	mov	ar4,r7
   12A7 8A 82              4670 	mov	dpl,r2
   12A9 8B 83              4671 	mov	dph,r3
   12AB 8C F0              4672 	mov	b,r4
   12AD 12s00r00           4673 	lcall	__gptrget
   12B0 FA                 4674 	mov	r2,a
   12B1 A3                 4675 	inc	dptr
   12B2 12s00r00           4676 	lcall	__gptrget
   12B5 FB                 4677 	mov	r3,a
   12B6 4A                 4678 	orl	a,r2
   12B7 70 19              4679 	jnz	00245$
   12B9 74 0E              4680 	mov	a,#0x0E
   12BB 2D                 4681 	add	a,r5
   12BC FD                 4682 	mov	r5,a
   12BD E4                 4683 	clr	a
   12BE 3E                 4684 	addc	a,r6
   12BF FE                 4685 	mov	r6,a
   12C0 8D 82              4686 	mov	dpl,r5
   12C2 8E 83              4687 	mov	dph,r6
   12C4 8F F0              4688 	mov	b,r7
   12C6 12s00r00           4689 	lcall	__gptrget
   12C9 FD                 4690 	mov	r5,a
   12CA A3                 4691 	inc	dptr
   12CB 12s00r00           4692 	lcall	__gptrget
   12CE FE                 4693 	mov	r6,a
   12CF 4D                 4694 	orl	a,r5
   12D0 60 51              4695 	jz	00247$
   12D2                    4696 00245$:
                           4697 ;	../../../contiki-sensinode//core/net/uip6.c:1490: uip_ipaddr_cmp(&UIP_IP_BUF->srcipaddr, &uip_udp_conn->ripaddr))) {
   12D2 90s01r6C           4698 	mov	dptr,#_uip_udp_conn
   12D5 E0                 4699 	movx	a,@dptr
   12D6 FD                 4700 	mov	r5,a
   12D7 A3                 4701 	inc	dptr
   12D8 E0                 4702 	movx	a,@dptr
   12D9 FE                 4703 	mov	r6,a
   12DA A3                 4704 	inc	dptr
   12DB E0                 4705 	movx	a,@dptr
   12DC FF                 4706 	mov	r7,a
   12DD 7Br0B              4707 	mov	r3,#_uip_aligned_buf
   12DF 7Cs00              4708 	mov	r4,#(_uip_aligned_buf >> 8)
   12E1 74 08              4709 	mov	a,#0x08
   12E3 2B                 4710 	add	a,r3
   12E4 FB                 4711 	mov	r3,a
   12E5 E4                 4712 	clr	a
   12E6 3C                 4713 	addc	a,r4
   12E7 FC                 4714 	mov	r4,a
   12E8 7A 00              4715 	mov	r2,#0x00
   12EA 74 10              4716 	mov	a,#0x10
   12EC C0 E0              4717 	push	acc
   12EE E4                 4718 	clr	a
   12EF C0 E0              4719 	push	acc
   12F1 C0 05              4720 	push	ar5
   12F3 C0 06              4721 	push	ar6
   12F5 C0 07              4722 	push	ar7
   12F7 8B 82              4723 	mov	dpl,r3
   12F9 8C 83              4724 	mov	dph,r4
   12FB 8A F0              4725 	mov	b,r2
   12FD 78r00              4726 	mov	r0,#_memcmp
   12FF 79s00              4727 	mov	r1,#(_memcmp >> 8)
   1301 7As00              4728 	mov	r2,#(_memcmp >> 16)
   1303 12s00r00           4729 	lcall	__sdcc_banked_call
   1306 AE 82              4730 	mov	r6,dpl
   1308 AF 83              4731 	mov	r7,dph
   130A E5 81              4732 	mov	a,sp
   130C 24 FB              4733 	add	a,#0xfb
   130E F5 81              4734 	mov	sp,a
   1310 EE                 4735 	mov	a,r6
   1311 4F                 4736 	orl	a,r7
   1312 60 0F              4737 	jz	00247$
                           4738 ;	../../../contiki-sensinode//core/net/uip6.c:1491: goto udp_found;
   1314                    4739 00258$:
                           4740 ;	../../../contiki-sensinode//core/net/uip6.c:1477: ++uip_udp_conn) {
   1314 90s01r6C           4741 	mov	dptr,#_uip_udp_conn
   1317 E0                 4742 	movx	a,@dptr
   1318 24 1B              4743 	add	a,#0x1B
   131A F0                 4744 	movx	@dptr,a
   131B A3                 4745 	inc	dptr
   131C E0                 4746 	movx	a,@dptr
   131D 34 00              4747 	addc	a,#0x00
   131F F0                 4748 	movx	@dptr,a
   1320 02s11r59           4749 	ljmp	00256$
                           4750 ;	../../../contiki-sensinode//core/net/uip6.c:1504: udp_found:
   1323                    4751 00247$:
                           4752 ;	../../../contiki-sensinode//core/net/uip6.c:1507: uip_conn = NULL;
   1323 90s01r66           4753 	mov	dptr,#_uip_conn
   1326 E4                 4754 	clr	a
   1327 F0                 4755 	movx	@dptr,a
   1328 A3                 4756 	inc	dptr
   1329 F0                 4757 	movx	@dptr,a
   132A A3                 4758 	inc	dptr
   132B F0                 4759 	movx	@dptr,a
                           4760 ;	../../../contiki-sensinode//core/net/uip6.c:1508: uip_flags = UIP_NEWDATA;
   132C 90s01r65           4761 	mov	dptr,#_uip_flags
   132F 74 02              4762 	mov	a,#0x02
   1331 F0                 4763 	movx	@dptr,a
                           4764 ;	../../../contiki-sensinode//core/net/uip6.c:1509: uip_sappdata = uip_appdata = &uip_buf[UIP_IPUDPH_LEN + UIP_LLH_LEN];
   1332 90s01r5B           4765 	mov	dptr,#_uip_appdata
   1335 74r3B              4766 	mov	a,#(_uip_aligned_buf + 0x0030)
   1337 F0                 4767 	movx	@dptr,a
   1338 A3                 4768 	inc	dptr
   1339 74s00              4769 	mov	a,#((_uip_aligned_buf + 0x0030) >> 8)
   133B F0                 4770 	movx	@dptr,a
   133C A3                 4771 	inc	dptr
   133D E4                 4772 	clr	a
   133E F0                 4773 	movx	@dptr,a
   133F 90s01r5E           4774 	mov	dptr,#_uip_sappdata
   1342 74r3B              4775 	mov	a,#(_uip_aligned_buf + 0x0030)
   1344 F0                 4776 	movx	@dptr,a
   1345 A3                 4777 	inc	dptr
   1346 74s00              4778 	mov	a,#((_uip_aligned_buf + 0x0030) >> 8)
   1348 F0                 4779 	movx	@dptr,a
   1349 A3                 4780 	inc	dptr
                           4781 ;	../../../contiki-sensinode//core/net/uip6.c:1510: uip_slen = 0;
   134A E4                 4782 	clr	a
   134B F0                 4783 	movx	@dptr,a
   134C 90s01r63           4784 	mov	dptr,#_uip_slen
   134F F0                 4785 	movx	@dptr,a
   1350 A3                 4786 	inc	dptr
   1351 E4                 4787 	clr	a
   1352 F0                 4788 	movx	@dptr,a
                           4789 ;	../../../contiki-sensinode//core/net/uip6.c:1511: UIP_UDP_APPCALL();
   1353 78r00              4790 	mov	r0,#_tcpip_uipcall
   1355 79s00              4791 	mov	r1,#(_tcpip_uipcall >> 8)
   1357 7As00              4792 	mov	r2,#(_tcpip_uipcall >> 16)
   1359 12s00r00           4793 	lcall	__sdcc_banked_call
                           4794 ;	../../../contiki-sensinode//core/net/uip6.c:1513: udp_send:
   135C                    4795 00248$:
                           4796 ;	../../../contiki-sensinode//core/net/uip6.c:1516: if(uip_slen == 0) {
   135C 90s01r63           4797 	mov	dptr,#_uip_slen
   135F E0                 4798 	movx	a,@dptr
   1360 FE                 4799 	mov	r6,a
   1361 A3                 4800 	inc	dptr
   1362 E0                 4801 	movx	a,@dptr
   1363 FF                 4802 	mov	r7,a
   1364 4E                 4803 	orl	a,r6
   1365 70 03              4804 	jnz	00564$
   1367 02s15r78           4805 	ljmp	00255$
   136A                    4806 00564$:
                           4807 ;	../../../contiki-sensinode//core/net/uip6.c:1519: uip_len = uip_slen + UIP_IPUDPH_LEN;
   136A 74 30              4808 	mov	a,#0x30
   136C 2E                 4809 	add	a,r6
   136D FC                 4810 	mov	r4,a
   136E E4                 4811 	clr	a
   136F 3F                 4812 	addc	a,r7
   1370 FD                 4813 	mov	r5,a
   1371 90s01r61           4814 	mov	dptr,#_uip_len
   1374 EC                 4815 	mov	a,r4
   1375 F0                 4816 	movx	@dptr,a
   1376 A3                 4817 	inc	dptr
   1377 ED                 4818 	mov	a,r5
   1378 F0                 4819 	movx	@dptr,a
                           4820 ;	../../../contiki-sensinode//core/net/uip6.c:1523: UIP_IP_BUF->len[0] = ((uip_len - UIP_IPH_LEN) >> 8);
   1379 7Ar0B              4821 	mov	r2,#_uip_aligned_buf
   137B 7Bs00              4822 	mov	r3,#(_uip_aligned_buf >> 8)
   137D 8A 82              4823 	mov	dpl,r2
   137F 8B 83              4824 	mov	dph,r3
   1381 A3                 4825 	inc	dptr
   1382 A3                 4826 	inc	dptr
   1383 A3                 4827 	inc	dptr
   1384 A3                 4828 	inc	dptr
   1385 EE                 4829 	mov	a,r6
   1386 24 08              4830 	add	a,#0x08
   1388 E4                 4831 	clr	a
   1389 3F                 4832 	addc	a,r7
   138A F0                 4833 	movx	@dptr,a
                           4834 ;	../../../contiki-sensinode//core/net/uip6.c:1524: UIP_IP_BUF->len[1] = ((uip_len - UIP_IPH_LEN) & 0xff);
   138B 7Er0B              4835 	mov	r6,#_uip_aligned_buf
   138D 7Fs00              4836 	mov	r7,#(_uip_aligned_buf >> 8)
   138F 8E 82              4837 	mov	dpl,r6
   1391 8F 83              4838 	mov	dph,r7
   1393 A3                 4839 	inc	dptr
   1394 A3                 4840 	inc	dptr
   1395 A3                 4841 	inc	dptr
   1396 A3                 4842 	inc	dptr
   1397 A3                 4843 	inc	dptr
   1398 EC                 4844 	mov	a,r4
   1399 24 D8              4845 	add	a,#0xD8
   139B F0                 4846 	movx	@dptr,a
                           4847 ;	../../../contiki-sensinode//core/net/uip6.c:1526: memcpy(&UIP_IP_BUF->ttl, &uip_udp_conn->ttl, sizeof(uip_udp_conn->ttl));
   139C 90s01r6C           4848 	mov	dptr,#_uip_udp_conn
   139F E0                 4849 	movx	a,@dptr
   13A0 FD                 4850 	mov	r5,a
   13A1 A3                 4851 	inc	dptr
   13A2 E0                 4852 	movx	a,@dptr
   13A3 FE                 4853 	mov	r6,a
   13A4 A3                 4854 	inc	dptr
   13A5 E0                 4855 	movx	a,@dptr
   13A6 FF                 4856 	mov	r7,a
   13A7 74 14              4857 	mov	a,#0x14
   13A9 2D                 4858 	add	a,r5
   13AA FD                 4859 	mov	r5,a
   13AB E4                 4860 	clr	a
   13AC 3E                 4861 	addc	a,r6
   13AD FE                 4862 	mov	r6,a
   13AE 7Br0B              4863 	mov	r3,#_uip_aligned_buf
   13B0 7Cs00              4864 	mov	r4,#(_uip_aligned_buf >> 8)
   13B2 74 07              4865 	mov	a,#0x07
   13B4 2B                 4866 	add	a,r3
   13B5 FB                 4867 	mov	r3,a
   13B6 E4                 4868 	clr	a
   13B7 3C                 4869 	addc	a,r4
   13B8 FC                 4870 	mov	r4,a
   13B9 7A 00              4871 	mov	r2,#0x00
   13BB 74 01              4872 	mov	a,#0x01
   13BD C0 E0              4873 	push	acc
   13BF E4                 4874 	clr	a
   13C0 C0 E0              4875 	push	acc
   13C2 C0 05              4876 	push	ar5
   13C4 C0 06              4877 	push	ar6
   13C6 C0 07              4878 	push	ar7
   13C8 8B 82              4879 	mov	dpl,r3
   13CA 8C 83              4880 	mov	dph,r4
   13CC 8A F0              4881 	mov	b,r2
   13CE 78r00              4882 	mov	r0,#_memcpy
   13D0 79s00              4883 	mov	r1,#(_memcpy >> 8)
   13D2 7As00              4884 	mov	r2,#(_memcpy >> 16)
   13D4 12s00r00           4885 	lcall	__sdcc_banked_call
   13D7 E5 81              4886 	mov	a,sp
   13D9 24 FB              4887 	add	a,#0xfb
   13DB F5 81              4888 	mov	sp,a
                           4889 ;	../../../contiki-sensinode//core/net/uip6.c:1527: UIP_IP_BUF->proto = UIP_PROTO_UDP;
   13DD 7Er0B              4890 	mov	r6,#_uip_aligned_buf
   13DF 7Fs00              4891 	mov	r7,#(_uip_aligned_buf >> 8)
   13E1 74 06              4892 	mov	a,#0x06
   13E3 2E                 4893 	add	a,r6
   13E4 F5 82              4894 	mov	dpl,a
   13E6 E4                 4895 	clr	a
   13E7 3F                 4896 	addc	a,r7
   13E8 F5 83              4897 	mov	dph,a
   13EA 74 11              4898 	mov	a,#0x11
   13EC F0                 4899 	movx	@dptr,a
                           4900 ;	../../../contiki-sensinode//core/net/uip6.c:1529: UIP_UDP_BUF->udplen = UIP_HTONS(uip_slen + UIP_UDPH_LEN);
   13ED 7Er33              4901 	mov	r6,#(_uip_aligned_buf + 0x0028)
   13EF 7Fs00              4902 	mov	r7,#((_uip_aligned_buf + 0x0028) >> 8)
   13F1 74 04              4903 	mov	a,#0x04
   13F3 2E                 4904 	add	a,r6
   13F4 FE                 4905 	mov	r6,a
   13F5 E4                 4906 	clr	a
   13F6 3F                 4907 	addc	a,r7
   13F7 FF                 4908 	mov	r7,a
   13F8 90s01r63           4909 	mov	dptr,#_uip_slen
   13FB E0                 4910 	movx	a,@dptr
   13FC FC                 4911 	mov	r4,a
   13FD A3                 4912 	inc	dptr
   13FE E0                 4913 	movx	a,@dptr
   13FF FD                 4914 	mov	r5,a
   1400 74 08              4915 	mov	a,#0x08
   1402 2C                 4916 	add	a,r4
   1403 FC                 4917 	mov	r4,a
   1404 E4                 4918 	clr	a
   1405 3D                 4919 	addc	a,r5
   1406 FD                 4920 	mov	r5,a
   1407 8C 03              4921 	mov	ar3,r4
   1409 7A 00              4922 	mov	r2,#0x00
   140B 8D 04              4923 	mov	ar4,r5
   140D 7D 00              4924 	mov	r5,#0x00
   140F EC                 4925 	mov	a,r4
   1410 42 02              4926 	orl	ar2,a
   1412 ED                 4927 	mov	a,r5
   1413 42 03              4928 	orl	ar3,a
   1415 8E 82              4929 	mov	dpl,r6
   1417 8F 83              4930 	mov	dph,r7
   1419 EA                 4931 	mov	a,r2
   141A F0                 4932 	movx	@dptr,a
   141B A3                 4933 	inc	dptr
   141C EB                 4934 	mov	a,r3
   141D F0                 4935 	movx	@dptr,a
                           4936 ;	../../../contiki-sensinode//core/net/uip6.c:1530: UIP_UDP_BUF->udpchksum = 0;
   141E 7Er33              4937 	mov	r6,#(_uip_aligned_buf + 0x0028)
   1420 7Fs00              4938 	mov	r7,#((_uip_aligned_buf + 0x0028) >> 8)
   1422 74 06              4939 	mov	a,#0x06
   1424 2E                 4940 	add	a,r6
   1425 F5 82              4941 	mov	dpl,a
   1427 E4                 4942 	clr	a
   1428 3F                 4943 	addc	a,r7
   1429 F5 83              4944 	mov	dph,a
   142B E4                 4945 	clr	a
   142C F0                 4946 	movx	@dptr,a
   142D A3                 4947 	inc	dptr
   142E F0                 4948 	movx	@dptr,a
                           4949 ;	../../../contiki-sensinode//core/net/uip6.c:1532: UIP_UDP_BUF->srcport  = uip_udp_conn->lport;
   142F 7Er33              4950 	mov	r6,#(_uip_aligned_buf + 0x0028)
   1431 7Fs00              4951 	mov	r7,#((_uip_aligned_buf + 0x0028) >> 8)
   1433 90s01r6C           4952 	mov	dptr,#_uip_udp_conn
   1436 E0                 4953 	movx	a,@dptr
   1437 FB                 4954 	mov	r3,a
   1438 A3                 4955 	inc	dptr
   1439 E0                 4956 	movx	a,@dptr
   143A FC                 4957 	mov	r4,a
   143B A3                 4958 	inc	dptr
   143C E0                 4959 	movx	a,@dptr
   143D FD                 4960 	mov	r5,a
   143E 74 10              4961 	mov	a,#0x10
   1440 2B                 4962 	add	a,r3
   1441 F8                 4963 	mov	r0,a
   1442 E4                 4964 	clr	a
   1443 3C                 4965 	addc	a,r4
   1444 F9                 4966 	mov	r1,a
   1445 8D 02              4967 	mov	ar2,r5
   1447 88 82              4968 	mov	dpl,r0
   1449 89 83              4969 	mov	dph,r1
   144B 8A F0              4970 	mov	b,r2
   144D 12s00r00           4971 	lcall	__gptrget
   1450 F8                 4972 	mov	r0,a
   1451 A3                 4973 	inc	dptr
   1452 12s00r00           4974 	lcall	__gptrget
   1455 F9                 4975 	mov	r1,a
   1456 8E 82              4976 	mov	dpl,r6
   1458 8F 83              4977 	mov	dph,r7
   145A E8                 4978 	mov	a,r0
   145B F0                 4979 	movx	@dptr,a
   145C A3                 4980 	inc	dptr
   145D E9                 4981 	mov	a,r1
   145E F0                 4982 	movx	@dptr,a
                           4983 ;	../../../contiki-sensinode//core/net/uip6.c:1533: UIP_UDP_BUF->destport = uip_udp_conn->rport;
   145F 7Er33              4984 	mov	r6,#(_uip_aligned_buf + 0x0028)
   1461 7Fs00              4985 	mov	r7,#((_uip_aligned_buf + 0x0028) >> 8)
   1463 74 02              4986 	mov	a,#0x02
   1465 2E                 4987 	add	a,r6
   1466 FE                 4988 	mov	r6,a
   1467 E4                 4989 	clr	a
   1468 3F                 4990 	addc	a,r7
   1469 FF                 4991 	mov	r7,a
   146A 74 12              4992 	mov	a,#0x12
   146C 2B                 4993 	add	a,r3
   146D F8                 4994 	mov	r0,a
   146E E4                 4995 	clr	a
   146F 3C                 4996 	addc	a,r4
   1470 F9                 4997 	mov	r1,a
   1471 8D 02              4998 	mov	ar2,r5
   1473 88 82              4999 	mov	dpl,r0
   1475 89 83              5000 	mov	dph,r1
   1477 8A F0              5001 	mov	b,r2
   1479 12s00r00           5002 	lcall	__gptrget
   147C F8                 5003 	mov	r0,a
   147D A3                 5004 	inc	dptr
   147E 12s00r00           5005 	lcall	__gptrget
   1481 F9                 5006 	mov	r1,a
   1482 8E 82              5007 	mov	dpl,r6
   1484 8F 83              5008 	mov	dph,r7
   1486 E8                 5009 	mov	a,r0
   1487 F0                 5010 	movx	@dptr,a
   1488 A3                 5011 	inc	dptr
   1489 E9                 5012 	mov	a,r1
   148A F0                 5013 	movx	@dptr,a
                           5014 ;	../../../contiki-sensinode//core/net/uip6.c:1535: uip_ipaddr_copy(&UIP_IP_BUF->destipaddr, &uip_udp_conn->ripaddr);
   148B 7Er0B              5015 	mov	r6,#_uip_aligned_buf
   148D 7Fs00              5016 	mov	r7,#(_uip_aligned_buf >> 8)
   148F 74 18              5017 	mov	a,#0x18
   1491 2E                 5018 	add	a,r6
   1492 FE                 5019 	mov	r6,a
   1493 E4                 5020 	clr	a
   1494 3F                 5021 	addc	a,r7
   1495 FF                 5022 	mov	r7,a
   1496 7A 00              5023 	mov	r2,#0x00
   1498 74 10              5024 	mov	a,#0x10
   149A C0 E0              5025 	push	acc
   149C E4                 5026 	clr	a
   149D C0 E0              5027 	push	acc
   149F C0 03              5028 	push	ar3
   14A1 C0 04              5029 	push	ar4
   14A3 C0 05              5030 	push	ar5
   14A5 8E 82              5031 	mov	dpl,r6
   14A7 8F 83              5032 	mov	dph,r7
   14A9 8A F0              5033 	mov	b,r2
   14AB 78r00              5034 	mov	r0,#_memcpy
   14AD 79s00              5035 	mov	r1,#(_memcpy >> 8)
   14AF 7As00              5036 	mov	r2,#(_memcpy >> 16)
   14B1 12s00r00           5037 	lcall	__sdcc_banked_call
   14B4 E5 81              5038 	mov	a,sp
   14B6 24 FB              5039 	add	a,#0xfb
   14B8 F5 81              5040 	mov	sp,a
                           5041 ;	../../../contiki-sensinode//core/net/uip6.c:1536: uip_ds6_select_src(&UIP_IP_BUF->srcipaddr, &UIP_IP_BUF->destipaddr);
   14BA 7Er0B              5042 	mov	r6,#_uip_aligned_buf
   14BC 7Fs00              5043 	mov	r7,#(_uip_aligned_buf >> 8)
   14BE 74 18              5044 	mov	a,#0x18
   14C0 2E                 5045 	add	a,r6
   14C1 FE                 5046 	mov	r6,a
   14C2 E4                 5047 	clr	a
   14C3 3F                 5048 	addc	a,r7
   14C4 FF                 5049 	mov	r7,a
   14C5 7D 00              5050 	mov	r5,#0x00
   14C7 7Br0B              5051 	mov	r3,#_uip_aligned_buf
   14C9 7Cs00              5052 	mov	r4,#(_uip_aligned_buf >> 8)
   14CB 74 08              5053 	mov	a,#0x08
   14CD 2B                 5054 	add	a,r3
   14CE FB                 5055 	mov	r3,a
   14CF E4                 5056 	clr	a
   14D0 3C                 5057 	addc	a,r4
   14D1 FC                 5058 	mov	r4,a
   14D2 7A 00              5059 	mov	r2,#0x00
   14D4 C0 06              5060 	push	ar6
   14D6 C0 07              5061 	push	ar7
   14D8 C0 05              5062 	push	ar5
   14DA 8B 82              5063 	mov	dpl,r3
   14DC 8C 83              5064 	mov	dph,r4
   14DE 8A F0              5065 	mov	b,r2
   14E0 78r00              5066 	mov	r0,#_uip_ds6_select_src
   14E2 79s00              5067 	mov	r1,#(_uip_ds6_select_src >> 8)
   14E4 7As00              5068 	mov	r2,#(_uip_ds6_select_src >> 16)
   14E6 12s00r00           5069 	lcall	__sdcc_banked_call
   14E9 15 81              5070 	dec	sp
   14EB 15 81              5071 	dec	sp
   14ED 15 81              5072 	dec	sp
                           5073 ;	../../../contiki-sensinode//core/net/uip6.c:1538: uip_appdata = &uip_buf[UIP_LLH_LEN + UIP_IPTCPH_LEN];
   14EF 90s01r5B           5074 	mov	dptr,#_uip_appdata
   14F2 74r47              5075 	mov	a,#(_uip_aligned_buf + 0x003c)
   14F4 F0                 5076 	movx	@dptr,a
   14F5 A3                 5077 	inc	dptr
   14F6 74s00              5078 	mov	a,#((_uip_aligned_buf + 0x003c) >> 8)
   14F8 F0                 5079 	movx	@dptr,a
   14F9 A3                 5080 	inc	dptr
   14FA E4                 5081 	clr	a
   14FB F0                 5082 	movx	@dptr,a
                           5083 ;	../../../contiki-sensinode//core/net/uip6.c:1542: UIP_UDP_BUF->udpchksum = ~(uip_udpchksum());
   14FC 7Er33              5084 	mov	r6,#(_uip_aligned_buf + 0x0028)
   14FE 7Fs00              5085 	mov	r7,#((_uip_aligned_buf + 0x0028) >> 8)
   1500 74 06              5086 	mov	a,#0x06
   1502 2E                 5087 	add	a,r6
   1503 FE                 5088 	mov	r6,a
   1504 E4                 5089 	clr	a
   1505 3F                 5090 	addc	a,r7
   1506 FF                 5091 	mov	r7,a
   1507 C0 07              5092 	push	ar7
   1509 C0 06              5093 	push	ar6
   150B 78rB6              5094 	mov	r0,#_uip_udpchksum
   150D 79s02              5095 	mov	r1,#(_uip_udpchksum >> 8)
   150F 7As00              5096 	mov	r2,#(_uip_udpchksum >> 16)
   1511 12s00r00           5097 	lcall	__sdcc_banked_call
   1514 AC 82              5098 	mov	r4,dpl
   1516 AD 83              5099 	mov	r5,dph
   1518 D0 06              5100 	pop	ar6
   151A D0 07              5101 	pop	ar7
   151C EC                 5102 	mov	a,r4
   151D F4                 5103 	cpl	a
   151E FC                 5104 	mov	r4,a
   151F ED                 5105 	mov	a,r5
   1520 F4                 5106 	cpl	a
   1521 FD                 5107 	mov	r5,a
   1522 8E 82              5108 	mov	dpl,r6
   1524 8F 83              5109 	mov	dph,r7
   1526 EC                 5110 	mov	a,r4
   1527 F0                 5111 	movx	@dptr,a
   1528 A3                 5112 	inc	dptr
   1529 ED                 5113 	mov	a,r5
   152A F0                 5114 	movx	@dptr,a
                           5115 ;	../../../contiki-sensinode//core/net/uip6.c:1543: if(UIP_UDP_BUF->udpchksum == 0) {
   152B 7Er33              5116 	mov	r6,#(_uip_aligned_buf + 0x0028)
   152D 7Fs00              5117 	mov	r7,#((_uip_aligned_buf + 0x0028) >> 8)
   152F 74 06              5118 	mov	a,#0x06
   1531 2E                 5119 	add	a,r6
   1532 F5 82              5120 	mov	dpl,a
   1534 E4                 5121 	clr	a
   1535 3F                 5122 	addc	a,r7
   1536 F5 83              5123 	mov	dph,a
   1538 E0                 5124 	movx	a,@dptr
   1539 FE                 5125 	mov	r6,a
   153A A3                 5126 	inc	dptr
   153B E0                 5127 	movx	a,@dptr
   153C FF                 5128 	mov	r7,a
   153D 4E                 5129 	orl	a,r6
   153E 70 12              5130 	jnz	00253$
                           5131 ;	../../../contiki-sensinode//core/net/uip6.c:1544: UIP_UDP_BUF->udpchksum = 0xffff;
   1540 7Er33              5132 	mov	r6,#(_uip_aligned_buf + 0x0028)
   1542 7Fs00              5133 	mov	r7,#((_uip_aligned_buf + 0x0028) >> 8)
   1544 74 06              5134 	mov	a,#0x06
   1546 2E                 5135 	add	a,r6
   1547 F5 82              5136 	mov	dpl,a
   1549 E4                 5137 	clr	a
   154A 3F                 5138 	addc	a,r7
   154B F5 83              5139 	mov	dph,a
   154D 74 FF              5140 	mov	a,#0xFF
   154F F0                 5141 	movx	@dptr,a
   1550 A3                 5142 	inc	dptr
   1551 F0                 5143 	movx	@dptr,a
                           5144 ;	../../../contiki-sensinode//core/net/uip6.c:2255: ip_send_nolen:
   1552                    5145 00253$:
                           5146 ;	../../../contiki-sensinode//core/net/uip6.c:2257: UIP_IP_BUF->vtc = 0x60;
   1552 90s00r0B           5147 	mov	dptr,#_uip_aligned_buf
   1555 74 60              5148 	mov	a,#0x60
   1557 F0                 5149 	movx	@dptr,a
                           5150 ;	../../../contiki-sensinode//core/net/uip6.c:2258: UIP_IP_BUF->tcflow = 0x00;
   1558 7Er0B              5151 	mov	r6,#_uip_aligned_buf
   155A 7Fs00              5152 	mov	r7,#(_uip_aligned_buf >> 8)
   155C 8E 82              5153 	mov	dpl,r6
   155E 8F 83              5154 	mov	dph,r7
   1560 A3                 5155 	inc	dptr
   1561 E4                 5156 	clr	a
   1562 F0                 5157 	movx	@dptr,a
                           5158 ;	../../../contiki-sensinode//core/net/uip6.c:2259: UIP_IP_BUF->flow = 0x00;
   1563 7Er0B              5159 	mov	r6,#_uip_aligned_buf
   1565 7Fs00              5160 	mov	r7,#(_uip_aligned_buf >> 8)
   1567 8E 82              5161 	mov	dpl,r6
   1569 8F 83              5162 	mov	dph,r7
   156B A3                 5163 	inc	dptr
   156C A3                 5164 	inc	dptr
   156D E4                 5165 	clr	a
   156E F0                 5166 	movx	@dptr,a
   156F A3                 5167 	inc	dptr
   1570 F0                 5168 	movx	@dptr,a
                           5169 ;	../../../contiki-sensinode//core/net/uip6.c:2260: send:
   1571                    5170 00254$:
                           5171 ;	../../../contiki-sensinode//core/net/uip6.c:2266: uip_flags = 0;
   1571 90s01r65           5172 	mov	dptr,#_uip_flags
   1574 E4                 5173 	clr	a
   1575 F0                 5174 	movx	@dptr,a
                           5175 ;	../../../contiki-sensinode//core/net/uip6.c:2267: return;
                           5176 ;	../../../contiki-sensinode//core/net/uip6.c:2269: drop:
   1576 80 13              5177 	sjmp	00260$
   1578                    5178 00255$:
                           5179 ;	../../../contiki-sensinode//core/net/uip6.c:2270: uip_len = 0;
   1578 90s01r61           5180 	mov	dptr,#_uip_len
                           5181 ;	../../../contiki-sensinode//core/net/uip6.c:2271: uip_ext_len = 0;
                           5182 ;	../../../contiki-sensinode//core/net/uip6.c:2272: uip_ext_bitmap = 0;
                           5183 ;	../../../contiki-sensinode//core/net/uip6.c:2273: uip_flags = 0;
   157B E4                 5184 	clr	a
   157C F0                 5185 	movx	@dptr,a
   157D A3                 5186 	inc	dptr
   157E F0                 5187 	movx	@dptr,a
   157F 90s00r01           5188 	mov	dptr,#_uip_ext_len
   1582 F0                 5189 	movx	@dptr,a
   1583 90s00r00           5190 	mov	dptr,#_uip_ext_bitmap
   1586 F0                 5191 	movx	@dptr,a
   1587 90s01r65           5192 	mov	dptr,#_uip_flags
   158A F0                 5193 	movx	@dptr,a
                           5194 ;	../../../contiki-sensinode//core/net/uip6.c:2274: return;
   158B                    5195 00260$:
   158B 02s00r00           5196 	ljmp	__sdcc_banked_ret
                           5197 ;------------------------------------------------------------
                           5198 ;Allocation info for local variables in function 'uip_htons'
                           5199 ;------------------------------------------------------------
                           5200 ;val                       Allocated to registers r6 r7 
                           5201 ;------------------------------------------------------------
                           5202 ;	../../../contiki-sensinode//core/net/uip6.c:2278: uip_htons(uint16_t val)
                           5203 ;	-----------------------------------------
                           5204 ;	 function uip_htons
                           5205 ;	-----------------------------------------
   158E                    5206 _uip_htons:
   158E AE 82              5207 	mov	r6,dpl
   1590 AF 83              5208 	mov	r7,dph
                           5209 ;	../../../contiki-sensinode//core/net/uip6.c:2280: return UIP_HTONS(val);
   1592 8E 05              5210 	mov	ar5,r6
   1594 7C 00              5211 	mov	r4,#0x00
   1596 8F 06              5212 	mov	ar6,r7
   1598 7F 00              5213 	mov	r7,#0x00
   159A EE                 5214 	mov	a,r6
   159B 42 04              5215 	orl	ar4,a
   159D EF                 5216 	mov	a,r7
   159E 42 05              5217 	orl	ar5,a
   15A0 8C 82              5218 	mov	dpl,r4
   15A2 8D 83              5219 	mov	dph,r5
   15A4 02s00r00           5220 	ljmp	__sdcc_banked_ret
                           5221 ;------------------------------------------------------------
                           5222 ;Allocation info for local variables in function 'uip_htonl'
                           5223 ;------------------------------------------------------------
                           5224 ;val                       Allocated to registers r4 r5 r6 r7 
                           5225 ;------------------------------------------------------------
                           5226 ;	../../../contiki-sensinode//core/net/uip6.c:2284: uip_htonl(uint32_t val)
                           5227 ;	-----------------------------------------
                           5228 ;	 function uip_htonl
                           5229 ;	-----------------------------------------
   15A7                    5230 _uip_htonl:
   15A7 AC 82              5231 	mov	r4,dpl
   15A9 AD 83              5232 	mov	r5,dph
   15AB AE F0              5233 	mov	r6,b
   15AD FF                 5234 	mov	r7,a
                           5235 ;	../../../contiki-sensinode//core/net/uip6.c:2286: return UIP_HTONL(val);
   15AE 8C 02              5236 	mov	ar2,r4
   15B0 8D 03              5237 	mov	ar3,r5
   15B2 8A 01              5238 	mov	ar1,r2
   15B4 78 00              5239 	mov	r0,#0x00
   15B6 8B 02              5240 	mov	ar2,r3
   15B8 7B 00              5241 	mov	r3,#0x00
   15BA EA                 5242 	mov	a,r2
   15BB 42 00              5243 	orl	ar0,a
   15BD EB                 5244 	mov	a,r3
   15BE 42 01              5245 	orl	ar1,a
   15C0 89 02              5246 	mov	ar2,r1
   15C2 88 03              5247 	mov	ar3,r0
   15C4 79 00              5248 	mov	r1,#0x00
   15C6 78 00              5249 	mov	r0,#0x00
   15C8 8E 04              5250 	mov	ar4,r6
   15CA 8F 05              5251 	mov	ar5,r7
   15CC 8C 07              5252 	mov	ar7,r4
   15CE 7E 00              5253 	mov	r6,#0x00
   15D0 8D 04              5254 	mov	ar4,r5
   15D2 7D 00              5255 	mov	r5,#0x00
   15D4 EC                 5256 	mov	a,r4
   15D5 42 06              5257 	orl	ar6,a
   15D7 ED                 5258 	mov	a,r5
   15D8 42 07              5259 	orl	ar7,a
   15DA E4                 5260 	clr	a
   15DB FD                 5261 	mov	r5,a
   15DC FC                 5262 	mov	r4,a
   15DD EE                 5263 	mov	a,r6
   15DE 42 00              5264 	orl	ar0,a
   15E0 EF                 5265 	mov	a,r7
   15E1 42 01              5266 	orl	ar1,a
   15E3 ED                 5267 	mov	a,r5
   15E4 42 03              5268 	orl	ar3,a
   15E6 EC                 5269 	mov	a,r4
   15E7 42 02              5270 	orl	ar2,a
   15E9 88 82              5271 	mov	dpl,r0
   15EB 89 83              5272 	mov	dph,r1
   15ED 8B F0              5273 	mov	b,r3
   15EF EA                 5274 	mov	a,r2
   15F0 02s00r00           5275 	ljmp	__sdcc_banked_ret
                           5276 ;------------------------------------------------------------
                           5277 ;Allocation info for local variables in function 'uip_send'
                           5278 ;------------------------------------------------------------
                           5279 ;len                       Allocated to stack - sp -10
                           5280 ;data                      Allocated to stack - sp -5
                           5281 ;copylen                   Allocated to registers r6 r7 
                           5282 ;sloc0                     Allocated to stack - sp +0
                           5283 ;sloc1                     Allocated to stack - sp -2
                           5284 ;------------------------------------------------------------
                           5285 ;	../../../contiki-sensinode//core/net/uip6.c:2290: uip_send(const void *data, int len)
                           5286 ;	-----------------------------------------
                           5287 ;	 function uip_send
                           5288 ;	-----------------------------------------
   15F3                    5289 _uip_send:
   15F3 C0 82              5290 	push	dpl
   15F5 C0 83              5291 	push	dph
   15F7 C0 F0              5292 	push	b
   15F9 05 81              5293 	inc	sp
   15FB 05 81              5294 	inc	sp
   15FD 05 81              5295 	inc	sp
                           5296 ;	../../../contiki-sensinode//core/net/uip6.c:2294: copylen = MIN(len, UIP_BUFSIZE - UIP_LLH_LEN - UIP_TCPIP_HLEN -
   15FF 90s01r5E           5297 	mov	dptr,#_uip_sappdata
   1602 A8 81              5298 	mov	r0,sp
   1604 18                 5299 	dec	r0
   1605 18                 5300 	dec	r0
   1606 E0                 5301 	movx	a,@dptr
   1607 F6                 5302 	mov	@r0,a
   1608 A3                 5303 	inc	dptr
   1609 E0                 5304 	movx	a,@dptr
   160A 08                 5305 	inc	r0
   160B F6                 5306 	mov	@r0,a
   160C A3                 5307 	inc	dptr
   160D E0                 5308 	movx	a,@dptr
   160E 08                 5309 	inc	r0
   160F F6                 5310 	mov	@r0,a
   1610 A8 81              5311 	mov	r0,sp
   1612 18                 5312 	dec	r0
   1613 18                 5313 	dec	r0
   1614 86 02              5314 	mov	ar2,@r0
   1616 08                 5315 	inc	r0
   1617 86 03              5316 	mov	ar3,@r0
   1619 08                 5317 	inc	r0
   161A 86 04              5318 	mov	ar4,@r0
   161C 7Er47              5319 	mov	r6,#(_uip_aligned_buf + 0x003c)
   161E 7Fs00              5320 	mov	r7,#((_uip_aligned_buf + 0x003c) >> 8)
   1620 EA                 5321 	mov	a,r2
   1621 C3                 5322 	clr	c
   1622 9E                 5323 	subb	a,r6
   1623 FE                 5324 	mov	r6,a
   1624 EB                 5325 	mov	a,r3
   1625 9F                 5326 	subb	a,r7
   1626 FF                 5327 	mov	r7,a
   1627 74 13              5328 	mov	a,#0x13
   1629 C3                 5329 	clr	c
   162A 9E                 5330 	subb	a,r6
   162B FE                 5331 	mov	r6,a
   162C 74 01              5332 	mov	a,#0x01
   162E 9F                 5333 	subb	a,r7
   162F FF                 5334 	mov	r7,a
   1630 E5 81              5335 	mov	a,sp
   1632 24 F6              5336 	add	a,#0xf6
   1634 F8                 5337 	mov	r0,a
   1635 C3                 5338 	clr	c
   1636 E6                 5339 	mov	a,@r0
   1637 9E                 5340 	subb	a,r6
   1638 08                 5341 	inc	r0
   1639 E6                 5342 	mov	a,@r0
   163A 64 80              5343 	xrl	a,#0x80
   163C 8F F0              5344 	mov	b,r7
   163E 63 F0 80           5345 	xrl	b,#0x80
   1641 95 F0              5346 	subb	a,b
   1643 50 0C              5347 	jnc	00107$
   1645 E5 81              5348 	mov	a,sp
   1647 24 F6              5349 	add	a,#0xf6
   1649 F8                 5350 	mov	r0,a
   164A 86 06              5351 	mov	ar6,@r0
   164C 08                 5352 	inc	r0
   164D 86 07              5353 	mov	ar7,@r0
   164F 80 22              5354 	sjmp	00108$
   1651                    5355 00107$:
   1651 A8 81              5356 	mov	r0,sp
   1653 18                 5357 	dec	r0
   1654 18                 5358 	dec	r0
   1655 86 03              5359 	mov	ar3,@r0
   1657 08                 5360 	inc	r0
   1658 86 04              5361 	mov	ar4,@r0
   165A 08                 5362 	inc	r0
   165B 86 05              5363 	mov	ar5,@r0
   165D 8D 07              5364 	mov	ar7,r5
   165F 7Ar47              5365 	mov	r2,#(_uip_aligned_buf + 0x003c)
   1661 7Ds00              5366 	mov	r5,#((_uip_aligned_buf + 0x003c) >> 8)
   1663 EB                 5367 	mov	a,r3
   1664 C3                 5368 	clr	c
   1665 9A                 5369 	subb	a,r2
   1666 FA                 5370 	mov	r2,a
   1667 EC                 5371 	mov	a,r4
   1668 9D                 5372 	subb	a,r5
   1669 FD                 5373 	mov	r5,a
   166A 74 13              5374 	mov	a,#0x13
   166C C3                 5375 	clr	c
   166D 9A                 5376 	subb	a,r2
   166E FE                 5377 	mov	r6,a
   166F 74 01              5378 	mov	a,#0x01
   1671 9D                 5379 	subb	a,r5
   1672 FF                 5380 	mov	r7,a
   1673                    5381 00108$:
                           5382 ;	../../../contiki-sensinode//core/net/uip6.c:2296: if(copylen > 0) {
   1673 C3                 5383 	clr	c
   1674 E4                 5384 	clr	a
   1675 9E                 5385 	subb	a,r6
   1676 E4                 5386 	clr	a
   1677 64 80              5387 	xrl	a,#0x80
   1679 8F F0              5388 	mov	b,r7
   167B 63 F0 80           5389 	xrl	b,#0x80
   167E 95 F0              5390 	subb	a,b
   1680 50 5F              5391 	jnc	00105$
                           5392 ;	../../../contiki-sensinode//core/net/uip6.c:2297: uip_slen = copylen;
   1682 90s01r63           5393 	mov	dptr,#_uip_slen
   1685 EE                 5394 	mov	a,r6
   1686 F0                 5395 	movx	@dptr,a
   1687 A3                 5396 	inc	dptr
   1688 EF                 5397 	mov	a,r7
   1689 F0                 5398 	movx	@dptr,a
                           5399 ;	../../../contiki-sensinode//core/net/uip6.c:2298: if(data != uip_sappdata) {
   168A E5 81              5400 	mov	a,sp
   168C 24 FB              5401 	add	a,#0xfb
   168E F8                 5402 	mov	r0,a
   168F A9 81              5403 	mov	r1,sp
   1691 19                 5404 	dec	r1
   1692 19                 5405 	dec	r1
   1693 E7                 5406 	mov	a,@r1
   1694 C0 E0              5407 	push	acc
   1696 09                 5408 	inc	r1
   1697 E7                 5409 	mov	a,@r1
   1698 C0 E0              5410 	push	acc
   169A 09                 5411 	inc	r1
   169B E7                 5412 	mov	a,@r1
   169C C0 E0              5413 	push	acc
   169E 86 82              5414 	mov	dpl,@r0
   16A0 08                 5415 	inc	r0
   16A1 86 83              5416 	mov	dph,@r0
   16A3 08                 5417 	inc	r0
   16A4 86 F0              5418 	mov	b,@r0
   16A6 12s00r00           5419 	lcall	___gptr_cmp
   16A9 15 81              5420 	dec	sp
   16AB 15 81              5421 	dec	sp
   16AD 15 81              5422 	dec	sp
   16AF 60 30              5423 	jz	00105$
                           5424 ;	../../../contiki-sensinode//core/net/uip6.c:2299: memcpy(uip_sappdata, (data), uip_slen);
   16B1 C0 06              5425 	push	ar6
   16B3 C0 07              5426 	push	ar7
   16B5 E5 81              5427 	mov	a,sp
   16B7 24 F9              5428 	add	a,#0xf9
   16B9 F8                 5429 	mov	r0,a
   16BA E6                 5430 	mov	a,@r0
   16BB C0 E0              5431 	push	acc
   16BD 08                 5432 	inc	r0
   16BE E6                 5433 	mov	a,@r0
   16BF C0 E0              5434 	push	acc
   16C1 08                 5435 	inc	r0
   16C2 E6                 5436 	mov	a,@r0
   16C3 C0 E0              5437 	push	acc
   16C5 E5 81              5438 	mov	a,sp
   16C7 24 F9              5439 	add	a,#0xf9
   16C9 F8                 5440 	mov	r0,a
   16CA 86 82              5441 	mov	dpl,@r0
   16CC 08                 5442 	inc	r0
   16CD 86 83              5443 	mov	dph,@r0
   16CF 08                 5444 	inc	r0
   16D0 86 F0              5445 	mov	b,@r0
   16D2 78r00              5446 	mov	r0,#_memcpy
   16D4 79s00              5447 	mov	r1,#(_memcpy >> 8)
   16D6 7As00              5448 	mov	r2,#(_memcpy >> 16)
   16D8 12s00r00           5449 	lcall	__sdcc_banked_call
   16DB E5 81              5450 	mov	a,sp
   16DD 24 FB              5451 	add	a,#0xfb
   16DF F5 81              5452 	mov	sp,a
   16E1                    5453 00105$:
   16E1 E5 81              5454 	mov	a,sp
   16E3 24 FA              5455 	add	a,#0xFA
   16E5 F5 81              5456 	mov	sp,a
   16E7 02s00r00           5457 	ljmp	__sdcc_banked_ret
                           5458 	.area CSEG    (CODE)
                           5459 	.area CONST   (CODE)
                           5460 	.area XINIT   (CODE)
   0000                    5461 __xinit__uip_ext_bitmap:
   0000 00                 5462 	.db #0x00	; 0
   0001                    5463 __xinit__uip_ext_len:
   0001 00                 5464 	.db #0x00	; 0
   0002                    5465 __xinit__uip_ext_opt_offset:
   0002 00                 5466 	.db #0x00	; 0
                           5467 	.area CABS    (ABS,CODE)
