                              1 ;--------------------------------------------------------
                              2 ; File Created by SDCC : free open source ANSI-C Compiler
                              3 ; Version 3.1.1 #7100 (Oct 29 2014) (Linux)
                              4 ; This file was generated Wed Dec  2 18:11:05 2015
                              5 ;--------------------------------------------------------
                              6 	.module usb_arch
                              7 	.optsdcc -mmcs51 --model-huge
                              8 	
                              9 ;--------------------------------------------------------
                             10 ; Public variables in this module
                             11 ;--------------------------------------------------------
                             12 	.globl _usb_arch_setup_iso_endpoint
                             13 	.globl _cc253x_p2_register_handler
                             14 	.globl _usb_disable_endpoint
                             15 	.globl _process_poll
                             16 	.globl _ACTIVE
                             17 	.globl _TX_BYTE
                             18 	.globl _RX_BYTE
                             19 	.globl _ERR
                             20 	.globl _FE
                             21 	.globl _SLAVE
                             22 	.globl _RE
                             23 	.globl _MODE
                             24 	.globl _T3OVFIF
                             25 	.globl _T3CH0IF
                             26 	.globl _T3CH1IF
                             27 	.globl _T4OVFIF
                             28 	.globl _T4CH0IF
                             29 	.globl _T4CH1IF
                             30 	.globl _OVFIM
                             31 	.globl _B_0
                             32 	.globl _B_1
                             33 	.globl _B_2
                             34 	.globl _B_3
                             35 	.globl _B_4
                             36 	.globl _B_5
                             37 	.globl _B_6
                             38 	.globl _B_7
                             39 	.globl _P2IF
                             40 	.globl _UTX0IF
                             41 	.globl _UTX1IF
                             42 	.globl _P1IF
                             43 	.globl _WDTIF
                             44 	.globl _ACC_0
                             45 	.globl _ACC_1
                             46 	.globl _ACC_2
                             47 	.globl _ACC_3
                             48 	.globl _ACC_4
                             49 	.globl _ACC_5
                             50 	.globl _ACC_6
                             51 	.globl _ACC_7
                             52 	.globl _P
                             53 	.globl _F1
                             54 	.globl _OV
                             55 	.globl _RS0
                             56 	.globl _RS1
                             57 	.globl _F0
                             58 	.globl _AC
                             59 	.globl _CY
                             60 	.globl _DMAIF
                             61 	.globl _T1IF
                             62 	.globl _T2IF
                             63 	.globl _T3IF
                             64 	.globl _T4IF
                             65 	.globl _P0IF
                             66 	.globl _STIF
                             67 	.globl _DMAIE
                             68 	.globl _T1IE
                             69 	.globl _T2IE
                             70 	.globl _T3IE
                             71 	.globl _T4IE
                             72 	.globl _P0IE
                             73 	.globl _RFERRIE
                             74 	.globl _ADCIE
                             75 	.globl _URX0IE
                             76 	.globl _URX1IE
                             77 	.globl _ENCIE
                             78 	.globl _STIE
                             79 	.globl _EA
                             80 	.globl _P2_0
                             81 	.globl _P2_1
                             82 	.globl _P2_2
                             83 	.globl _P2_3
                             84 	.globl _P2_4
                             85 	.globl _P2_5
                             86 	.globl _P2_6
                             87 	.globl _P2_7
                             88 	.globl _ENCIF_0
                             89 	.globl _ENCIF_1
                             90 	.globl _P1_0
                             91 	.globl _P1_1
                             92 	.globl _P1_2
                             93 	.globl _P1_3
                             94 	.globl _P1_4
                             95 	.globl _P1_5
                             96 	.globl _P1_6
                             97 	.globl _P1_7
                             98 	.globl _IT0
                             99 	.globl _RFERRIF
                            100 	.globl _IT1
                            101 	.globl _URX0IF
                            102 	.globl _ADCIF
                            103 	.globl _URX1IF
                            104 	.globl _P0_0
                            105 	.globl _P0_1
                            106 	.globl _P0_2
                            107 	.globl _P0_3
                            108 	.globl _P0_4
                            109 	.globl _P0_5
                            110 	.globl _P0_6
                            111 	.globl _P0_7
                            112 	.globl _WDCTL
                            113 	.globl _U1GCR
                            114 	.globl _U1UCR
                            115 	.globl _U1BAUD
                            116 	.globl _U1DBUF
                            117 	.globl _U1CSR
                            118 	.globl _U0GCR
                            119 	.globl _U0UCR
                            120 	.globl _U0BAUD
                            121 	.globl _U0DBUF
                            122 	.globl _U0CSR
                            123 	.globl _TIMIF
                            124 	.globl _T4CC1
                            125 	.globl _T4CCTL1
                            126 	.globl _T4CC0
                            127 	.globl _T4CCTL0
                            128 	.globl _T4CTL
                            129 	.globl _T4CNT
                            130 	.globl _T3CC1
                            131 	.globl _T3CCTL1
                            132 	.globl _T3CC0
                            133 	.globl _T3CCTL0
                            134 	.globl _T3CTL
                            135 	.globl _T3CNT
                            136 	.globl _T2MSEL
                            137 	.globl _T2IRQM
                            138 	.globl _T2MOVF2
                            139 	.globl _T2MOVF1
                            140 	.globl _T2MOVF0
                            141 	.globl _T2M1
                            142 	.globl _T2M0
                            143 	.globl _T2IRQF
                            144 	.globl _T2EVTCFG
                            145 	.globl _T2CTRL
                            146 	.globl _T1STAT
                            147 	.globl _T1CCTL2
                            148 	.globl _T1CCTL1
                            149 	.globl _T1CCTL0
                            150 	.globl _T1CTL
                            151 	.globl _T1CNTH
                            152 	.globl _T1CNTL
                            153 	.globl _T1CC2H
                            154 	.globl _T1CC2L
                            155 	.globl _T1CC1H
                            156 	.globl _T1CC1L
                            157 	.globl _T1CC0H
                            158 	.globl _T1CC0L
                            159 	.globl _CLKCONSTA
                            160 	.globl _CLKCONCMD
                            161 	.globl _SLEEPSTA
                            162 	.globl _SLEEPCMD
                            163 	.globl _STLOAD
                            164 	.globl _ST2
                            165 	.globl _ST1
                            166 	.globl _ST0
                            167 	.globl _RFERRF
                            168 	.globl _RFIRQF0
                            169 	.globl _RFST
                            170 	.globl _RFD
                            171 	.globl _RFIRQF1
                            172 	.globl _PSBANK
                            173 	.globl _FMAP
                            174 	.globl _MEMCTR
                            175 	.globl __XPAGE
                            176 	.globl _MPAGE
                            177 	.globl _PMUX
                            178 	.globl _P2DIR
                            179 	.globl _P1DIR
                            180 	.globl _P0DIR
                            181 	.globl _P2INP
                            182 	.globl _P1INP
                            183 	.globl _P2SEL
                            184 	.globl _P1SEL
                            185 	.globl _P0SEL
                            186 	.globl _APCFG
                            187 	.globl _PERCFG
                            188 	.globl _P0INP
                            189 	.globl _P2IEN
                            190 	.globl _P1IEN
                            191 	.globl _P0IEN
                            192 	.globl _PICTL
                            193 	.globl _P2IFG
                            194 	.globl _P1IFG
                            195 	.globl _P0IFG
                            196 	.globl _DMAREQ
                            197 	.globl _DMAARM
                            198 	.globl _DMA0CFGH
                            199 	.globl _DMA0CFGL
                            200 	.globl _DMA1CFGH
                            201 	.globl _DMA1CFGL
                            202 	.globl _DMAIRQ
                            203 	.globl _ENCCS
                            204 	.globl _ENCDO
                            205 	.globl _ENCDI
                            206 	.globl _RNDH
                            207 	.globl _RNDL
                            208 	.globl _ADCH
                            209 	.globl _ADCL
                            210 	.globl _ADCCON3
                            211 	.globl _ADCCON2
                            212 	.globl _ADCCON1
                            213 	.globl _B
                            214 	.globl _IRCON2
                            215 	.globl _ACC
                            216 	.globl _PSW
                            217 	.globl _IRCON
                            218 	.globl _IP1
                            219 	.globl _IEN1
                            220 	.globl _IP0
                            221 	.globl _IEN0
                            222 	.globl _P2
                            223 	.globl _S1CON
                            224 	.globl _IEN2
                            225 	.globl _S0CON
                            226 	.globl _DPS
                            227 	.globl _P1
                            228 	.globl _TCON
                            229 	.globl _PCON
                            230 	.globl _DPH1
                            231 	.globl _DPL1
                            232 	.globl _DPH0
                            233 	.globl _DPL0
                            234 	.globl _SP
                            235 	.globl _P0
                            236 	.globl _event_process
                            237 	.globl _X_IEEE_ADDR
                            238 	.globl _X_INFOPAGE
                            239 	.globl _X_P2DIR
                            240 	.globl _X_P1DIR
                            241 	.globl _X_P0DIR
                            242 	.globl _X_U1GCR
                            243 	.globl _X_U1UCR
                            244 	.globl _X_U1BAUD
                            245 	.globl _X_U1DBUF
                            246 	.globl _X_U1CSR
                            247 	.globl _X_P2INP
                            248 	.globl _X_P1INP
                            249 	.globl _X_P2SEL
                            250 	.globl _X_P1SEL
                            251 	.globl _X_P0SEL
                            252 	.globl _X_APCFG
                            253 	.globl _X_PERCFG
                            254 	.globl _X_T4CC1
                            255 	.globl _X_T4CCTL1
                            256 	.globl _X_T4CC0
                            257 	.globl _X_T4CCTL0
                            258 	.globl _X_T4CTL
                            259 	.globl _X_T4CNT
                            260 	.globl _X_RFIRQF0
                            261 	.globl _X_T1CCTL2
                            262 	.globl _X_T1CCTL1
                            263 	.globl _X_T1CCTL0
                            264 	.globl _X_T1CTL
                            265 	.globl _X_T1CNTH
                            266 	.globl _X_T1CNTL
                            267 	.globl _X_RFST
                            268 	.globl _X_T1CC2H
                            269 	.globl _X_T1CC2L
                            270 	.globl _X_T1CC1H
                            271 	.globl _X_T1CC1L
                            272 	.globl _X_T1CC0H
                            273 	.globl _X_T1CC0L
                            274 	.globl _X_RFD
                            275 	.globl _X_TIMIF
                            276 	.globl _X_DMAREQ
                            277 	.globl _X_DMAARM
                            278 	.globl _X_DMA0CFGH
                            279 	.globl _X_DMA0CFGL
                            280 	.globl _X_DMA1CFGH
                            281 	.globl _X_DMA1CFGL
                            282 	.globl _X_DMAIRQ
                            283 	.globl _X_T3CC1
                            284 	.globl _X_T3CCTL1
                            285 	.globl _X_T3CC0
                            286 	.globl _X_T3CCTL0
                            287 	.globl _X_T3CTL
                            288 	.globl _X_T3CNT
                            289 	.globl _X_WDCTL
                            290 	.globl _X_MEMCTR
                            291 	.globl _X_CLKCONCMD
                            292 	.globl _X_U0GCR
                            293 	.globl _X_U0UCR
                            294 	.globl _X_T2MSEL
                            295 	.globl _X_U0BAUD
                            296 	.globl _X_U0DBUF
                            297 	.globl _X_RFERRF
                            298 	.globl _X_SLEEPCMD
                            299 	.globl _X_RNDH
                            300 	.globl _X_RNDL
                            301 	.globl _X_ADCH
                            302 	.globl _X_ADCL
                            303 	.globl _X_ADCCON3
                            304 	.globl _X_ADCCON2
                            305 	.globl _X_ADCCON1
                            306 	.globl _X_ENCCS
                            307 	.globl _X_ENCDO
                            308 	.globl _X_ENCDI
                            309 	.globl _X_T1STAT
                            310 	.globl _X_PMUX
                            311 	.globl _X_STLOAD
                            312 	.globl _X_P2IEN
                            313 	.globl _X_P0IEN
                            314 	.globl _X_T2IRQM
                            315 	.globl _X_T2MOVF2
                            316 	.globl _X_T2MOVF1
                            317 	.globl _X_T2MOVF0
                            318 	.globl _X_T2M1
                            319 	.globl _X_T2M0
                            320 	.globl _X_T2IRQF
                            321 	.globl _X_P2
                            322 	.globl _X_PSBANK
                            323 	.globl _X_FMAP
                            324 	.globl _X_CLKCONSTA
                            325 	.globl _X_SLEEPSTA
                            326 	.globl _X_T2EVTCFG
                            327 	.globl _X_ST2
                            328 	.globl _X_ST1
                            329 	.globl _X_ST0
                            330 	.globl _X_T2CTRL
                            331 	.globl _X__XPAGE
                            332 	.globl _X_MPAGE
                            333 	.globl _X_RFIRQF1
                            334 	.globl _X_P1
                            335 	.globl _X_P0INP
                            336 	.globl _X_P1IEN
                            337 	.globl _X_PICTL
                            338 	.globl _X_P2IFG
                            339 	.globl _X_P1IFG
                            340 	.globl _X_P0IFG
                            341 	.globl _X_U0CSR
                            342 	.globl _X_P0
                            343 	.globl _USBF5
                            344 	.globl _USBF4
                            345 	.globl _USBF3
                            346 	.globl _USBF2
                            347 	.globl _USBF1
                            348 	.globl _USBF0
                            349 	.globl _USBCNTH
                            350 	.globl _USBCNTL
                            351 	.globl _USBCNT0
                            352 	.globl _USBCSOH
                            353 	.globl _USBCSOL
                            354 	.globl _USBMAXO
                            355 	.globl _USBCSIH
                            356 	.globl _USBCSIL
                            357 	.globl _USBCS0
                            358 	.globl _USBMAXI
                            359 	.globl _USBCTRL
                            360 	.globl _USBINDEX
                            361 	.globl _USBFRMH
                            362 	.globl _USBFRML
                            363 	.globl _USBCIE
                            364 	.globl _USBOIE
                            365 	.globl _USBIIE
                            366 	.globl _USBCIF
                            367 	.globl _USBOIF
                            368 	.globl _USBIIF
                            369 	.globl _USBPOW
                            370 	.globl _USBADDR
                            371 	.globl _CSPT
                            372 	.globl _CSPZ
                            373 	.globl _CSPY
                            374 	.globl _CSPX
                            375 	.globl _CSPSTAT
                            376 	.globl _CSPCTRL
                            377 	.globl _CSPPROG23
                            378 	.globl _CSPPROG22
                            379 	.globl _CSPPROG21
                            380 	.globl _CSPPROG20
                            381 	.globl _CSPPROG19
                            382 	.globl _CSPPROG18
                            383 	.globl _CSPPROG17
                            384 	.globl _CSPPROG16
                            385 	.globl _CSPPROG15
                            386 	.globl _CSPPROG14
                            387 	.globl _CSPPROG13
                            388 	.globl _CSPPROG12
                            389 	.globl _CSPPROG11
                            390 	.globl _CSPPROG10
                            391 	.globl _CSPPROG9
                            392 	.globl _CSPPROG8
                            393 	.globl _CSPPROG7
                            394 	.globl _CSPPROG6
                            395 	.globl _CSPPROG5
                            396 	.globl _CSPPROG4
                            397 	.globl _CSPPROG3
                            398 	.globl _CSPPROG2
                            399 	.globl _CSPPROG1
                            400 	.globl _CSPPROG0
                            401 	.globl _RFC_OBS_CTRL2
                            402 	.globl _RFC_OBS_CTRL1
                            403 	.globl _RFC_OBS_CTRL0
                            404 	.globl _TXFILTCFG
                            405 	.globl _PTEST1
                            406 	.globl _PTEST0
                            407 	.globl _ATEST
                            408 	.globl _DACTEST2
                            409 	.globl _DACTEST1
                            410 	.globl _DACTEST0
                            411 	.globl _MDMTEST1
                            412 	.globl _MDMTEST0
                            413 	.globl _ADCTEST2
                            414 	.globl _ADCTEST1
                            415 	.globl _ADCTEST0
                            416 	.globl _AGCCTRL3
                            417 	.globl _AGCCTRL2
                            418 	.globl _AGCCTRL1
                            419 	.globl _AGCCTRL0
                            420 	.globl _FSCAL3
                            421 	.globl _FSCAL2
                            422 	.globl _FSCAL1
                            423 	.globl _FSCAL0
                            424 	.globl _FSCTRL
                            425 	.globl _RXCTRL
                            426 	.globl _FREQEST
                            427 	.globl _MDMCTRL1
                            428 	.globl _MDMCTRL0
                            429 	.globl _RFRND
                            430 	.globl _RFERRM
                            431 	.globl _RFIRQM1
                            432 	.globl _RFIRQM0
                            433 	.globl _TXLAST_PTR
                            434 	.globl _TXFIRST_PTR
                            435 	.globl _RXP1_PTR
                            436 	.globl _RXLAST_PTR
                            437 	.globl _RXFIRST_PTR
                            438 	.globl _TXFIFOCNT
                            439 	.globl _RXFIFOCNT
                            440 	.globl _RXFIRST
                            441 	.globl _RSSISTAT
                            442 	.globl _RSSI
                            443 	.globl _CCACTRL1
                            444 	.globl _CCACTRL0
                            445 	.globl _FSMCTRL
                            446 	.globl _FIFOPCTRL
                            447 	.globl _FSMSTAT1
                            448 	.globl _FSMSTAT0
                            449 	.globl _TXCTRL
                            450 	.globl _TXPOWER
                            451 	.globl _FREQCTRL
                            452 	.globl _FREQTUNE
                            453 	.globl _RXMASKCLR
                            454 	.globl _RXMASKSET
                            455 	.globl _RXENABLE
                            456 	.globl _FRMCTRL1
                            457 	.globl _FRMCTRL0
                            458 	.globl _SRCEXTEN2
                            459 	.globl _SRCEXTEN1
                            460 	.globl _SRCEXTEN0
                            461 	.globl _SRCSHORTEN2
                            462 	.globl _SRCSHORTEN1
                            463 	.globl _SRCSHORTEN0
                            464 	.globl _SRCMATCH
                            465 	.globl _FRMFILT1
                            466 	.globl _FRMFILT0
                            467 	.globl _SHORT_ADDR1
                            468 	.globl _SHORT_ADDR0
                            469 	.globl _PAN_ID1
                            470 	.globl _PAN_ID0
                            471 	.globl _EXT_ADDR7
                            472 	.globl _EXT_ADDR6
                            473 	.globl _EXT_ADDR5
                            474 	.globl _EXT_ADDR4
                            475 	.globl _EXT_ADDR3
                            476 	.globl _EXT_ADDR2
                            477 	.globl _EXT_ADDR1
                            478 	.globl _EXT_ADDR0
                            479 	.globl _SRCSHORTPENDEN2
                            480 	.globl _SRCSHORTPENDEN1
                            481 	.globl _SRCSHORTPENDEN0
                            482 	.globl _SRCEXTPENDEN2
                            483 	.globl _SRCEXTPENDEN1
                            484 	.globl _SRCEXTPENDEN0
                            485 	.globl _SRCRESINDEX
                            486 	.globl _SRCRESMASK2
                            487 	.globl _SRCRESMASK1
                            488 	.globl _SRCRESMASK0
                            489 	.globl _SRC_ADDR_TABLE
                            490 	.globl _TXFIFO
                            491 	.globl _RXFIFO
                            492 	.globl _RFCORE_RAM
                            493 	.globl _CMPCTL
                            494 	.globl _OPAMPS
                            495 	.globl _OPAMPC
                            496 	.globl _STCV2
                            497 	.globl _STCV1
                            498 	.globl _STCV0
                            499 	.globl _STCS
                            500 	.globl _STCC
                            501 	.globl _T1CC4H
                            502 	.globl _T1CC4L
                            503 	.globl _T1CC3H
                            504 	.globl _T1CC3L
                            505 	.globl _XX_T1CC2H
                            506 	.globl _XX_T1CC2L
                            507 	.globl _XX_T1CC1H
                            508 	.globl _XX_T1CC1L
                            509 	.globl _XX_T1CC0H
                            510 	.globl _XX_T1CC0L
                            511 	.globl _T1CCTL4
                            512 	.globl _T1CCTL3
                            513 	.globl _XX_T1CCTL2
                            514 	.globl _XX_T1CCTL1
                            515 	.globl _XX_T1CCTL0
                            516 	.globl _CLD
                            517 	.globl _IRCTL
                            518 	.globl _CHIPINFO1
                            519 	.globl _CHIPINFO0
                            520 	.globl _FWDATA
                            521 	.globl _FADDRH
                            522 	.globl _FADDRL
                            523 	.globl _FCTL
                            524 	.globl _IVCTRL
                            525 	.globl _BATTMON
                            526 	.globl _SRCRC
                            527 	.globl _DBGDATA
                            528 	.globl _TESTREG0
                            529 	.globl _CHIPID
                            530 	.globl _CHVER
                            531 	.globl _OBSSEL5
                            532 	.globl _OBSSEL4
                            533 	.globl _OBSSEL3
                            534 	.globl _OBSSEL2
                            535 	.globl _OBSSEL1
                            536 	.globl _OBSSEL0
                            537 	.globl _I2CIO
                            538 	.globl _I2CWC
                            539 	.globl _I2CADDR
                            540 	.globl _I2CDATA
                            541 	.globl _I2CSTAT
                            542 	.globl _I2CCFG
                            543 	.globl _OPAMPMC
                            544 	.globl _MONMUX
                            545 	.globl _usb_set_ep_event_process
                            546 	.globl _usb_arch_set_global_event_process
                            547 	.globl _usb_arch_get_global_events
                            548 	.globl _usb_get_ep_events
                            549 	.globl _usb_arch_setup
                            550 	.globl _usb_submit_recv_buffer
                            551 	.globl _usb_submit_xmit_buffer
                            552 	.globl _usb_arch_setup_control_endpoint
                            553 	.globl _usb_arch_setup_bulk_endpoint
                            554 	.globl _usb_arch_setup_interrupt_endpoint
                            555 	.globl _usb_arch_disable_endpoint
                            556 	.globl _usb_arch_discard_all_buffers
                            557 	.globl _usb_arch_control_stall
                            558 	.globl _usb_arch_halt_endpoint
                            559 	.globl _usb_arch_set_configuration
                            560 	.globl _usb_arch_get_ep_status
                            561 	.globl _usb_arch_set_address
                            562 	.globl _usb_arch_send_pending
                            563 ;--------------------------------------------------------
                            564 ; special function registers
                            565 ;--------------------------------------------------------
                            566 	.area RSEG    (ABS,DATA)
   0000                     567 	.org 0x0000
                    0080    568 _P0	=	0x0080
                    0081    569 _SP	=	0x0081
                    0082    570 _DPL0	=	0x0082
                    0083    571 _DPH0	=	0x0083
                    0084    572 _DPL1	=	0x0084
                    0085    573 _DPH1	=	0x0085
                    0087    574 _PCON	=	0x0087
                    0088    575 _TCON	=	0x0088
                    0090    576 _P1	=	0x0090
                    0092    577 _DPS	=	0x0092
                    0098    578 _S0CON	=	0x0098
                    009A    579 _IEN2	=	0x009a
                    009B    580 _S1CON	=	0x009b
                    00A0    581 _P2	=	0x00a0
                    00A8    582 _IEN0	=	0x00a8
                    00A9    583 _IP0	=	0x00a9
                    00B8    584 _IEN1	=	0x00b8
                    00B9    585 _IP1	=	0x00b9
                    00C0    586 _IRCON	=	0x00c0
                    00D0    587 _PSW	=	0x00d0
                    00E0    588 _ACC	=	0x00e0
                    00E8    589 _IRCON2	=	0x00e8
                    00F0    590 _B	=	0x00f0
                    00B4    591 _ADCCON1	=	0x00b4
                    00B5    592 _ADCCON2	=	0x00b5
                    00B6    593 _ADCCON3	=	0x00b6
                    00BA    594 _ADCL	=	0x00ba
                    00BB    595 _ADCH	=	0x00bb
                    00BC    596 _RNDL	=	0x00bc
                    00BD    597 _RNDH	=	0x00bd
                    00B1    598 _ENCDI	=	0x00b1
                    00B2    599 _ENCDO	=	0x00b2
                    00B3    600 _ENCCS	=	0x00b3
                    00D1    601 _DMAIRQ	=	0x00d1
                    00D2    602 _DMA1CFGL	=	0x00d2
                    00D3    603 _DMA1CFGH	=	0x00d3
                    00D4    604 _DMA0CFGL	=	0x00d4
                    00D5    605 _DMA0CFGH	=	0x00d5
                    00D6    606 _DMAARM	=	0x00d6
                    00D7    607 _DMAREQ	=	0x00d7
                    0089    608 _P0IFG	=	0x0089
                    008A    609 _P1IFG	=	0x008a
                    008B    610 _P2IFG	=	0x008b
                    008C    611 _PICTL	=	0x008c
                    00AB    612 _P0IEN	=	0x00ab
                    008D    613 _P1IEN	=	0x008d
                    00AC    614 _P2IEN	=	0x00ac
                    008F    615 _P0INP	=	0x008f
                    00F1    616 _PERCFG	=	0x00f1
                    00F2    617 _APCFG	=	0x00f2
                    00F3    618 _P0SEL	=	0x00f3
                    00F4    619 _P1SEL	=	0x00f4
                    00F5    620 _P2SEL	=	0x00f5
                    00F6    621 _P1INP	=	0x00f6
                    00F7    622 _P2INP	=	0x00f7
                    00FD    623 _P0DIR	=	0x00fd
                    00FE    624 _P1DIR	=	0x00fe
                    00FF    625 _P2DIR	=	0x00ff
                    00AE    626 _PMUX	=	0x00ae
                    0093    627 _MPAGE	=	0x0093
                    0093    628 __XPAGE	=	0x0093
                    00C7    629 _MEMCTR	=	0x00c7
                    009F    630 _FMAP	=	0x009f
                    009F    631 _PSBANK	=	0x009f
                    0091    632 _RFIRQF1	=	0x0091
                    00D9    633 _RFD	=	0x00d9
                    00E1    634 _RFST	=	0x00e1
                    00E9    635 _RFIRQF0	=	0x00e9
                    00BF    636 _RFERRF	=	0x00bf
                    0095    637 _ST0	=	0x0095
                    0096    638 _ST1	=	0x0096
                    0097    639 _ST2	=	0x0097
                    00AD    640 _STLOAD	=	0x00ad
                    00BE    641 _SLEEPCMD	=	0x00be
                    009D    642 _SLEEPSTA	=	0x009d
                    00C6    643 _CLKCONCMD	=	0x00c6
                    009E    644 _CLKCONSTA	=	0x009e
                    00DA    645 _T1CC0L	=	0x00da
                    00DB    646 _T1CC0H	=	0x00db
                    00DC    647 _T1CC1L	=	0x00dc
                    00DD    648 _T1CC1H	=	0x00dd
                    00DE    649 _T1CC2L	=	0x00de
                    00DF    650 _T1CC2H	=	0x00df
                    00E2    651 _T1CNTL	=	0x00e2
                    00E3    652 _T1CNTH	=	0x00e3
                    00E4    653 _T1CTL	=	0x00e4
                    00E5    654 _T1CCTL0	=	0x00e5
                    00E6    655 _T1CCTL1	=	0x00e6
                    00E7    656 _T1CCTL2	=	0x00e7
                    00AF    657 _T1STAT	=	0x00af
                    0094    658 _T2CTRL	=	0x0094
                    009C    659 _T2EVTCFG	=	0x009c
                    00A1    660 _T2IRQF	=	0x00a1
                    00A2    661 _T2M0	=	0x00a2
                    00A3    662 _T2M1	=	0x00a3
                    00A4    663 _T2MOVF0	=	0x00a4
                    00A5    664 _T2MOVF1	=	0x00a5
                    00A6    665 _T2MOVF2	=	0x00a6
                    00A7    666 _T2IRQM	=	0x00a7
                    00C3    667 _T2MSEL	=	0x00c3
                    00CA    668 _T3CNT	=	0x00ca
                    00CB    669 _T3CTL	=	0x00cb
                    00CC    670 _T3CCTL0	=	0x00cc
                    00CD    671 _T3CC0	=	0x00cd
                    00CE    672 _T3CCTL1	=	0x00ce
                    00CF    673 _T3CC1	=	0x00cf
                    00EA    674 _T4CNT	=	0x00ea
                    00EB    675 _T4CTL	=	0x00eb
                    00EC    676 _T4CCTL0	=	0x00ec
                    00ED    677 _T4CC0	=	0x00ed
                    00EE    678 _T4CCTL1	=	0x00ee
                    00EF    679 _T4CC1	=	0x00ef
                    00D8    680 _TIMIF	=	0x00d8
                    0086    681 _U0CSR	=	0x0086
                    00C1    682 _U0DBUF	=	0x00c1
                    00C2    683 _U0BAUD	=	0x00c2
                    00C4    684 _U0UCR	=	0x00c4
                    00C5    685 _U0GCR	=	0x00c5
                    00F8    686 _U1CSR	=	0x00f8
                    00F9    687 _U1DBUF	=	0x00f9
                    00FA    688 _U1BAUD	=	0x00fa
                    00FB    689 _U1UCR	=	0x00fb
                    00FC    690 _U1GCR	=	0x00fc
                    00C9    691 _WDCTL	=	0x00c9
                            692 ;--------------------------------------------------------
                            693 ; special function bits
                            694 ;--------------------------------------------------------
                            695 	.area RSEG    (ABS,DATA)
   0000                     696 	.org 0x0000
                    0087    697 _P0_7	=	0x0087
                    0086    698 _P0_6	=	0x0086
                    0085    699 _P0_5	=	0x0085
                    0084    700 _P0_4	=	0x0084
                    0083    701 _P0_3	=	0x0083
                    0082    702 _P0_2	=	0x0082
                    0081    703 _P0_1	=	0x0081
                    0080    704 _P0_0	=	0x0080
                    008F    705 _URX1IF	=	0x008f
                    008D    706 _ADCIF	=	0x008d
                    008B    707 _URX0IF	=	0x008b
                    008A    708 _IT1	=	0x008a
                    0089    709 _RFERRIF	=	0x0089
                    0088    710 _IT0	=	0x0088
                    0097    711 _P1_7	=	0x0097
                    0096    712 _P1_6	=	0x0096
                    0095    713 _P1_5	=	0x0095
                    0094    714 _P1_4	=	0x0094
                    0093    715 _P1_3	=	0x0093
                    0092    716 _P1_2	=	0x0092
                    0091    717 _P1_1	=	0x0091
                    0090    718 _P1_0	=	0x0090
                    0099    719 _ENCIF_1	=	0x0099
                    0098    720 _ENCIF_0	=	0x0098
                    00A7    721 _P2_7	=	0x00a7
                    00A6    722 _P2_6	=	0x00a6
                    00A5    723 _P2_5	=	0x00a5
                    00A4    724 _P2_4	=	0x00a4
                    00A3    725 _P2_3	=	0x00a3
                    00A2    726 _P2_2	=	0x00a2
                    00A1    727 _P2_1	=	0x00a1
                    00A0    728 _P2_0	=	0x00a0
                    00AF    729 _EA	=	0x00af
                    00AD    730 _STIE	=	0x00ad
                    00AC    731 _ENCIE	=	0x00ac
                    00AB    732 _URX1IE	=	0x00ab
                    00AA    733 _URX0IE	=	0x00aa
                    00A9    734 _ADCIE	=	0x00a9
                    00A8    735 _RFERRIE	=	0x00a8
                    00BD    736 _P0IE	=	0x00bd
                    00BC    737 _T4IE	=	0x00bc
                    00BB    738 _T3IE	=	0x00bb
                    00BA    739 _T2IE	=	0x00ba
                    00B9    740 _T1IE	=	0x00b9
                    00B8    741 _DMAIE	=	0x00b8
                    00C7    742 _STIF	=	0x00c7
                    00C5    743 _P0IF	=	0x00c5
                    00C4    744 _T4IF	=	0x00c4
                    00C3    745 _T3IF	=	0x00c3
                    00C2    746 _T2IF	=	0x00c2
                    00C1    747 _T1IF	=	0x00c1
                    00C0    748 _DMAIF	=	0x00c0
                    00D7    749 _CY	=	0x00d7
                    00D6    750 _AC	=	0x00d6
                    00D5    751 _F0	=	0x00d5
                    00D4    752 _RS1	=	0x00d4
                    00D3    753 _RS0	=	0x00d3
                    00D2    754 _OV	=	0x00d2
                    00D1    755 _F1	=	0x00d1
                    00D0    756 _P	=	0x00d0
                    00E7    757 _ACC_7	=	0x00e7
                    00E6    758 _ACC_6	=	0x00e6
                    00E5    759 _ACC_5	=	0x00e5
                    00E4    760 _ACC_4	=	0x00e4
                    00E3    761 _ACC_3	=	0x00e3
                    00E2    762 _ACC_2	=	0x00e2
                    00E1    763 _ACC_1	=	0x00e1
                    00E0    764 _ACC_0	=	0x00e0
                    00EC    765 _WDTIF	=	0x00ec
                    00EB    766 _P1IF	=	0x00eb
                    00EA    767 _UTX1IF	=	0x00ea
                    00E9    768 _UTX0IF	=	0x00e9
                    00E8    769 _P2IF	=	0x00e8
                    00F7    770 _B_7	=	0x00f7
                    00F6    771 _B_6	=	0x00f6
                    00F5    772 _B_5	=	0x00f5
                    00F4    773 _B_4	=	0x00f4
                    00F3    774 _B_3	=	0x00f3
                    00F2    775 _B_2	=	0x00f2
                    00F1    776 _B_1	=	0x00f1
                    00F0    777 _B_0	=	0x00f0
                    00DE    778 _OVFIM	=	0x00de
                    00DD    779 _T4CH1IF	=	0x00dd
                    00DC    780 _T4CH0IF	=	0x00dc
                    00DB    781 _T4OVFIF	=	0x00db
                    00DA    782 _T3CH1IF	=	0x00da
                    00D9    783 _T3CH0IF	=	0x00d9
                    00D8    784 _T3OVFIF	=	0x00d8
                    00FF    785 _MODE	=	0x00ff
                    00FE    786 _RE	=	0x00fe
                    00FD    787 _SLAVE	=	0x00fd
                    00FC    788 _FE	=	0x00fc
                    00FB    789 _ERR	=	0x00fb
                    00FA    790 _RX_BYTE	=	0x00fa
                    00F9    791 _TX_BYTE	=	0x00f9
                    00F8    792 _ACTIVE	=	0x00f8
                            793 ;--------------------------------------------------------
                            794 ; overlayable register banks
                            795 ;--------------------------------------------------------
                            796 	.area REG_BANK_0	(REL,OVR,DATA)
   0000                     797 	.ds 8
                            798 ;--------------------------------------------------------
                            799 ; internal ram data
                            800 ;--------------------------------------------------------
                            801 	.area DSEG    (DATA)
                            802 ;--------------------------------------------------------
                            803 ; overlayable items in internal ram 
                            804 ;--------------------------------------------------------
                            805 	.area OSEG    (OVR,DATA)
                            806 ;--------------------------------------------------------
                            807 ; indirectly addressable internal ram data
                            808 ;--------------------------------------------------------
                            809 	.area ISEG    (DATA)
                            810 ;--------------------------------------------------------
                            811 ; absolute internal ram data
                            812 ;--------------------------------------------------------
                            813 	.area IABS    (ABS,DATA)
                            814 	.area IABS    (ABS,DATA)
                            815 ;--------------------------------------------------------
                            816 ; bit data
                            817 ;--------------------------------------------------------
                            818 	.area BSEG    (BIT)
                            819 ;--------------------------------------------------------
                            820 ; paged external ram data
                            821 ;--------------------------------------------------------
                            822 	.area PSEG    (PAG,XDATA)
                            823 ;--------------------------------------------------------
                            824 ; external ram data
                            825 ;--------------------------------------------------------
                            826 	.area XSEG    (XDATA)
                    61A6    827 _MONMUX	=	0x61a6
                    61A6    828 _OPAMPMC	=	0x61a6
                    6230    829 _I2CCFG	=	0x6230
                    6231    830 _I2CSTAT	=	0x6231
                    6232    831 _I2CDATA	=	0x6232
                    6233    832 _I2CADDR	=	0x6233
                    6234    833 _I2CWC	=	0x6234
                    6235    834 _I2CIO	=	0x6235
                    6243    835 _OBSSEL0	=	0x6243
                    6244    836 _OBSSEL1	=	0x6244
                    6245    837 _OBSSEL2	=	0x6245
                    6246    838 _OBSSEL3	=	0x6246
                    6247    839 _OBSSEL4	=	0x6247
                    6248    840 _OBSSEL5	=	0x6248
                    6249    841 _CHVER	=	0x6249
                    624A    842 _CHIPID	=	0x624a
                    624B    843 _TESTREG0	=	0x624b
                    6260    844 _DBGDATA	=	0x6260
                    6262    845 _SRCRC	=	0x6262
                    6264    846 _BATTMON	=	0x6264
                    6265    847 _IVCTRL	=	0x6265
                    6270    848 _FCTL	=	0x6270
                    6271    849 _FADDRL	=	0x6271
                    6272    850 _FADDRH	=	0x6272
                    6273    851 _FWDATA	=	0x6273
                    6276    852 _CHIPINFO0	=	0x6276
                    6277    853 _CHIPINFO1	=	0x6277
                    6281    854 _IRCTL	=	0x6281
                    6290    855 _CLD	=	0x6290
                    62A0    856 _XX_T1CCTL0	=	0x62a0
                    62A1    857 _XX_T1CCTL1	=	0x62a1
                    62A2    858 _XX_T1CCTL2	=	0x62a2
                    62A3    859 _T1CCTL3	=	0x62a3
                    62A4    860 _T1CCTL4	=	0x62a4
                    62A6    861 _XX_T1CC0L	=	0x62a6
                    62A7    862 _XX_T1CC0H	=	0x62a7
                    62A8    863 _XX_T1CC1L	=	0x62a8
                    62A9    864 _XX_T1CC1H	=	0x62a9
                    62AA    865 _XX_T1CC2L	=	0x62aa
                    62AB    866 _XX_T1CC2H	=	0x62ab
                    62AC    867 _T1CC3L	=	0x62ac
                    62AD    868 _T1CC3H	=	0x62ad
                    62AE    869 _T1CC4L	=	0x62ae
                    62AF    870 _T1CC4H	=	0x62af
                    62B0    871 _STCC	=	0x62b0
                    62B1    872 _STCS	=	0x62b1
                    62B2    873 _STCV0	=	0x62b2
                    62B3    874 _STCV1	=	0x62b3
                    62B4    875 _STCV2	=	0x62b4
                    62C0    876 _OPAMPC	=	0x62c0
                    62C1    877 _OPAMPS	=	0x62c1
                    62D0    878 _CMPCTL	=	0x62d0
                    6000    879 _RFCORE_RAM	=	0x6000
                    6000    880 _RXFIFO	=	0x6000
                    6080    881 _TXFIFO	=	0x6080
                    6100    882 _SRC_ADDR_TABLE	=	0x6100
                    6160    883 _SRCRESMASK0	=	0x6160
                    6161    884 _SRCRESMASK1	=	0x6161
                    6162    885 _SRCRESMASK2	=	0x6162
                    6163    886 _SRCRESINDEX	=	0x6163
                    6164    887 _SRCEXTPENDEN0	=	0x6164
                    6165    888 _SRCEXTPENDEN1	=	0x6165
                    6166    889 _SRCEXTPENDEN2	=	0x6166
                    6167    890 _SRCSHORTPENDEN0	=	0x6167
                    6168    891 _SRCSHORTPENDEN1	=	0x6168
                    6169    892 _SRCSHORTPENDEN2	=	0x6169
                    616A    893 _EXT_ADDR0	=	0x616a
                    616B    894 _EXT_ADDR1	=	0x616b
                    616C    895 _EXT_ADDR2	=	0x616c
                    616D    896 _EXT_ADDR3	=	0x616d
                    616E    897 _EXT_ADDR4	=	0x616e
                    616F    898 _EXT_ADDR5	=	0x616f
                    6170    899 _EXT_ADDR6	=	0x6170
                    6171    900 _EXT_ADDR7	=	0x6171
                    6172    901 _PAN_ID0	=	0x6172
                    6173    902 _PAN_ID1	=	0x6173
                    6174    903 _SHORT_ADDR0	=	0x6174
                    6175    904 _SHORT_ADDR1	=	0x6175
                    6180    905 _FRMFILT0	=	0x6180
                    6181    906 _FRMFILT1	=	0x6181
                    6182    907 _SRCMATCH	=	0x6182
                    6183    908 _SRCSHORTEN0	=	0x6183
                    6184    909 _SRCSHORTEN1	=	0x6184
                    6185    910 _SRCSHORTEN2	=	0x6185
                    6186    911 _SRCEXTEN0	=	0x6186
                    6187    912 _SRCEXTEN1	=	0x6187
                    6188    913 _SRCEXTEN2	=	0x6188
                    6189    914 _FRMCTRL0	=	0x6189
                    618A    915 _FRMCTRL1	=	0x618a
                    618B    916 _RXENABLE	=	0x618b
                    618C    917 _RXMASKSET	=	0x618c
                    618D    918 _RXMASKCLR	=	0x618d
                    618E    919 _FREQTUNE	=	0x618e
                    618F    920 _FREQCTRL	=	0x618f
                    6190    921 _TXPOWER	=	0x6190
                    6191    922 _TXCTRL	=	0x6191
                    6192    923 _FSMSTAT0	=	0x6192
                    6193    924 _FSMSTAT1	=	0x6193
                    6194    925 _FIFOPCTRL	=	0x6194
                    6195    926 _FSMCTRL	=	0x6195
                    6196    927 _CCACTRL0	=	0x6196
                    6197    928 _CCACTRL1	=	0x6197
                    6198    929 _RSSI	=	0x6198
                    6199    930 _RSSISTAT	=	0x6199
                    619A    931 _RXFIRST	=	0x619a
                    619B    932 _RXFIFOCNT	=	0x619b
                    619C    933 _TXFIFOCNT	=	0x619c
                    619D    934 _RXFIRST_PTR	=	0x619d
                    619E    935 _RXLAST_PTR	=	0x619e
                    619F    936 _RXP1_PTR	=	0x619f
                    61A1    937 _TXFIRST_PTR	=	0x61a1
                    61A2    938 _TXLAST_PTR	=	0x61a2
                    61A3    939 _RFIRQM0	=	0x61a3
                    61A4    940 _RFIRQM1	=	0x61a4
                    61A5    941 _RFERRM	=	0x61a5
                    61A7    942 _RFRND	=	0x61a7
                    61A8    943 _MDMCTRL0	=	0x61a8
                    61A9    944 _MDMCTRL1	=	0x61a9
                    61AA    945 _FREQEST	=	0x61aa
                    61AB    946 _RXCTRL	=	0x61ab
                    61AC    947 _FSCTRL	=	0x61ac
                    61AD    948 _FSCAL0	=	0x61ad
                    61AE    949 _FSCAL1	=	0x61ae
                    61AF    950 _FSCAL2	=	0x61af
                    61B0    951 _FSCAL3	=	0x61b0
                    61B1    952 _AGCCTRL0	=	0x61b1
                    61B2    953 _AGCCTRL1	=	0x61b2
                    61B3    954 _AGCCTRL2	=	0x61b3
                    61B4    955 _AGCCTRL3	=	0x61b4
                    61B5    956 _ADCTEST0	=	0x61b5
                    61B6    957 _ADCTEST1	=	0x61b6
                    61B7    958 _ADCTEST2	=	0x61b7
                    61B8    959 _MDMTEST0	=	0x61b8
                    61B9    960 _MDMTEST1	=	0x61b9
                    61BA    961 _DACTEST0	=	0x61ba
                    61BB    962 _DACTEST1	=	0x61bb
                    61BC    963 _DACTEST2	=	0x61bc
                    61BD    964 _ATEST	=	0x61bd
                    61BE    965 _PTEST0	=	0x61be
                    61BF    966 _PTEST1	=	0x61bf
                    61FA    967 _TXFILTCFG	=	0x61fa
                    61EB    968 _RFC_OBS_CTRL0	=	0x61eb
                    61EC    969 _RFC_OBS_CTRL1	=	0x61ec
                    61ED    970 _RFC_OBS_CTRL2	=	0x61ed
                    61C0    971 _CSPPROG0	=	0x61c0
                    61C1    972 _CSPPROG1	=	0x61c1
                    61C2    973 _CSPPROG2	=	0x61c2
                    61C3    974 _CSPPROG3	=	0x61c3
                    61C4    975 _CSPPROG4	=	0x61c4
                    61C5    976 _CSPPROG5	=	0x61c5
                    61C6    977 _CSPPROG6	=	0x61c6
                    61C7    978 _CSPPROG7	=	0x61c7
                    61C8    979 _CSPPROG8	=	0x61c8
                    61C9    980 _CSPPROG9	=	0x61c9
                    61CA    981 _CSPPROG10	=	0x61ca
                    61CB    982 _CSPPROG11	=	0x61cb
                    61CC    983 _CSPPROG12	=	0x61cc
                    61CD    984 _CSPPROG13	=	0x61cd
                    61CE    985 _CSPPROG14	=	0x61ce
                    61CF    986 _CSPPROG15	=	0x61cf
                    61D0    987 _CSPPROG16	=	0x61d0
                    61D1    988 _CSPPROG17	=	0x61d1
                    61D2    989 _CSPPROG18	=	0x61d2
                    61D3    990 _CSPPROG19	=	0x61d3
                    61D4    991 _CSPPROG20	=	0x61d4
                    61D5    992 _CSPPROG21	=	0x61d5
                    61D6    993 _CSPPROG22	=	0x61d6
                    61D7    994 _CSPPROG23	=	0x61d7
                    61E0    995 _CSPCTRL	=	0x61e0
                    61E1    996 _CSPSTAT	=	0x61e1
                    61E2    997 _CSPX	=	0x61e2
                    61E3    998 _CSPY	=	0x61e3
                    61E4    999 _CSPZ	=	0x61e4
                    61E5   1000 _CSPT	=	0x61e5
                    6200   1001 _USBADDR	=	0x6200
                    6201   1002 _USBPOW	=	0x6201
                    6202   1003 _USBIIF	=	0x6202
                    6204   1004 _USBOIF	=	0x6204
                    6206   1005 _USBCIF	=	0x6206
                    6207   1006 _USBIIE	=	0x6207
                    6209   1007 _USBOIE	=	0x6209
                    620B   1008 _USBCIE	=	0x620b
                    620C   1009 _USBFRML	=	0x620c
                    620D   1010 _USBFRMH	=	0x620d
                    620E   1011 _USBINDEX	=	0x620e
                    620F   1012 _USBCTRL	=	0x620f
                    6210   1013 _USBMAXI	=	0x6210
                    6211   1014 _USBCS0	=	0x6211
                    6211   1015 _USBCSIL	=	0x6211
                    6212   1016 _USBCSIH	=	0x6212
                    6213   1017 _USBMAXO	=	0x6213
                    6214   1018 _USBCSOL	=	0x6214
                    6215   1019 _USBCSOH	=	0x6215
                    6216   1020 _USBCNT0	=	0x6216
                    6216   1021 _USBCNTL	=	0x6216
                    6217   1022 _USBCNTH	=	0x6217
                    6220   1023 _USBF0	=	0x6220
                    6222   1024 _USBF1	=	0x6222
                    6224   1025 _USBF2	=	0x6224
                    6226   1026 _USBF3	=	0x6226
                    6228   1027 _USBF4	=	0x6228
                    622A   1028 _USBF5	=	0x622a
                    7080   1029 _X_P0	=	0x7080
                    7086   1030 _X_U0CSR	=	0x7086
                    7089   1031 _X_P0IFG	=	0x7089
                    708A   1032 _X_P1IFG	=	0x708a
                    708B   1033 _X_P2IFG	=	0x708b
                    708C   1034 _X_PICTL	=	0x708c
                    708D   1035 _X_P1IEN	=	0x708d
                    708F   1036 _X_P0INP	=	0x708f
                    7090   1037 _X_P1	=	0x7090
                    7091   1038 _X_RFIRQF1	=	0x7091
                    7093   1039 _X_MPAGE	=	0x7093
                    7093   1040 _X__XPAGE	=	0x7093
                    7094   1041 _X_T2CTRL	=	0x7094
                    7095   1042 _X_ST0	=	0x7095
                    7096   1043 _X_ST1	=	0x7096
                    7097   1044 _X_ST2	=	0x7097
                    709C   1045 _X_T2EVTCFG	=	0x709c
                    709D   1046 _X_SLEEPSTA	=	0x709d
                    709E   1047 _X_CLKCONSTA	=	0x709e
                    709F   1048 _X_FMAP	=	0x709f
                    709F   1049 _X_PSBANK	=	0x709f
                    70A0   1050 _X_P2	=	0x70a0
                    70A1   1051 _X_T2IRQF	=	0x70a1
                    70A2   1052 _X_T2M0	=	0x70a2
                    70A3   1053 _X_T2M1	=	0x70a3
                    70A4   1054 _X_T2MOVF0	=	0x70a4
                    70A5   1055 _X_T2MOVF1	=	0x70a5
                    70A6   1056 _X_T2MOVF2	=	0x70a6
                    70A7   1057 _X_T2IRQM	=	0x70a7
                    70AB   1058 _X_P0IEN	=	0x70ab
                    70AC   1059 _X_P2IEN	=	0x70ac
                    70AD   1060 _X_STLOAD	=	0x70ad
                    70AE   1061 _X_PMUX	=	0x70ae
                    70AF   1062 _X_T1STAT	=	0x70af
                    70B1   1063 _X_ENCDI	=	0x70b1
                    70B2   1064 _X_ENCDO	=	0x70b2
                    70B3   1065 _X_ENCCS	=	0x70b3
                    70B4   1066 _X_ADCCON1	=	0x70b4
                    70B5   1067 _X_ADCCON2	=	0x70b5
                    70B6   1068 _X_ADCCON3	=	0x70b6
                    70BA   1069 _X_ADCL	=	0x70ba
                    70BB   1070 _X_ADCH	=	0x70bb
                    70BC   1071 _X_RNDL	=	0x70bc
                    70BD   1072 _X_RNDH	=	0x70bd
                    70BE   1073 _X_SLEEPCMD	=	0x70be
                    70BF   1074 _X_RFERRF	=	0x70bf
                    70C1   1075 _X_U0DBUF	=	0x70c1
                    70C2   1076 _X_U0BAUD	=	0x70c2
                    70C3   1077 _X_T2MSEL	=	0x70c3
                    70C4   1078 _X_U0UCR	=	0x70c4
                    70C5   1079 _X_U0GCR	=	0x70c5
                    70C6   1080 _X_CLKCONCMD	=	0x70c6
                    70C7   1081 _X_MEMCTR	=	0x70c7
                    70C9   1082 _X_WDCTL	=	0x70c9
                    70CA   1083 _X_T3CNT	=	0x70ca
                    70CB   1084 _X_T3CTL	=	0x70cb
                    70CC   1085 _X_T3CCTL0	=	0x70cc
                    70CD   1086 _X_T3CC0	=	0x70cd
                    70CE   1087 _X_T3CCTL1	=	0x70ce
                    70CF   1088 _X_T3CC1	=	0x70cf
                    70D1   1089 _X_DMAIRQ	=	0x70d1
                    70D2   1090 _X_DMA1CFGL	=	0x70d2
                    70D3   1091 _X_DMA1CFGH	=	0x70d3
                    70D4   1092 _X_DMA0CFGL	=	0x70d4
                    70D5   1093 _X_DMA0CFGH	=	0x70d5
                    70D6   1094 _X_DMAARM	=	0x70d6
                    70D7   1095 _X_DMAREQ	=	0x70d7
                    70D8   1096 _X_TIMIF	=	0x70d8
                    70D9   1097 _X_RFD	=	0x70d9
                    70DA   1098 _X_T1CC0L	=	0x70da
                    70DB   1099 _X_T1CC0H	=	0x70db
                    70DC   1100 _X_T1CC1L	=	0x70dc
                    70DD   1101 _X_T1CC1H	=	0x70dd
                    70DE   1102 _X_T1CC2L	=	0x70de
                    70DF   1103 _X_T1CC2H	=	0x70df
                    70E1   1104 _X_RFST	=	0x70e1
                    70E2   1105 _X_T1CNTL	=	0x70e2
                    70E3   1106 _X_T1CNTH	=	0x70e3
                    70E4   1107 _X_T1CTL	=	0x70e4
                    70E5   1108 _X_T1CCTL0	=	0x70e5
                    70E6   1109 _X_T1CCTL1	=	0x70e6
                    70E7   1110 _X_T1CCTL2	=	0x70e7
                    70E9   1111 _X_RFIRQF0	=	0x70e9
                    70EA   1112 _X_T4CNT	=	0x70ea
                    70EB   1113 _X_T4CTL	=	0x70eb
                    70EC   1114 _X_T4CCTL0	=	0x70ec
                    70ED   1115 _X_T4CC0	=	0x70ed
                    70EE   1116 _X_T4CCTL1	=	0x70ee
                    70EF   1117 _X_T4CC1	=	0x70ef
                    70F1   1118 _X_PERCFG	=	0x70f1
                    70F2   1119 _X_APCFG	=	0x70f2
                    70F3   1120 _X_P0SEL	=	0x70f3
                    70F4   1121 _X_P1SEL	=	0x70f4
                    70F5   1122 _X_P2SEL	=	0x70f5
                    70F6   1123 _X_P1INP	=	0x70f6
                    70F7   1124 _X_P2INP	=	0x70f7
                    70F8   1125 _X_U1CSR	=	0x70f8
                    70F9   1126 _X_U1DBUF	=	0x70f9
                    70FA   1127 _X_U1BAUD	=	0x70fa
                    70FB   1128 _X_U1UCR	=	0x70fb
                    70FC   1129 _X_U1GCR	=	0x70fc
                    70FD   1130 _X_P0DIR	=	0x70fd
                    70FE   1131 _X_P1DIR	=	0x70fe
                    70FF   1132 _X_P2DIR	=	0x70ff
                    7800   1133 _X_INFOPAGE	=	0x7800
                    780C   1134 _X_IEEE_ADDR	=	0x780c
   0000                    1135 _ep0status:
   0000                    1136 	.ds 1
   0001                    1137 _usb_endpoints:
   0001                    1138 	.ds 52
                           1139 ;--------------------------------------------------------
                           1140 ; absolute external ram data
                           1141 ;--------------------------------------------------------
                           1142 	.area XABS    (ABS,XDATA)
                           1143 ;--------------------------------------------------------
                           1144 ; external initialized ram data
                           1145 ;--------------------------------------------------------
                           1146 	.area XISEG   (XDATA)
   0000                    1147 _usb_irq_handler:
   0000                    1148 	.ds 6
   0006                    1149 _event_process::
   0006                    1150 	.ds 3
   0009                    1151 _events:
   0009                    1152 	.ds 2
                           1153 	.area HOME    (CODE)
                           1154 	.area GSINIT0 (CODE)
                           1155 	.area GSINIT1 (CODE)
                           1156 	.area GSINIT2 (CODE)
                           1157 	.area GSINIT3 (CODE)
                           1158 	.area GSINIT4 (CODE)
                           1159 	.area GSINIT5 (CODE)
                           1160 	.area GSINIT  (CODE)
                           1161 	.area GSFINAL (CODE)
                           1162 	.area CSEG    (CODE)
                           1163 ;--------------------------------------------------------
                           1164 ; global & static initialisations
                           1165 ;--------------------------------------------------------
                           1166 	.area HOME    (CODE)
                           1167 	.area GSINIT  (CODE)
                           1168 	.area GSFINAL (CODE)
                           1169 	.area GSINIT  (CODE)
                           1170 ;--------------------------------------------------------
                           1171 ; Home
                           1172 ;--------------------------------------------------------
                           1173 	.area HOME    (CODE)
                           1174 	.area HOME    (CODE)
                           1175 ;--------------------------------------------------------
                           1176 ; code
                           1177 ;--------------------------------------------------------
                           1178 	.area BANK1   (CODE)
                           1179 ;------------------------------------------------------------
                           1180 ;Allocation info for local variables in function 'notify_process'
                           1181 ;------------------------------------------------------------
                           1182 ;e                         Allocated to registers r6 r7 
                           1183 ;------------------------------------------------------------
                           1184 ;	../../../contiki-sensinode//cpu/cc253x/usb/usb-arch.c:186: notify_process(unsigned int e)
                           1185 ;	-----------------------------------------
                           1186 ;	 function notify_process
                           1187 ;	-----------------------------------------
   0000                    1188 _notify_process:
                    0007   1189 	ar7 = 0x07
                    0006   1190 	ar6 = 0x06
                    0005   1191 	ar5 = 0x05
                    0004   1192 	ar4 = 0x04
                    0003   1193 	ar3 = 0x03
                    0002   1194 	ar2 = 0x02
                    0001   1195 	ar1 = 0x01
                    0000   1196 	ar0 = 0x00
   0000 AE 82              1197 	mov	r6,dpl
   0002 AF 83              1198 	mov	r7,dph
                           1199 ;	../../../contiki-sensinode//cpu/cc253x/usb/usb-arch.c:188: events |= e;
   0004 90s00r09           1200 	mov	dptr,#_events
   0007 E0                 1201 	movx	a,@dptr
   0008 FC                 1202 	mov	r4,a
   0009 A3                 1203 	inc	dptr
   000A E0                 1204 	movx	a,@dptr
   000B FD                 1205 	mov	r5,a
   000C 90s00r09           1206 	mov	dptr,#_events
   000F EE                 1207 	mov	a,r6
   0010 4C                 1208 	orl	a,r4
   0011 F0                 1209 	movx	@dptr,a
   0012 EF                 1210 	mov	a,r7
   0013 4D                 1211 	orl	a,r5
   0014 A3                 1212 	inc	dptr
   0015 F0                 1213 	movx	@dptr,a
                           1214 ;	../../../contiki-sensinode//cpu/cc253x/usb/usb-arch.c:189: if(event_process) {
   0016 90s00r06           1215 	mov	dptr,#_event_process
   0019 E0                 1216 	movx	a,@dptr
   001A FD                 1217 	mov	r5,a
   001B A3                 1218 	inc	dptr
   001C E0                 1219 	movx	a,@dptr
   001D FE                 1220 	mov	r6,a
   001E A3                 1221 	inc	dptr
   001F E0                 1222 	movx	a,@dptr
   0020 FF                 1223 	mov	r7,a
   0021 ED                 1224 	mov	a,r5
   0022 4E                 1225 	orl	a,r6
   0023 60 0F              1226 	jz	00103$
                           1227 ;	../../../contiki-sensinode//cpu/cc253x/usb/usb-arch.c:190: process_poll(event_process);
   0025 8D 82              1228 	mov	dpl,r5
   0027 8E 83              1229 	mov	dph,r6
   0029 8F F0              1230 	mov	b,r7
   002B 78r00              1231 	mov	r0,#_process_poll
   002D 79s00              1232 	mov	r1,#(_process_poll >> 8)
   002F 7As00              1233 	mov	r2,#(_process_poll >> 16)
   0031 12s00r00           1234 	lcall	__sdcc_banked_call
   0034                    1235 00103$:
   0034 02s00r00           1236 	ljmp	__sdcc_banked_ret
                           1237 ;------------------------------------------------------------
                           1238 ;Allocation info for local variables in function 'notify_ep_process'
                           1239 ;------------------------------------------------------------
                           1240 ;e                         Allocated to stack - sp -7
                           1241 ;ep                        Allocated to stack - sp -2
                           1242 ;------------------------------------------------------------
                           1243 ;	../../../contiki-sensinode//cpu/cc253x/usb/usb-arch.c:195: notify_ep_process(USBEndpoint * ep, unsigned int e)
                           1244 ;	-----------------------------------------
                           1245 ;	 function notify_ep_process
                           1246 ;	-----------------------------------------
   0037                    1247 _notify_ep_process:
   0037 C0 82              1248 	push	dpl
   0039 C0 83              1249 	push	dph
   003B C0 F0              1250 	push	b
                           1251 ;	../../../contiki-sensinode//cpu/cc253x/usb/usb-arch.c:197: ep->events |= e;
   003D A8 81              1252 	mov	r0,sp
   003F 18                 1253 	dec	r0
   0040 18                 1254 	dec	r0
   0041 74 09              1255 	mov	a,#0x09
   0043 26                 1256 	add	a,@r0
   0044 FA                 1257 	mov	r2,a
   0045 E4                 1258 	clr	a
   0046 08                 1259 	inc	r0
   0047 36                 1260 	addc	a,@r0
   0048 FB                 1261 	mov	r3,a
   0049 08                 1262 	inc	r0
   004A 86 04              1263 	mov	ar4,@r0
   004C 8A 82              1264 	mov	dpl,r2
   004E 8B 83              1265 	mov	dph,r3
   0050 8C F0              1266 	mov	b,r4
   0052 12s00r00           1267 	lcall	__gptrget
   0055 FE                 1268 	mov	r6,a
   0056 A3                 1269 	inc	dptr
   0057 12s00r00           1270 	lcall	__gptrget
   005A FF                 1271 	mov	r7,a
   005B E5 81              1272 	mov	a,sp
   005D 24 F9              1273 	add	a,#0xf9
   005F F8                 1274 	mov	r0,a
   0060 E6                 1275 	mov	a,@r0
   0061 42 06              1276 	orl	ar6,a
   0063 08                 1277 	inc	r0
   0064 E6                 1278 	mov	a,@r0
   0065 42 07              1279 	orl	ar7,a
   0067 8A 82              1280 	mov	dpl,r2
   0069 8B 83              1281 	mov	dph,r3
   006B 8C F0              1282 	mov	b,r4
   006D EE                 1283 	mov	a,r6
   006E 12s00r00           1284 	lcall	__gptrput
   0071 A3                 1285 	inc	dptr
   0072 EF                 1286 	mov	a,r7
   0073 12s00r00           1287 	lcall	__gptrput
                           1288 ;	../../../contiki-sensinode//cpu/cc253x/usb/usb-arch.c:198: if(ep->event_process) {
   0076 A8 81              1289 	mov	r0,sp
   0078 18                 1290 	dec	r0
   0079 18                 1291 	dec	r0
   007A 74 06              1292 	mov	a,#0x06
   007C 26                 1293 	add	a,@r0
   007D FD                 1294 	mov	r5,a
   007E E4                 1295 	clr	a
   007F 08                 1296 	inc	r0
   0080 36                 1297 	addc	a,@r0
   0081 FE                 1298 	mov	r6,a
   0082 08                 1299 	inc	r0
   0083 86 07              1300 	mov	ar7,@r0
   0085 8D 82              1301 	mov	dpl,r5
   0087 8E 83              1302 	mov	dph,r6
   0089 8F F0              1303 	mov	b,r7
   008B 12s00r00           1304 	lcall	__gptrget
   008E FD                 1305 	mov	r5,a
   008F A3                 1306 	inc	dptr
   0090 12s00r00           1307 	lcall	__gptrget
   0093 FE                 1308 	mov	r6,a
   0094 A3                 1309 	inc	dptr
   0095 12s00r00           1310 	lcall	__gptrget
   0098 FF                 1311 	mov	r7,a
   0099 ED                 1312 	mov	a,r5
   009A 4E                 1313 	orl	a,r6
   009B 60 0F              1314 	jz	00103$
                           1315 ;	../../../contiki-sensinode//cpu/cc253x/usb/usb-arch.c:199: process_poll(ep->event_process);
   009D 8D 82              1316 	mov	dpl,r5
   009F 8E 83              1317 	mov	dph,r6
   00A1 8F F0              1318 	mov	b,r7
   00A3 78r00              1319 	mov	r0,#_process_poll
   00A5 79s00              1320 	mov	r1,#(_process_poll >> 8)
   00A7 7As00              1321 	mov	r2,#(_process_poll >> 16)
   00A9 12s00r00           1322 	lcall	__sdcc_banked_call
   00AC                    1323 00103$:
   00AC 15 81              1324 	dec	sp
   00AE 15 81              1325 	dec	sp
   00B0 15 81              1326 	dec	sp
   00B2 02s00r00           1327 	ljmp	__sdcc_banked_ret
                           1328 ;------------------------------------------------------------
                           1329 ;Allocation info for local variables in function 'usb_set_ep_event_process'
                           1330 ;------------------------------------------------------------
                           1331 ;p                         Allocated to stack - sp -5
                           1332 ;addr                      Allocated to registers r7 
                           1333 ;ep                        Allocated to registers r6 r7 r5 
                           1334 ;------------------------------------------------------------
                           1335 ;	../../../contiki-sensinode//cpu/cc253x/usb/usb-arch.c:205: usb_set_ep_event_process(unsigned char addr, struct process *p)
                           1336 ;	-----------------------------------------
                           1337 ;	 function usb_set_ep_event_process
                           1338 ;	-----------------------------------------
   00B5                    1339 _usb_set_ep_event_process:
   00B5 AF 82              1340 	mov	r7,dpl
                           1341 ;	../../../contiki-sensinode//cpu/cc253x/usb/usb-arch.c:207: USBEndpoint *ep = EP_STRUCT(addr);
   00B7 74 7F              1342 	mov	a,#0x7F
   00B9 5F                 1343 	anl	a,r7
   00BA 75 F0 0D           1344 	mov	b,#0x0D
   00BD A4                 1345 	mul	ab
   00BE 24r01              1346 	add	a,#_usb_endpoints
   00C0 FE                 1347 	mov	r6,a
   00C1 E4                 1348 	clr	a
   00C2 34s00              1349 	addc	a,#(_usb_endpoints >> 8)
   00C4 FF                 1350 	mov	r7,a
   00C5 7D 00              1351 	mov	r5,#0x00
                           1352 ;	../../../contiki-sensinode//cpu/cc253x/usb/usb-arch.c:209: ep->event_process = p;
   00C7 74 06              1353 	mov	a,#0x06
   00C9 2E                 1354 	add	a,r6
   00CA FE                 1355 	mov	r6,a
   00CB E4                 1356 	clr	a
   00CC 3F                 1357 	addc	a,r7
   00CD FF                 1358 	mov	r7,a
   00CE 8E 82              1359 	mov	dpl,r6
   00D0 8F 83              1360 	mov	dph,r7
   00D2 8D F0              1361 	mov	b,r5
   00D4 E5 81              1362 	mov	a,sp
   00D6 24 FB              1363 	add	a,#0xfb
   00D8 F8                 1364 	mov	r0,a
   00D9 E6                 1365 	mov	a,@r0
   00DA 12s00r00           1366 	lcall	__gptrput
   00DD A3                 1367 	inc	dptr
   00DE 08                 1368 	inc	r0
   00DF E6                 1369 	mov	a,@r0
   00E0 12s00r00           1370 	lcall	__gptrput
   00E3 A3                 1371 	inc	dptr
   00E4 08                 1372 	inc	r0
   00E5 E6                 1373 	mov	a,@r0
   00E6 12s00r00           1374 	lcall	__gptrput
   00E9 02s00r00           1375 	ljmp	__sdcc_banked_ret
                           1376 ;------------------------------------------------------------
                           1377 ;Allocation info for local variables in function 'usb_arch_set_global_event_process'
                           1378 ;------------------------------------------------------------
                           1379 ;p                         Allocated to registers 
                           1380 ;------------------------------------------------------------
                           1381 ;	../../../contiki-sensinode//cpu/cc253x/usb/usb-arch.c:214: usb_arch_set_global_event_process(struct process *p)
                           1382 ;	-----------------------------------------
                           1383 ;	 function usb_arch_set_global_event_process
                           1384 ;	-----------------------------------------
   00EC                    1385 _usb_arch_set_global_event_process:
   00EC AF F0              1386 	mov	r7,b
   00EE AE 83              1387 	mov	r6,dph
   00F0 E5 82              1388 	mov	a,dpl
   00F2 90s00r06           1389 	mov	dptr,#_event_process
   00F5 F0                 1390 	movx	@dptr,a
   00F6 A3                 1391 	inc	dptr
   00F7 EE                 1392 	mov	a,r6
   00F8 F0                 1393 	movx	@dptr,a
   00F9 A3                 1394 	inc	dptr
   00FA EF                 1395 	mov	a,r7
   00FB F0                 1396 	movx	@dptr,a
                           1397 ;	../../../contiki-sensinode//cpu/cc253x/usb/usb-arch.c:216: event_process = p;
   00FC 02s00r00           1398 	ljmp	__sdcc_banked_ret
                           1399 ;------------------------------------------------------------
                           1400 ;Allocation info for local variables in function 'usb_arch_get_global_events'
                           1401 ;------------------------------------------------------------
                           1402 ;flag                      Allocated to registers r7 
                           1403 ;e                         Allocated to stack - sp -1
                           1404 ;------------------------------------------------------------
                           1405 ;	../../../contiki-sensinode//cpu/cc253x/usb/usb-arch.c:220: usb_arch_get_global_events(void)
                           1406 ;	-----------------------------------------
                           1407 ;	 function usb_arch_get_global_events
                           1408 ;	-----------------------------------------
   00FF                    1409 _usb_arch_get_global_events:
   00FF 05 81              1410 	inc	sp
   0101 05 81              1411 	inc	sp
                           1412 ;	../../../contiki-sensinode//cpu/cc253x/usb/usb-arch.c:225: usb_irq_disable(flag);
   0103 74 02              1413 	mov	a,#0x02
   0105 55 9A              1414 	anl	a,_IEN2
   0107 FF                 1415 	mov	r7,a
   0108 AE 9A              1416 	mov	r6,_IEN2
   010A 53 06 FD           1417 	anl	ar6,#0xFD
   010D 8E 9A              1418 	mov	_IEN2,r6
                           1419 ;	../../../contiki-sensinode//cpu/cc253x/usb/usb-arch.c:226: e = events;
   010F 90s00r09           1420 	mov	dptr,#_events
   0112 E0                 1421 	movx	a,@dptr
   0113 FD                 1422 	mov	r5,a
   0114 A3                 1423 	inc	dptr
   0115 E0                 1424 	movx	a,@dptr
   0116 FE                 1425 	mov	r6,a
   0117 A8 81              1426 	mov	r0,sp
   0119 18                 1427 	dec	r0
   011A A6 05              1428 	mov	@r0,ar5
   011C 08                 1429 	inc	r0
   011D A6 06              1430 	mov	@r0,ar6
                           1431 ;	../../../contiki-sensinode//cpu/cc253x/usb/usb-arch.c:227: events = 0;
   011F 90s00r09           1432 	mov	dptr,#_events
   0122 E4                 1433 	clr	a
   0123 F0                 1434 	movx	@dptr,a
   0124 A3                 1435 	inc	dptr
   0125 F0                 1436 	movx	@dptr,a
                           1437 ;	../../../contiki-sensinode//cpu/cc253x/usb/usb-arch.c:228: usb_irq_enable(flag);
   0126 EF                 1438 	mov	a,r7
   0127 42 9A              1439 	orl	_IEN2,a
                           1440 ;	../../../contiki-sensinode//cpu/cc253x/usb/usb-arch.c:230: return e;
   0129 A8 81              1441 	mov	r0,sp
   012B 18                 1442 	dec	r0
   012C 86 82              1443 	mov	dpl,@r0
   012E 08                 1444 	inc	r0
   012F 86 83              1445 	mov	dph,@r0
   0131 15 81              1446 	dec	sp
   0133 15 81              1447 	dec	sp
   0135 02s00r00           1448 	ljmp	__sdcc_banked_ret
                           1449 ;------------------------------------------------------------
                           1450 ;Allocation info for local variables in function 'usb_get_ep_events'
                           1451 ;------------------------------------------------------------
                           1452 ;addr                      Allocated to registers r7 
                           1453 ;e                         Allocated to stack - sp -1
                           1454 ;flag                      Allocated to registers r4 
                           1455 ;ep                        Allocated to registers r6 r7 r5 
                           1456 ;------------------------------------------------------------
                           1457 ;	../../../contiki-sensinode//cpu/cc253x/usb/usb-arch.c:234: usb_get_ep_events(uint8_t addr)
                           1458 ;	-----------------------------------------
                           1459 ;	 function usb_get_ep_events
                           1460 ;	-----------------------------------------
   0138                    1461 _usb_get_ep_events:
   0138 05 81              1462 	inc	sp
   013A 05 81              1463 	inc	sp
   013C AF 82              1464 	mov	r7,dpl
                           1465 ;	../../../contiki-sensinode//cpu/cc253x/usb/usb-arch.c:238: USBEndpoint *ep = EP_STRUCT(addr);
   013E 74 7F              1466 	mov	a,#0x7F
   0140 5F                 1467 	anl	a,r7
   0141 75 F0 0D           1468 	mov	b,#0x0D
   0144 A4                 1469 	mul	ab
   0145 24r01              1470 	add	a,#_usb_endpoints
   0147 FE                 1471 	mov	r6,a
   0148 E4                 1472 	clr	a
   0149 34s00              1473 	addc	a,#(_usb_endpoints >> 8)
   014B FF                 1474 	mov	r7,a
   014C 7D 00              1475 	mov	r5,#0x00
                           1476 ;	../../../contiki-sensinode//cpu/cc253x/usb/usb-arch.c:240: usb_irq_disable(flag);
   014E 74 02              1477 	mov	a,#0x02
   0150 55 9A              1478 	anl	a,_IEN2
   0152 FC                 1479 	mov	r4,a
   0153 AB 9A              1480 	mov	r3,_IEN2
   0155 53 03 FD           1481 	anl	ar3,#0xFD
   0158 8B 9A              1482 	mov	_IEN2,r3
                           1483 ;	../../../contiki-sensinode//cpu/cc253x/usb/usb-arch.c:241: e = ep->events;
   015A 74 09              1484 	mov	a,#0x09
   015C 2E                 1485 	add	a,r6
   015D FE                 1486 	mov	r6,a
   015E E4                 1487 	clr	a
   015F 3F                 1488 	addc	a,r7
   0160 FF                 1489 	mov	r7,a
   0161 8E 82              1490 	mov	dpl,r6
   0163 8F 83              1491 	mov	dph,r7
   0165 8D F0              1492 	mov	b,r5
   0167 12s00r00           1493 	lcall	__gptrget
   016A FA                 1494 	mov	r2,a
   016B A3                 1495 	inc	dptr
   016C 12s00r00           1496 	lcall	__gptrget
   016F FB                 1497 	mov	r3,a
   0170 A8 81              1498 	mov	r0,sp
   0172 18                 1499 	dec	r0
   0173 A6 02              1500 	mov	@r0,ar2
   0175 08                 1501 	inc	r0
   0176 A6 03              1502 	mov	@r0,ar3
                           1503 ;	../../../contiki-sensinode//cpu/cc253x/usb/usb-arch.c:242: ep->events = 0;
   0178 8E 82              1504 	mov	dpl,r6
   017A 8F 83              1505 	mov	dph,r7
   017C 8D F0              1506 	mov	b,r5
   017E E4                 1507 	clr	a
   017F 12s00r00           1508 	lcall	__gptrput
   0182 A3                 1509 	inc	dptr
   0183 E4                 1510 	clr	a
   0184 12s00r00           1511 	lcall	__gptrput
                           1512 ;	../../../contiki-sensinode//cpu/cc253x/usb/usb-arch.c:243: usb_irq_enable(flag);
   0187 EC                 1513 	mov	a,r4
   0188 42 9A              1514 	orl	_IEN2,a
                           1515 ;	../../../contiki-sensinode//cpu/cc253x/usb/usb-arch.c:245: return e;
   018A A8 81              1516 	mov	r0,sp
   018C 18                 1517 	dec	r0
   018D 86 82              1518 	mov	dpl,@r0
   018F 08                 1519 	inc	r0
   0190 86 83              1520 	mov	dph,@r0
   0192 15 81              1521 	dec	sp
   0194 15 81              1522 	dec	sp
   0196 02s00r00           1523 	ljmp	__sdcc_banked_ret
                           1524 ;------------------------------------------------------------
                           1525 ;Allocation info for local variables in function 'read_hw_buffer'
                           1526 ;------------------------------------------------------------
                           1527 ;hw_ep                     Allocated to stack - sp -7
                           1528 ;len                       Allocated to stack - sp -9
                           1529 ;to                        Allocated to registers 
                           1530 ;from                      Allocated to stack - sp -3
                           1531 ;sloc0                     Allocated to stack - sp -1
                           1532 ;------------------------------------------------------------
                           1533 ;	../../../contiki-sensinode//cpu/cc253x/usb/usb-arch.c:311: read_hw_buffer(uint8_t * to, uint8_t hw_ep, unsigned int len)
                           1534 ;	-----------------------------------------
                           1535 ;	 function read_hw_buffer
                           1536 ;	-----------------------------------------
   0199                    1537 _read_hw_buffer:
   0199 E5 81              1538 	mov	a,sp
   019B 24 04              1539 	add	a,#0x04
   019D F5 81              1540 	mov	sp,a
   019F AD 82              1541 	mov	r5,dpl
   01A1 AE 83              1542 	mov	r6,dph
   01A3 AF F0              1543 	mov	r7,b
                           1544 ;	../../../contiki-sensinode//cpu/cc253x/usb/usb-arch.c:313: __xdata uint8_t *from = &USBF0 + (hw_ep << 1);
   01A5 E5 81              1545 	mov	a,sp
   01A7 24 F9              1546 	add	a,#0xf9
   01A9 F8                 1547 	mov	r0,a
   01AA 86 03              1548 	mov	ar3,@r0
   01AC E4                 1549 	clr	a
   01AD CB                 1550 	xch	a,r3
   01AE 25 E0              1551 	add	a,acc
   01B0 CB                 1552 	xch	a,r3
   01B1 33                 1553 	rlc	a
   01B2 FC                 1554 	mov	r4,a
   01B3 EB                 1555 	mov	a,r3
   01B4 24 20              1556 	add	a,#_USBF0
   01B6 FB                 1557 	mov	r3,a
   01B7 EC                 1558 	mov	a,r4
   01B8 34 62              1559 	addc	a,#(_USBF0 >> 8)
   01BA FC                 1560 	mov	r4,a
   01BB E5 81              1561 	mov	a,sp
   01BD 24 FD              1562 	add	a,#0xfd
   01BF F8                 1563 	mov	r0,a
   01C0 A6 03              1564 	mov	@r0,ar3
   01C2 08                 1565 	inc	r0
   01C3 A6 04              1566 	mov	@r0,ar4
                           1567 ;	../../../contiki-sensinode//cpu/cc253x/usb/usb-arch.c:324: while(len--) {
   01C5 E5 81              1568 	mov	a,sp
   01C7 24 F7              1569 	add	a,#0xf7
   01C9 F8                 1570 	mov	r0,a
   01CA A9 81              1571 	mov	r1,sp
   01CC 19                 1572 	dec	r1
   01CD E6                 1573 	mov	a,@r0
   01CE F7                 1574 	mov	@r1,a
   01CF 08                 1575 	inc	r0
   01D0 09                 1576 	inc	r1
   01D1 E6                 1577 	mov	a,@r0
   01D2 F7                 1578 	mov	@r1,a
   01D3                    1579 00101$:
   01D3 A8 81              1580 	mov	r0,sp
   01D5 18                 1581 	dec	r0
   01D6 86 02              1582 	mov	ar2,@r0
   01D8 08                 1583 	inc	r0
   01D9 86 04              1584 	mov	ar4,@r0
   01DB A8 81              1585 	mov	r0,sp
   01DD 18                 1586 	dec	r0
   01DE 16                 1587 	dec	@r0
   01DF B6 FF 02           1588 	cjne	@r0,#0xFF,00111$
   01E2 08                 1589 	inc	r0
   01E3 16                 1590 	dec	@r0
   01E4                    1591 00111$:
   01E4 EA                 1592 	mov	a,r2
   01E5 4C                 1593 	orl	a,r4
   01E6 60 1C              1594 	jz	00104$
                           1595 ;	../../../contiki-sensinode//cpu/cc253x/usb/usb-arch.c:325: *to++ = *from;
   01E8 E5 81              1596 	mov	a,sp
   01EA 24 FD              1597 	add	a,#0xfd
   01EC F8                 1598 	mov	r0,a
   01ED 86 82              1599 	mov	dpl,@r0
   01EF 08                 1600 	inc	r0
   01F0 86 83              1601 	mov	dph,@r0
   01F2 E0                 1602 	movx	a,@dptr
   01F3 FC                 1603 	mov	r4,a
   01F4 8D 82              1604 	mov	dpl,r5
   01F6 8E 83              1605 	mov	dph,r6
   01F8 8F F0              1606 	mov	b,r7
   01FA 12s00r00           1607 	lcall	__gptrput
   01FD A3                 1608 	inc	dptr
   01FE AD 82              1609 	mov	r5,dpl
   0200 AE 83              1610 	mov	r6,dph
   0202 80 CF              1611 	sjmp	00101$
   0204                    1612 00104$:
   0204 E5 81              1613 	mov	a,sp
   0206 24 FC              1614 	add	a,#0xFC
   0208 F5 81              1615 	mov	sp,a
   020A 02s00r00           1616 	ljmp	__sdcc_banked_ret
                           1617 ;------------------------------------------------------------
                           1618 ;Allocation info for local variables in function 'write_hw_buffer'
                           1619 ;------------------------------------------------------------
                           1620 ;from                      Allocated to stack - sp -9
                           1621 ;len                       Allocated to stack - sp -11
                           1622 ;hw_ep                     Allocated to registers r7 
                           1623 ;to                        Allocated to stack - sp -3
                           1624 ;sloc0                     Allocated to stack - sp -1
                           1625 ;------------------------------------------------------------
                           1626 ;	../../../contiki-sensinode//cpu/cc253x/usb/usb-arch.c:330: write_hw_buffer(uint8_t hw_ep, uint8_t * from, unsigned int len)
                           1627 ;	-----------------------------------------
                           1628 ;	 function write_hw_buffer
                           1629 ;	-----------------------------------------
   020D                    1630 _write_hw_buffer:
   020D E5 81              1631 	mov	a,sp
   020F 24 04              1632 	add	a,#0x04
   0211 F5 81              1633 	mov	sp,a
   0213 AF 82              1634 	mov	r7,dpl
                           1635 ;	../../../contiki-sensinode//cpu/cc253x/usb/usb-arch.c:332: __xdata uint8_t *to = &USBF0 + (hw_ep << 1);
   0215 E4                 1636 	clr	a
   0216 CF                 1637 	xch	a,r7
   0217 25 E0              1638 	add	a,acc
   0219 CF                 1639 	xch	a,r7
   021A 33                 1640 	rlc	a
   021B FE                 1641 	mov	r6,a
   021C EF                 1642 	mov	a,r7
   021D 24 20              1643 	add	a,#_USBF0
   021F FF                 1644 	mov	r7,a
   0220 EE                 1645 	mov	a,r6
   0221 34 62              1646 	addc	a,#(_USBF0 >> 8)
   0223 FE                 1647 	mov	r6,a
   0224 E5 81              1648 	mov	a,sp
   0226 24 FD              1649 	add	a,#0xfd
   0228 F8                 1650 	mov	r0,a
   0229 A6 07              1651 	mov	@r0,ar7
   022B 08                 1652 	inc	r0
   022C A6 06              1653 	mov	@r0,ar6
                           1654 ;	../../../contiki-sensinode//cpu/cc253x/usb/usb-arch.c:342: while(len--) {
   022E E5 81              1655 	mov	a,sp
   0230 24 F7              1656 	add	a,#0xf7
   0232 F8                 1657 	mov	r0,a
   0233 86 03              1658 	mov	ar3,@r0
   0235 08                 1659 	inc	r0
   0236 86 04              1660 	mov	ar4,@r0
   0238 08                 1661 	inc	r0
   0239 86 05              1662 	mov	ar5,@r0
   023B E5 81              1663 	mov	a,sp
   023D 24 F5              1664 	add	a,#0xf5
   023F F8                 1665 	mov	r0,a
   0240 A9 81              1666 	mov	r1,sp
   0242 19                 1667 	dec	r1
   0243 E6                 1668 	mov	a,@r0
   0244 F7                 1669 	mov	@r1,a
   0245 08                 1670 	inc	r0
   0246 09                 1671 	inc	r1
   0247 E6                 1672 	mov	a,@r0
   0248 F7                 1673 	mov	@r1,a
   0249                    1674 00101$:
   0249 A8 81              1675 	mov	r0,sp
   024B 18                 1676 	dec	r0
   024C 86 02              1677 	mov	ar2,@r0
   024E 08                 1678 	inc	r0
   024F 86 07              1679 	mov	ar7,@r0
   0251 A8 81              1680 	mov	r0,sp
   0253 18                 1681 	dec	r0
   0254 16                 1682 	dec	@r0
   0255 B6 FF 02           1683 	cjne	@r0,#0xFF,00111$
   0258 08                 1684 	inc	r0
   0259 16                 1685 	dec	@r0
   025A                    1686 00111$:
   025A EA                 1687 	mov	a,r2
   025B 4F                 1688 	orl	a,r7
   025C 60 1D              1689 	jz	00104$
                           1690 ;	../../../contiki-sensinode//cpu/cc253x/usb/usb-arch.c:343: *to = *from++;
   025E 8B 82              1691 	mov	dpl,r3
   0260 8C 83              1692 	mov	dph,r4
   0262 8D F0              1693 	mov	b,r5
   0264 12s00r00           1694 	lcall	__gptrget
   0267 FF                 1695 	mov	r7,a
   0268 A3                 1696 	inc	dptr
   0269 AB 82              1697 	mov	r3,dpl
   026B AC 83              1698 	mov	r4,dph
   026D E5 81              1699 	mov	a,sp
   026F 24 FD              1700 	add	a,#0xfd
   0271 F8                 1701 	mov	r0,a
   0272 86 82              1702 	mov	dpl,@r0
   0274 08                 1703 	inc	r0
   0275 86 83              1704 	mov	dph,@r0
   0277 EF                 1705 	mov	a,r7
   0278 F0                 1706 	movx	@dptr,a
   0279 80 CE              1707 	sjmp	00101$
   027B                    1708 00104$:
   027B E5 81              1709 	mov	a,sp
   027D 24 FC              1710 	add	a,#0xFC
   027F F5 81              1711 	mov	sp,a
   0281 02s00r00           1712 	ljmp	__sdcc_banked_ret
                           1713 ;------------------------------------------------------------
                           1714 ;Allocation info for local variables in function 'usb_arch_reset'
                           1715 ;------------------------------------------------------------
                           1716 ;e                         Allocated to registers r7 
                           1717 ;buffer                    Allocated to stack - sp -2
                           1718 ;------------------------------------------------------------
                           1719 ;	../../../contiki-sensinode//cpu/cc253x/usb/usb-arch.c:348: usb_arch_reset(void)
                           1720 ;	-----------------------------------------
                           1721 ;	 function usb_arch_reset
                           1722 ;	-----------------------------------------
   0284                    1723 _usb_arch_reset:
   0284 05 81              1724 	inc	sp
   0286 05 81              1725 	inc	sp
   0288 05 81              1726 	inc	sp
                           1727 ;	../../../contiki-sensinode//cpu/cc253x/usb/usb-arch.c:352: for(e = 0; e < USB_MAX_ENDPOINTS; e++) {
   028A 7F 00              1728 	mov	r7,#0x00
   028C                    1729 00106$:
   028C BF 04 00           1730 	cjne	r7,#0x04,00123$
   028F                    1731 00123$:
   028F 40 03              1732 	jc	00124$
   0291 02s03r46           1733 	ljmp	00109$
   0294                    1734 00124$:
                           1735 ;	../../../contiki-sensinode//cpu/cc253x/usb/usb-arch.c:353: if(usb_endpoints[e].flags & USB_EP_FLAGS_ENABLED) {
   0294 EF                 1736 	mov	a,r7
   0295 75 F0 0D           1737 	mov	b,#0x0D
   0298 A4                 1738 	mul	ab
   0299 24r01              1739 	add	a,#_usb_endpoints
   029B FD                 1740 	mov	r5,a
   029C E4                 1741 	clr	a
   029D 34s00              1742 	addc	a,#(_usb_endpoints >> 8)
   029F FE                 1743 	mov	r6,a
   02A0 74 02              1744 	mov	a,#0x02
   02A2 2D                 1745 	add	a,r5
   02A3 FB                 1746 	mov	r3,a
   02A4 E4                 1747 	clr	a
   02A5 3E                 1748 	addc	a,r6
   02A6 FC                 1749 	mov	r4,a
   02A7 8B 82              1750 	mov	dpl,r3
   02A9 8C 83              1751 	mov	dph,r4
   02AB E0                 1752 	movx	a,@dptr
   02AC FA                 1753 	mov	r2,a
   02AD 20 E2 03           1754 	jb	acc.2,00125$
   02B0 02s03r42           1755 	ljmp	00108$
   02B3                    1756 00125$:
                           1757 ;	../../../contiki-sensinode//cpu/cc253x/usb/usb-arch.c:354: USBBuffer *buffer = usb_endpoints[e].buffer;
   02B3 8D 82              1758 	mov	dpl,r5
   02B5 8E 83              1759 	mov	dph,r6
   02B7 A3                 1760 	inc	dptr
   02B8 A3                 1761 	inc	dptr
   02B9 A3                 1762 	inc	dptr
   02BA E0                 1763 	movx	a,@dptr
   02BB FA                 1764 	mov	r2,a
   02BC A3                 1765 	inc	dptr
   02BD E0                 1766 	movx	a,@dptr
   02BE FD                 1767 	mov	r5,a
   02BF A3                 1768 	inc	dptr
   02C0 E0                 1769 	movx	a,@dptr
   02C1 FE                 1770 	mov	r6,a
   02C2 A8 81              1771 	mov	r0,sp
   02C4 18                 1772 	dec	r0
   02C5 18                 1773 	dec	r0
   02C6 A6 02              1774 	mov	@r0,ar2
   02C8 08                 1775 	inc	r0
   02C9 A6 05              1776 	mov	@r0,ar5
   02CB 08                 1777 	inc	r0
   02CC A6 06              1778 	mov	@r0,ar6
                           1779 ;	../../../contiki-sensinode//cpu/cc253x/usb/usb-arch.c:356: usb_endpoints[e].flags = 0;
   02CE 8B 82              1780 	mov	dpl,r3
   02D0 8C 83              1781 	mov	dph,r4
   02D2 E4                 1782 	clr	a
   02D3 F0                 1783 	movx	@dptr,a
                           1784 ;	../../../contiki-sensinode//cpu/cc253x/usb/usb-arch.c:357: usb_disable_endpoint(e);
   02D4 8F 82              1785 	mov	dpl,r7
   02D6 C0 07              1786 	push	ar7
   02D8 78r00              1787 	mov	r0,#_usb_disable_endpoint
   02DA 79s00              1788 	mov	r1,#(_usb_disable_endpoint >> 8)
   02DC 7As00              1789 	mov	r2,#(_usb_disable_endpoint >> 16)
   02DE 12s00r00           1790 	lcall	__sdcc_banked_call
   02E1 D0 07              1791 	pop	ar7
                           1792 ;	../../../contiki-sensinode//cpu/cc253x/usb/usb-arch.c:358: while(buffer) {
   02E3                    1793 00101$:
   02E3 A8 81              1794 	mov	r0,sp
   02E5 18                 1795 	dec	r0
   02E6 18                 1796 	dec	r0
   02E7 E6                 1797 	mov	a,@r0
   02E8 08                 1798 	inc	r0
   02E9 46                 1799 	orl	a,@r0
   02EA 60 56              1800 	jz	00108$
                           1801 ;	../../../contiki-sensinode//cpu/cc253x/usb/usb-arch.c:359: buffer->flags &= ~USB_BUFFER_SUBMITTED;
   02EC C0 07              1802 	push	ar7
   02EE E5 81              1803 	mov	a,sp
   02F0 24 FD              1804 	add	a,#0xfd
   02F2 F8                 1805 	mov	r0,a
   02F3 74 08              1806 	mov	a,#0x08
   02F5 26                 1807 	add	a,@r0
   02F6 FB                 1808 	mov	r3,a
   02F7 E4                 1809 	clr	a
   02F8 08                 1810 	inc	r0
   02F9 36                 1811 	addc	a,@r0
   02FA FC                 1812 	mov	r4,a
   02FB 08                 1813 	inc	r0
   02FC 86 07              1814 	mov	ar7,@r0
   02FE 8B 82              1815 	mov	dpl,r3
   0300 8C 83              1816 	mov	dph,r4
   0302 8F F0              1817 	mov	b,r7
   0304 12s00r00           1818 	lcall	__gptrget
   0307 FD                 1819 	mov	r5,a
   0308 A3                 1820 	inc	dptr
   0309 12s00r00           1821 	lcall	__gptrget
   030C FE                 1822 	mov	r6,a
   030D 53 05 FE           1823 	anl	ar5,#0xFE
   0310 8B 82              1824 	mov	dpl,r3
   0312 8C 83              1825 	mov	dph,r4
   0314 8F F0              1826 	mov	b,r7
   0316 ED                 1827 	mov	a,r5
   0317 12s00r00           1828 	lcall	__gptrput
   031A A3                 1829 	inc	dptr
   031B EE                 1830 	mov	a,r6
   031C 12s00r00           1831 	lcall	__gptrput
                           1832 ;	../../../contiki-sensinode//cpu/cc253x/usb/usb-arch.c:360: buffer = buffer->next;
   031F E5 81              1833 	mov	a,sp
   0321 24 FD              1834 	add	a,#0xfd
   0323 F8                 1835 	mov	r0,a
   0324 86 82              1836 	mov	dpl,@r0
   0326 08                 1837 	inc	r0
   0327 86 83              1838 	mov	dph,@r0
   0329 08                 1839 	inc	r0
   032A 86 F0              1840 	mov	b,@r0
   032C 12s00r00           1841 	lcall	__gptrget
   032F 18                 1842 	dec	r0
   0330 18                 1843 	dec	r0
   0331 F6                 1844 	mov	@r0,a
   0332 A3                 1845 	inc	dptr
   0333 12s00r00           1846 	lcall	__gptrget
   0336 08                 1847 	inc	r0
   0337 F6                 1848 	mov	@r0,a
   0338 A3                 1849 	inc	dptr
   0339 12s00r00           1850 	lcall	__gptrget
   033C 08                 1851 	inc	r0
   033D F6                 1852 	mov	@r0,a
   033E D0 07              1853 	pop	ar7
   0340 80 A1              1854 	sjmp	00101$
   0342                    1855 00108$:
                           1856 ;	../../../contiki-sensinode//cpu/cc253x/usb/usb-arch.c:352: for(e = 0; e < USB_MAX_ENDPOINTS; e++) {
   0342 0F                 1857 	inc	r7
   0343 02s02r8C           1858 	ljmp	00106$
   0346                    1859 00109$:
                           1860 ;	../../../contiki-sensinode//cpu/cc253x/usb/usb-arch.c:364: usb_arch_setup_control_endpoint(0);
   0346 75 82 00           1861 	mov	dpl,#0x00
   0349 78r8D              1862 	mov	r0,#_usb_arch_setup_control_endpoint
   034B 79s0A              1863 	mov	r1,#(_usb_arch_setup_control_endpoint >> 8)
   034D 7As00              1864 	mov	r2,#(_usb_arch_setup_control_endpoint >> 16)
   034F 12s00r00           1865 	lcall	__sdcc_banked_call
   0352 15 81              1866 	dec	sp
   0354 15 81              1867 	dec	sp
   0356 15 81              1868 	dec	sp
   0358 02s00r00           1869 	ljmp	__sdcc_banked_ret
                           1870 ;------------------------------------------------------------
                           1871 ;Allocation info for local variables in function 'usb_arch_setup'
                           1872 ;------------------------------------------------------------
                           1873 ;i                         Allocated to registers r7 
                           1874 ;------------------------------------------------------------
                           1875 ;	../../../contiki-sensinode//cpu/cc253x/usb/usb-arch.c:369: usb_arch_setup(void)
                           1876 ;	-----------------------------------------
                           1877 ;	 function usb_arch_setup
                           1878 ;	-----------------------------------------
   035B                    1879 _usb_arch_setup:
                           1880 ;	../../../contiki-sensinode//cpu/cc253x/usb/usb-arch.c:374: USBCTRL = USBCTRL_USB_EN | USBCTRL_PLL_EN;
   035B 90 62 0F           1881 	mov	dptr,#_USBCTRL
   035E 74 03              1882 	mov	a,#0x03
   0360 F0                 1883 	movx	@dptr,a
                           1884 ;	../../../contiki-sensinode//cpu/cc253x/usb/usb-arch.c:377: while(!(USBCTRL & USBCTRL_PLL_LOCKED));
   0361                    1885 00101$:
   0361 90 62 0F           1886 	mov	dptr,#_USBCTRL
   0364 E0                 1887 	movx	a,@dptr
   0365 FF                 1888 	mov	r7,a
   0366 30 E7 F8           1889 	jnb	acc.7,00101$
                           1890 ;	../../../contiki-sensinode//cpu/cc253x/usb/usb-arch.c:380: PORT_SET(USB_PULLUP_PORT, USB_PULLUP_PIN);
   0369 D2 90              1891 	setb	_P1_0
                           1892 ;	../../../contiki-sensinode//cpu/cc253x/usb/usb-arch.c:381: PORT_DIR_OUTPUT(USB_PULLUP_PORT, USB_PULLUP_PIN);
   036B 43 FE 01           1893 	orl	_P1DIR,#0x01
                           1894 ;	../../../contiki-sensinode//cpu/cc253x/usb/usb-arch.c:383: for(i = 0; i < USB_MAX_ENDPOINTS; i++) {
   036E 7F 00              1895 	mov	r7,#0x00
   0370                    1896 00113$:
   0370 BF 04 00           1897 	cjne	r7,#0x04,00129$
   0373                    1898 00129$:
   0373 50 26              1899 	jnc	00116$
                           1900 ;	../../../contiki-sensinode//cpu/cc253x/usb/usb-arch.c:384: usb_endpoints[i].flags = 0;
   0375 EF                 1901 	mov	a,r7
   0376 75 F0 0D           1902 	mov	b,#0x0D
   0379 A4                 1903 	mul	ab
   037A 24r01              1904 	add	a,#_usb_endpoints
   037C FD                 1905 	mov	r5,a
   037D E4                 1906 	clr	a
   037E 34s00              1907 	addc	a,#(_usb_endpoints >> 8)
   0380 FE                 1908 	mov	r6,a
   0381 8D 82              1909 	mov	dpl,r5
   0383 8E 83              1910 	mov	dph,r6
   0385 A3                 1911 	inc	dptr
   0386 A3                 1912 	inc	dptr
   0387 E4                 1913 	clr	a
   0388 F0                 1914 	movx	@dptr,a
                           1915 ;	../../../contiki-sensinode//cpu/cc253x/usb/usb-arch.c:385: usb_endpoints[i].event_process = 0;
   0389 74 06              1916 	mov	a,#0x06
   038B 2D                 1917 	add	a,r5
   038C F5 82              1918 	mov	dpl,a
   038E E4                 1919 	clr	a
   038F 3E                 1920 	addc	a,r6
   0390 F5 83              1921 	mov	dph,a
   0392 E4                 1922 	clr	a
   0393 F0                 1923 	movx	@dptr,a
   0394 A3                 1924 	inc	dptr
   0395 F0                 1925 	movx	@dptr,a
   0396 A3                 1926 	inc	dptr
   0397 F0                 1927 	movx	@dptr,a
                           1928 ;	../../../contiki-sensinode//cpu/cc253x/usb/usb-arch.c:383: for(i = 0; i < USB_MAX_ENDPOINTS; i++) {
   0398 0F                 1929 	inc	r7
   0399 80 D5              1930 	sjmp	00113$
   039B                    1931 00116$:
                           1932 ;	../../../contiki-sensinode//cpu/cc253x/usb/usb-arch.c:388: usb_arch_reset();
   039B 78r84              1933 	mov	r0,#_usb_arch_reset
   039D 79s02              1934 	mov	r1,#(_usb_arch_reset >> 8)
   039F 7As00              1935 	mov	r2,#(_usb_arch_reset >> 16)
   03A1 12s00r00           1936 	lcall	__sdcc_banked_call
                           1937 ;	../../../contiki-sensinode//cpu/cc253x/usb/usb-arch.c:392: USBIIE = 0;
   03A4 90 62 07           1938 	mov	dptr,#_USBIIE
                           1939 ;	../../../contiki-sensinode//cpu/cc253x/usb/usb-arch.c:393: USBOIE = 0;
   03A7 E4                 1940 	clr	a
   03A8 F0                 1941 	movx	@dptr,a
   03A9 90 62 09           1942 	mov	dptr,#_USBOIE
   03AC F0                 1943 	movx	@dptr,a
                           1944 ;	../../../contiki-sensinode//cpu/cc253x/usb/usb-arch.c:395: cc253x_p2_register_handler(&usb_irq_handler);
   03AD 90s00r00           1945 	mov	dptr,#_usb_irq_handler
   03B0 75 F0 00           1946 	mov	b,#0x00
   03B3 78r00              1947 	mov	r0,#_cc253x_p2_register_handler
   03B5 79s00              1948 	mov	r1,#(_cc253x_p2_register_handler >> 8)
   03B7 7As00              1949 	mov	r2,#(_cc253x_p2_register_handler >> 16)
   03B9 12s00r00           1950 	lcall	__sdcc_banked_call
                           1951 ;	../../../contiki-sensinode//cpu/cc253x/usb/usb-arch.c:397: cc253x_p2_irq_force_enable();
   03BC 43 9A 02           1952 	orl	_IEN2,#0x02
   03BF 02s00r00           1953 	ljmp	__sdcc_banked_ret
                           1954 ;------------------------------------------------------------
                           1955 ;Allocation info for local variables in function 'usb_submit_recv_buffer'
                           1956 ;------------------------------------------------------------
                           1957 ;buffer                    Allocated to stack - sp -13
                           1958 ;addr                      Allocated to stack - sp -7
                           1959 ;tailp                     Allocated to stack - sp -6
                           1960 ;flag                      Allocated to stack - sp -3
                           1961 ;ep                        Allocated to registers r5 r4 r6 
                           1962 ;sloc0                     Allocated to stack - sp -2
                           1963 ;------------------------------------------------------------
                           1964 ;	../../../contiki-sensinode//cpu/cc253x/usb/usb-arch.c:401: usb_submit_recv_buffer(uint8_t addr, USBBuffer * buffer)
                           1965 ;	-----------------------------------------
                           1966 ;	 function usb_submit_recv_buffer
                           1967 ;	-----------------------------------------
   03C2                    1968 _usb_submit_recv_buffer:
   03C2 C0 82              1969 	push	dpl
   03C4 E5 81              1970 	mov	a,sp
   03C6 24 07              1971 	add	a,#0x07
                           1972 ;	../../../contiki-sensinode//cpu/cc253x/usb/usb-arch.c:405: USBEndpoint *ep = EP_STRUCT(addr);
   03C8 F5 81              1973 	mov	sp,a
   03CA 24 F9              1974 	add	a,#0xf9
   03CC F8                 1975 	mov	r0,a
   03CD 74 7F              1976 	mov	a,#0x7F
   03CF 56                 1977 	anl	a,@r0
   03D0 75 F0 0D           1978 	mov	b,#0x0D
   03D3 A4                 1979 	mul	ab
   03D4 24r01              1980 	add	a,#_usb_endpoints
   03D6 FD                 1981 	mov	r5,a
   03D7 E4                 1982 	clr	a
   03D8 34s00              1983 	addc	a,#(_usb_endpoints >> 8)
   03DA FC                 1984 	mov	r4,a
   03DB 7E 00              1985 	mov	r6,#0x00
                           1986 ;	../../../contiki-sensinode//cpu/cc253x/usb/usb-arch.c:407: if(!(ep->flags & USB_EP_FLAGS_ENABLED)) {
   03DD 74 02              1987 	mov	a,#0x02
   03DF 2D                 1988 	add	a,r5
   03E0 FA                 1989 	mov	r2,a
   03E1 E4                 1990 	clr	a
   03E2 3C                 1991 	addc	a,r4
   03E3 FB                 1992 	mov	r3,a
   03E4 8E 07              1993 	mov	ar7,r6
   03E6 8A 82              1994 	mov	dpl,r2
   03E8 8B 83              1995 	mov	dph,r3
   03EA 8F F0              1996 	mov	b,r7
   03EC 12s00r00           1997 	lcall	__gptrget
   03EF FA                 1998 	mov	r2,a
   03F0 20 E2 03           1999 	jb	acc.2,00102$
                           2000 ;	../../../contiki-sensinode//cpu/cc253x/usb/usb-arch.c:408: return;
   03F3 02s05rED           2001 	ljmp	00127$
   03F6                    2002 00102$:
                           2003 ;	../../../contiki-sensinode//cpu/cc253x/usb/usb-arch.c:411: if(buffer->data == NULL && EP_HW_NUM(addr) == 0) {
   03F6 C0 05              2004 	push	ar5
   03F8 C0 04              2005 	push	ar4
   03FA C0 06              2006 	push	ar6
   03FC E5 81              2007 	mov	a,sp
   03FE 24 F0              2008 	add	a,#0xf0
   0400 F8                 2009 	mov	r0,a
   0401 86 02              2010 	mov	ar2,@r0
   0403 08                 2011 	inc	r0
   0404 86 03              2012 	mov	ar3,@r0
   0406 08                 2013 	inc	r0
   0407 86 07              2014 	mov	ar7,@r0
   0409 74 03              2015 	mov	a,#0x03
   040B 2A                 2016 	add	a,r2
   040C FC                 2017 	mov	r4,a
   040D E4                 2018 	clr	a
   040E 3B                 2019 	addc	a,r3
   040F FD                 2020 	mov	r5,a
   0410 8F 06              2021 	mov	ar6,r7
   0412 8C 82              2022 	mov	dpl,r4
   0414 8D 83              2023 	mov	dph,r5
   0416 8E F0              2024 	mov	b,r6
   0418 12s00r00           2025 	lcall	__gptrget
   041B FC                 2026 	mov	r4,a
   041C A3                 2027 	inc	dptr
   041D 12s00r00           2028 	lcall	__gptrget
   0420 FD                 2029 	mov	r5,a
   0421 A3                 2030 	inc	dptr
   0422 12s00r00           2031 	lcall	__gptrget
   0425 EC                 2032 	mov	a,r4
   0426 4D                 2033 	orl	a,r5
   0427 D0 06              2034 	pop	ar6
   0429 D0 04              2035 	pop	ar4
   042B D0 05              2036 	pop	ar5
   042D 70 4E              2037 	jnz	00108$
   042F E5 81              2038 	mov	a,sp
   0431 24 F9              2039 	add	a,#0xf9
   0433 F8                 2040 	mov	r0,a
   0434 E6                 2041 	mov	a,@r0
   0435 54 7F              2042 	anl	a,#0x7F
   0437 70 44              2043 	jnz	00108$
                           2044 ;	../../../contiki-sensinode//cpu/cc253x/usb/usb-arch.c:416: if(buffer->flags & USB_BUFFER_NOTIFY) {
   0439 C0 05              2045 	push	ar5
   043B C0 04              2046 	push	ar4
   043D C0 06              2047 	push	ar6
   043F 74 08              2048 	mov	a,#0x08
   0441 2A                 2049 	add	a,r2
   0442 FC                 2050 	mov	r4,a
   0443 E4                 2051 	clr	a
   0444 3B                 2052 	addc	a,r3
   0445 FD                 2053 	mov	r5,a
   0446 8F 06              2054 	mov	ar6,r7
   0448 8C 82              2055 	mov	dpl,r4
   044A 8D 83              2056 	mov	dph,r5
   044C 8E F0              2057 	mov	b,r6
   044E 12s00r00           2058 	lcall	__gptrget
   0451 FC                 2059 	mov	r4,a
   0452 A3                 2060 	inc	dptr
   0453 12s00r00           2061 	lcall	__gptrget
   0456 EC                 2062 	mov	a,r4
   0457 D0 06              2063 	pop	ar6
   0459 D0 04              2064 	pop	ar4
   045B D0 05              2065 	pop	ar5
   045D 30 E3 1A           2066 	jnb	acc.3,00104$
                           2067 ;	../../../contiki-sensinode//cpu/cc253x/usb/usb-arch.c:417: notify_ep_process(ep, USB_EP_EVENT_NOTIFICATION);
   0460 74 01              2068 	mov	a,#0x01
   0462 C0 E0              2069 	push	acc
   0464 E4                 2070 	clr	a
   0465 C0 E0              2071 	push	acc
   0467 8D 82              2072 	mov	dpl,r5
   0469 8C 83              2073 	mov	dph,r4
   046B 8E F0              2074 	mov	b,r6
   046D 78r37              2075 	mov	r0,#_notify_ep_process
   046F 79s00              2076 	mov	r1,#(_notify_ep_process >> 8)
   0471 7As00              2077 	mov	r2,#(_notify_ep_process >> 16)
   0473 12s00r00           2078 	lcall	__sdcc_banked_call
   0476 15 81              2079 	dec	sp
   0478 15 81              2080 	dec	sp
   047A                    2081 00104$:
                           2082 ;	../../../contiki-sensinode//cpu/cc253x/usb/usb-arch.c:419: return;
   047A 02s05rED           2083 	ljmp	00127$
                           2084 ;	../../../contiki-sensinode//cpu/cc253x/usb/usb-arch.c:422: usb_irq_disable(flag);
   047D                    2085 00108$:
   047D C0 02              2086 	push	ar2
   047F C0 03              2087 	push	ar3
   0481 C0 07              2088 	push	ar7
   0483 E5 81              2089 	mov	a,sp
   0485 24 FA              2090 	add	a,#0xfa
   0487 F8                 2091 	mov	r0,a
   0488 74 02              2092 	mov	a,#0x02
   048A 55 9A              2093 	anl	a,_IEN2
   048C F6                 2094 	mov	@r0,a
   048D AF 9A              2095 	mov	r7,_IEN2
   048F 53 07 FD           2096 	anl	ar7,#0xFD
   0492 8F 9A              2097 	mov	_IEN2,r7
                           2098 ;	../../../contiki-sensinode//cpu/cc253x/usb/usb-arch.c:424: tailp = &ep->buffer;
   0494 E5 81              2099 	mov	a,sp
   0496 24 F7              2100 	add	a,#0xf7
   0498 F8                 2101 	mov	r0,a
   0499 74 03              2102 	mov	a,#0x03
   049B 2D                 2103 	add	a,r5
   049C F6                 2104 	mov	@r0,a
   049D E4                 2105 	clr	a
   049E 3C                 2106 	addc	a,r4
   049F 08                 2107 	inc	r0
   04A0 F6                 2108 	mov	@r0,a
   04A1 08                 2109 	inc	r0
   04A2 A6 06              2110 	mov	@r0,ar6
                           2111 ;	../../../contiki-sensinode//cpu/cc253x/usb/usb-arch.c:444: usb_irq_enable(flag);
   04A4 D0 07              2112 	pop	ar7
   04A6 D0 03              2113 	pop	ar3
   04A8 D0 02              2114 	pop	ar2
                           2115 ;	../../../contiki-sensinode//cpu/cc253x/usb/usb-arch.c:425: while(*tailp) {
   04AA                    2116 00111$:
   04AA E5 81              2117 	mov	a,sp
   04AC 24 FA              2118 	add	a,#0xfa
   04AE F8                 2119 	mov	r0,a
   04AF 86 82              2120 	mov	dpl,@r0
   04B1 08                 2121 	inc	r0
   04B2 86 83              2122 	mov	dph,@r0
   04B4 08                 2123 	inc	r0
   04B5 86 F0              2124 	mov	b,@r0
   04B7 A9 81              2125 	mov	r1,sp
   04B9 19                 2126 	dec	r1
   04BA 19                 2127 	dec	r1
   04BB 12s00r00           2128 	lcall	__gptrget
   04BE F7                 2129 	mov	@r1,a
   04BF A3                 2130 	inc	dptr
   04C0 12s00r00           2131 	lcall	__gptrget
   04C3 09                 2132 	inc	r1
   04C4 F7                 2133 	mov	@r1,a
   04C5 A3                 2134 	inc	dptr
   04C6 12s00r00           2135 	lcall	__gptrget
   04C9 09                 2136 	inc	r1
   04CA F7                 2137 	mov	@r1,a
   04CB A8 81              2138 	mov	r0,sp
   04CD 18                 2139 	dec	r0
   04CE 18                 2140 	dec	r0
   04CF E6                 2141 	mov	a,@r0
   04D0 08                 2142 	inc	r0
   04D1 46                 2143 	orl	a,@r0
   04D2 60 28              2144 	jz	00113$
                           2145 ;	../../../contiki-sensinode//cpu/cc253x/usb/usb-arch.c:426: tailp = &(*tailp)->next;
   04D4 C0 02              2146 	push	ar2
   04D6 C0 03              2147 	push	ar3
   04D8 C0 07              2148 	push	ar7
   04DA E5 81              2149 	mov	a,sp
   04DC 24 FB              2150 	add	a,#0xfb
   04DE F8                 2151 	mov	r0,a
   04DF 86 02              2152 	mov	ar2,@r0
   04E1 08                 2153 	inc	r0
   04E2 86 03              2154 	mov	ar3,@r0
   04E4 08                 2155 	inc	r0
   04E5 86 07              2156 	mov	ar7,@r0
   04E7 E5 81              2157 	mov	a,sp
   04E9 24 F7              2158 	add	a,#0xf7
   04EB F8                 2159 	mov	r0,a
   04EC A6 02              2160 	mov	@r0,ar2
   04EE 08                 2161 	inc	r0
   04EF A6 03              2162 	mov	@r0,ar3
   04F1 08                 2163 	inc	r0
   04F2 A6 07              2164 	mov	@r0,ar7
   04F4 D0 07              2165 	pop	ar7
   04F6 D0 03              2166 	pop	ar3
   04F8 D0 02              2167 	pop	ar2
   04FA 80 AE              2168 	sjmp	00111$
   04FC                    2169 00113$:
                           2170 ;	../../../contiki-sensinode//cpu/cc253x/usb/usb-arch.c:428: *tailp = buffer;
   04FC E5 81              2171 	mov	a,sp
   04FE 24 FA              2172 	add	a,#0xfa
   0500 F8                 2173 	mov	r0,a
   0501 86 82              2174 	mov	dpl,@r0
   0503 08                 2175 	inc	r0
   0504 86 83              2176 	mov	dph,@r0
   0506 08                 2177 	inc	r0
   0507 86 F0              2178 	mov	b,@r0
   0509 EA                 2179 	mov	a,r2
   050A 12s00r00           2180 	lcall	__gptrput
   050D A3                 2181 	inc	dptr
   050E EB                 2182 	mov	a,r3
   050F 12s00r00           2183 	lcall	__gptrput
   0512 A3                 2184 	inc	dptr
   0513 EF                 2185 	mov	a,r7
   0514 12s00r00           2186 	lcall	__gptrput
                           2187 ;	../../../contiki-sensinode//cpu/cc253x/usb/usb-arch.c:429: while(buffer) {
   0517                    2188 00114$:
   0517 E5 81              2189 	mov	a,sp
   0519 24 F3              2190 	add	a,#0xf3
   051B F8                 2191 	mov	r0,a
   051C E6                 2192 	mov	a,@r0
   051D 08                 2193 	inc	r0
   051E 46                 2194 	orl	a,@r0
   051F 60 7C              2195 	jz	00116$
                           2196 ;	../../../contiki-sensinode//cpu/cc253x/usb/usb-arch.c:430: buffer->flags |= USB_BUFFER_SUBMITTED;
   0521 C0 05              2197 	push	ar5
   0523 C0 04              2198 	push	ar4
   0525 C0 06              2199 	push	ar6
   0527 E5 81              2200 	mov	a,sp
   0529 24 F0              2201 	add	a,#0xf0
   052B F8                 2202 	mov	r0,a
   052C 86 02              2203 	mov	ar2,@r0
   052E 08                 2204 	inc	r0
   052F 86 03              2205 	mov	ar3,@r0
   0531 08                 2206 	inc	r0
   0532 86 07              2207 	mov	ar7,@r0
   0534 E5 81              2208 	mov	a,sp
   0536 24 FB              2209 	add	a,#0xfb
   0538 F8                 2210 	mov	r0,a
   0539 74 08              2211 	mov	a,#0x08
   053B 2A                 2212 	add	a,r2
   053C F6                 2213 	mov	@r0,a
   053D E4                 2214 	clr	a
   053E 3B                 2215 	addc	a,r3
   053F 08                 2216 	inc	r0
   0540 F6                 2217 	mov	@r0,a
   0541 08                 2218 	inc	r0
   0542 A6 07              2219 	mov	@r0,ar7
   0544 E5 81              2220 	mov	a,sp
   0546 24 FB              2221 	add	a,#0xfb
   0548 F8                 2222 	mov	r0,a
   0549 86 82              2223 	mov	dpl,@r0
   054B 08                 2224 	inc	r0
   054C 86 83              2225 	mov	dph,@r0
   054E 08                 2226 	inc	r0
   054F 86 F0              2227 	mov	b,@r0
   0551 12s00r00           2228 	lcall	__gptrget
   0554 FD                 2229 	mov	r5,a
   0555 A3                 2230 	inc	dptr
   0556 12s00r00           2231 	lcall	__gptrget
   0559 FE                 2232 	mov	r6,a
   055A 43 05 01           2233 	orl	ar5,#0x01
   055D E5 81              2234 	mov	a,sp
   055F 24 FB              2235 	add	a,#0xfb
   0561 F8                 2236 	mov	r0,a
   0562 86 82              2237 	mov	dpl,@r0
   0564 08                 2238 	inc	r0
   0565 86 83              2239 	mov	dph,@r0
   0567 08                 2240 	inc	r0
   0568 86 F0              2241 	mov	b,@r0
   056A ED                 2242 	mov	a,r5
   056B 12s00r00           2243 	lcall	__gptrput
   056E A3                 2244 	inc	dptr
   056F EE                 2245 	mov	a,r6
   0570 12s00r00           2246 	lcall	__gptrput
                           2247 ;	../../../contiki-sensinode//cpu/cc253x/usb/usb-arch.c:431: buffer = buffer->next;
   0573 8A 82              2248 	mov	dpl,r2
   0575 8B 83              2249 	mov	dph,r3
   0577 8F F0              2250 	mov	b,r7
   0579 12s00r00           2251 	lcall	__gptrget
   057C FA                 2252 	mov	r2,a
   057D A3                 2253 	inc	dptr
   057E 12s00r00           2254 	lcall	__gptrget
   0581 FB                 2255 	mov	r3,a
   0582 A3                 2256 	inc	dptr
   0583 12s00r00           2257 	lcall	__gptrget
   0586 FF                 2258 	mov	r7,a
   0587 E5 81              2259 	mov	a,sp
   0589 24 F0              2260 	add	a,#0xf0
   058B F8                 2261 	mov	r0,a
   058C A6 02              2262 	mov	@r0,ar2
   058E 08                 2263 	inc	r0
   058F A6 03              2264 	mov	@r0,ar3
   0591 08                 2265 	inc	r0
   0592 A6 07              2266 	mov	@r0,ar7
   0594 D0 06              2267 	pop	ar6
   0596 D0 04              2268 	pop	ar4
   0598 D0 05              2269 	pop	ar5
   059A 02s05r17           2270 	ljmp	00114$
   059D                    2271 00116$:
                           2272 ;	../../../contiki-sensinode//cpu/cc253x/usb/usb-arch.c:434: USBINDEX = EP_HW_NUM(addr);
   059D E5 81              2273 	mov	a,sp
   059F 24 F9              2274 	add	a,#0xf9
   05A1 F8                 2275 	mov	r0,a
   05A2 90 62 0E           2276 	mov	dptr,#_USBINDEX
   05A5 74 7F              2277 	mov	a,#0x7F
   05A7 56                 2278 	anl	a,@r0
   05A8 F0                 2279 	movx	@dptr,a
                           2280 ;	../../../contiki-sensinode//cpu/cc253x/usb/usb-arch.c:435: if(!EP_HW_NUM(ep->addr)) {
   05A9 0D                 2281 	inc	r5
   05AA BD 00 01           2282 	cjne	r5,#0x00,00158$
   05AD 0C                 2283 	inc	r4
   05AE                    2284 00158$:
   05AE 8D 82              2285 	mov	dpl,r5
   05B0 8C 83              2286 	mov	dph,r4
   05B2 8E F0              2287 	mov	b,r6
   05B4 12s00r00           2288 	lcall	__gptrget
   05B7 FF                 2289 	mov	r7,a
   05B8 54 7F              2290 	anl	a,#0x7F
   05BA 70 13              2291 	jnz	00122$
                           2292 ;	../../../contiki-sensinode//cpu/cc253x/usb/usb-arch.c:436: if(USBCS0 & USBCS0_OUTPKT_RDY) {
   05BC 90 62 11           2293 	mov	dptr,#_USBCS0
   05BF E0                 2294 	movx	a,@dptr
   05C0 FE                 2295 	mov	r6,a
   05C1 30 E0 21           2296 	jnb	acc.0,00124$
                           2297 ;	../../../contiki-sensinode//cpu/cc253x/usb/usb-arch.c:437: usb_arch_ep0_irq();
   05C4 78rDC              2298 	mov	r0,#_usb_arch_ep0_irq
   05C6 79s1A              2299 	mov	r1,#(_usb_arch_ep0_irq >> 8)
   05C8 7As00              2300 	mov	r2,#(_usb_arch_ep0_irq >> 16)
   05CA 12s00r00           2301 	lcall	__sdcc_banked_call
   05CD 80 16              2302 	sjmp	00124$
   05CF                    2303 00122$:
                           2304 ;	../../../contiki-sensinode//cpu/cc253x/usb/usb-arch.c:440: if(USBCSOL & USBCSOL_OUTPKT_RDY) {
   05CF 90 62 14           2305 	mov	dptr,#_USBCSOL
   05D2 E0                 2306 	movx	a,@dptr
   05D3 FE                 2307 	mov	r6,a
   05D4 30 E0 0E           2308 	jnb	acc.0,00124$
                           2309 ;	../../../contiki-sensinode//cpu/cc253x/usb/usb-arch.c:441: usb_arch_epout_irq(EP_HW_NUM(ep->addr));
   05D7 53 07 7F           2310 	anl	ar7,#0x7F
   05DA 8F 82              2311 	mov	dpl,r7
   05DC 78r7D              2312 	mov	r0,#_usb_arch_epout_irq
   05DE 79s20              2313 	mov	r1,#(_usb_arch_epout_irq >> 8)
   05E0 7As00              2314 	mov	r2,#(_usb_arch_epout_irq >> 16)
   05E2 12s00r00           2315 	lcall	__sdcc_banked_call
                           2316 ;	../../../contiki-sensinode//cpu/cc253x/usb/usb-arch.c:444: usb_irq_enable(flag);
   05E5                    2317 00124$:
   05E5 E5 81              2318 	mov	a,sp
   05E7 24 FD              2319 	add	a,#0xfd
   05E9 F8                 2320 	mov	r0,a
   05EA E6                 2321 	mov	a,@r0
   05EB 42 9A              2322 	orl	_IEN2,a
   05ED                    2323 00127$:
   05ED E5 81              2324 	mov	a,sp
   05EF 24 F8              2325 	add	a,#0xF8
   05F1 F5 81              2326 	mov	sp,a
   05F3 02s00r00           2327 	ljmp	__sdcc_banked_ret
                           2328 ;------------------------------------------------------------
                           2329 ;Allocation info for local variables in function 'usb_submit_xmit_buffer'
                           2330 ;------------------------------------------------------------
                           2331 ;buffer                    Allocated to stack - sp -12
                           2332 ;addr                      Allocated to registers r4 
                           2333 ;tailp                     Allocated to registers r2 r3 r7 
                           2334 ;flag                      Allocated to stack - sp -6
                           2335 ;res                       Allocated to registers r7 
                           2336 ;ep                        Allocated to stack - sp -5
                           2337 ;sloc0                     Allocated to stack - sp -2
                           2338 ;------------------------------------------------------------
                           2339 ;	../../../contiki-sensinode//cpu/cc253x/usb/usb-arch.c:448: usb_submit_xmit_buffer(uint8_t addr, USBBuffer * buffer)
                           2340 ;	-----------------------------------------
                           2341 ;	 function usb_submit_xmit_buffer
                           2342 ;	-----------------------------------------
   05F6                    2343 _usb_submit_xmit_buffer:
   05F6 E5 81              2344 	mov	a,sp
   05F8 24 07              2345 	add	a,#0x07
   05FA F5 81              2346 	mov	sp,a
   05FC AC 82              2347 	mov	r4,dpl
                           2348 ;	../../../contiki-sensinode//cpu/cc253x/usb/usb-arch.c:453: USBEndpoint *ep = EP_STRUCT(addr);
   05FE 74 7F              2349 	mov	a,#0x7F
   0600 5C                 2350 	anl	a,r4
   0601 75 F0 0D           2351 	mov	b,#0x0D
   0604 A4                 2352 	mul	ab
   0605 24r01              2353 	add	a,#_usb_endpoints
   0607 FD                 2354 	mov	r5,a
   0608 E4                 2355 	clr	a
   0609 34s00              2356 	addc	a,#(_usb_endpoints >> 8)
   060B FE                 2357 	mov	r6,a
   060C E5 81              2358 	mov	a,sp
   060E 24 FB              2359 	add	a,#0xfb
   0610 F8                 2360 	mov	r0,a
   0611 A6 05              2361 	mov	@r0,ar5
   0613 08                 2362 	inc	r0
   0614 A6 06              2363 	mov	@r0,ar6
   0616 08                 2364 	inc	r0
   0617 76 00              2365 	mov	@r0,#0x00
                           2366 ;	../../../contiki-sensinode//cpu/cc253x/usb/usb-arch.c:455: if(!(ep->flags & USB_EP_FLAGS_ENABLED)) {
   0619 E5 81              2367 	mov	a,sp
   061B 24 FB              2368 	add	a,#0xfb
   061D F8                 2369 	mov	r0,a
   061E 74 02              2370 	mov	a,#0x02
   0620 26                 2371 	add	a,@r0
   0621 FA                 2372 	mov	r2,a
   0622 E4                 2373 	clr	a
   0623 08                 2374 	inc	r0
   0624 36                 2375 	addc	a,@r0
   0625 FB                 2376 	mov	r3,a
   0626 08                 2377 	inc	r0
   0627 86 07              2378 	mov	ar7,@r0
   0629 8A 82              2379 	mov	dpl,r2
   062B 8B 83              2380 	mov	dph,r3
   062D 8F F0              2381 	mov	b,r7
   062F 12s00r00           2382 	lcall	__gptrget
   0632 FA                 2383 	mov	r2,a
   0633 20 E2 03           2384 	jb	acc.2,00103$
                           2385 ;	../../../contiki-sensinode//cpu/cc253x/usb/usb-arch.c:456: return;
   0636 02s07rEF           2386 	ljmp	00128$
                           2387 ;	../../../contiki-sensinode//cpu/cc253x/usb/usb-arch.c:459: usb_irq_disable(flag);
   0639                    2388 00103$:
   0639 E5 81              2389 	mov	a,sp
   063B 24 FA              2390 	add	a,#0xfa
   063D F8                 2391 	mov	r0,a
   063E 74 02              2392 	mov	a,#0x02
   0640 55 9A              2393 	anl	a,_IEN2
   0642 F6                 2394 	mov	@r0,a
   0643 AB 9A              2395 	mov	r3,_IEN2
   0645 53 03 FD           2396 	anl	ar3,#0xFD
   0648 8B 9A              2397 	mov	_IEN2,r3
                           2398 ;	../../../contiki-sensinode//cpu/cc253x/usb/usb-arch.c:462: if(EP_HW_NUM(addr) == 0) {
   064A EC                 2399 	mov	a,r4
   064B 54 7F              2400 	anl	a,#0x7F
   064D 70 6E              2401 	jnz	00113$
                           2402 ;	../../../contiki-sensinode//cpu/cc253x/usb/usb-arch.c:463: if(buffer->data == NULL) {
   064F E5 81              2403 	mov	a,sp
   0651 24 F4              2404 	add	a,#0xf4
   0653 F8                 2405 	mov	r0,a
   0654 86 02              2406 	mov	ar2,@r0
   0656 08                 2407 	inc	r0
   0657 86 03              2408 	mov	ar3,@r0
   0659 08                 2409 	inc	r0
   065A 86 07              2410 	mov	ar7,@r0
   065C 74 03              2411 	mov	a,#0x03
   065E 2A                 2412 	add	a,r2
   065F FA                 2413 	mov	r2,a
   0660 E4                 2414 	clr	a
   0661 3B                 2415 	addc	a,r3
   0662 FB                 2416 	mov	r3,a
   0663 8A 82              2417 	mov	dpl,r2
   0665 8B 83              2418 	mov	dph,r3
   0667 8F F0              2419 	mov	b,r7
   0669 12s00r00           2420 	lcall	__gptrget
   066C FA                 2421 	mov	r2,a
   066D A3                 2422 	inc	dptr
   066E 12s00r00           2423 	lcall	__gptrget
   0671 FB                 2424 	mov	r3,a
   0672 A3                 2425 	inc	dptr
   0673 12s00r00           2426 	lcall	__gptrget
   0676 FF                 2427 	mov	r7,a
   0677 EA                 2428 	mov	a,r2
   0678 4B                 2429 	orl	a,r3
   0679 70 37              2430 	jnz	00110$
                           2431 ;	../../../contiki-sensinode//cpu/cc253x/usb/usb-arch.c:467: USBINDEX = 0;
   067B 90 62 0E           2432 	mov	dptr,#_USBINDEX
   067E E4                 2433 	clr	a
   067F F0                 2434 	movx	@dptr,a
                           2435 ;	../../../contiki-sensinode//cpu/cc253x/usb/usb-arch.c:468: USBCS0 = USBCS0_CLR_OUTPKT_RDY | USBCS0_DATA_END;
   0680 90 62 11           2436 	mov	dptr,#_USBCS0
   0683 74 48              2437 	mov	a,#0x48
   0685 F0                 2438 	movx	@dptr,a
                           2439 ;	../../../contiki-sensinode//cpu/cc253x/usb/usb-arch.c:469: notify_ep_process(ep, USB_EP_EVENT_NOTIFICATION);
   0686 74 01              2440 	mov	a,#0x01
   0688 C0 E0              2441 	push	acc
   068A E4                 2442 	clr	a
   068B C0 E0              2443 	push	acc
   068D E5 81              2444 	mov	a,sp
   068F 24 F9              2445 	add	a,#0xf9
   0691 F8                 2446 	mov	r0,a
   0692 86 82              2447 	mov	dpl,@r0
   0694 08                 2448 	inc	r0
   0695 86 83              2449 	mov	dph,@r0
   0697 08                 2450 	inc	r0
   0698 86 F0              2451 	mov	b,@r0
   069A 78r37              2452 	mov	r0,#_notify_ep_process
   069C 79s00              2453 	mov	r1,#(_notify_ep_process >> 8)
   069E 7As00              2454 	mov	r2,#(_notify_ep_process >> 16)
   06A0 12s00r00           2455 	lcall	__sdcc_banked_call
   06A3 15 81              2456 	dec	sp
   06A5 15 81              2457 	dec	sp
                           2458 ;	../../../contiki-sensinode//cpu/cc253x/usb/usb-arch.c:470: usb_irq_enable(flag);
   06A7 E5 81              2459 	mov	a,sp
   06A9 24 FA              2460 	add	a,#0xfa
   06AB F8                 2461 	mov	r0,a
   06AC E6                 2462 	mov	a,@r0
   06AD 42 9A              2463 	orl	_IEN2,a
                           2464 ;	../../../contiki-sensinode//cpu/cc253x/usb/usb-arch.c:471: return;
   06AF 02s07rEF           2465 	ljmp	00128$
   06B2                    2466 00110$:
                           2467 ;	../../../contiki-sensinode//cpu/cc253x/usb/usb-arch.c:474: USBINDEX = 0;
   06B2 90 62 0E           2468 	mov	dptr,#_USBINDEX
   06B5 E4                 2469 	clr	a
   06B6 F0                 2470 	movx	@dptr,a
                           2471 ;	../../../contiki-sensinode//cpu/cc253x/usb/usb-arch.c:475: USBCS0 = USBCS0_CLR_OUTPKT_RDY;
   06B7 90 62 11           2472 	mov	dptr,#_USBCS0
   06BA 74 40              2473 	mov	a,#0x40
   06BC F0                 2474 	movx	@dptr,a
   06BD                    2475 00113$:
                           2476 ;	../../../contiki-sensinode//cpu/cc253x/usb/usb-arch.c:479: tailp = &ep->buffer;
   06BD E5 81              2477 	mov	a,sp
   06BF 24 FB              2478 	add	a,#0xfb
   06C1 F8                 2479 	mov	r0,a
   06C2 74 03              2480 	mov	a,#0x03
   06C4 26                 2481 	add	a,@r0
   06C5 FA                 2482 	mov	r2,a
   06C6 E4                 2483 	clr	a
   06C7 08                 2484 	inc	r0
   06C8 36                 2485 	addc	a,@r0
   06C9 FB                 2486 	mov	r3,a
   06CA 08                 2487 	inc	r0
   06CB 86 07              2488 	mov	ar7,@r0
                           2489 ;	../../../contiki-sensinode//cpu/cc253x/usb/usb-arch.c:480: while(*tailp) {
   06CD                    2490 00114$:
   06CD 8A 82              2491 	mov	dpl,r2
   06CF 8B 83              2492 	mov	dph,r3
   06D1 8F F0              2493 	mov	b,r7
   06D3 12s00r00           2494 	lcall	__gptrget
   06D6 FC                 2495 	mov	r4,a
   06D7 A3                 2496 	inc	dptr
   06D8 12s00r00           2497 	lcall	__gptrget
   06DB FD                 2498 	mov	r5,a
   06DC A3                 2499 	inc	dptr
   06DD 12s00r00           2500 	lcall	__gptrget
   06E0 FE                 2501 	mov	r6,a
   06E1 EC                 2502 	mov	a,r4
   06E2 4D                 2503 	orl	a,r5
   06E3 60 08              2504 	jz	00116$
                           2505 ;	../../../contiki-sensinode//cpu/cc253x/usb/usb-arch.c:481: tailp = &(*tailp)->next;
   06E5 8C 02              2506 	mov	ar2,r4
   06E7 8D 03              2507 	mov	ar3,r5
   06E9 8E 07              2508 	mov	ar7,r6
   06EB 80 E0              2509 	sjmp	00114$
   06ED                    2510 00116$:
                           2511 ;	../../../contiki-sensinode//cpu/cc253x/usb/usb-arch.c:483: *tailp = buffer;
   06ED 8A 82              2512 	mov	dpl,r2
   06EF 8B 83              2513 	mov	dph,r3
   06F1 8F F0              2514 	mov	b,r7
   06F3 E5 81              2515 	mov	a,sp
   06F5 24 F4              2516 	add	a,#0xf4
   06F7 F8                 2517 	mov	r0,a
   06F8 E6                 2518 	mov	a,@r0
   06F9 12s00r00           2519 	lcall	__gptrput
   06FC A3                 2520 	inc	dptr
   06FD 08                 2521 	inc	r0
   06FE E6                 2522 	mov	a,@r0
   06FF 12s00r00           2523 	lcall	__gptrput
   0702 A3                 2524 	inc	dptr
   0703 08                 2525 	inc	r0
   0704 E6                 2526 	mov	a,@r0
   0705 12s00r00           2527 	lcall	__gptrput
                           2528 ;	../../../contiki-sensinode//cpu/cc253x/usb/usb-arch.c:484: while(buffer) {
   0708                    2529 00117$:
   0708 E5 81              2530 	mov	a,sp
   070A 24 F4              2531 	add	a,#0xf4
   070C F8                 2532 	mov	r0,a
   070D E6                 2533 	mov	a,@r0
   070E 08                 2534 	inc	r0
   070F 46                 2535 	orl	a,@r0
   0710 60 6C              2536 	jz	00119$
                           2537 ;	../../../contiki-sensinode//cpu/cc253x/usb/usb-arch.c:485: buffer->flags |= USB_BUFFER_SUBMITTED | USB_BUFFER_IN;
   0712 E5 81              2538 	mov	a,sp
   0714 24 F4              2539 	add	a,#0xf4
   0716 F8                 2540 	mov	r0,a
   0717 86 05              2541 	mov	ar5,@r0
   0719 08                 2542 	inc	r0
   071A 86 06              2543 	mov	ar6,@r0
   071C 08                 2544 	inc	r0
   071D 86 07              2545 	mov	ar7,@r0
   071F A8 81              2546 	mov	r0,sp
   0721 18                 2547 	dec	r0
   0722 18                 2548 	dec	r0
   0723 74 08              2549 	mov	a,#0x08
   0725 2D                 2550 	add	a,r5
   0726 F6                 2551 	mov	@r0,a
   0727 E4                 2552 	clr	a
   0728 3E                 2553 	addc	a,r6
   0729 08                 2554 	inc	r0
   072A F6                 2555 	mov	@r0,a
   072B 08                 2556 	inc	r0
   072C A6 07              2557 	mov	@r0,ar7
   072E A8 81              2558 	mov	r0,sp
   0730 18                 2559 	dec	r0
   0731 18                 2560 	dec	r0
   0732 86 82              2561 	mov	dpl,@r0
   0734 08                 2562 	inc	r0
   0735 86 83              2563 	mov	dph,@r0
   0737 08                 2564 	inc	r0
   0738 86 F0              2565 	mov	b,@r0
   073A 12s00r00           2566 	lcall	__gptrget
   073D FB                 2567 	mov	r3,a
   073E A3                 2568 	inc	dptr
   073F 12s00r00           2569 	lcall	__gptrget
   0742 FC                 2570 	mov	r4,a
   0743 43 03 41           2571 	orl	ar3,#0x41
   0746 A8 81              2572 	mov	r0,sp
   0748 18                 2573 	dec	r0
   0749 18                 2574 	dec	r0
   074A 86 82              2575 	mov	dpl,@r0
   074C 08                 2576 	inc	r0
   074D 86 83              2577 	mov	dph,@r0
   074F 08                 2578 	inc	r0
   0750 86 F0              2579 	mov	b,@r0
   0752 EB                 2580 	mov	a,r3
   0753 12s00r00           2581 	lcall	__gptrput
   0756 A3                 2582 	inc	dptr
   0757 EC                 2583 	mov	a,r4
   0758 12s00r00           2584 	lcall	__gptrput
                           2585 ;	../../../contiki-sensinode//cpu/cc253x/usb/usb-arch.c:486: buffer = buffer->next;
   075B 8D 82              2586 	mov	dpl,r5
   075D 8E 83              2587 	mov	dph,r6
   075F 8F F0              2588 	mov	b,r7
   0761 12s00r00           2589 	lcall	__gptrget
   0764 FD                 2590 	mov	r5,a
   0765 A3                 2591 	inc	dptr
   0766 12s00r00           2592 	lcall	__gptrget
   0769 FE                 2593 	mov	r6,a
   076A A3                 2594 	inc	dptr
   076B 12s00r00           2595 	lcall	__gptrget
   076E FF                 2596 	mov	r7,a
   076F E5 81              2597 	mov	a,sp
   0771 24 F4              2598 	add	a,#0xf4
   0773 F8                 2599 	mov	r0,a
   0774 A6 05              2600 	mov	@r0,ar5
   0776 08                 2601 	inc	r0
   0777 A6 06              2602 	mov	@r0,ar6
   0779 08                 2603 	inc	r0
   077A A6 07              2604 	mov	@r0,ar7
   077C 80 8A              2605 	sjmp	00117$
   077E                    2606 00119$:
                           2607 ;	../../../contiki-sensinode//cpu/cc253x/usb/usb-arch.c:489: USBINDEX = EP_HW_NUM(ep->addr);
   077E E5 81              2608 	mov	a,sp
   0780 24 FB              2609 	add	a,#0xfb
   0782 F8                 2610 	mov	r0,a
   0783 74 01              2611 	mov	a,#0x01
   0785 26                 2612 	add	a,@r0
   0786 FD                 2613 	mov	r5,a
   0787 E4                 2614 	clr	a
   0788 08                 2615 	inc	r0
   0789 36                 2616 	addc	a,@r0
   078A FE                 2617 	mov	r6,a
   078B 08                 2618 	inc	r0
   078C 86 07              2619 	mov	ar7,@r0
   078E 8D 82              2620 	mov	dpl,r5
   0790 8E 83              2621 	mov	dph,r6
   0792 8F F0              2622 	mov	b,r7
   0794 12s00r00           2623 	lcall	__gptrget
   0797 FF                 2624 	mov	r7,a
   0798 74 7F              2625 	mov	a,#0x7F
   079A 5F                 2626 	anl	a,r7
   079B FE                 2627 	mov	r6,a
   079C 90 62 0E           2628 	mov	dptr,#_USBINDEX
   079F F0                 2629 	movx	@dptr,a
                           2630 ;	../../../contiki-sensinode//cpu/cc253x/usb/usb-arch.c:490: if(EP_HW_NUM(ep->addr)) {
   07A0 EE                 2631 	mov	a,r6
   07A1 60 12              2632 	jz	00121$
                           2633 ;	../../../contiki-sensinode//cpu/cc253x/usb/usb-arch.c:491: res = ep_tx(EP_HW_NUM(ep->addr));
   07A3 53 07 7F           2634 	anl	ar7,#0x7F
   07A6 8F 82              2635 	mov	dpl,r7
   07A8 78r7C              2636 	mov	r0,#_ep_tx
   07AA 79s1B              2637 	mov	r1,#(_ep_tx >> 8)
   07AC 7As00              2638 	mov	r2,#(_ep_tx >> 16)
   07AE 12s00r00           2639 	lcall	__sdcc_banked_call
   07B1 AF 82              2640 	mov	r7,dpl
   07B3 80 0D              2641 	sjmp	00123$
   07B5                    2642 00121$:
                           2643 ;	../../../contiki-sensinode//cpu/cc253x/usb/usb-arch.c:493: res = ep0_tx();
   07B5 78rF3              2644 	mov	r0,#_ep0_tx
   07B7 79s17              2645 	mov	r1,#(_ep0_tx >> 8)
   07B9 7As00              2646 	mov	r2,#(_ep0_tx >> 16)
   07BB 12s00r00           2647 	lcall	__sdcc_banked_call
   07BE AE 82              2648 	mov	r6,dpl
   07C0 8E 07              2649 	mov	ar7,r6
                           2650 ;	../../../contiki-sensinode//cpu/cc253x/usb/usb-arch.c:496: usb_irq_enable(flag);
   07C2                    2651 00123$:
   07C2 E5 81              2652 	mov	a,sp
   07C4 24 FA              2653 	add	a,#0xfa
   07C6 F8                 2654 	mov	r0,a
   07C7 E6                 2655 	mov	a,@r0
   07C8 42 9A              2656 	orl	_IEN2,a
                           2657 ;	../../../contiki-sensinode//cpu/cc253x/usb/usb-arch.c:498: if(res & USB_WRITE_NOTIFY) {
   07CA EF                 2658 	mov	a,r7
   07CB 30 E1 21           2659 	jnb	acc.1,00128$
                           2660 ;	../../../contiki-sensinode//cpu/cc253x/usb/usb-arch.c:499: notify_ep_process(ep, USB_EP_EVENT_NOTIFICATION);
   07CE 74 01              2661 	mov	a,#0x01
   07D0 C0 E0              2662 	push	acc
   07D2 E4                 2663 	clr	a
   07D3 C0 E0              2664 	push	acc
   07D5 E5 81              2665 	mov	a,sp
   07D7 24 F9              2666 	add	a,#0xf9
   07D9 F8                 2667 	mov	r0,a
   07DA 86 82              2668 	mov	dpl,@r0
   07DC 08                 2669 	inc	r0
   07DD 86 83              2670 	mov	dph,@r0
   07DF 08                 2671 	inc	r0
   07E0 86 F0              2672 	mov	b,@r0
   07E2 78r37              2673 	mov	r0,#_notify_ep_process
   07E4 79s00              2674 	mov	r1,#(_notify_ep_process >> 8)
   07E6 7As00              2675 	mov	r2,#(_notify_ep_process >> 16)
   07E8 12s00r00           2676 	lcall	__sdcc_banked_call
   07EB 15 81              2677 	dec	sp
   07ED 15 81              2678 	dec	sp
   07EF                    2679 00128$:
   07EF E5 81              2680 	mov	a,sp
   07F1 24 F9              2681 	add	a,#0xF9
   07F3 F5 81              2682 	mov	sp,a
   07F5 02s00r00           2683 	ljmp	__sdcc_banked_ret
                           2684 ;------------------------------------------------------------
                           2685 ;Allocation info for local variables in function 'usb_arch_setup_endpoint0'
                           2686 ;------------------------------------------------------------
                           2687 ;	../../../contiki-sensinode//cpu/cc253x/usb/usb-arch.c:506: usb_arch_setup_endpoint0(void)
                           2688 ;	-----------------------------------------
                           2689 ;	 function usb_arch_setup_endpoint0
                           2690 ;	-----------------------------------------
   07F8                    2691 _usb_arch_setup_endpoint0:
                           2692 ;	../../../contiki-sensinode//cpu/cc253x/usb/usb-arch.c:508: USBIIE |= USBIIE_EP0IE;
   07F8 90 62 07           2693 	mov	dptr,#_USBIIE
   07FB E0                 2694 	movx	a,@dptr
   07FC FF                 2695 	mov	r7,a
   07FD 44 01              2696 	orl	a,#0x01
   07FF F0                 2697 	movx	@dptr,a
   0800 02s00r00           2698 	ljmp	__sdcc_banked_ret
                           2699 ;------------------------------------------------------------
                           2700 ;Allocation info for local variables in function 'usb_arch_setup_in_endpoint'
                           2701 ;------------------------------------------------------------
                           2702 ;addr                      Allocated to registers r7 
                           2703 ;ei                        Allocated to registers r6 
                           2704 ;ep                        Allocated to registers r5 r7 r4 
                           2705 ;------------------------------------------------------------
                           2706 ;	../../../contiki-sensinode//cpu/cc253x/usb/usb-arch.c:512: usb_arch_setup_in_endpoint(uint8_t addr)
                           2707 ;	-----------------------------------------
                           2708 ;	 function usb_arch_setup_in_endpoint
                           2709 ;	-----------------------------------------
   0803                    2710 _usb_arch_setup_in_endpoint:
                           2711 ;	../../../contiki-sensinode//cpu/cc253x/usb/usb-arch.c:514: uint8_t ei = EP_HW_NUM(addr);
                           2712 ;	../../../contiki-sensinode//cpu/cc253x/usb/usb-arch.c:515: USBEndpoint *ep = EP_STRUCT(addr);
   0803 E5 82              2713 	mov	a,dpl
   0805 54 7F              2714 	anl	a,#0x7F
   0807 FE                 2715 	mov	r6,a
   0808 75 F0 0D           2716 	mov	b,#0x0D
   080B A4                 2717 	mul	ab
   080C 24r01              2718 	add	a,#_usb_endpoints
   080E FD                 2719 	mov	r5,a
   080F E4                 2720 	clr	a
   0810 34s00              2721 	addc	a,#(_usb_endpoints >> 8)
   0812 FF                 2722 	mov	r7,a
   0813 7C 00              2723 	mov	r4,#0x00
                           2724 ;	../../../contiki-sensinode//cpu/cc253x/usb/usb-arch.c:518: USBIIE |= USBIIE_INEPxIE(ei);
   0815 8E F0              2725 	mov	b,r6
   0817 05 F0              2726 	inc	b
   0819 74 01              2727 	mov	a,#0x01
   081B 80 02              2728 	sjmp	00110$
   081D                    2729 00108$:
   081D 25 E0              2730 	add	a,acc
   081F                    2731 00110$:
   081F D5 F0 FB           2732 	djnz	b,00108$
   0822 FE                 2733 	mov	r6,a
   0823 90 62 07           2734 	mov	dptr,#_USBIIE
   0826 E0                 2735 	movx	a,@dptr
   0827 4E                 2736 	orl	a,r6
   0828 F0                 2737 	movx	@dptr,a
                           2738 ;	../../../contiki-sensinode//cpu/cc253x/usb/usb-arch.c:521: USBMAXI = ep->xfer_size / 8;
   0829 74 0B              2739 	mov	a,#0x0B
   082B 2D                 2740 	add	a,r5
   082C FA                 2741 	mov	r2,a
   082D E4                 2742 	clr	a
   082E 3F                 2743 	addc	a,r7
   082F FB                 2744 	mov	r3,a
   0830 8C 06              2745 	mov	ar6,r4
   0832 8A 82              2746 	mov	dpl,r2
   0834 8B 83              2747 	mov	dph,r3
   0836 8E F0              2748 	mov	b,r6
   0838 12s00r00           2749 	lcall	__gptrget
   083B FA                 2750 	mov	r2,a
   083C A3                 2751 	inc	dptr
   083D 12s00r00           2752 	lcall	__gptrget
   0840 C4                 2753 	swap	a
   0841 23                 2754 	rl	a
   0842 CA                 2755 	xch	a,r2
   0843 C4                 2756 	swap	a
   0844 23                 2757 	rl	a
   0845 54 1F              2758 	anl	a,#0x1F
   0847 6A                 2759 	xrl	a,r2
   0848 CA                 2760 	xch	a,r2
   0849 54 1F              2761 	anl	a,#0x1F
   084B CA                 2762 	xch	a,r2
   084C 6A                 2763 	xrl	a,r2
   084D CA                 2764 	xch	a,r2
   084E FB                 2765 	mov	r3,a
   084F 90 62 10           2766 	mov	dptr,#_USBMAXI
   0852 EA                 2767 	mov	a,r2
   0853 F0                 2768 	movx	@dptr,a
                           2769 ;	../../../contiki-sensinode//cpu/cc253x/usb/usb-arch.c:523: if(IS_ISO_EP(ep)) {
   0854 74 02              2770 	mov	a,#0x02
   0856 2D                 2771 	add	a,r5
   0857 FD                 2772 	mov	r5,a
   0858 E4                 2773 	clr	a
   0859 3F                 2774 	addc	a,r7
   085A FF                 2775 	mov	r7,a
   085B 8D 82              2776 	mov	dpl,r5
   085D 8F 83              2777 	mov	dph,r7
   085F 8C F0              2778 	mov	b,r4
   0861 12s00r00           2779 	lcall	__gptrget
   0864 FD                 2780 	mov	r5,a
   0865 53 05 03           2781 	anl	ar5,#0x03
   0868 BD 02 0A           2782 	cjne	r5,#0x02,00102$
                           2783 ;	../../../contiki-sensinode//cpu/cc253x/usb/usb-arch.c:524: USBCSIH |= USBCSxH_ISO;
   086B 90 62 12           2784 	mov	dptr,#_USBCSIH
   086E E0                 2785 	movx	a,@dptr
   086F FF                 2786 	mov	r7,a
   0870 44 40              2787 	orl	a,#0x40
   0872 F0                 2788 	movx	@dptr,a
   0873 80 08              2789 	sjmp	00104$
   0875                    2790 00102$:
                           2791 ;	../../../contiki-sensinode//cpu/cc253x/usb/usb-arch.c:526: USBCSIH &= ~USBCSxH_ISO;
   0875 90 62 12           2792 	mov	dptr,#_USBCSIH
   0878 E0                 2793 	movx	a,@dptr
   0879 54 BF              2794 	anl	a,#0xBF
   087B FF                 2795 	mov	r7,a
   087C F0                 2796 	movx	@dptr,a
   087D                    2797 00104$:
   087D 02s00r00           2798 	ljmp	__sdcc_banked_ret
                           2799 ;------------------------------------------------------------
                           2800 ;Allocation info for local variables in function 'usb_arch_setup_out_endpoint'
                           2801 ;------------------------------------------------------------
                           2802 ;addr                      Allocated to registers r7 
                           2803 ;ei                        Allocated to registers r6 
                           2804 ;ep                        Allocated to registers r5 r7 r4 
                           2805 ;------------------------------------------------------------
                           2806 ;	../../../contiki-sensinode//cpu/cc253x/usb/usb-arch.c:531: usb_arch_setup_out_endpoint(uint8_t addr)
                           2807 ;	-----------------------------------------
                           2808 ;	 function usb_arch_setup_out_endpoint
                           2809 ;	-----------------------------------------
   0880                    2810 _usb_arch_setup_out_endpoint:
                           2811 ;	../../../contiki-sensinode//cpu/cc253x/usb/usb-arch.c:533: uint8_t ei = EP_HW_NUM(addr);
                           2812 ;	../../../contiki-sensinode//cpu/cc253x/usb/usb-arch.c:534: USBEndpoint *ep = EP_STRUCT(addr);
   0880 E5 82              2813 	mov	a,dpl
   0882 54 7F              2814 	anl	a,#0x7F
   0884 FE                 2815 	mov	r6,a
   0885 75 F0 0D           2816 	mov	b,#0x0D
   0888 A4                 2817 	mul	ab
   0889 24r01              2818 	add	a,#_usb_endpoints
   088B FD                 2819 	mov	r5,a
   088C E4                 2820 	clr	a
   088D 34s00              2821 	addc	a,#(_usb_endpoints >> 8)
   088F FF                 2822 	mov	r7,a
   0890 7C 00              2823 	mov	r4,#0x00
                           2824 ;	../../../contiki-sensinode//cpu/cc253x/usb/usb-arch.c:537: USBOIE |= USBOIE_OUEPxIE(ei);
   0892 8E F0              2825 	mov	b,r6
   0894 05 F0              2826 	inc	b
   0896 74 01              2827 	mov	a,#0x01
   0898 80 02              2828 	sjmp	00110$
   089A                    2829 00108$:
   089A 25 E0              2830 	add	a,acc
   089C                    2831 00110$:
   089C D5 F0 FB           2832 	djnz	b,00108$
   089F FE                 2833 	mov	r6,a
   08A0 90 62 09           2834 	mov	dptr,#_USBOIE
   08A3 E0                 2835 	movx	a,@dptr
   08A4 4E                 2836 	orl	a,r6
   08A5 F0                 2837 	movx	@dptr,a
                           2838 ;	../../../contiki-sensinode//cpu/cc253x/usb/usb-arch.c:540: USBMAXO = ep->xfer_size / 8;
   08A6 74 0B              2839 	mov	a,#0x0B
   08A8 2D                 2840 	add	a,r5
   08A9 FA                 2841 	mov	r2,a
   08AA E4                 2842 	clr	a
   08AB 3F                 2843 	addc	a,r7
   08AC FB                 2844 	mov	r3,a
   08AD 8C 06              2845 	mov	ar6,r4
   08AF 8A 82              2846 	mov	dpl,r2
   08B1 8B 83              2847 	mov	dph,r3
   08B3 8E F0              2848 	mov	b,r6
   08B5 12s00r00           2849 	lcall	__gptrget
   08B8 FA                 2850 	mov	r2,a
   08B9 A3                 2851 	inc	dptr
   08BA 12s00r00           2852 	lcall	__gptrget
   08BD C4                 2853 	swap	a
   08BE 23                 2854 	rl	a
   08BF CA                 2855 	xch	a,r2
   08C0 C4                 2856 	swap	a
   08C1 23                 2857 	rl	a
   08C2 54 1F              2858 	anl	a,#0x1F
   08C4 6A                 2859 	xrl	a,r2
   08C5 CA                 2860 	xch	a,r2
   08C6 54 1F              2861 	anl	a,#0x1F
   08C8 CA                 2862 	xch	a,r2
   08C9 6A                 2863 	xrl	a,r2
   08CA CA                 2864 	xch	a,r2
   08CB FB                 2865 	mov	r3,a
   08CC 90 62 13           2866 	mov	dptr,#_USBMAXO
   08CF EA                 2867 	mov	a,r2
   08D0 F0                 2868 	movx	@dptr,a
                           2869 ;	../../../contiki-sensinode//cpu/cc253x/usb/usb-arch.c:542: if(IS_ISO_EP(ep)) {
   08D1 74 02              2870 	mov	a,#0x02
   08D3 2D                 2871 	add	a,r5
   08D4 FD                 2872 	mov	r5,a
   08D5 E4                 2873 	clr	a
   08D6 3F                 2874 	addc	a,r7
   08D7 FF                 2875 	mov	r7,a
   08D8 8D 82              2876 	mov	dpl,r5
   08DA 8F 83              2877 	mov	dph,r7
   08DC 8C F0              2878 	mov	b,r4
   08DE 12s00r00           2879 	lcall	__gptrget
   08E1 FD                 2880 	mov	r5,a
   08E2 53 05 03           2881 	anl	ar5,#0x03
   08E5 BD 02 0A           2882 	cjne	r5,#0x02,00102$
                           2883 ;	../../../contiki-sensinode//cpu/cc253x/usb/usb-arch.c:543: USBCSOH |= USBCSxH_ISO;
   08E8 90 62 15           2884 	mov	dptr,#_USBCSOH
   08EB E0                 2885 	movx	a,@dptr
   08EC FF                 2886 	mov	r7,a
   08ED 44 40              2887 	orl	a,#0x40
   08EF F0                 2888 	movx	@dptr,a
   08F0 80 08              2889 	sjmp	00104$
   08F2                    2890 00102$:
                           2891 ;	../../../contiki-sensinode//cpu/cc253x/usb/usb-arch.c:545: USBCSOH &= ~USBCSxH_ISO;
   08F2 90 62 15           2892 	mov	dptr,#_USBCSOH
   08F5 E0                 2893 	movx	a,@dptr
   08F6 54 BF              2894 	anl	a,#0xBF
   08F8 FF                 2895 	mov	r7,a
   08F9 F0                 2896 	movx	@dptr,a
   08FA                    2897 00104$:
   08FA 02s00r00           2898 	ljmp	__sdcc_banked_ret
                           2899 ;------------------------------------------------------------
                           2900 ;Allocation info for local variables in function 'usb_arch_setup_endpoint'
                           2901 ;------------------------------------------------------------
                           2902 ;addr                      Allocated to stack - sp -4
                           2903 ;ei                        Allocated to stack - sp -3
                           2904 ;flag                      Allocated to registers r7 
                           2905 ;ep                        Allocated to stack - sp -2
                           2906 ;------------------------------------------------------------
                           2907 ;	../../../contiki-sensinode//cpu/cc253x/usb/usb-arch.c:550: usb_arch_setup_endpoint(uint8_t addr)
                           2908 ;	-----------------------------------------
                           2909 ;	 function usb_arch_setup_endpoint
                           2910 ;	-----------------------------------------
   08FD                    2911 _usb_arch_setup_endpoint:
   08FD C0 82              2912 	push	dpl
   08FF E5 81              2913 	mov	a,sp
   0901 24 04              2914 	add	a,#0x04
                           2915 ;	../../../contiki-sensinode//cpu/cc253x/usb/usb-arch.c:552: uint8_t ei = EP_HW_NUM(addr);
   0903 F5 81              2916 	mov	sp,a
   0905 24 FC              2917 	add	a,#0xfc
   0907 F8                 2918 	mov	r0,a
   0908 74 7F              2919 	mov	a,#0x7F
   090A 56                 2920 	anl	a,@r0
   090B FE                 2921 	mov	r6,a
   090C E5 81              2922 	mov	a,sp
   090E 24 FD              2923 	add	a,#0xfd
   0910 F8                 2924 	mov	r0,a
   0911 A6 06              2925 	mov	@r0,ar6
                           2926 ;	../../../contiki-sensinode//cpu/cc253x/usb/usb-arch.c:554: USBEndpoint *ep = EP_STRUCT(addr);
   0913 EE                 2927 	mov	a,r6
   0914 75 F0 0D           2928 	mov	b,#0x0D
   0917 A4                 2929 	mul	ab
   0918 24r01              2930 	add	a,#_usb_endpoints
   091A FC                 2931 	mov	r4,a
   091B E4                 2932 	clr	a
   091C 34s00              2933 	addc	a,#(_usb_endpoints >> 8)
   091E FE                 2934 	mov	r6,a
   091F A8 81              2935 	mov	r0,sp
   0921 18                 2936 	dec	r0
   0922 18                 2937 	dec	r0
   0923 A6 04              2938 	mov	@r0,ar4
   0925 08                 2939 	inc	r0
   0926 A6 06              2940 	mov	@r0,ar6
   0928 08                 2941 	inc	r0
   0929 76 00              2942 	mov	@r0,#0x00
                           2943 ;	../../../contiki-sensinode//cpu/cc253x/usb/usb-arch.c:556: ep->halted = 0;
   092B A8 81              2944 	mov	r0,sp
   092D 18                 2945 	dec	r0
   092E 18                 2946 	dec	r0
   092F 86 82              2947 	mov	dpl,@r0
   0931 08                 2948 	inc	r0
   0932 86 83              2949 	mov	dph,@r0
   0934 08                 2950 	inc	r0
   0935 86 F0              2951 	mov	b,@r0
   0937 E4                 2952 	clr	a
   0938 12s00r00           2953 	lcall	__gptrput
                           2954 ;	../../../contiki-sensinode//cpu/cc253x/usb/usb-arch.c:557: ep->flags |= USB_EP_FLAGS_ENABLED;
   093B A8 81              2955 	mov	r0,sp
   093D 18                 2956 	dec	r0
   093E 18                 2957 	dec	r0
   093F 74 02              2958 	mov	a,#0x02
   0941 26                 2959 	add	a,@r0
   0942 FA                 2960 	mov	r2,a
   0943 E4                 2961 	clr	a
   0944 08                 2962 	inc	r0
   0945 36                 2963 	addc	a,@r0
   0946 FD                 2964 	mov	r5,a
   0947 08                 2965 	inc	r0
   0948 86 07              2966 	mov	ar7,@r0
   094A 8A 82              2967 	mov	dpl,r2
   094C 8D 83              2968 	mov	dph,r5
   094E 8F F0              2969 	mov	b,r7
   0950 12s00r00           2970 	lcall	__gptrget
   0953 FE                 2971 	mov	r6,a
   0954 43 06 04           2972 	orl	ar6,#0x04
   0957 8A 82              2973 	mov	dpl,r2
   0959 8D 83              2974 	mov	dph,r5
   095B 8F F0              2975 	mov	b,r7
   095D EE                 2976 	mov	a,r6
   095E 12s00r00           2977 	lcall	__gptrput
                           2978 ;	../../../contiki-sensinode//cpu/cc253x/usb/usb-arch.c:558: ep->buffer = 0;
   0961 A8 81              2979 	mov	r0,sp
   0963 18                 2980 	dec	r0
   0964 18                 2981 	dec	r0
   0965 74 03              2982 	mov	a,#0x03
   0967 26                 2983 	add	a,@r0
   0968 FD                 2984 	mov	r5,a
   0969 E4                 2985 	clr	a
   096A 08                 2986 	inc	r0
   096B 36                 2987 	addc	a,@r0
   096C FE                 2988 	mov	r6,a
   096D 08                 2989 	inc	r0
   096E 86 07              2990 	mov	ar7,@r0
   0970 8D 82              2991 	mov	dpl,r5
   0972 8E 83              2992 	mov	dph,r6
   0974 8F F0              2993 	mov	b,r7
   0976 E4                 2994 	clr	a
   0977 12s00r00           2995 	lcall	__gptrput
   097A A3                 2996 	inc	dptr
   097B E4                 2997 	clr	a
   097C 12s00r00           2998 	lcall	__gptrput
   097F A3                 2999 	inc	dptr
   0980 E4                 3000 	clr	a
   0981 12s00r00           3001 	lcall	__gptrput
                           3002 ;	../../../contiki-sensinode//cpu/cc253x/usb/usb-arch.c:559: ep->addr = addr;
   0984 A8 81              3003 	mov	r0,sp
   0986 18                 3004 	dec	r0
   0987 18                 3005 	dec	r0
   0988 74 01              3006 	mov	a,#0x01
   098A 26                 3007 	add	a,@r0
   098B FD                 3008 	mov	r5,a
   098C E4                 3009 	clr	a
   098D 08                 3010 	inc	r0
   098E 36                 3011 	addc	a,@r0
   098F FE                 3012 	mov	r6,a
   0990 08                 3013 	inc	r0
   0991 86 07              3014 	mov	ar7,@r0
   0993 8D 82              3015 	mov	dpl,r5
   0995 8E 83              3016 	mov	dph,r6
   0997 8F F0              3017 	mov	b,r7
   0999 E5 81              3018 	mov	a,sp
   099B 24 FC              3019 	add	a,#0xfc
   099D F8                 3020 	mov	r0,a
   099E E6                 3021 	mov	a,@r0
   099F 12s00r00           3022 	lcall	__gptrput
                           3023 ;	../../../contiki-sensinode//cpu/cc253x/usb/usb-arch.c:560: ep->events = 0;
   09A2 A8 81              3024 	mov	r0,sp
   09A4 18                 3025 	dec	r0
   09A5 18                 3026 	dec	r0
   09A6 74 09              3027 	mov	a,#0x09
   09A8 26                 3028 	add	a,@r0
   09A9 FD                 3029 	mov	r5,a
   09AA E4                 3030 	clr	a
   09AB 08                 3031 	inc	r0
   09AC 36                 3032 	addc	a,@r0
   09AD FE                 3033 	mov	r6,a
   09AE 08                 3034 	inc	r0
   09AF 86 07              3035 	mov	ar7,@r0
   09B1 8D 82              3036 	mov	dpl,r5
   09B3 8E 83              3037 	mov	dph,r6
   09B5 8F F0              3038 	mov	b,r7
   09B7 E4                 3039 	clr	a
   09B8 12s00r00           3040 	lcall	__gptrput
   09BB A3                 3041 	inc	dptr
   09BC E4                 3042 	clr	a
   09BD 12s00r00           3043 	lcall	__gptrput
                           3044 ;	../../../contiki-sensinode//cpu/cc253x/usb/usb-arch.c:561: ep->xfer_size = ep_xfer_size[ei];
   09C0 A8 81              3045 	mov	r0,sp
   09C2 18                 3046 	dec	r0
   09C3 18                 3047 	dec	r0
   09C4 74 0B              3048 	mov	a,#0x0B
   09C6 26                 3049 	add	a,@r0
   09C7 FD                 3050 	mov	r5,a
   09C8 E4                 3051 	clr	a
   09C9 08                 3052 	inc	r0
   09CA 36                 3053 	addc	a,@r0
   09CB FE                 3054 	mov	r6,a
   09CC 08                 3055 	inc	r0
   09CD 86 07              3056 	mov	ar7,@r0
   09CF E5 81              3057 	mov	a,sp
   09D1 24 FD              3058 	add	a,#0xfd
   09D3 F8                 3059 	mov	r0,a
   09D4 E6                 3060 	mov	a,@r0
   09D5 25 E0              3061 	add	a,acc
   09D7 FB                 3062 	mov	r3,a
   09D8 90s00r00           3063 	mov	dptr,#_ep_xfer_size
   09DB 93                 3064 	movc	a,@a+dptr
   09DC CB                 3065 	xch	a,r3
   09DD A3                 3066 	inc	dptr
   09DE 93                 3067 	movc	a,@a+dptr
   09DF FC                 3068 	mov	r4,a
   09E0 8D 82              3069 	mov	dpl,r5
   09E2 8E 83              3070 	mov	dph,r6
   09E4 8F F0              3071 	mov	b,r7
   09E6 EB                 3072 	mov	a,r3
   09E7 12s00r00           3073 	lcall	__gptrput
   09EA A3                 3074 	inc	dptr
   09EB EC                 3075 	mov	a,r4
   09EC 12s00r00           3076 	lcall	__gptrput
                           3077 ;	../../../contiki-sensinode//cpu/cc253x/usb/usb-arch.c:563: usb_irq_disable(flag);
   09EF 74 02              3078 	mov	a,#0x02
   09F1 55 9A              3079 	anl	a,_IEN2
   09F3 FF                 3080 	mov	r7,a
   09F4 AE 9A              3081 	mov	r6,_IEN2
   09F6 53 06 FD           3082 	anl	ar6,#0xFD
   09F9 8E 9A              3083 	mov	_IEN2,r6
                           3084 ;	../../../contiki-sensinode//cpu/cc253x/usb/usb-arch.c:565: USBINDEX = ei;
   09FB E5 81              3085 	mov	a,sp
   09FD 24 FD              3086 	add	a,#0xfd
   09FF F8                 3087 	mov	r0,a
   0A00 90 62 0E           3088 	mov	dptr,#_USBINDEX
   0A03 E6                 3089 	mov	a,@r0
   0A04 F0                 3090 	movx	@dptr,a
                           3091 ;	../../../contiki-sensinode//cpu/cc253x/usb/usb-arch.c:568: if(ei == 0) {
   0A05 E5 81              3092 	mov	a,sp
   0A07 24 FD              3093 	add	a,#0xfd
   0A09 F8                 3094 	mov	r0,a
   0A0A E6                 3095 	mov	a,@r0
   0A0B 70 0F              3096 	jnz	00108$
                           3097 ;	../../../contiki-sensinode//cpu/cc253x/usb/usb-arch.c:569: usb_arch_setup_endpoint0();
   0A0D C0 07              3098 	push	ar7
   0A0F 78rF8              3099 	mov	r0,#_usb_arch_setup_endpoint0
   0A11 79s07              3100 	mov	r1,#(_usb_arch_setup_endpoint0 >> 8)
   0A13 7As00              3101 	mov	r2,#(_usb_arch_setup_endpoint0 >> 16)
   0A15 12s00r00           3102 	lcall	__sdcc_banked_call
   0A18 D0 07              3103 	pop	ar7
   0A1A 80 33              3104 	sjmp	00110$
   0A1C                    3105 00108$:
                           3106 ;	../../../contiki-sensinode//cpu/cc253x/usb/usb-arch.c:571: if(addr & 0x80) {
   0A1C E5 81              3107 	mov	a,sp
   0A1E 24 FC              3108 	add	a,#0xfc
   0A20 F8                 3109 	mov	r0,a
   0A21 E6                 3110 	mov	a,@r0
   0A22 30 E7 16           3111 	jnb	acc.7,00105$
                           3112 ;	../../../contiki-sensinode//cpu/cc253x/usb/usb-arch.c:572: usb_arch_setup_in_endpoint(addr);
   0A25 E5 81              3113 	mov	a,sp
   0A27 24 FC              3114 	add	a,#0xfc
   0A29 F8                 3115 	mov	r0,a
   0A2A 86 82              3116 	mov	dpl,@r0
   0A2C C0 07              3117 	push	ar7
   0A2E 78r03              3118 	mov	r0,#_usb_arch_setup_in_endpoint
   0A30 79s08              3119 	mov	r1,#(_usb_arch_setup_in_endpoint >> 8)
   0A32 7As00              3120 	mov	r2,#(_usb_arch_setup_in_endpoint >> 16)
   0A34 12s00r00           3121 	lcall	__sdcc_banked_call
   0A37 D0 07              3122 	pop	ar7
   0A39 80 14              3123 	sjmp	00110$
   0A3B                    3124 00105$:
                           3125 ;	../../../contiki-sensinode//cpu/cc253x/usb/usb-arch.c:574: usb_arch_setup_out_endpoint(addr);
   0A3B E5 81              3126 	mov	a,sp
   0A3D 24 FC              3127 	add	a,#0xfc
   0A3F F8                 3128 	mov	r0,a
   0A40 86 82              3129 	mov	dpl,@r0
   0A42 C0 07              3130 	push	ar7
   0A44 78r80              3131 	mov	r0,#_usb_arch_setup_out_endpoint
   0A46 79s08              3132 	mov	r1,#(_usb_arch_setup_out_endpoint >> 8)
   0A48 7As00              3133 	mov	r2,#(_usb_arch_setup_out_endpoint >> 16)
   0A4A 12s00r00           3134 	lcall	__sdcc_banked_call
   0A4D D0 07              3135 	pop	ar7
                           3136 ;	../../../contiki-sensinode//cpu/cc253x/usb/usb-arch.c:577: usb_irq_enable(flag);
   0A4F                    3137 00110$:
   0A4F EF                 3138 	mov	a,r7
   0A50 42 9A              3139 	orl	_IEN2,a
   0A52 E5 81              3140 	mov	a,sp
   0A54 24 FB              3141 	add	a,#0xFB
   0A56 F5 81              3142 	mov	sp,a
   0A58 02s00r00           3143 	ljmp	__sdcc_banked_ret
                           3144 ;------------------------------------------------------------
                           3145 ;Allocation info for local variables in function 'usb_arch_setup_iso_endpoint'
                           3146 ;------------------------------------------------------------
                           3147 ;addr                      Allocated to registers r7 
                           3148 ;ep                        Allocated to registers r5 r6 r4 
                           3149 ;------------------------------------------------------------
                           3150 ;	../../../contiki-sensinode//cpu/cc253x/usb/usb-arch.c:581: usb_arch_setup_iso_endpoint(uint8_t addr)
                           3151 ;	-----------------------------------------
                           3152 ;	 function usb_arch_setup_iso_endpoint
                           3153 ;	-----------------------------------------
   0A5B                    3154 _usb_arch_setup_iso_endpoint:
   0A5B AF 82              3155 	mov	r7,dpl
                           3156 ;	../../../contiki-sensinode//cpu/cc253x/usb/usb-arch.c:583: USBEndpoint *ep = EP_STRUCT(addr);
   0A5D 74 7F              3157 	mov	a,#0x7F
   0A5F 5F                 3158 	anl	a,r7
   0A60 75 F0 0D           3159 	mov	b,#0x0D
   0A63 A4                 3160 	mul	ab
   0A64 24r01              3161 	add	a,#_usb_endpoints
   0A66 FD                 3162 	mov	r5,a
   0A67 E4                 3163 	clr	a
   0A68 34s00              3164 	addc	a,#(_usb_endpoints >> 8)
   0A6A FE                 3165 	mov	r6,a
   0A6B 7C 00              3166 	mov	r4,#0x00
                           3167 ;	../../../contiki-sensinode//cpu/cc253x/usb/usb-arch.c:585: ep->flags = USB_EP_FLAGS_TYPE_ISO;
   0A6D 74 02              3168 	mov	a,#0x02
   0A6F 2D                 3169 	add	a,r5
   0A70 FD                 3170 	mov	r5,a
   0A71 E4                 3171 	clr	a
   0A72 3E                 3172 	addc	a,r6
   0A73 FE                 3173 	mov	r6,a
   0A74 8D 82              3174 	mov	dpl,r5
   0A76 8E 83              3175 	mov	dph,r6
   0A78 8C F0              3176 	mov	b,r4
   0A7A 74 02              3177 	mov	a,#0x02
   0A7C 12s00r00           3178 	lcall	__gptrput
                           3179 ;	../../../contiki-sensinode//cpu/cc253x/usb/usb-arch.c:587: usb_arch_setup_endpoint(addr);
   0A7F 8F 82              3180 	mov	dpl,r7
   0A81 78rFD              3181 	mov	r0,#_usb_arch_setup_endpoint
   0A83 79s08              3182 	mov	r1,#(_usb_arch_setup_endpoint >> 8)
   0A85 7As00              3183 	mov	r2,#(_usb_arch_setup_endpoint >> 16)
   0A87 12s00r00           3184 	lcall	__sdcc_banked_call
   0A8A 02s00r00           3185 	ljmp	__sdcc_banked_ret
                           3186 ;------------------------------------------------------------
                           3187 ;Allocation info for local variables in function 'usb_arch_setup_control_endpoint'
                           3188 ;------------------------------------------------------------
                           3189 ;addr                      Allocated to registers r7 
                           3190 ;ep                        Allocated to registers r5 r6 r4 
                           3191 ;------------------------------------------------------------
                           3192 ;	../../../contiki-sensinode//cpu/cc253x/usb/usb-arch.c:591: usb_arch_setup_control_endpoint(uint8_t addr)
                           3193 ;	-----------------------------------------
                           3194 ;	 function usb_arch_setup_control_endpoint
                           3195 ;	-----------------------------------------
   0A8D                    3196 _usb_arch_setup_control_endpoint:
   0A8D AF 82              3197 	mov	r7,dpl
                           3198 ;	../../../contiki-sensinode//cpu/cc253x/usb/usb-arch.c:593: USBEndpoint *ep = EP_STRUCT(addr);
   0A8F 74 7F              3199 	mov	a,#0x7F
   0A91 5F                 3200 	anl	a,r7
   0A92 75 F0 0D           3201 	mov	b,#0x0D
   0A95 A4                 3202 	mul	ab
   0A96 24r01              3203 	add	a,#_usb_endpoints
   0A98 FD                 3204 	mov	r5,a
   0A99 E4                 3205 	clr	a
   0A9A 34s00              3206 	addc	a,#(_usb_endpoints >> 8)
   0A9C FE                 3207 	mov	r6,a
   0A9D 7C 00              3208 	mov	r4,#0x00
                           3209 ;	../../../contiki-sensinode//cpu/cc253x/usb/usb-arch.c:595: ep->flags = USB_EP_FLAGS_TYPE_CONTROL;
   0A9F 74 02              3210 	mov	a,#0x02
   0AA1 2D                 3211 	add	a,r5
   0AA2 FD                 3212 	mov	r5,a
   0AA3 E4                 3213 	clr	a
   0AA4 3E                 3214 	addc	a,r6
   0AA5 FE                 3215 	mov	r6,a
   0AA6 8D 82              3216 	mov	dpl,r5
   0AA8 8E 83              3217 	mov	dph,r6
   0AAA 8C F0              3218 	mov	b,r4
   0AAC 74 01              3219 	mov	a,#0x01
   0AAE 12s00r00           3220 	lcall	__gptrput
                           3221 ;	../../../contiki-sensinode//cpu/cc253x/usb/usb-arch.c:597: usb_arch_setup_endpoint(addr);
   0AB1 8F 82              3222 	mov	dpl,r7
   0AB3 78rFD              3223 	mov	r0,#_usb_arch_setup_endpoint
   0AB5 79s08              3224 	mov	r1,#(_usb_arch_setup_endpoint >> 8)
   0AB7 7As00              3225 	mov	r2,#(_usb_arch_setup_endpoint >> 16)
   0AB9 12s00r00           3226 	lcall	__sdcc_banked_call
   0ABC 02s00r00           3227 	ljmp	__sdcc_banked_ret
                           3228 ;------------------------------------------------------------
                           3229 ;Allocation info for local variables in function 'usb_arch_setup_bulk_endpoint'
                           3230 ;------------------------------------------------------------
                           3231 ;addr                      Allocated to registers r7 
                           3232 ;ep                        Allocated to registers r5 r6 r4 
                           3233 ;------------------------------------------------------------
                           3234 ;	../../../contiki-sensinode//cpu/cc253x/usb/usb-arch.c:601: usb_arch_setup_bulk_endpoint(uint8_t addr)
                           3235 ;	-----------------------------------------
                           3236 ;	 function usb_arch_setup_bulk_endpoint
                           3237 ;	-----------------------------------------
   0ABF                    3238 _usb_arch_setup_bulk_endpoint:
   0ABF AF 82              3239 	mov	r7,dpl
                           3240 ;	../../../contiki-sensinode//cpu/cc253x/usb/usb-arch.c:603: USBEndpoint *ep = EP_STRUCT(addr);
   0AC1 74 7F              3241 	mov	a,#0x7F
   0AC3 5F                 3242 	anl	a,r7
   0AC4 75 F0 0D           3243 	mov	b,#0x0D
   0AC7 A4                 3244 	mul	ab
   0AC8 24r01              3245 	add	a,#_usb_endpoints
   0ACA FD                 3246 	mov	r5,a
   0ACB E4                 3247 	clr	a
   0ACC 34s00              3248 	addc	a,#(_usb_endpoints >> 8)
   0ACE FE                 3249 	mov	r6,a
   0ACF 7C 00              3250 	mov	r4,#0x00
                           3251 ;	../../../contiki-sensinode//cpu/cc253x/usb/usb-arch.c:605: ep->flags = USB_EP_FLAGS_TYPE_BULK;
   0AD1 74 02              3252 	mov	a,#0x02
   0AD3 2D                 3253 	add	a,r5
   0AD4 FD                 3254 	mov	r5,a
   0AD5 E4                 3255 	clr	a
   0AD6 3E                 3256 	addc	a,r6
   0AD7 FE                 3257 	mov	r6,a
   0AD8 8D 82              3258 	mov	dpl,r5
   0ADA 8E 83              3259 	mov	dph,r6
   0ADC 8C F0              3260 	mov	b,r4
   0ADE E4                 3261 	clr	a
   0ADF 12s00r00           3262 	lcall	__gptrput
                           3263 ;	../../../contiki-sensinode//cpu/cc253x/usb/usb-arch.c:607: usb_arch_setup_endpoint(addr);
   0AE2 8F 82              3264 	mov	dpl,r7
   0AE4 78rFD              3265 	mov	r0,#_usb_arch_setup_endpoint
   0AE6 79s08              3266 	mov	r1,#(_usb_arch_setup_endpoint >> 8)
   0AE8 7As00              3267 	mov	r2,#(_usb_arch_setup_endpoint >> 16)
   0AEA 12s00r00           3268 	lcall	__sdcc_banked_call
   0AED 02s00r00           3269 	ljmp	__sdcc_banked_ret
                           3270 ;------------------------------------------------------------
                           3271 ;Allocation info for local variables in function 'usb_arch_setup_interrupt_endpoint'
                           3272 ;------------------------------------------------------------
                           3273 ;addr                      Allocated to registers r7 
                           3274 ;ep                        Allocated to registers r5 r6 r4 
                           3275 ;------------------------------------------------------------
                           3276 ;	../../../contiki-sensinode//cpu/cc253x/usb/usb-arch.c:611: usb_arch_setup_interrupt_endpoint(uint8_t addr)
                           3277 ;	-----------------------------------------
                           3278 ;	 function usb_arch_setup_interrupt_endpoint
                           3279 ;	-----------------------------------------
   0AF0                    3280 _usb_arch_setup_interrupt_endpoint:
   0AF0 AF 82              3281 	mov	r7,dpl
                           3282 ;	../../../contiki-sensinode//cpu/cc253x/usb/usb-arch.c:613: USBEndpoint *ep = EP_STRUCT(addr);
   0AF2 74 7F              3283 	mov	a,#0x7F
   0AF4 5F                 3284 	anl	a,r7
   0AF5 75 F0 0D           3285 	mov	b,#0x0D
   0AF8 A4                 3286 	mul	ab
   0AF9 24r01              3287 	add	a,#_usb_endpoints
   0AFB FD                 3288 	mov	r5,a
   0AFC E4                 3289 	clr	a
   0AFD 34s00              3290 	addc	a,#(_usb_endpoints >> 8)
   0AFF FE                 3291 	mov	r6,a
   0B00 7C 00              3292 	mov	r4,#0x00
                           3293 ;	../../../contiki-sensinode//cpu/cc253x/usb/usb-arch.c:615: ep->flags = USB_EP_FLAGS_TYPE_INTERRUPT;
   0B02 74 02              3294 	mov	a,#0x02
   0B04 2D                 3295 	add	a,r5
   0B05 FD                 3296 	mov	r5,a
   0B06 E4                 3297 	clr	a
   0B07 3E                 3298 	addc	a,r6
   0B08 FE                 3299 	mov	r6,a
   0B09 8D 82              3300 	mov	dpl,r5
   0B0B 8E 83              3301 	mov	dph,r6
   0B0D 8C F0              3302 	mov	b,r4
   0B0F 74 03              3303 	mov	a,#0x03
   0B11 12s00r00           3304 	lcall	__gptrput
                           3305 ;	../../../contiki-sensinode//cpu/cc253x/usb/usb-arch.c:617: usb_arch_setup_endpoint(addr);
   0B14 8F 82              3306 	mov	dpl,r7
   0B16 78rFD              3307 	mov	r0,#_usb_arch_setup_endpoint
   0B18 79s08              3308 	mov	r1,#(_usb_arch_setup_endpoint >> 8)
   0B1A 7As00              3309 	mov	r2,#(_usb_arch_setup_endpoint >> 16)
   0B1C 12s00r00           3310 	lcall	__sdcc_banked_call
   0B1F 02s00r00           3311 	ljmp	__sdcc_banked_ret
                           3312 ;------------------------------------------------------------
                           3313 ;Allocation info for local variables in function 'usb_arch_disable_ep0'
                           3314 ;------------------------------------------------------------
                           3315 ;	../../../contiki-sensinode//cpu/cc253x/usb/usb-arch.c:621: usb_arch_disable_ep0(void)
                           3316 ;	-----------------------------------------
                           3317 ;	 function usb_arch_disable_ep0
                           3318 ;	-----------------------------------------
   0B22                    3319 _usb_arch_disable_ep0:
                           3320 ;	../../../contiki-sensinode//cpu/cc253x/usb/usb-arch.c:623: USBIIE &= ~USBIIE_EP0IE;
   0B22 90 62 07           3321 	mov	dptr,#_USBIIE
   0B25 E0                 3322 	movx	a,@dptr
   0B26 54 FE              3323 	anl	a,#0xFE
   0B28 FF                 3324 	mov	r7,a
   0B29 F0                 3325 	movx	@dptr,a
                           3326 ;	../../../contiki-sensinode//cpu/cc253x/usb/usb-arch.c:624: USBCS0 = 0xC0;                // Clear any pending status flags
   0B2A 90 62 11           3327 	mov	dptr,#_USBCS0
   0B2D 74 C0              3328 	mov	a,#0xC0
   0B2F F0                 3329 	movx	@dptr,a
   0B30 02s00r00           3330 	ljmp	__sdcc_banked_ret
                           3331 ;------------------------------------------------------------
                           3332 ;Allocation info for local variables in function 'usb_arch_disable_in_endpoint'
                           3333 ;------------------------------------------------------------
                           3334 ;addr                      Allocated to registers r7 
                           3335 ;------------------------------------------------------------
                           3336 ;	../../../contiki-sensinode//cpu/cc253x/usb/usb-arch.c:628: usb_arch_disable_in_endpoint(uint8_t addr)
                           3337 ;	-----------------------------------------
                           3338 ;	 function usb_arch_disable_in_endpoint
                           3339 ;	-----------------------------------------
   0B33                    3340 _usb_arch_disable_in_endpoint:
   0B33 AF 82              3341 	mov	r7,dpl
                           3342 ;	../../../contiki-sensinode//cpu/cc253x/usb/usb-arch.c:630: USBMAXI = 0;
   0B35 90 62 10           3343 	mov	dptr,#_USBMAXI
   0B38 E4                 3344 	clr	a
   0B39 F0                 3345 	movx	@dptr,a
                           3346 ;	../../../contiki-sensinode//cpu/cc253x/usb/usb-arch.c:631: USBIIE &= ~USBIIE_INEPxIE(EP_HW_NUM(addr));
   0B3A 74 7F              3347 	mov	a,#0x7F
   0B3C 5F                 3348 	anl	a,r7
   0B3D F5 F0              3349 	mov	b,a
   0B3F 05 F0              3350 	inc	b
   0B41 74 01              3351 	mov	a,#0x01
   0B43 80 02              3352 	sjmp	00105$
   0B45                    3353 00103$:
   0B45 25 E0              3354 	add	a,acc
   0B47                    3355 00105$:
   0B47 D5 F0 FB           3356 	djnz	b,00103$
   0B4A F4                 3357 	cpl	a
   0B4B FF                 3358 	mov	r7,a
   0B4C 90 62 07           3359 	mov	dptr,#_USBIIE
   0B4F E0                 3360 	movx	a,@dptr
   0B50 FE                 3361 	mov	r6,a
   0B51 5F                 3362 	anl	a,r7
   0B52 F0                 3363 	movx	@dptr,a
                           3364 ;	../../../contiki-sensinode//cpu/cc253x/usb/usb-arch.c:634: USBCSIL = 0x08;               // Double-buffering not used. Flush only once
   0B53 90 62 11           3365 	mov	dptr,#_USBCSIL
   0B56 74 08              3366 	mov	a,#0x08
   0B58 F0                 3367 	movx	@dptr,a
   0B59 02s00r00           3368 	ljmp	__sdcc_banked_ret
                           3369 ;------------------------------------------------------------
                           3370 ;Allocation info for local variables in function 'usb_arch_disable_out_endpoint'
                           3371 ;------------------------------------------------------------
                           3372 ;addr                      Allocated to registers r7 
                           3373 ;------------------------------------------------------------
                           3374 ;	../../../contiki-sensinode//cpu/cc253x/usb/usb-arch.c:638: usb_arch_disable_out_endpoint(uint8_t addr)
                           3375 ;	-----------------------------------------
                           3376 ;	 function usb_arch_disable_out_endpoint
                           3377 ;	-----------------------------------------
   0B5C                    3378 _usb_arch_disable_out_endpoint:
   0B5C AF 82              3379 	mov	r7,dpl
                           3380 ;	../../../contiki-sensinode//cpu/cc253x/usb/usb-arch.c:640: USBMAXO = 0;
   0B5E 90 62 13           3381 	mov	dptr,#_USBMAXO
   0B61 E4                 3382 	clr	a
   0B62 F0                 3383 	movx	@dptr,a
                           3384 ;	../../../contiki-sensinode//cpu/cc253x/usb/usb-arch.c:641: USBOIE &= ~USBOIE_OUEPxIE(EP_HW_NUM(addr));
   0B63 74 7F              3385 	mov	a,#0x7F
   0B65 5F                 3386 	anl	a,r7
   0B66 F5 F0              3387 	mov	b,a
   0B68 05 F0              3388 	inc	b
   0B6A 74 01              3389 	mov	a,#0x01
   0B6C 80 02              3390 	sjmp	00105$
   0B6E                    3391 00103$:
   0B6E 25 E0              3392 	add	a,acc
   0B70                    3393 00105$:
   0B70 D5 F0 FB           3394 	djnz	b,00103$
   0B73 F4                 3395 	cpl	a
   0B74 FF                 3396 	mov	r7,a
   0B75 90 62 09           3397 	mov	dptr,#_USBOIE
   0B78 E0                 3398 	movx	a,@dptr
   0B79 FE                 3399 	mov	r6,a
   0B7A 5F                 3400 	anl	a,r7
   0B7B F0                 3401 	movx	@dptr,a
                           3402 ;	../../../contiki-sensinode//cpu/cc253x/usb/usb-arch.c:644: USBCSOL = 0x08;               // Double buffering not used, flush only once
   0B7C 90 62 14           3403 	mov	dptr,#_USBCSOL
   0B7F 74 08              3404 	mov	a,#0x08
   0B81 F0                 3405 	movx	@dptr,a
   0B82 02s00r00           3406 	ljmp	__sdcc_banked_ret
                           3407 ;------------------------------------------------------------
                           3408 ;Allocation info for local variables in function 'usb_arch_disable_endpoint'
                           3409 ;------------------------------------------------------------
                           3410 ;addr                      Allocated to registers r7 
                           3411 ;ei                        Allocated to registers r5 
                           3412 ;flag                      Allocated to registers r6 
                           3413 ;ep                        Allocated to registers r4 r6 r3 
                           3414 ;------------------------------------------------------------
                           3415 ;	../../../contiki-sensinode//cpu/cc253x/usb/usb-arch.c:649: usb_arch_disable_endpoint(uint8_t addr)
                           3416 ;	-----------------------------------------
                           3417 ;	 function usb_arch_disable_endpoint
                           3418 ;	-----------------------------------------
   0B85                    3419 _usb_arch_disable_endpoint:
   0B85 AF 82              3420 	mov	r7,dpl
                           3421 ;	../../../contiki-sensinode//cpu/cc253x/usb/usb-arch.c:651: uint8_t ei = EP_HW_NUM(addr);
   0B87 74 7F              3422 	mov	a,#0x7F
   0B89 5F                 3423 	anl	a,r7
                           3424 ;	../../../contiki-sensinode//cpu/cc253x/usb/usb-arch.c:653: USBEndpoint *ep = EP_STRUCT(addr);
   0B8A FD                 3425 	mov	r5,a
   0B8B 75 F0 0D           3426 	mov	b,#0x0D
   0B8E A4                 3427 	mul	ab
   0B8F 24r01              3428 	add	a,#_usb_endpoints
   0B91 FC                 3429 	mov	r4,a
   0B92 E4                 3430 	clr	a
   0B93 34s00              3431 	addc	a,#(_usb_endpoints >> 8)
   0B95 FE                 3432 	mov	r6,a
   0B96 7B 00              3433 	mov	r3,#0x00
                           3434 ;	../../../contiki-sensinode//cpu/cc253x/usb/usb-arch.c:655: ep->flags &= ~USB_EP_FLAGS_ENABLED;
   0B98 74 02              3435 	mov	a,#0x02
   0B9A 2C                 3436 	add	a,r4
   0B9B FC                 3437 	mov	r4,a
   0B9C E4                 3438 	clr	a
   0B9D 3E                 3439 	addc	a,r6
   0B9E FE                 3440 	mov	r6,a
   0B9F 8C 82              3441 	mov	dpl,r4
   0BA1 8E 83              3442 	mov	dph,r6
   0BA3 8B F0              3443 	mov	b,r3
   0BA5 12s00r00           3444 	lcall	__gptrget
   0BA8 FA                 3445 	mov	r2,a
   0BA9 53 02 FB           3446 	anl	ar2,#0xFB
   0BAC 8C 82              3447 	mov	dpl,r4
   0BAE 8E 83              3448 	mov	dph,r6
   0BB0 8B F0              3449 	mov	b,r3
   0BB2 EA                 3450 	mov	a,r2
   0BB3 12s00r00           3451 	lcall	__gptrput
                           3452 ;	../../../contiki-sensinode//cpu/cc253x/usb/usb-arch.c:657: usb_irq_disable(flag);
   0BB6 74 02              3453 	mov	a,#0x02
   0BB8 55 9A              3454 	anl	a,_IEN2
   0BBA FE                 3455 	mov	r6,a
   0BBB AC 9A              3456 	mov	r4,_IEN2
   0BBD 53 04 FD           3457 	anl	ar4,#0xFD
   0BC0 8C 9A              3458 	mov	_IEN2,r4
                           3459 ;	../../../contiki-sensinode//cpu/cc253x/usb/usb-arch.c:658: USBINDEX = ei;
   0BC2 90 62 0E           3460 	mov	dptr,#_USBINDEX
   0BC5 ED                 3461 	mov	a,r5
   0BC6 F0                 3462 	movx	@dptr,a
                           3463 ;	../../../contiki-sensinode//cpu/cc253x/usb/usb-arch.c:659: if(ei == 0) {
   0BC7 ED                 3464 	mov	a,r5
   0BC8 70 0F              3465 	jnz	00108$
                           3466 ;	../../../contiki-sensinode//cpu/cc253x/usb/usb-arch.c:660: usb_arch_disable_ep0();
   0BCA C0 06              3467 	push	ar6
   0BCC 78r22              3468 	mov	r0,#_usb_arch_disable_ep0
   0BCE 79s0B              3469 	mov	r1,#(_usb_arch_disable_ep0 >> 8)
   0BD0 7As00              3470 	mov	r2,#(_usb_arch_disable_ep0 >> 16)
   0BD2 12s00r00           3471 	lcall	__sdcc_banked_call
   0BD5 D0 06              3472 	pop	ar6
   0BD7 80 24              3473 	sjmp	00110$
   0BD9                    3474 00108$:
                           3475 ;	../../../contiki-sensinode//cpu/cc253x/usb/usb-arch.c:662: if(addr & 0x80) {
   0BD9 EF                 3476 	mov	a,r7
   0BDA 30 E7 11           3477 	jnb	acc.7,00105$
                           3478 ;	../../../contiki-sensinode//cpu/cc253x/usb/usb-arch.c:663: usb_arch_disable_in_endpoint(addr);
   0BDD 8F 82              3479 	mov	dpl,r7
   0BDF C0 06              3480 	push	ar6
   0BE1 78r33              3481 	mov	r0,#_usb_arch_disable_in_endpoint
   0BE3 79s0B              3482 	mov	r1,#(_usb_arch_disable_in_endpoint >> 8)
   0BE5 7As00              3483 	mov	r2,#(_usb_arch_disable_in_endpoint >> 16)
   0BE7 12s00r00           3484 	lcall	__sdcc_banked_call
   0BEA D0 06              3485 	pop	ar6
   0BEC 80 0F              3486 	sjmp	00110$
   0BEE                    3487 00105$:
                           3488 ;	../../../contiki-sensinode//cpu/cc253x/usb/usb-arch.c:665: usb_arch_disable_out_endpoint(addr);
   0BEE 8F 82              3489 	mov	dpl,r7
   0BF0 C0 06              3490 	push	ar6
   0BF2 78r5C              3491 	mov	r0,#_usb_arch_disable_out_endpoint
   0BF4 79s0B              3492 	mov	r1,#(_usb_arch_disable_out_endpoint >> 8)
   0BF6 7As00              3493 	mov	r2,#(_usb_arch_disable_out_endpoint >> 16)
   0BF8 12s00r00           3494 	lcall	__sdcc_banked_call
   0BFB D0 06              3495 	pop	ar6
                           3496 ;	../../../contiki-sensinode//cpu/cc253x/usb/usb-arch.c:668: usb_irq_enable(flag);
   0BFD                    3497 00110$:
   0BFD EE                 3498 	mov	a,r6
   0BFE 42 9A              3499 	orl	_IEN2,a
   0C00 02s00r00           3500 	ljmp	__sdcc_banked_ret
                           3501 ;------------------------------------------------------------
                           3502 ;Allocation info for local variables in function 'usb_arch_discard_all_buffers'
                           3503 ;------------------------------------------------------------
                           3504 ;addr                      Allocated to registers r7 
                           3505 ;buffer                    Allocated to stack - sp -6
                           3506 ;flag                      Allocated to stack - sp -3
                           3507 ;ep                        Allocated to stack - sp -2
                           3508 ;------------------------------------------------------------
                           3509 ;	../../../contiki-sensinode//cpu/cc253x/usb/usb-arch.c:672: usb_arch_discard_all_buffers(uint8_t addr)
                           3510 ;	-----------------------------------------
                           3511 ;	 function usb_arch_discard_all_buffers
                           3512 ;	-----------------------------------------
   0C03                    3513 _usb_arch_discard_all_buffers:
   0C03 E5 81              3514 	mov	a,sp
   0C05 24 07              3515 	add	a,#0x07
   0C07 F5 81              3516 	mov	sp,a
   0C09 AF 82              3517 	mov	r7,dpl
                           3518 ;	../../../contiki-sensinode//cpu/cc253x/usb/usb-arch.c:676: volatile USBEndpoint *ep = EP_STRUCT(addr);
   0C0B 74 7F              3519 	mov	a,#0x7F
   0C0D 5F                 3520 	anl	a,r7
   0C0E 75 F0 0D           3521 	mov	b,#0x0D
   0C11 A4                 3522 	mul	ab
   0C12 24r01              3523 	add	a,#_usb_endpoints
   0C14 FE                 3524 	mov	r6,a
   0C15 E4                 3525 	clr	a
   0C16 34s00              3526 	addc	a,#(_usb_endpoints >> 8)
   0C18 FF                 3527 	mov	r7,a
   0C19 7D 00              3528 	mov	r5,#0x00
                           3529 ;	../../../contiki-sensinode//cpu/cc253x/usb/usb-arch.c:678: usb_irq_disable(flag);
   0C1B E5 81              3530 	mov	a,sp
   0C1D 24 FD              3531 	add	a,#0xfd
   0C1F F8                 3532 	mov	r0,a
   0C20 74 02              3533 	mov	a,#0x02
   0C22 55 9A              3534 	anl	a,_IEN2
   0C24 F6                 3535 	mov	@r0,a
   0C25 AB 9A              3536 	mov	r3,_IEN2
   0C27 53 03 FD           3537 	anl	ar3,#0xFD
   0C2A 8B 9A              3538 	mov	_IEN2,r3
                           3539 ;	../../../contiki-sensinode//cpu/cc253x/usb/usb-arch.c:679: buffer = ep->buffer;
   0C2C 74 03              3540 	mov	a,#0x03
   0C2E 2E                 3541 	add	a,r6
   0C2F FE                 3542 	mov	r6,a
   0C30 E4                 3543 	clr	a
   0C31 3F                 3544 	addc	a,r7
   0C32 FF                 3545 	mov	r7,a
   0C33 8E 82              3546 	mov	dpl,r6
   0C35 8F 83              3547 	mov	dph,r7
   0C37 8D F0              3548 	mov	b,r5
   0C39 12s00r00           3549 	lcall	__gptrget
   0C3C FA                 3550 	mov	r2,a
   0C3D A3                 3551 	inc	dptr
   0C3E 12s00r00           3552 	lcall	__gptrget
   0C41 FB                 3553 	mov	r3,a
   0C42 A3                 3554 	inc	dptr
   0C43 12s00r00           3555 	lcall	__gptrget
   0C46 FC                 3556 	mov	r4,a
   0C47 E5 81              3557 	mov	a,sp
   0C49 24 FA              3558 	add	a,#0xfa
   0C4B F8                 3559 	mov	r0,a
   0C4C A6 02              3560 	mov	@r0,ar2
   0C4E 08                 3561 	inc	r0
   0C4F A6 03              3562 	mov	@r0,ar3
   0C51 08                 3563 	inc	r0
   0C52 A6 04              3564 	mov	@r0,ar4
                           3565 ;	../../../contiki-sensinode//cpu/cc253x/usb/usb-arch.c:680: ep->buffer = NULL;
   0C54 8E 82              3566 	mov	dpl,r6
   0C56 8F 83              3567 	mov	dph,r7
   0C58 8D F0              3568 	mov	b,r5
   0C5A E4                 3569 	clr	a
   0C5B 12s00r00           3570 	lcall	__gptrput
   0C5E A3                 3571 	inc	dptr
   0C5F E4                 3572 	clr	a
   0C60 12s00r00           3573 	lcall	__gptrput
   0C63 A3                 3574 	inc	dptr
   0C64 E4                 3575 	clr	a
   0C65 12s00r00           3576 	lcall	__gptrput
                           3577 ;	../../../contiki-sensinode//cpu/cc253x/usb/usb-arch.c:681: usb_irq_enable(flag);
   0C68 E5 81              3578 	mov	a,sp
   0C6A 24 FD              3579 	add	a,#0xfd
   0C6C F8                 3580 	mov	r0,a
   0C6D E6                 3581 	mov	a,@r0
   0C6E 42 9A              3582 	orl	_IEN2,a
                           3583 ;	../../../contiki-sensinode//cpu/cc253x/usb/usb-arch.c:683: while(buffer) {
   0C70                    3584 00107$:
   0C70 E5 81              3585 	mov	a,sp
   0C72 24 FA              3586 	add	a,#0xfa
   0C74 F8                 3587 	mov	r0,a
   0C75 E6                 3588 	mov	a,@r0
   0C76 08                 3589 	inc	r0
   0C77 46                 3590 	orl	a,@r0
   0C78 60 52              3591 	jz	00110$
                           3592 ;	../../../contiki-sensinode//cpu/cc253x/usb/usb-arch.c:684: buffer->flags &= ~USB_BUFFER_SUBMITTED;
   0C7A E5 81              3593 	mov	a,sp
   0C7C 24 FA              3594 	add	a,#0xfa
   0C7E F8                 3595 	mov	r0,a
   0C7F 74 08              3596 	mov	a,#0x08
   0C81 26                 3597 	add	a,@r0
   0C82 FD                 3598 	mov	r5,a
   0C83 E4                 3599 	clr	a
   0C84 08                 3600 	inc	r0
   0C85 36                 3601 	addc	a,@r0
   0C86 FE                 3602 	mov	r6,a
   0C87 08                 3603 	inc	r0
   0C88 86 07              3604 	mov	ar7,@r0
   0C8A 8D 82              3605 	mov	dpl,r5
   0C8C 8E 83              3606 	mov	dph,r6
   0C8E 8F F0              3607 	mov	b,r7
   0C90 12s00r00           3608 	lcall	__gptrget
   0C93 FB                 3609 	mov	r3,a
   0C94 A3                 3610 	inc	dptr
   0C95 12s00r00           3611 	lcall	__gptrget
   0C98 FC                 3612 	mov	r4,a
   0C99 53 03 FE           3613 	anl	ar3,#0xFE
   0C9C 8D 82              3614 	mov	dpl,r5
   0C9E 8E 83              3615 	mov	dph,r6
   0CA0 8F F0              3616 	mov	b,r7
   0CA2 EB                 3617 	mov	a,r3
   0CA3 12s00r00           3618 	lcall	__gptrput
   0CA6 A3                 3619 	inc	dptr
   0CA7 EC                 3620 	mov	a,r4
   0CA8 12s00r00           3621 	lcall	__gptrput
                           3622 ;	../../../contiki-sensinode//cpu/cc253x/usb/usb-arch.c:685: buffer = buffer->next;
   0CAB E5 81              3623 	mov	a,sp
   0CAD 24 FA              3624 	add	a,#0xfa
   0CAF F8                 3625 	mov	r0,a
   0CB0 86 82              3626 	mov	dpl,@r0
   0CB2 08                 3627 	inc	r0
   0CB3 86 83              3628 	mov	dph,@r0
   0CB5 08                 3629 	inc	r0
   0CB6 86 F0              3630 	mov	b,@r0
   0CB8 12s00r00           3631 	lcall	__gptrget
   0CBB 18                 3632 	dec	r0
   0CBC 18                 3633 	dec	r0
   0CBD F6                 3634 	mov	@r0,a
   0CBE A3                 3635 	inc	dptr
   0CBF 12s00r00           3636 	lcall	__gptrget
   0CC2 08                 3637 	inc	r0
   0CC3 F6                 3638 	mov	@r0,a
   0CC4 A3                 3639 	inc	dptr
   0CC5 12s00r00           3640 	lcall	__gptrget
   0CC8 08                 3641 	inc	r0
   0CC9 F6                 3642 	mov	@r0,a
   0CCA 80 A4              3643 	sjmp	00107$
   0CCC                    3644 00110$:
   0CCC E5 81              3645 	mov	a,sp
   0CCE 24 F9              3646 	add	a,#0xF9
   0CD0 F5 81              3647 	mov	sp,a
   0CD2 02s00r00           3648 	ljmp	__sdcc_banked_ret
                           3649 ;------------------------------------------------------------
                           3650 ;Allocation info for local variables in function 'set_stall'
                           3651 ;------------------------------------------------------------
                           3652 ;stall                     Allocated to stack - sp -3
                           3653 ;addr                      Allocated to registers r7 
                           3654 ;ei                        Allocated to registers r6 
                           3655 ;------------------------------------------------------------
                           3656 ;	../../../contiki-sensinode//cpu/cc253x/usb/usb-arch.c:690: set_stall(uint8_t addr, uint8_t stall)
                           3657 ;	-----------------------------------------
                           3658 ;	 function set_stall
                           3659 ;	-----------------------------------------
   0CD5                    3660 _set_stall:
   0CD5 AF 82              3661 	mov	r7,dpl
                           3662 ;	../../../contiki-sensinode//cpu/cc253x/usb/usb-arch.c:692: uint8_t ei = EP_HW_NUM(addr);
   0CD7 74 7F              3663 	mov	a,#0x7F
   0CD9 5F                 3664 	anl	a,r7
                           3665 ;	../../../contiki-sensinode//cpu/cc253x/usb/usb-arch.c:694: USBINDEX = ei;
   0CDA FE                 3666 	mov	r6,a
   0CDB 90 62 0E           3667 	mov	dptr,#_USBINDEX
   0CDE F0                 3668 	movx	@dptr,a
                           3669 ;	../../../contiki-sensinode//cpu/cc253x/usb/usb-arch.c:695: if(ei == 0) {
   0CDF EE                 3670 	mov	a,r6
   0CE0 70 17              3671 	jnz	00113$
                           3672 ;	../../../contiki-sensinode//cpu/cc253x/usb/usb-arch.c:697: if(stall) {
   0CE2 E5 81              3673 	mov	a,sp
   0CE4 24 FD              3674 	add	a,#0xfd
   0CE6 F8                 3675 	mov	r0,a
   0CE7 E6                 3676 	mov	a,@r0
   0CE8 60 49              3677 	jz	00115$
                           3678 ;	../../../contiki-sensinode//cpu/cc253x/usb/usb-arch.c:698: ep0status = EP_IDLE;
   0CEA 90s00r00           3679 	mov	dptr,#_ep0status
   0CED E4                 3680 	clr	a
   0CEE F0                 3681 	movx	@dptr,a
                           3682 ;	../../../contiki-sensinode//cpu/cc253x/usb/usb-arch.c:699: USBCS0 |= USBCS0_SEND_STALL | USBCS0_OUTPKT_RDY;
   0CEF 90 62 11           3683 	mov	dptr,#_USBCS0
   0CF2 E0                 3684 	movx	a,@dptr
   0CF3 FE                 3685 	mov	r6,a
   0CF4 44 21              3686 	orl	a,#0x21
   0CF6 F0                 3687 	movx	@dptr,a
   0CF7 80 3A              3688 	sjmp	00115$
   0CF9                    3689 00113$:
                           3690 ;	../../../contiki-sensinode//cpu/cc253x/usb/usb-arch.c:702: if(addr & 0x80) {
   0CF9 EF                 3691 	mov	a,r7
   0CFA 30 E7 1C           3692 	jnb	acc.7,00110$
                           3693 ;	../../../contiki-sensinode//cpu/cc253x/usb/usb-arch.c:703: if(stall) {
   0CFD E5 81              3694 	mov	a,sp
   0CFF 24 FD              3695 	add	a,#0xfd
   0D01 F8                 3696 	mov	r0,a
   0D02 E6                 3697 	mov	a,@r0
   0D03 60 0A              3698 	jz	00104$
                           3699 ;	../../../contiki-sensinode//cpu/cc253x/usb/usb-arch.c:704: USBCSIL |= USBCSIL_SEND_STALL;
   0D05 90 62 11           3700 	mov	dptr,#_USBCSIL
   0D08 E0                 3701 	movx	a,@dptr
   0D09 FF                 3702 	mov	r7,a
   0D0A 44 10              3703 	orl	a,#0x10
   0D0C F0                 3704 	movx	@dptr,a
   0D0D 80 24              3705 	sjmp	00115$
   0D0F                    3706 00104$:
                           3707 ;	../../../contiki-sensinode//cpu/cc253x/usb/usb-arch.c:706: USBCSIL &= ~USBCSIL_SEND_STALL;
   0D0F 90 62 11           3708 	mov	dptr,#_USBCSIL
   0D12 E0                 3709 	movx	a,@dptr
   0D13 54 EF              3710 	anl	a,#0xEF
   0D15 FF                 3711 	mov	r7,a
   0D16 F0                 3712 	movx	@dptr,a
   0D17 80 1A              3713 	sjmp	00115$
   0D19                    3714 00110$:
                           3715 ;	../../../contiki-sensinode//cpu/cc253x/usb/usb-arch.c:709: if(stall) {
   0D19 E5 81              3716 	mov	a,sp
   0D1B 24 FD              3717 	add	a,#0xfd
   0D1D F8                 3718 	mov	r0,a
   0D1E E6                 3719 	mov	a,@r0
   0D1F 60 0A              3720 	jz	00107$
                           3721 ;	../../../contiki-sensinode//cpu/cc253x/usb/usb-arch.c:710: USBCSOL |= USBCSOL_SEND_STALL;
   0D21 90 62 14           3722 	mov	dptr,#_USBCSOL
   0D24 E0                 3723 	movx	a,@dptr
   0D25 FF                 3724 	mov	r7,a
   0D26 44 20              3725 	orl	a,#0x20
   0D28 F0                 3726 	movx	@dptr,a
   0D29 80 08              3727 	sjmp	00115$
   0D2B                    3728 00107$:
                           3729 ;	../../../contiki-sensinode//cpu/cc253x/usb/usb-arch.c:712: USBCSOL &= ~USBCSOL_SEND_STALL;
   0D2B 90 62 14           3730 	mov	dptr,#_USBCSOL
   0D2E E0                 3731 	movx	a,@dptr
   0D2F 54 DF              3732 	anl	a,#0xDF
   0D31 FF                 3733 	mov	r7,a
   0D32 F0                 3734 	movx	@dptr,a
   0D33                    3735 00115$:
   0D33 02s00r00           3736 	ljmp	__sdcc_banked_ret
                           3737 ;------------------------------------------------------------
                           3738 ;Allocation info for local variables in function 'usb_arch_control_stall'
                           3739 ;------------------------------------------------------------
                           3740 ;addr                      Allocated to registers r7 
                           3741 ;ei                        Allocated to registers r6 
                           3742 ;flag                      Allocated to registers r6 
                           3743 ;------------------------------------------------------------
                           3744 ;	../../../contiki-sensinode//cpu/cc253x/usb/usb-arch.c:719: usb_arch_control_stall(uint8_t addr)
                           3745 ;	-----------------------------------------
                           3746 ;	 function usb_arch_control_stall
                           3747 ;	-----------------------------------------
   0D36                    3748 _usb_arch_control_stall:
   0D36 AF 82              3749 	mov	r7,dpl
                           3750 ;	../../../contiki-sensinode//cpu/cc253x/usb/usb-arch.c:721: uint8_t ei = EP_HW_NUM(addr);
   0D38 74 7F              3751 	mov	a,#0x7F
   0D3A 5F                 3752 	anl	a,r7
                           3753 ;	../../../contiki-sensinode//cpu/cc253x/usb/usb-arch.c:724: if(ei > USB_MAX_ENDPOINTS) {
   0D3B FE                 3754 	mov  r6,a
   0D3C 24 FB              3755 	add	a,#0xff - 0x04
   0D3E 50 02              3756 	jnc	00103$
                           3757 ;	../../../contiki-sensinode//cpu/cc253x/usb/usb-arch.c:725: return;
                           3758 ;	../../../contiki-sensinode//cpu/cc253x/usb/usb-arch.c:728: usb_irq_disable(flag);
   0D40 80 24              3759 	sjmp	00109$
   0D42                    3760 00103$:
   0D42 74 02              3761 	mov	a,#0x02
   0D44 55 9A              3762 	anl	a,_IEN2
   0D46 FE                 3763 	mov	r6,a
   0D47 AD 9A              3764 	mov	r5,_IEN2
   0D49 53 05 FD           3765 	anl	ar5,#0xFD
   0D4C 8D 9A              3766 	mov	_IEN2,r5
                           3767 ;	../../../contiki-sensinode//cpu/cc253x/usb/usb-arch.c:730: set_stall(addr, 1);
   0D4E C0 06              3768 	push	ar6
   0D50 74 01              3769 	mov	a,#0x01
   0D52 C0 E0              3770 	push	acc
   0D54 8F 82              3771 	mov	dpl,r7
   0D56 78rD5              3772 	mov	r0,#_set_stall
   0D58 79s0C              3773 	mov	r1,#(_set_stall >> 8)
   0D5A 7As00              3774 	mov	r2,#(_set_stall >> 16)
   0D5C 12s00r00           3775 	lcall	__sdcc_banked_call
   0D5F 15 81              3776 	dec	sp
   0D61 D0 06              3777 	pop	ar6
                           3778 ;	../../../contiki-sensinode//cpu/cc253x/usb/usb-arch.c:732: usb_irq_enable(flag);
   0D63 EE                 3779 	mov	a,r6
   0D64 42 9A              3780 	orl	_IEN2,a
   0D66                    3781 00109$:
   0D66 02s00r00           3782 	ljmp	__sdcc_banked_ret
                           3783 ;------------------------------------------------------------
                           3784 ;Allocation info for local variables in function 'usb_arch_halt_endpoint'
                           3785 ;------------------------------------------------------------
                           3786 ;halt                      Allocated to stack - sp -13
                           3787 ;addr                      Allocated to stack - sp -8
                           3788 ;ei                        Allocated to registers r5 
                           3789 ;flag                      Allocated to registers r7 
                           3790 ;ep                        Allocated to registers r4 r3 r6 
                           3791 ;sloc0                     Allocated to stack - sp -7
                           3792 ;sloc1                     Allocated to stack - sp -4
                           3793 ;sloc2                     Allocated to stack - sp -1
                           3794 ;------------------------------------------------------------
                           3795 ;	../../../contiki-sensinode//cpu/cc253x/usb/usb-arch.c:736: usb_arch_halt_endpoint(uint8_t addr, int halt)
                           3796 ;	-----------------------------------------
                           3797 ;	 function usb_arch_halt_endpoint
                           3798 ;	-----------------------------------------
   0D69                    3799 _usb_arch_halt_endpoint:
   0D69 C0 82              3800 	push	dpl
   0D6B E5 81              3801 	mov	a,sp
   0D6D 24 08              3802 	add	a,#0x08
                           3803 ;	../../../contiki-sensinode//cpu/cc253x/usb/usb-arch.c:738: uint8_t ei = EP_HW_NUM(addr);
   0D6F F5 81              3804 	mov	sp,a
   0D71 24 F8              3805 	add	a,#0xf8
   0D73 F8                 3806 	mov	r0,a
   0D74 74 7F              3807 	mov	a,#0x7F
   0D76 56                 3808 	anl	a,@r0
                           3809 ;	../../../contiki-sensinode//cpu/cc253x/usb/usb-arch.c:740: USBEndpoint *ep = EP_STRUCT(addr);
   0D77 FD                 3810 	mov	r5,a
   0D78 75 F0 0D           3811 	mov	b,#0x0D
   0D7B A4                 3812 	mul	ab
   0D7C 24r01              3813 	add	a,#_usb_endpoints
   0D7E FC                 3814 	mov	r4,a
   0D7F E4                 3815 	clr	a
   0D80 34s00              3816 	addc	a,#(_usb_endpoints >> 8)
   0D82 FB                 3817 	mov	r3,a
   0D83 7E 00              3818 	mov	r6,#0x00
                           3819 ;	../../../contiki-sensinode//cpu/cc253x/usb/usb-arch.c:743: if(ei > USB_MAX_ENDPOINTS) {
   0D85 ED                 3820 	mov	a,r5
   0D86 24 FB              3821 	add	a,#0xff - 0x04
   0D88 50 03              3822 	jnc	00102$
                           3823 ;	../../../contiki-sensinode//cpu/cc253x/usb/usb-arch.c:744: return;
   0D8A 02s0Fr3C           3824 	ljmp	00121$
   0D8D                    3825 00102$:
                           3826 ;	../../../contiki-sensinode//cpu/cc253x/usb/usb-arch.c:747: if(!(ep->flags & USB_EP_FLAGS_ENABLED)) {
   0D8D C0 05              3827 	push	ar5
   0D8F 74 02              3828 	mov	a,#0x02
   0D91 2C                 3829 	add	a,r4
   0D92 FA                 3830 	mov	r2,a
   0D93 E4                 3831 	clr	a
   0D94 3B                 3832 	addc	a,r3
   0D95 FD                 3833 	mov	r5,a
   0D96 8E 07              3834 	mov	ar7,r6
   0D98 8A 82              3835 	mov	dpl,r2
   0D9A 8D 83              3836 	mov	dph,r5
   0D9C 8F F0              3837 	mov	b,r7
   0D9E 12s00r00           3838 	lcall	__gptrget
   0DA1 FA                 3839 	mov	r2,a
   0DA2 D0 05              3840 	pop	ar5
   0DA4 20 E2 03           3841 	jb	acc.2,00105$
                           3842 ;	../../../contiki-sensinode//cpu/cc253x/usb/usb-arch.c:748: return;
   0DA7 02s0Fr3C           3843 	ljmp	00121$
                           3844 ;	../../../contiki-sensinode//cpu/cc253x/usb/usb-arch.c:751: usb_irq_disable(flag);
   0DAA                    3845 00105$:
   0DAA 74 02              3846 	mov	a,#0x02
   0DAC 55 9A              3847 	anl	a,_IEN2
   0DAE FF                 3848 	mov	r7,a
   0DAF AA 9A              3849 	mov	r2,_IEN2
   0DB1 53 02 FD           3850 	anl	ar2,#0xFD
   0DB4 8A 9A              3851 	mov	_IEN2,r2
                           3852 ;	../../../contiki-sensinode//cpu/cc253x/usb/usb-arch.c:753: if(halt) {
   0DB6 E5 81              3853 	mov	a,sp
   0DB8 24 F3              3854 	add	a,#0xf3
   0DBA F8                 3855 	mov	r0,a
   0DBB E6                 3856 	mov	a,@r0
   0DBC 08                 3857 	inc	r0
   0DBD 46                 3858 	orl	a,@r0
   0DBE 60 28              3859 	jz	00116$
                           3860 ;	../../../contiki-sensinode//cpu/cc253x/usb/usb-arch.c:754: ep->halted = 0x1;
   0DC0 8C 82              3861 	mov	dpl,r4
   0DC2 8B 83              3862 	mov	dph,r3
   0DC4 8E F0              3863 	mov	b,r6
   0DC6 74 01              3864 	mov	a,#0x01
   0DC8 12s00r00           3865 	lcall	__gptrput
                           3866 ;	../../../contiki-sensinode//cpu/cc253x/usb/usb-arch.c:755: set_stall(addr, 1);
   0DCB C0 07              3867 	push	ar7
   0DCD 74 01              3868 	mov	a,#0x01
   0DCF C0 E0              3869 	push	acc
   0DD1 E5 81              3870 	mov	a,sp
   0DD3 24 F6              3871 	add	a,#0xf6
   0DD5 F8                 3872 	mov	r0,a
   0DD6 86 82              3873 	mov	dpl,@r0
   0DD8 78rD5              3874 	mov	r0,#_set_stall
   0DDA 79s0C              3875 	mov	r1,#(_set_stall >> 8)
   0DDC 7As00              3876 	mov	r2,#(_set_stall >> 16)
   0DDE 12s00r00           3877 	lcall	__sdcc_banked_call
   0DE1 15 81              3878 	dec	sp
   0DE3 D0 07              3879 	pop	ar7
   0DE5 02s0Fr39           3880 	ljmp	00118$
   0DE8                    3881 00116$:
                           3882 ;	../../../contiki-sensinode//cpu/cc253x/usb/usb-arch.c:757: ep->halted = 0;
   0DE8 8C 82              3883 	mov	dpl,r4
   0DEA 8B 83              3884 	mov	dph,r3
   0DEC 8E F0              3885 	mov	b,r6
   0DEE E4                 3886 	clr	a
   0DEF 12s00r00           3887 	lcall	__gptrput
                           3888 ;	../../../contiki-sensinode//cpu/cc253x/usb/usb-arch.c:758: set_stall(addr, 0);
   0DF2 C0 07              3889 	push	ar7
   0DF4 C0 06              3890 	push	ar6
   0DF6 C0 05              3891 	push	ar5
   0DF8 C0 04              3892 	push	ar4
   0DFA C0 03              3893 	push	ar3
   0DFC E4                 3894 	clr	a
   0DFD C0 E0              3895 	push	acc
   0DFF E5 81              3896 	mov	a,sp
   0E01 24 F2              3897 	add	a,#0xf2
   0E03 F8                 3898 	mov	r0,a
   0E04 86 82              3899 	mov	dpl,@r0
   0E06 78rD5              3900 	mov	r0,#_set_stall
   0E08 79s0C              3901 	mov	r1,#(_set_stall >> 8)
   0E0A 7As00              3902 	mov	r2,#(_set_stall >> 16)
   0E0C 12s00r00           3903 	lcall	__sdcc_banked_call
   0E0F 15 81              3904 	dec	sp
   0E11 D0 03              3905 	pop	ar3
   0E13 D0 04              3906 	pop	ar4
   0E15 D0 05              3907 	pop	ar5
   0E17 D0 06              3908 	pop	ar6
   0E19 D0 07              3909 	pop	ar7
                           3910 ;	../../../contiki-sensinode//cpu/cc253x/usb/usb-arch.c:760: if(ep->buffer && (ep->buffer->flags & USB_BUFFER_HALT)) {
   0E1B E5 81              3911 	mov	a,sp
   0E1D 24 F9              3912 	add	a,#0xf9
   0E1F F8                 3913 	mov	r0,a
   0E20 74 03              3914 	mov	a,#0x03
   0E22 2C                 3915 	add	a,r4
   0E23 F6                 3916 	mov	@r0,a
   0E24 E4                 3917 	clr	a
   0E25 3B                 3918 	addc	a,r3
   0E26 08                 3919 	inc	r0
   0E27 F6                 3920 	mov	@r0,a
   0E28 08                 3921 	inc	r0
   0E29 A6 06              3922 	mov	@r0,ar6
   0E2B E5 81              3923 	mov	a,sp
   0E2D 24 F9              3924 	add	a,#0xf9
   0E2F F8                 3925 	mov	r0,a
   0E30 86 82              3926 	mov	dpl,@r0
   0E32 08                 3927 	inc	r0
   0E33 86 83              3928 	mov	dph,@r0
   0E35 08                 3929 	inc	r0
   0E36 86 F0              3930 	mov	b,@r0
   0E38 E5 81              3931 	mov	a,sp
   0E3A 24 FC              3932 	add	a,#0xfc
   0E3C F9                 3933 	mov	r1,a
   0E3D 12s00r00           3934 	lcall	__gptrget
   0E40 F7                 3935 	mov	@r1,a
   0E41 A3                 3936 	inc	dptr
   0E42 12s00r00           3937 	lcall	__gptrget
   0E45 09                 3938 	inc	r1
   0E46 F7                 3939 	mov	@r1,a
   0E47 A3                 3940 	inc	dptr
   0E48 12s00r00           3941 	lcall	__gptrget
   0E4B 09                 3942 	inc	r1
   0E4C F7                 3943 	mov	@r1,a
   0E4D E5 81              3944 	mov	a,sp
   0E4F 24 FC              3945 	add	a,#0xfc
   0E51 F8                 3946 	mov	r0,a
   0E52 E6                 3947 	mov	a,@r0
   0E53 08                 3948 	inc	r0
   0E54 46                 3949 	orl	a,@r0
   0E55 70 03              3950 	jnz	00140$
   0E57 02s0Fr1F           3951 	ljmp	00111$
   0E5A                    3952 00140$:
   0E5A E5 81              3953 	mov	a,sp
   0E5C 24 FC              3954 	add	a,#0xfc
   0E5E F8                 3955 	mov	r0,a
   0E5F 74 08              3956 	mov	a,#0x08
   0E61 26                 3957 	add	a,@r0
   0E62 F6                 3958 	mov	@r0,a
   0E63 E4                 3959 	clr	a
   0E64 08                 3960 	inc	r0
   0E65 36                 3961 	addc	a,@r0
   0E66 F6                 3962 	mov	@r0,a
   0E67 E5 81              3963 	mov	a,sp
   0E69 24 FC              3964 	add	a,#0xfc
   0E6B F8                 3965 	mov	r0,a
   0E6C 86 82              3966 	mov	dpl,@r0
   0E6E 08                 3967 	inc	r0
   0E6F 86 83              3968 	mov	dph,@r0
   0E71 08                 3969 	inc	r0
   0E72 86 F0              3970 	mov	b,@r0
   0E74 A9 81              3971 	mov	r1,sp
   0E76 19                 3972 	dec	r1
   0E77 12s00r00           3973 	lcall	__gptrget
   0E7A F7                 3974 	mov	@r1,a
   0E7B A3                 3975 	inc	dptr
   0E7C 12s00r00           3976 	lcall	__gptrget
   0E7F 09                 3977 	inc	r1
   0E80 F7                 3978 	mov	@r1,a
   0E81 A8 81              3979 	mov	r0,sp
   0E83 E6                 3980 	mov	a,@r0
   0E84 20 E0 03           3981 	jb	acc.0,00141$
   0E87 02s0Fr1F           3982 	ljmp	00111$
   0E8A                    3983 00141$:
                           3984 ;	../../../contiki-sensinode//cpu/cc253x/usb/usb-arch.c:761: ep->buffer->flags &= ~USB_BUFFER_SUBMITTED;
   0E8A C0 07              3985 	push	ar7
   0E8C A8 81              3986 	mov	r0,sp
   0E8E 18                 3987 	dec	r0
   0E8F 18                 3988 	dec	r0
   0E90 74 FE              3989 	mov	a,#0xFE
   0E92 56                 3990 	anl	a,@r0
   0E93 FA                 3991 	mov	r2,a
   0E94 08                 3992 	inc	r0
   0E95 86 07              3993 	mov	ar7,@r0
   0E97 E5 81              3994 	mov	a,sp
   0E99 24 FB              3995 	add	a,#0xfb
   0E9B F8                 3996 	mov	r0,a
   0E9C 86 82              3997 	mov	dpl,@r0
   0E9E 08                 3998 	inc	r0
   0E9F 86 83              3999 	mov	dph,@r0
   0EA1 08                 4000 	inc	r0
   0EA2 86 F0              4001 	mov	b,@r0
   0EA4 EA                 4002 	mov	a,r2
   0EA5 12s00r00           4003 	lcall	__gptrput
   0EA8 A3                 4004 	inc	dptr
   0EA9 EF                 4005 	mov	a,r7
   0EAA 12s00r00           4006 	lcall	__gptrput
                           4007 ;	../../../contiki-sensinode//cpu/cc253x/usb/usb-arch.c:762: if(ep->buffer->flags & USB_BUFFER_NOTIFY) {
   0EAD EA                 4008 	mov	a,r2
   0EAE D0 07              4009 	pop	ar7
   0EB0 30 E3 22           4010 	jnb	acc.3,00109$
                           4011 ;	../../../contiki-sensinode//cpu/cc253x/usb/usb-arch.c:763: notify_ep_process(ep, USB_EP_EVENT_NOTIFICATION);
   0EB3 C0 07              4012 	push	ar7
   0EB5 C0 05              4013 	push	ar5
   0EB7 74 01              4014 	mov	a,#0x01
   0EB9 C0 E0              4015 	push	acc
   0EBB E4                 4016 	clr	a
   0EBC C0 E0              4017 	push	acc
   0EBE 8C 82              4018 	mov	dpl,r4
   0EC0 8B 83              4019 	mov	dph,r3
   0EC2 8E F0              4020 	mov	b,r6
   0EC4 78r37              4021 	mov	r0,#_notify_ep_process
   0EC6 79s00              4022 	mov	r1,#(_notify_ep_process >> 8)
   0EC8 7As00              4023 	mov	r2,#(_notify_ep_process >> 16)
   0ECA 12s00r00           4024 	lcall	__sdcc_banked_call
   0ECD 15 81              4025 	dec	sp
   0ECF 15 81              4026 	dec	sp
   0ED1 D0 05              4027 	pop	ar5
   0ED3 D0 07              4028 	pop	ar7
   0ED5                    4029 00109$:
                           4030 ;	../../../contiki-sensinode//cpu/cc253x/usb/usb-arch.c:765: ep->buffer = ep->buffer->next;
   0ED5 E5 81              4031 	mov	a,sp
   0ED7 24 F9              4032 	add	a,#0xf9
   0ED9 F8                 4033 	mov	r0,a
   0EDA 86 82              4034 	mov	dpl,@r0
   0EDC 08                 4035 	inc	r0
   0EDD 86 83              4036 	mov	dph,@r0
   0EDF 08                 4037 	inc	r0
   0EE0 86 F0              4038 	mov	b,@r0
   0EE2 12s00r00           4039 	lcall	__gptrget
   0EE5 FB                 4040 	mov	r3,a
   0EE6 A3                 4041 	inc	dptr
   0EE7 12s00r00           4042 	lcall	__gptrget
   0EEA FC                 4043 	mov	r4,a
   0EEB A3                 4044 	inc	dptr
   0EEC 12s00r00           4045 	lcall	__gptrget
   0EEF FE                 4046 	mov	r6,a
   0EF0 8B 82              4047 	mov	dpl,r3
   0EF2 8C 83              4048 	mov	dph,r4
   0EF4 8E F0              4049 	mov	b,r6
   0EF6 12s00r00           4050 	lcall	__gptrget
   0EF9 FB                 4051 	mov	r3,a
   0EFA A3                 4052 	inc	dptr
   0EFB 12s00r00           4053 	lcall	__gptrget
   0EFE FC                 4054 	mov	r4,a
   0EFF A3                 4055 	inc	dptr
   0F00 12s00r00           4056 	lcall	__gptrget
   0F03 FE                 4057 	mov	r6,a
   0F04 E5 81              4058 	mov	a,sp
   0F06 24 F9              4059 	add	a,#0xf9
   0F08 F8                 4060 	mov	r0,a
   0F09 86 82              4061 	mov	dpl,@r0
   0F0B 08                 4062 	inc	r0
   0F0C 86 83              4063 	mov	dph,@r0
   0F0E 08                 4064 	inc	r0
   0F0F 86 F0              4065 	mov	b,@r0
   0F11 EB                 4066 	mov	a,r3
   0F12 12s00r00           4067 	lcall	__gptrput
   0F15 A3                 4068 	inc	dptr
   0F16 EC                 4069 	mov	a,r4
   0F17 12s00r00           4070 	lcall	__gptrput
   0F1A A3                 4071 	inc	dptr
   0F1B EE                 4072 	mov	a,r6
   0F1C 12s00r00           4073 	lcall	__gptrput
   0F1F                    4074 00111$:
                           4075 ;	../../../contiki-sensinode//cpu/cc253x/usb/usb-arch.c:767: if(ei) {
   0F1F ED                 4076 	mov	a,r5
   0F20 60 17              4077 	jz	00118$
                           4078 ;	../../../contiki-sensinode//cpu/cc253x/usb/usb-arch.c:768: usb_arch_epout_irq(EP_HW_NUM(addr));
   0F22 E5 81              4079 	mov	a,sp
   0F24 24 F8              4080 	add	a,#0xf8
   0F26 F8                 4081 	mov	r0,a
   0F27 74 7F              4082 	mov	a,#0x7F
   0F29 56                 4083 	anl	a,@r0
   0F2A F5 82              4084 	mov	dpl,a
   0F2C C0 07              4085 	push	ar7
   0F2E 78r7D              4086 	mov	r0,#_usb_arch_epout_irq
   0F30 79s20              4087 	mov	r1,#(_usb_arch_epout_irq >> 8)
   0F32 7As00              4088 	mov	r2,#(_usb_arch_epout_irq >> 16)
   0F34 12s00r00           4089 	lcall	__sdcc_banked_call
   0F37 D0 07              4090 	pop	ar7
                           4091 ;	../../../contiki-sensinode//cpu/cc253x/usb/usb-arch.c:772: usb_irq_enable(flag);
   0F39                    4092 00118$:
   0F39 EF                 4093 	mov	a,r7
   0F3A 42 9A              4094 	orl	_IEN2,a
   0F3C                    4095 00121$:
   0F3C E5 81              4096 	mov	a,sp
   0F3E 24 F7              4097 	add	a,#0xF7
   0F40 F5 81              4098 	mov	sp,a
   0F42 02s00r00           4099 	ljmp	__sdcc_banked_ret
                           4100 ;------------------------------------------------------------
                           4101 ;Allocation info for local variables in function 'usb_arch_set_configuration'
                           4102 ;------------------------------------------------------------
                           4103 ;usb_configuration_value   Allocated to registers 
                           4104 ;------------------------------------------------------------
                           4105 ;	../../../contiki-sensinode//cpu/cc253x/usb/usb-arch.c:776: usb_arch_set_configuration(uint8_t usb_configuration_value)
                           4106 ;	-----------------------------------------
                           4107 ;	 function usb_arch_set_configuration
                           4108 ;	-----------------------------------------
   0F45                    4109 _usb_arch_set_configuration:
                           4110 ;	../../../contiki-sensinode//cpu/cc253x/usb/usb-arch.c:779: }
   0F45 02s00r00           4111 	ljmp	__sdcc_banked_ret
                           4112 ;------------------------------------------------------------
                           4113 ;Allocation info for local variables in function 'usb_arch_get_ep_status'
                           4114 ;------------------------------------------------------------
                           4115 ;addr                      Allocated to registers r7 
                           4116 ;ei                        Allocated to registers r6 
                           4117 ;ep                        Allocated to registers r5 r4 r7 
                           4118 ;------------------------------------------------------------
                           4119 ;	../../../contiki-sensinode//cpu/cc253x/usb/usb-arch.c:782: usb_arch_get_ep_status(uint8_t addr)
                           4120 ;	-----------------------------------------
                           4121 ;	 function usb_arch_get_ep_status
                           4122 ;	-----------------------------------------
   0F48                    4123 _usb_arch_get_ep_status:
                           4124 ;	../../../contiki-sensinode//cpu/cc253x/usb/usb-arch.c:784: uint8_t ei = EP_INDEX(addr);
                           4125 ;	../../../contiki-sensinode//cpu/cc253x/usb/usb-arch.c:785: USBEndpoint *ep = EP_STRUCT(addr);
   0F48 E5 82              4126 	mov	a,dpl
   0F4A 54 7F              4127 	anl	a,#0x7F
   0F4C FE                 4128 	mov	r6,a
   0F4D 75 F0 0D           4129 	mov	b,#0x0D
   0F50 A4                 4130 	mul	ab
   0F51 24r01              4131 	add	a,#_usb_endpoints
   0F53 FD                 4132 	mov	r5,a
   0F54 E4                 4133 	clr	a
   0F55 34s00              4134 	addc	a,#(_usb_endpoints >> 8)
   0F57 FC                 4135 	mov	r4,a
   0F58 7F 00              4136 	mov	r7,#0x00
                           4137 ;	../../../contiki-sensinode//cpu/cc253x/usb/usb-arch.c:787: if(ei > USB_MAX_ENDPOINTS) {
   0F5A EE                 4138 	mov	a,r6
   0F5B 24 FB              4139 	add	a,#0xff - 0x04
   0F5D 50 05              4140 	jnc	00102$
                           4141 ;	../../../contiki-sensinode//cpu/cc253x/usb/usb-arch.c:788: return 0;
   0F5F 90 00 00           4142 	mov	dptr,#0x0000
   0F62 80 10              4143 	sjmp	00103$
   0F64                    4144 00102$:
                           4145 ;	../../../contiki-sensinode//cpu/cc253x/usb/usb-arch.c:791: return ep->halted;
   0F64 8D 82              4146 	mov	dpl,r5
   0F66 8C 83              4147 	mov	dph,r4
   0F68 8F F0              4148 	mov	b,r7
   0F6A 12s00r00           4149 	lcall	__gptrget
   0F6D FD                 4150 	mov	r5,a
   0F6E 7F 00              4151 	mov	r7,#0x00
   0F70 8D 82              4152 	mov	dpl,r5
   0F72 8F 83              4153 	mov	dph,r7
   0F74                    4154 00103$:
   0F74 02s00r00           4155 	ljmp	__sdcc_banked_ret
                           4156 ;------------------------------------------------------------
                           4157 ;Allocation info for local variables in function 'usb_arch_set_address'
                           4158 ;------------------------------------------------------------
                           4159 ;addr                      Allocated to registers 
                           4160 ;------------------------------------------------------------
                           4161 ;	../../../contiki-sensinode//cpu/cc253x/usb/usb-arch.c:795: usb_arch_set_address(uint8_t addr)
                           4162 ;	-----------------------------------------
                           4163 ;	 function usb_arch_set_address
                           4164 ;	-----------------------------------------
   0F77                    4165 _usb_arch_set_address:
   0F77 E5 82              4166 	mov	a,dpl
   0F79 90 62 00           4167 	mov	dptr,#_USBADDR
   0F7C F0                 4168 	movx	@dptr,a
                           4169 ;	../../../contiki-sensinode//cpu/cc253x/usb/usb-arch.c:797: USBADDR = addr;
   0F7D 02s00r00           4170 	ljmp	__sdcc_banked_ret
                           4171 ;------------------------------------------------------------
                           4172 ;Allocation info for local variables in function 'usb_arch_send_pending'
                           4173 ;------------------------------------------------------------
                           4174 ;addr                      Allocated to registers r7 
                           4175 ;flag                      Allocated to registers r6 
                           4176 ;ret                       Allocated to registers r7 
                           4177 ;ei                        Allocated to registers r7 
                           4178 ;------------------------------------------------------------
                           4179 ;	../../../contiki-sensinode//cpu/cc253x/usb/usb-arch.c:801: usb_arch_send_pending(uint8_t addr)
                           4180 ;	-----------------------------------------
                           4181 ;	 function usb_arch_send_pending
                           4182 ;	-----------------------------------------
   0F80                    4183 _usb_arch_send_pending:
   0F80 AF 82              4184 	mov	r7,dpl
                           4185 ;	../../../contiki-sensinode//cpu/cc253x/usb/usb-arch.c:805: uint8_t ei = EP_INDEX(addr);
   0F82 53 07 7F           4186 	anl	ar7,#0x7F
                           4187 ;	../../../contiki-sensinode//cpu/cc253x/usb/usb-arch.c:807: usb_irq_disable(flag);
   0F85 74 02              4188 	mov	a,#0x02
   0F87 55 9A              4189 	anl	a,_IEN2
   0F89 FE                 4190 	mov	r6,a
   0F8A AD 9A              4191 	mov	r5,_IEN2
   0F8C 53 05 FD           4192 	anl	ar5,#0xFD
   0F8F 8D 9A              4193 	mov	_IEN2,r5
                           4194 ;	../../../contiki-sensinode//cpu/cc253x/usb/usb-arch.c:808: USBINDEX = ei;
   0F91 90 62 0E           4195 	mov	dptr,#_USBINDEX
   0F94 EF                 4196 	mov	a,r7
   0F95 F0                 4197 	movx	@dptr,a
                           4198 ;	../../../contiki-sensinode//cpu/cc253x/usb/usb-arch.c:809: if(ei == 0) {
   0F96 EF                 4199 	mov	a,r7
   0F97 70 0A              4200 	jnz	00105$
                           4201 ;	../../../contiki-sensinode//cpu/cc253x/usb/usb-arch.c:810: ret = USBCS0 & USBCS0_INPKT_RDY;
   0F99 90 62 11           4202 	mov	dptr,#_USBCS0
   0F9C E0                 4203 	movx	a,@dptr
   0F9D FF                 4204 	mov	r7,a
   0F9E 53 07 02           4205 	anl	ar7,#0x02
   0FA1 80 09              4206 	sjmp	00107$
   0FA3                    4207 00105$:
                           4208 ;	../../../contiki-sensinode//cpu/cc253x/usb/usb-arch.c:812: ret = USBCSIL & USBCSIL_INPKT_RDY;
   0FA3 90 62 11           4209 	mov	dptr,#_USBCSIL
   0FA6 E0                 4210 	movx	a,@dptr
   0FA7 FD                 4211 	mov	r5,a
   0FA8 74 01              4212 	mov	a,#0x01
   0FAA 5D                 4213 	anl	a,r5
   0FAB FF                 4214 	mov	r7,a
                           4215 ;	../../../contiki-sensinode//cpu/cc253x/usb/usb-arch.c:814: usb_irq_enable(flag);
   0FAC                    4216 00107$:
   0FAC EE                 4217 	mov	a,r6
   0FAD 42 9A              4218 	orl	_IEN2,a
                           4219 ;	../../../contiki-sensinode//cpu/cc253x/usb/usb-arch.c:816: return ret;
   0FAF 7E 00              4220 	mov	r6,#0x00
   0FB1 8F 82              4221 	mov	dpl,r7
   0FB3 8E 83              4222 	mov	dph,r6
   0FB5 02s00r00           4223 	ljmp	__sdcc_banked_ret
                           4224 ;------------------------------------------------------------
                           4225 ;Allocation info for local variables in function 'get_receive_capacity'
                           4226 ;------------------------------------------------------------
                           4227 ;buffer                    Allocated to registers r5 r6 r7 
                           4228 ;capacity                  Allocated to stack - sp -1
                           4229 ;------------------------------------------------------------
                           4230 ;	../../../contiki-sensinode//cpu/cc253x/usb/usb-arch.c:820: get_receive_capacity(USBBuffer * buffer)
                           4231 ;	-----------------------------------------
                           4232 ;	 function get_receive_capacity
                           4233 ;	-----------------------------------------
   0FB8                    4234 _get_receive_capacity:
   0FB8 05 81              4235 	inc	sp
   0FBA 05 81              4236 	inc	sp
   0FBC AD 82              4237 	mov	r5,dpl
   0FBE AE 83              4238 	mov	r6,dph
   0FC0 AF F0              4239 	mov	r7,b
                           4240 ;	../../../contiki-sensinode//cpu/cc253x/usb/usb-arch.c:822: unsigned int capacity = 0;
   0FC2 A8 81              4241 	mov	r0,sp
   0FC4 18                 4242 	dec	r0
   0FC5 E4                 4243 	clr	a
   0FC6 F6                 4244 	mov	@r0,a
   0FC7 08                 4245 	inc	r0
   0FC8 F6                 4246 	mov	@r0,a
                           4247 ;	../../../contiki-sensinode//cpu/cc253x/usb/usb-arch.c:824: while(buffer &&
   0FC9                    4248 00102$:
   0FC9 ED                 4249 	mov	a,r5
   0FCA 4E                 4250 	orl	a,r6
   0FCB 60 5B              4251 	jz	00104$
                           4252 ;	../../../contiki-sensinode//cpu/cc253x/usb/usb-arch.c:825: !(buffer->flags & (USB_BUFFER_IN | USB_BUFFER_SETUP | USB_BUFFER_HALT))) {
   0FCD 74 08              4253 	mov	a,#0x08
   0FCF 2D                 4254 	add	a,r5
   0FD0 FA                 4255 	mov	r2,a
   0FD1 E4                 4256 	clr	a
   0FD2 3E                 4257 	addc	a,r6
   0FD3 FB                 4258 	mov	r3,a
   0FD4 8F 04              4259 	mov	ar4,r7
   0FD6 8A 82              4260 	mov	dpl,r2
   0FD8 8B 83              4261 	mov	dph,r3
   0FDA 8C F0              4262 	mov	b,r4
   0FDC 12s00r00           4263 	lcall	__gptrget
   0FDF FA                 4264 	mov	r2,a
   0FE0 A3                 4265 	inc	dptr
   0FE1 12s00r00           4266 	lcall	__gptrget
   0FE4 FB                 4267 	mov	r3,a
   0FE5 EA                 4268 	mov	a,r2
   0FE6 54 60              4269 	anl	a,#0x60
   0FE8 70 04              4270 	jnz	00114$
   0FEA EB                 4271 	mov	a,r3
   0FEB 30 E0 02           4272 	jnb	acc.0,00115$
   0FEE                    4273 00114$:
   0FEE 80 38              4274 	sjmp	00104$
   0FF0                    4275 00115$:
                           4276 ;	../../../contiki-sensinode//cpu/cc253x/usb/usb-arch.c:826: capacity += buffer->left;
   0FF0 74 06              4277 	mov	a,#0x06
   0FF2 2D                 4278 	add	a,r5
   0FF3 FA                 4279 	mov	r2,a
   0FF4 E4                 4280 	clr	a
   0FF5 3E                 4281 	addc	a,r6
   0FF6 FB                 4282 	mov	r3,a
   0FF7 8F 04              4283 	mov	ar4,r7
   0FF9 8A 82              4284 	mov	dpl,r2
   0FFB 8B 83              4285 	mov	dph,r3
   0FFD 8C F0              4286 	mov	b,r4
   0FFF 12s00r00           4287 	lcall	__gptrget
   1002 FA                 4288 	mov	r2,a
   1003 A3                 4289 	inc	dptr
   1004 12s00r00           4290 	lcall	__gptrget
   1007 FB                 4291 	mov	r3,a
   1008 A8 81              4292 	mov	r0,sp
   100A 18                 4293 	dec	r0
   100B EA                 4294 	mov	a,r2
   100C 26                 4295 	add	a,@r0
   100D F6                 4296 	mov	@r0,a
   100E EB                 4297 	mov	a,r3
   100F 08                 4298 	inc	r0
   1010 36                 4299 	addc	a,@r0
   1011 F6                 4300 	mov	@r0,a
                           4301 ;	../../../contiki-sensinode//cpu/cc253x/usb/usb-arch.c:827: buffer = buffer->next;
   1012 8D 82              4302 	mov	dpl,r5
   1014 8E 83              4303 	mov	dph,r6
   1016 8F F0              4304 	mov	b,r7
   1018 12s00r00           4305 	lcall	__gptrget
   101B FD                 4306 	mov	r5,a
   101C A3                 4307 	inc	dptr
   101D 12s00r00           4308 	lcall	__gptrget
   1020 FE                 4309 	mov	r6,a
   1021 A3                 4310 	inc	dptr
   1022 12s00r00           4311 	lcall	__gptrget
   1025 FF                 4312 	mov	r7,a
   1026 80 A1              4313 	sjmp	00102$
   1028                    4314 00104$:
                           4315 ;	../../../contiki-sensinode//cpu/cc253x/usb/usb-arch.c:829: return capacity;
   1028 A8 81              4316 	mov	r0,sp
   102A 18                 4317 	dec	r0
   102B 86 82              4318 	mov	dpl,@r0
   102D 08                 4319 	inc	r0
   102E 86 83              4320 	mov	dph,@r0
   1030 15 81              4321 	dec	sp
   1032 15 81              4322 	dec	sp
   1034 02s00r00           4323 	ljmp	__sdcc_banked_ret
                           4324 ;------------------------------------------------------------
                           4325 ;Allocation info for local variables in function 'skip_buffers_until'
                           4326 ;------------------------------------------------------------
                           4327 ;mask                      Allocated to stack - sp -6
                           4328 ;flags                     Allocated to stack - sp -8
                           4329 ;resp                      Allocated to stack - sp -11
                           4330 ;buffer                    Allocated to registers r5 r6 r7 
                           4331 ;sloc0                     Allocated to stack - sp -1
                           4332 ;------------------------------------------------------------
                           4333 ;	../../../contiki-sensinode//cpu/cc253x/usb/usb-arch.c:833: skip_buffers_until(USBBuffer * buffer, unsigned int mask, unsigned int flags,
                           4334 ;	-----------------------------------------
                           4335 ;	 function skip_buffers_until
                           4336 ;	-----------------------------------------
   1037                    4337 _skip_buffers_until:
   1037 05 81              4338 	inc	sp
   1039 05 81              4339 	inc	sp
   103B AD 82              4340 	mov	r5,dpl
   103D AE 83              4341 	mov	r6,dph
   103F AF F0              4342 	mov	r7,b
                           4343 ;	../../../contiki-sensinode//cpu/cc253x/usb/usb-arch.c:836: while(buffer && !((buffer->flags & mask) == flags)) {
   1041                    4344 00104$:
   1041 ED                 4345 	mov	a,r5
   1042 4E                 4346 	orl	a,r6
   1043 70 03              4347 	jnz	00117$
   1045 02s11r11           4348 	ljmp	00106$
   1048                    4349 00117$:
   1048 74 08              4350 	mov	a,#0x08
   104A 2D                 4351 	add	a,r5
   104B FA                 4352 	mov	r2,a
   104C E4                 4353 	clr	a
   104D 3E                 4354 	addc	a,r6
   104E FB                 4355 	mov	r3,a
   104F 8F 04              4356 	mov	ar4,r7
   1051 8A 82              4357 	mov	dpl,r2
   1053 8B 83              4358 	mov	dph,r3
   1055 8C F0              4359 	mov	b,r4
   1057 A8 81              4360 	mov	r0,sp
   1059 18                 4361 	dec	r0
   105A 12s00r00           4362 	lcall	__gptrget
   105D F6                 4363 	mov	@r0,a
   105E A3                 4364 	inc	dptr
   105F 12s00r00           4365 	lcall	__gptrget
   1062 08                 4366 	inc	r0
   1063 F6                 4367 	mov	@r0,a
   1064 C0 05              4368 	push	ar5
   1066 C0 06              4369 	push	ar6
   1068 C0 07              4370 	push	ar7
   106A E5 81              4371 	mov	a,sp
   106C 24 FC              4372 	add	a,#0xfc
   106E F8                 4373 	mov	r0,a
   106F E5 81              4374 	mov	a,sp
   1071 24 F7              4375 	add	a,#0xf7
   1073 F9                 4376 	mov	r1,a
   1074 E7                 4377 	mov	a,@r1
   1075 56                 4378 	anl	a,@r0
   1076 FE                 4379 	mov	r6,a
   1077 09                 4380 	inc	r1
   1078 E7                 4381 	mov	a,@r1
   1079 08                 4382 	inc	r0
   107A 56                 4383 	anl	a,@r0
   107B FF                 4384 	mov	r7,a
   107C E5 81              4385 	mov	a,sp
   107E 24 F5              4386 	add	a,#0xf5
   1080 F8                 4387 	mov	r0,a
   1081 E6                 4388 	mov	a,@r0
   1082 B5 06 0E           4389 	cjne	a,ar6,00118$
   1085 08                 4390 	inc	r0
   1086 E6                 4391 	mov	a,@r0
   1087 B5 07 09           4392 	cjne	a,ar7,00118$
   108A D0 07              4393 	pop	ar7
   108C D0 06              4394 	pop	ar6
   108E D0 05              4395 	pop	ar5
   1090 02s11r11           4396 	ljmp	00106$
   1093                    4397 00118$:
                           4398 ;	../../../contiki-sensinode//cpu/cc253x/usb/usb-arch.c:837: buffer->flags &= ~USB_BUFFER_SUBMITTED;
   1093 E5 81              4399 	mov	a,sp
   1095 24 FC              4400 	add	a,#0xfc
   1097 F8                 4401 	mov	r0,a
   1098 74 FE              4402 	mov	a,#0xFE
   109A 56                 4403 	anl	a,@r0
   109B FE                 4404 	mov	r6,a
   109C 08                 4405 	inc	r0
   109D 86 07              4406 	mov	ar7,@r0
   109F 8A 82              4407 	mov	dpl,r2
   10A1 8B 83              4408 	mov	dph,r3
   10A3 8C F0              4409 	mov	b,r4
   10A5 EE                 4410 	mov	a,r6
   10A6 12s00r00           4411 	lcall	__gptrput
   10A9 A3                 4412 	inc	dptr
   10AA EF                 4413 	mov	a,r7
   10AB 12s00r00           4414 	lcall	__gptrput
                           4415 ;	../../../contiki-sensinode//cpu/cc253x/usb/usb-arch.c:838: buffer->flags |= USB_BUFFER_FAILED;
   10AE 43 06 80           4416 	orl	ar6,#0x80
   10B1 8A 82              4417 	mov	dpl,r2
   10B3 8B 83              4418 	mov	dph,r3
   10B5 8C F0              4419 	mov	b,r4
   10B7 EE                 4420 	mov	a,r6
   10B8 12s00r00           4421 	lcall	__gptrput
   10BB A3                 4422 	inc	dptr
   10BC EF                 4423 	mov	a,r7
   10BD 12s00r00           4424 	lcall	__gptrput
                           4425 ;	../../../contiki-sensinode//cpu/cc253x/usb/usb-arch.c:839: if(buffer->flags & USB_BUFFER_NOTIFY) {
   10C0 EE                 4426 	mov	a,r6
   10C1 D0 07              4427 	pop	ar7
   10C3 D0 06              4428 	pop	ar6
   10C5 D0 05              4429 	pop	ar5
   10C7 30 E3 30           4430 	jnb	acc.3,00102$
                           4431 ;	../../../contiki-sensinode//cpu/cc253x/usb/usb-arch.c:840: *resp |= USB_READ_NOTIFY;
   10CA C0 05              4432 	push	ar5
   10CC C0 06              4433 	push	ar6
   10CE C0 07              4434 	push	ar7
   10D0 E5 81              4435 	mov	a,sp
   10D2 24 F2              4436 	add	a,#0xf2
   10D4 F8                 4437 	mov	r0,a
   10D5 86 02              4438 	mov	ar2,@r0
   10D7 08                 4439 	inc	r0
   10D8 86 03              4440 	mov	ar3,@r0
   10DA 08                 4441 	inc	r0
   10DB 86 04              4442 	mov	ar4,@r0
   10DD 8A 82              4443 	mov	dpl,r2
   10DF 8B 83              4444 	mov	dph,r3
   10E1 8C F0              4445 	mov	b,r4
   10E3 12s00r00           4446 	lcall	__gptrget
   10E6 FF                 4447 	mov	r7,a
   10E7 43 07 02           4448 	orl	ar7,#0x02
   10EA 8A 82              4449 	mov	dpl,r2
   10EC 8B 83              4450 	mov	dph,r3
   10EE 8C F0              4451 	mov	b,r4
   10F0 EF                 4452 	mov	a,r7
   10F1 12s00r00           4453 	lcall	__gptrput
                           4454 ;	../../../contiki-sensinode//cpu/cc253x/usb/usb-arch.c:844: return buffer;
   10F4 D0 07              4455 	pop	ar7
   10F6 D0 06              4456 	pop	ar6
   10F8 D0 05              4457 	pop	ar5
                           4458 ;	../../../contiki-sensinode//cpu/cc253x/usb/usb-arch.c:840: *resp |= USB_READ_NOTIFY;
   10FA                    4459 00102$:
                           4460 ;	../../../contiki-sensinode//cpu/cc253x/usb/usb-arch.c:842: buffer = buffer->next;
   10FA 8D 82              4461 	mov	dpl,r5
   10FC 8E 83              4462 	mov	dph,r6
   10FE 8F F0              4463 	mov	b,r7
   1100 12s00r00           4464 	lcall	__gptrget
   1103 FD                 4465 	mov	r5,a
   1104 A3                 4466 	inc	dptr
   1105 12s00r00           4467 	lcall	__gptrget
   1108 FE                 4468 	mov	r6,a
   1109 A3                 4469 	inc	dptr
   110A 12s00r00           4470 	lcall	__gptrget
   110D FF                 4471 	mov	r7,a
   110E 02s10r41           4472 	ljmp	00104$
   1111                    4473 00106$:
                           4474 ;	../../../contiki-sensinode//cpu/cc253x/usb/usb-arch.c:844: return buffer;
   1111 8D 82              4475 	mov	dpl,r5
   1113 8E 83              4476 	mov	dph,r6
   1115 8F F0              4477 	mov	b,r7
   1117 15 81              4478 	dec	sp
   1119 15 81              4479 	dec	sp
   111B 02s00r00           4480 	ljmp	__sdcc_banked_ret
                           4481 ;------------------------------------------------------------
                           4482 ;Allocation info for local variables in function 'fill_buffers'
                           4483 ;------------------------------------------------------------
                           4484 ;hw_ep                     Allocated to stack - sp -10
                           4485 ;len                       Allocated to stack - sp -12
                           4486 ;short_packet              Allocated to stack - sp -13
                           4487 ;buffer                    Allocated to stack - sp -6
                           4488 ;t                         Allocated to stack - sp -3
                           4489 ;res                       Allocated to registers r4 
                           4490 ;sloc0                     Allocated to stack - sp -1
                           4491 ;sloc1                     Allocated to stack - sp +2
                           4492 ;sloc2                     Allocated to stack - sp +5
                           4493 ;------------------------------------------------------------
                           4494 ;	../../../contiki-sensinode//cpu/cc253x/usb/usb-arch.c:848: fill_buffers(USBBuffer * buffer, uint8_t hw_ep, unsigned int len,
                           4495 ;	-----------------------------------------
                           4496 ;	 function fill_buffers
                           4497 ;	-----------------------------------------
   111E                    4498 _fill_buffers:
   111E C0 82              4499 	push	dpl
   1120 C0 83              4500 	push	dph
   1122 C0 F0              4501 	push	b
   1124 E5 81              4502 	mov	a,sp
   1126 24 04              4503 	add	a,#0x04
   1128 F5 81              4504 	mov	sp,a
                           4505 ;	../../../contiki-sensinode//cpu/cc253x/usb/usb-arch.c:852: uint8_t res = 0;
   112A 7C 00              4506 	mov	r4,#0x00
                           4507 ;	../../../contiki-sensinode//cpu/cc253x/usb/usb-arch.c:854: do {
   112C                    4508 00108$:
                           4509 ;	../../../contiki-sensinode//cpu/cc253x/usb/usb-arch.c:855: if(buffer->left < len) {
   112C C0 04              4510 	push	ar4
   112E E5 81              4511 	mov	a,sp
   1130 24 F9              4512 	add	a,#0xf9
   1132 F8                 4513 	mov	r0,a
   1133 74 06              4514 	mov	a,#0x06
   1135 26                 4515 	add	a,@r0
   1136 FA                 4516 	mov	r2,a
   1137 E4                 4517 	clr	a
   1138 08                 4518 	inc	r0
   1139 36                 4519 	addc	a,@r0
   113A FB                 4520 	mov	r3,a
   113B 08                 4521 	inc	r0
   113C 86 04              4522 	mov	ar4,@r0
   113E 8A 82              4523 	mov	dpl,r2
   1140 8B 83              4524 	mov	dph,r3
   1142 8C F0              4525 	mov	b,r4
   1144 12s00r00           4526 	lcall	__gptrget
   1147 FF                 4527 	mov	r7,a
   1148 A3                 4528 	inc	dptr
   1149 12s00r00           4529 	lcall	__gptrget
   114C FE                 4530 	mov	r6,a
   114D E5 81              4531 	mov	a,sp
   114F 24 F3              4532 	add	a,#0xf3
   1151 F8                 4533 	mov	r0,a
   1152 C3                 4534 	clr	c
   1153 EF                 4535 	mov	a,r7
   1154 96                 4536 	subb	a,@r0
   1155 EE                 4537 	mov	a,r6
   1156 08                 4538 	inc	r0
   1157 96                 4539 	subb	a,@r0
   1158 D0 04              4540 	pop	ar4
   115A 50 10              4541 	jnc	00102$
                           4542 ;	../../../contiki-sensinode//cpu/cc253x/usb/usb-arch.c:856: t = buffer->left;
   115C 8F 02              4543 	mov	ar2,r7
   115E 8E 03              4544 	mov	ar3,r6
   1160 E5 81              4545 	mov	a,sp
   1162 24 FD              4546 	add	a,#0xfd
   1164 F8                 4547 	mov	r0,a
   1165 A6 02              4548 	mov	@r0,ar2
   1167 08                 4549 	inc	r0
   1168 A6 03              4550 	mov	@r0,ar3
   116A 80 10              4551 	sjmp	00103$
   116C                    4552 00102$:
                           4553 ;	../../../contiki-sensinode//cpu/cc253x/usb/usb-arch.c:858: t = len;
   116C E5 81              4554 	mov	a,sp
   116E 24 F4              4555 	add	a,#0xf4
   1170 F8                 4556 	mov	r0,a
   1171 E5 81              4557 	mov	a,sp
   1173 24 FD              4558 	add	a,#0xfd
   1175 F9                 4559 	mov	r1,a
   1176 E6                 4560 	mov	a,@r0
   1177 F7                 4561 	mov	@r1,a
   1178 08                 4562 	inc	r0
   1179 09                 4563 	inc	r1
   117A E6                 4564 	mov	a,@r0
   117B F7                 4565 	mov	@r1,a
   117C                    4566 00103$:
                           4567 ;	../../../contiki-sensinode//cpu/cc253x/usb/usb-arch.c:860: len -= t;
   117C C0 04              4568 	push	ar4
   117E E5 81              4569 	mov	a,sp
   1180 24 F3              4570 	add	a,#0xf3
   1182 F8                 4571 	mov	r0,a
   1183 E5 81              4572 	mov	a,sp
   1185 24 FC              4573 	add	a,#0xfc
   1187 F9                 4574 	mov	r1,a
   1188 E6                 4575 	mov	a,@r0
   1189 C3                 4576 	clr	c
   118A 97                 4577 	subb	a,@r1
   118B F6                 4578 	mov	@r0,a
   118C 08                 4579 	inc	r0
   118D E6                 4580 	mov	a,@r0
   118E 09                 4581 	inc	r1
   118F 97                 4582 	subb	a,@r1
   1190 F6                 4583 	mov	@r0,a
                           4584 ;	../../../contiki-sensinode//cpu/cc253x/usb/usb-arch.c:861: buffer->left -= t;
   1191 E5 81              4585 	mov	a,sp
   1193 24 F9              4586 	add	a,#0xf9
   1195 F8                 4587 	mov	r0,a
   1196 74 06              4588 	mov	a,#0x06
   1198 26                 4589 	add	a,@r0
   1199 FA                 4590 	mov	r2,a
   119A E4                 4591 	clr	a
   119B 08                 4592 	inc	r0
   119C 36                 4593 	addc	a,@r0
   119D FB                 4594 	mov	r3,a
   119E 08                 4595 	inc	r0
   119F 86 04              4596 	mov	ar4,@r0
   11A1 8A 82              4597 	mov	dpl,r2
   11A3 8B 83              4598 	mov	dph,r3
   11A5 8C F0              4599 	mov	b,r4
   11A7 12s00r00           4600 	lcall	__gptrget
   11AA FE                 4601 	mov	r6,a
   11AB A3                 4602 	inc	dptr
   11AC 12s00r00           4603 	lcall	__gptrget
   11AF FF                 4604 	mov	r7,a
   11B0 E5 81              4605 	mov	a,sp
   11B2 24 FC              4606 	add	a,#0xfc
   11B4 F8                 4607 	mov	r0,a
   11B5 EE                 4608 	mov	a,r6
   11B6 C3                 4609 	clr	c
   11B7 96                 4610 	subb	a,@r0
   11B8 FE                 4611 	mov	r6,a
   11B9 EF                 4612 	mov	a,r7
   11BA 08                 4613 	inc	r0
   11BB 96                 4614 	subb	a,@r0
   11BC FF                 4615 	mov	r7,a
   11BD 8A 82              4616 	mov	dpl,r2
   11BF 8B 83              4617 	mov	dph,r3
   11C1 8C F0              4618 	mov	b,r4
   11C3 EE                 4619 	mov	a,r6
   11C4 12s00r00           4620 	lcall	__gptrput
   11C7 A3                 4621 	inc	dptr
   11C8 EF                 4622 	mov	a,r7
   11C9 12s00r00           4623 	lcall	__gptrput
                           4624 ;	../../../contiki-sensinode//cpu/cc253x/usb/usb-arch.c:863: read_hw_buffer(buffer->data, hw_ep, t);
   11CC E5 81              4625 	mov	a,sp
   11CE 24 F9              4626 	add	a,#0xf9
   11D0 F8                 4627 	mov	r0,a
   11D1 74 03              4628 	mov	a,#0x03
   11D3 26                 4629 	add	a,@r0
   11D4 FD                 4630 	mov	r5,a
   11D5 E4                 4631 	clr	a
   11D6 08                 4632 	inc	r0
   11D7 36                 4633 	addc	a,@r0
   11D8 FE                 4634 	mov	r6,a
   11D9 08                 4635 	inc	r0
   11DA 86 07              4636 	mov	ar7,@r0
   11DC 8D 82              4637 	mov	dpl,r5
   11DE 8E 83              4638 	mov	dph,r6
   11E0 8F F0              4639 	mov	b,r7
   11E2 12s00r00           4640 	lcall	__gptrget
   11E5 FA                 4641 	mov	r2,a
   11E6 A3                 4642 	inc	dptr
   11E7 12s00r00           4643 	lcall	__gptrget
   11EA FB                 4644 	mov	r3,a
   11EB A3                 4645 	inc	dptr
   11EC 12s00r00           4646 	lcall	__gptrget
   11EF FC                 4647 	mov	r4,a
   11F0 C0 07              4648 	push	ar7
   11F2 C0 06              4649 	push	ar6
   11F4 C0 05              4650 	push	ar5
   11F6 C0 04              4651 	push	ar4
   11F8 E5 81              4652 	mov	a,sp
   11FA 24 F8              4653 	add	a,#0xf8
   11FC F8                 4654 	mov	r0,a
   11FD E6                 4655 	mov	a,@r0
   11FE C0 E0              4656 	push	acc
   1200 08                 4657 	inc	r0
   1201 E6                 4658 	mov	a,@r0
   1202 C0 E0              4659 	push	acc
   1204 E5 81              4660 	mov	a,sp
   1206 24 EF              4661 	add	a,#0xef
   1208 F8                 4662 	mov	r0,a
   1209 E6                 4663 	mov	a,@r0
   120A C0 E0              4664 	push	acc
   120C 8A 82              4665 	mov	dpl,r2
   120E 8B 83              4666 	mov	dph,r3
   1210 8C F0              4667 	mov	b,r4
   1212 78r99              4668 	mov	r0,#_read_hw_buffer
   1214 79s01              4669 	mov	r1,#(_read_hw_buffer >> 8)
   1216 7As00              4670 	mov	r2,#(_read_hw_buffer >> 16)
   1218 12s00r00           4671 	lcall	__sdcc_banked_call
   121B 15 81              4672 	dec	sp
   121D 15 81              4673 	dec	sp
   121F 15 81              4674 	dec	sp
   1221 D0 04              4675 	pop	ar4
   1223 D0 05              4676 	pop	ar5
   1225 D0 06              4677 	pop	ar6
   1227 D0 07              4678 	pop	ar7
                           4679 ;	../../../contiki-sensinode//cpu/cc253x/usb/usb-arch.c:865: buffer->data += t;
   1229 8D 82              4680 	mov	dpl,r5
   122B 8E 83              4681 	mov	dph,r6
   122D 8F F0              4682 	mov	b,r7
   122F 12s00r00           4683 	lcall	__gptrget
   1232 FA                 4684 	mov	r2,a
   1233 A3                 4685 	inc	dptr
   1234 12s00r00           4686 	lcall	__gptrget
   1237 FB                 4687 	mov	r3,a
   1238 A3                 4688 	inc	dptr
   1239 12s00r00           4689 	lcall	__gptrget
   123C FC                 4690 	mov	r4,a
   123D E5 81              4691 	mov	a,sp
   123F 24 FC              4692 	add	a,#0xfc
   1241 F8                 4693 	mov	r0,a
   1242 E6                 4694 	mov	a,@r0
   1243 2A                 4695 	add	a,r2
   1244 FA                 4696 	mov	r2,a
   1245 08                 4697 	inc	r0
   1246 E6                 4698 	mov	a,@r0
   1247 3B                 4699 	addc	a,r3
   1248 FB                 4700 	mov	r3,a
   1249 8D 82              4701 	mov	dpl,r5
   124B 8E 83              4702 	mov	dph,r6
   124D 8F F0              4703 	mov	b,r7
   124F EA                 4704 	mov	a,r2
   1250 12s00r00           4705 	lcall	__gptrput
   1253 A3                 4706 	inc	dptr
   1254 EB                 4707 	mov	a,r3
   1255 12s00r00           4708 	lcall	__gptrput
   1258 A3                 4709 	inc	dptr
   1259 EC                 4710 	mov	a,r4
   125A 12s00r00           4711 	lcall	__gptrput
                           4712 ;	../../../contiki-sensinode//cpu/cc253x/usb/usb-arch.c:867: if(len == 0) {
   125D D0 04              4713 	pop	ar4
   125F E5 81              4714 	mov	a,sp
   1261 24 F4              4715 	add	a,#0xf4
   1263 F8                 4716 	mov	r0,a
   1264 E6                 4717 	mov	a,@r0
   1265 08                 4718 	inc	r0
   1266 46                 4719 	orl	a,@r0
   1267 60 5A              4720 	jz	00110$
                           4721 ;	../../../contiki-sensinode//cpu/cc253x/usb/usb-arch.c:871: buffer->flags &= ~(USB_BUFFER_SUBMITTED | USB_BUFFER_SHORT_PACKET);
   1269 E5 81              4722 	mov	a,sp
   126B 24 FA              4723 	add	a,#0xfa
   126D F8                 4724 	mov	r0,a
   126E 74 08              4725 	mov	a,#0x08
   1270 26                 4726 	add	a,@r0
   1271 FD                 4727 	mov	r5,a
   1272 E4                 4728 	clr	a
   1273 08                 4729 	inc	r0
   1274 36                 4730 	addc	a,@r0
   1275 FE                 4731 	mov	r6,a
   1276 08                 4732 	inc	r0
   1277 86 07              4733 	mov	ar7,@r0
   1279 8D 82              4734 	mov	dpl,r5
   127B 8E 83              4735 	mov	dph,r6
   127D 8F F0              4736 	mov	b,r7
   127F 12s00r00           4737 	lcall	__gptrget
   1282 FA                 4738 	mov	r2,a
   1283 A3                 4739 	inc	dptr
   1284 12s00r00           4740 	lcall	__gptrget
   1287 FB                 4741 	mov	r3,a
   1288 53 02 EE           4742 	anl	ar2,#0xEE
   128B 8D 82              4743 	mov	dpl,r5
   128D 8E 83              4744 	mov	dph,r6
   128F 8F F0              4745 	mov	b,r7
   1291 EA                 4746 	mov	a,r2
   1292 12s00r00           4747 	lcall	__gptrput
   1295 A3                 4748 	inc	dptr
   1296 EB                 4749 	mov	a,r3
   1297 12s00r00           4750 	lcall	__gptrput
                           4751 ;	../../../contiki-sensinode//cpu/cc253x/usb/usb-arch.c:872: if(buffer->flags & USB_BUFFER_NOTIFY) {
   129A EA                 4752 	mov	a,r2
   129B 30 E3 03           4753 	jnb	acc.3,00107$
                           4754 ;	../../../contiki-sensinode//cpu/cc253x/usb/usb-arch.c:873: res |= USB_READ_NOTIFY;
   129E 43 04 02           4755 	orl	ar4,#0x02
   12A1                    4756 00107$:
                           4757 ;	../../../contiki-sensinode//cpu/cc253x/usb/usb-arch.c:875: buffer = buffer->next;
   12A1 E5 81              4758 	mov	a,sp
   12A3 24 FA              4759 	add	a,#0xfa
   12A5 F8                 4760 	mov	r0,a
   12A6 86 82              4761 	mov	dpl,@r0
   12A8 08                 4762 	inc	r0
   12A9 86 83              4763 	mov	dph,@r0
   12AB 08                 4764 	inc	r0
   12AC 86 F0              4765 	mov	b,@r0
   12AE 12s00r00           4766 	lcall	__gptrget
   12B1 18                 4767 	dec	r0
   12B2 18                 4768 	dec	r0
   12B3 F6                 4769 	mov	@r0,a
   12B4 A3                 4770 	inc	dptr
   12B5 12s00r00           4771 	lcall	__gptrget
   12B8 08                 4772 	inc	r0
   12B9 F6                 4773 	mov	@r0,a
   12BA A3                 4774 	inc	dptr
   12BB 12s00r00           4775 	lcall	__gptrget
   12BE 08                 4776 	inc	r0
   12BF F6                 4777 	mov	@r0,a
                           4778 ;	../../../contiki-sensinode//cpu/cc253x/usb/usb-arch.c:876: } while(1);
   12C0 02s11r2C           4779 	ljmp	00108$
   12C3                    4780 00110$:
                           4781 ;	../../../contiki-sensinode//cpu/cc253x/usb/usb-arch.c:878: if(short_packet) {
   12C3 E5 81              4782 	mov	a,sp
   12C5 24 F3              4783 	add	a,#0xf3
   12C7 F8                 4784 	mov	r0,a
   12C8 E6                 4785 	mov	a,@r0
   12C9 60 31              4786 	jz	00112$
                           4787 ;	../../../contiki-sensinode//cpu/cc253x/usb/usb-arch.c:879: buffer->flags |= USB_BUFFER_SHORT_PACKET;
   12CB E5 81              4788 	mov	a,sp
   12CD 24 FA              4789 	add	a,#0xfa
   12CF F8                 4790 	mov	r0,a
   12D0 74 08              4791 	mov	a,#0x08
   12D2 26                 4792 	add	a,@r0
   12D3 FD                 4793 	mov	r5,a
   12D4 E4                 4794 	clr	a
   12D5 08                 4795 	inc	r0
   12D6 36                 4796 	addc	a,@r0
   12D7 FE                 4797 	mov	r6,a
   12D8 08                 4798 	inc	r0
   12D9 86 07              4799 	mov	ar7,@r0
   12DB 8D 82              4800 	mov	dpl,r5
   12DD 8E 83              4801 	mov	dph,r6
   12DF 8F F0              4802 	mov	b,r7
   12E1 12s00r00           4803 	lcall	__gptrget
   12E4 FA                 4804 	mov	r2,a
   12E5 A3                 4805 	inc	dptr
   12E6 12s00r00           4806 	lcall	__gptrget
   12E9 FB                 4807 	mov	r3,a
   12EA 43 02 10           4808 	orl	ar2,#0x10
   12ED 8D 82              4809 	mov	dpl,r5
   12EF 8E 83              4810 	mov	dph,r6
   12F1 8F F0              4811 	mov	b,r7
   12F3 EA                 4812 	mov	a,r2
   12F4 12s00r00           4813 	lcall	__gptrput
   12F7 A3                 4814 	inc	dptr
   12F8 EB                 4815 	mov	a,r3
   12F9 12s00r00           4816 	lcall	__gptrput
   12FC                    4817 00112$:
                           4818 ;	../../../contiki-sensinode//cpu/cc253x/usb/usb-arch.c:882: if((buffer->left == 0) || (buffer->flags & USB_BUFFER_PACKET_END)) {
   12FC E5 81              4819 	mov	a,sp
   12FE 24 FA              4820 	add	a,#0xfa
   1300 F8                 4821 	mov	r0,a
   1301 74 06              4822 	mov	a,#0x06
   1303 26                 4823 	add	a,@r0
   1304 FD                 4824 	mov	r5,a
   1305 E4                 4825 	clr	a
   1306 08                 4826 	inc	r0
   1307 36                 4827 	addc	a,@r0
   1308 FE                 4828 	mov	r6,a
   1309 08                 4829 	inc	r0
   130A 86 07              4830 	mov	ar7,@r0
   130C 8D 82              4831 	mov	dpl,r5
   130E 8E 83              4832 	mov	dph,r6
   1310 8F F0              4833 	mov	b,r7
   1312 12s00r00           4834 	lcall	__gptrget
   1315 FE                 4835 	mov	r6,a
   1316 A3                 4836 	inc	dptr
   1317 12s00r00           4837 	lcall	__gptrget
   131A FF                 4838 	mov	r7,a
   131B 4E                 4839 	orl	a,r6
   131C 60 2A              4840 	jz	00122$
   131E E5 81              4841 	mov	a,sp
   1320 24 FA              4842 	add	a,#0xfa
   1322 F8                 4843 	mov	r0,a
   1323 74 08              4844 	mov	a,#0x08
   1325 26                 4845 	add	a,@r0
   1326 FA                 4846 	mov	r2,a
   1327 E4                 4847 	clr	a
   1328 08                 4848 	inc	r0
   1329 36                 4849 	addc	a,@r0
   132A FB                 4850 	mov	r3,a
   132B 08                 4851 	inc	r0
   132C 86 05              4852 	mov	ar5,@r0
   132E 8A 82              4853 	mov	dpl,r2
   1330 8B 83              4854 	mov	dph,r3
   1332 8D F0              4855 	mov	b,r5
   1334 A8 81              4856 	mov	r0,sp
   1336 18                 4857 	dec	r0
   1337 12s00r00           4858 	lcall	__gptrget
   133A F6                 4859 	mov	@r0,a
   133B A3                 4860 	inc	dptr
   133C 12s00r00           4861 	lcall	__gptrget
   133F 08                 4862 	inc	r0
   1340 F6                 4863 	mov	@r0,a
   1341 A8 81              4864 	mov	r0,sp
   1343 18                 4865 	dec	r0
   1344 E6                 4866 	mov	a,@r0
   1345 30 E2 5D           4867 	jnb	acc.2,00123$
   1348                    4868 00122$:
                           4869 ;	../../../contiki-sensinode//cpu/cc253x/usb/usb-arch.c:883: buffer->flags &= ~USB_BUFFER_SUBMITTED;
   1348 C0 04              4870 	push	ar4
   134A E5 81              4871 	mov	a,sp
   134C 24 F9              4872 	add	a,#0xf9
   134E F8                 4873 	mov	r0,a
   134F 74 08              4874 	mov	a,#0x08
   1351 26                 4875 	add	a,@r0
   1352 FF                 4876 	mov	r7,a
   1353 E4                 4877 	clr	a
   1354 08                 4878 	inc	r0
   1355 36                 4879 	addc	a,@r0
   1356 FE                 4880 	mov	r6,a
   1357 08                 4881 	inc	r0
   1358 86 05              4882 	mov	ar5,@r0
   135A 8F 82              4883 	mov	dpl,r7
   135C 8E 83              4884 	mov	dph,r6
   135E 8D F0              4885 	mov	b,r5
   1360 12s00r00           4886 	lcall	__gptrget
   1363 FB                 4887 	mov	r3,a
   1364 A3                 4888 	inc	dptr
   1365 12s00r00           4889 	lcall	__gptrget
   1368 FA                 4890 	mov	r2,a
   1369 53 03 FE           4891 	anl	ar3,#0xFE
   136C 8F 82              4892 	mov	dpl,r7
   136E 8E 83              4893 	mov	dph,r6
   1370 8D F0              4894 	mov	b,r5
   1372 EB                 4895 	mov	a,r3
   1373 12s00r00           4896 	lcall	__gptrput
   1376 A3                 4897 	inc	dptr
   1377 EA                 4898 	mov	a,r2
   1378 12s00r00           4899 	lcall	__gptrput
                           4900 ;	../../../contiki-sensinode//cpu/cc253x/usb/usb-arch.c:884: if(buffer->flags & USB_BUFFER_NOTIFY) {
   137B EB                 4901 	mov	a,r3
   137C D0 04              4902 	pop	ar4
   137E 30 E3 03           4903 	jnb	acc.3,00114$
                           4904 ;	../../../contiki-sensinode//cpu/cc253x/usb/usb-arch.c:885: res |= USB_READ_NOTIFY;
   1381 43 04 02           4905 	orl	ar4,#0x02
   1384                    4906 00114$:
                           4907 ;	../../../contiki-sensinode//cpu/cc253x/usb/usb-arch.c:887: buffer = buffer->next;
   1384 E5 81              4908 	mov	a,sp
   1386 24 FA              4909 	add	a,#0xfa
   1388 F8                 4910 	mov	r0,a
   1389 86 82              4911 	mov	dpl,@r0
   138B 08                 4912 	inc	r0
   138C 86 83              4913 	mov	dph,@r0
   138E 08                 4914 	inc	r0
   138F 86 F0              4915 	mov	b,@r0
   1391 12s00r00           4916 	lcall	__gptrget
   1394 18                 4917 	dec	r0
   1395 18                 4918 	dec	r0
   1396 F6                 4919 	mov	@r0,a
   1397 A3                 4920 	inc	dptr
   1398 12s00r00           4921 	lcall	__gptrget
   139B 08                 4922 	inc	r0
   139C F6                 4923 	mov	@r0,a
   139D A3                 4924 	inc	dptr
   139E 12s00r00           4925 	lcall	__gptrget
   13A1 08                 4926 	inc	r0
   13A2 F6                 4927 	mov	@r0,a
   13A3 80 76              4928 	sjmp	00124$
   13A5                    4929 00123$:
                           4930 ;	../../../contiki-sensinode//cpu/cc253x/usb/usb-arch.c:889: if(short_packet) {
   13A5 E5 81              4931 	mov	a,sp
   13A7 24 F3              4932 	add	a,#0xf3
   13A9 F8                 4933 	mov	r0,a
   13AA E6                 4934 	mov	a,@r0
   13AB 60 6E              4935 	jz	00124$
                           4936 ;	../../../contiki-sensinode//cpu/cc253x/usb/usb-arch.c:890: if(buffer->left && !(buffer->flags & USB_BUFFER_SHORT_END)) {
   13AD EE                 4937 	mov	a,r6
   13AE 4F                 4938 	orl	a,r7
   13AF 60 23              4939 	jz	00116$
   13B1 A8 81              4940 	mov	r0,sp
   13B3 18                 4941 	dec	r0
   13B4 E6                 4942 	mov	a,@r0
   13B5 20 E1 1C           4943 	jb	acc.1,00116$
                           4944 ;	../../../contiki-sensinode//cpu/cc253x/usb/usb-arch.c:891: buffer->flags |= USB_BUFFER_FAILED;
   13B8 A8 81              4945 	mov	r0,sp
   13BA 18                 4946 	dec	r0
   13BB 74 80              4947 	mov	a,#0x80
   13BD 46                 4948 	orl	a,@r0
   13BE FE                 4949 	mov	r6,a
   13BF 08                 4950 	inc	r0
   13C0 86 07              4951 	mov	ar7,@r0
   13C2 8A 82              4952 	mov	dpl,r2
   13C4 8B 83              4953 	mov	dph,r3
   13C6 8D F0              4954 	mov	b,r5
   13C8 EE                 4955 	mov	a,r6
   13C9 12s00r00           4956 	lcall	__gptrput
   13CC A3                 4957 	inc	dptr
   13CD EF                 4958 	mov	a,r7
   13CE 12s00r00           4959 	lcall	__gptrput
                           4960 ;	../../../contiki-sensinode//cpu/cc253x/usb/usb-arch.c:892: res |= USB_READ_FAIL;
   13D1 43 04 04           4961 	orl	ar4,#0x04
   13D4                    4962 00116$:
                           4963 ;	../../../contiki-sensinode//cpu/cc253x/usb/usb-arch.c:894: buffer->flags &= ~USB_BUFFER_SUBMITTED;
   13D4 8A 82              4964 	mov	dpl,r2
   13D6 8B 83              4965 	mov	dph,r3
   13D8 8D F0              4966 	mov	b,r5
   13DA 12s00r00           4967 	lcall	__gptrget
   13DD FE                 4968 	mov	r6,a
   13DE A3                 4969 	inc	dptr
   13DF 12s00r00           4970 	lcall	__gptrget
   13E2 FF                 4971 	mov	r7,a
   13E3 53 06 FE           4972 	anl	ar6,#0xFE
   13E6 8A 82              4973 	mov	dpl,r2
   13E8 8B 83              4974 	mov	dph,r3
   13EA 8D F0              4975 	mov	b,r5
   13EC EE                 4976 	mov	a,r6
   13ED 12s00r00           4977 	lcall	__gptrput
   13F0 A3                 4978 	inc	dptr
   13F1 EF                 4979 	mov	a,r7
   13F2 12s00r00           4980 	lcall	__gptrput
                           4981 ;	../../../contiki-sensinode//cpu/cc253x/usb/usb-arch.c:895: if(buffer->flags & USB_BUFFER_NOTIFY) {
   13F5 EE                 4982 	mov	a,r6
   13F6 30 E3 03           4983 	jnb	acc.3,00119$
                           4984 ;	../../../contiki-sensinode//cpu/cc253x/usb/usb-arch.c:896: res |= USB_READ_NOTIFY;
   13F9 43 04 02           4985 	orl	ar4,#0x02
   13FC                    4986 00119$:
                           4987 ;	../../../contiki-sensinode//cpu/cc253x/usb/usb-arch.c:898: buffer = buffer->next;
   13FC E5 81              4988 	mov	a,sp
   13FE 24 FA              4989 	add	a,#0xfa
   1400 F8                 4990 	mov	r0,a
   1401 86 82              4991 	mov	dpl,@r0
   1403 08                 4992 	inc	r0
   1404 86 83              4993 	mov	dph,@r0
   1406 08                 4994 	inc	r0
   1407 86 F0              4995 	mov	b,@r0
   1409 12s00r00           4996 	lcall	__gptrget
   140C 18                 4997 	dec	r0
   140D 18                 4998 	dec	r0
   140E F6                 4999 	mov	@r0,a
   140F A3                 5000 	inc	dptr
   1410 12s00r00           5001 	lcall	__gptrget
   1413 08                 5002 	inc	r0
   1414 F6                 5003 	mov	@r0,a
   1415 A3                 5004 	inc	dptr
   1416 12s00r00           5005 	lcall	__gptrget
   1419 08                 5006 	inc	r0
   141A F6                 5007 	mov	@r0,a
   141B                    5008 00124$:
                           5009 ;	../../../contiki-sensinode//cpu/cc253x/usb/usb-arch.c:902: usb_endpoints[hw_ep].buffer = buffer;
   141B E5 81              5010 	mov	a,sp
   141D 24 F6              5011 	add	a,#0xf6
   141F F8                 5012 	mov	r0,a
   1420 E6                 5013 	mov	a,@r0
   1421 75 F0 0D           5014 	mov	b,#0x0D
   1424 A4                 5015 	mul	ab
   1425 24r01              5016 	add	a,#_usb_endpoints
   1427 FE                 5017 	mov	r6,a
   1428 E4                 5018 	clr	a
   1429 34s00              5019 	addc	a,#(_usb_endpoints >> 8)
   142B FF                 5020 	mov	r7,a
   142C 8E 82              5021 	mov	dpl,r6
   142E 8F 83              5022 	mov	dph,r7
   1430 A3                 5023 	inc	dptr
   1431 A3                 5024 	inc	dptr
   1432 A3                 5025 	inc	dptr
   1433 E5 81              5026 	mov	a,sp
   1435 24 FA              5027 	add	a,#0xfa
   1437 F8                 5028 	mov	r0,a
   1438 E6                 5029 	mov	a,@r0
   1439 F0                 5030 	movx	@dptr,a
   143A A3                 5031 	inc	dptr
   143B 08                 5032 	inc	r0
   143C E6                 5033 	mov	a,@r0
   143D F0                 5034 	movx	@dptr,a
   143E A3                 5035 	inc	dptr
   143F 08                 5036 	inc	r0
   1440 E6                 5037 	mov	a,@r0
   1441 F0                 5038 	movx	@dptr,a
                           5039 ;	../../../contiki-sensinode//cpu/cc253x/usb/usb-arch.c:904: return res;
   1442 8C 82              5040 	mov	dpl,r4
   1444 E5 81              5041 	mov	a,sp
   1446 24 F9              5042 	add	a,#0xF9
   1448 F5 81              5043 	mov	sp,a
   144A 02s00r00           5044 	ljmp	__sdcc_banked_ret
                           5045 ;------------------------------------------------------------
                           5046 ;Allocation info for local variables in function 'ep0_get_setup_pkt'
                           5047 ;------------------------------------------------------------
                           5048 ;res                       Allocated to stack - sp -6
                           5049 ;buffer                    Allocated to stack - sp -5
                           5050 ;sloc0                     Allocated to stack - sp -2
                           5051 ;------------------------------------------------------------
                           5052 ;	../../../contiki-sensinode//cpu/cc253x/usb/usb-arch.c:909: ep0_get_setup_pkt(void)
                           5053 ;	-----------------------------------------
                           5054 ;	 function ep0_get_setup_pkt
                           5055 ;	-----------------------------------------
   144D                    5056 _ep0_get_setup_pkt:
   144D E5 81              5057 	mov	a,sp
   144F 24 07              5058 	add	a,#0x07
                           5059 ;	../../../contiki-sensinode//cpu/cc253x/usb/usb-arch.c:914: USBBuffer *buffer =
   1451 F5 81              5060 	mov	sp,a
   1453 24 FA              5061 	add	a,#0xFA
   1455 FF                 5062 	mov	r7,a
   1456 7E 00              5063 	mov	r6,#0x00
   1458 7D 40              5064 	mov	r5,#0x40
   145A 90s00r04           5065 	mov	dptr,#(_usb_endpoints + 0x0003)
   145D E0                 5066 	movx	a,@dptr
   145E FA                 5067 	mov	r2,a
   145F A3                 5068 	inc	dptr
   1460 E0                 5069 	movx	a,@dptr
   1461 FB                 5070 	mov	r3,a
   1462 A3                 5071 	inc	dptr
   1463 E0                 5072 	movx	a,@dptr
   1464 FC                 5073 	mov	r4,a
   1465 C0 07              5074 	push	ar7
   1467 C0 06              5075 	push	ar6
   1469 C0 05              5076 	push	ar5
   146B 74 20              5077 	mov	a,#0x20
   146D C0 E0              5078 	push	acc
   146F E4                 5079 	clr	a
   1470 C0 E0              5080 	push	acc
   1472 74 20              5081 	mov	a,#0x20
   1474 C0 E0              5082 	push	acc
   1476 E4                 5083 	clr	a
   1477 C0 E0              5084 	push	acc
   1479 8A 82              5085 	mov	dpl,r2
   147B 8B 83              5086 	mov	dph,r3
   147D 8C F0              5087 	mov	b,r4
   147F 78r37              5088 	mov	r0,#_skip_buffers_until
   1481 79s10              5089 	mov	r1,#(_skip_buffers_until >> 8)
   1483 7As00              5090 	mov	r2,#(_skip_buffers_until >> 16)
   1485 12s00r00           5091 	lcall	__sdcc_banked_call
   1488 AD 82              5092 	mov	r5,dpl
   148A AE 83              5093 	mov	r6,dph
   148C AF F0              5094 	mov	r7,b
   148E E5 81              5095 	mov	a,sp
   1490 24 F9              5096 	add	a,#0xf9
   1492 F5 81              5097 	mov	sp,a
   1494 24 FB              5098 	add	a,#0xfb
   1496 F8                 5099 	mov	r0,a
   1497 A6 05              5100 	mov	@r0,ar5
   1499 08                 5101 	inc	r0
   149A A6 06              5102 	mov	@r0,ar6
   149C 08                 5103 	inc	r0
   149D A6 07              5104 	mov	@r0,ar7
                           5105 ;	../../../contiki-sensinode//cpu/cc253x/usb/usb-arch.c:918: usb_endpoints[0].buffer = buffer;
   149F 90s00r04           5106 	mov	dptr,#(_usb_endpoints + 0x0003)
   14A2 E5 81              5107 	mov	a,sp
   14A4 24 FB              5108 	add	a,#0xfb
   14A6 F8                 5109 	mov	r0,a
   14A7 E6                 5110 	mov	a,@r0
   14A8 F0                 5111 	movx	@dptr,a
   14A9 A3                 5112 	inc	dptr
   14AA 08                 5113 	inc	r0
   14AB E6                 5114 	mov	a,@r0
   14AC F0                 5115 	movx	@dptr,a
   14AD A3                 5116 	inc	dptr
   14AE 08                 5117 	inc	r0
   14AF E6                 5118 	mov	a,@r0
   14B0 F0                 5119 	movx	@dptr,a
                           5120 ;	../../../contiki-sensinode//cpu/cc253x/usb/usb-arch.c:920: if(!buffer || buffer->left < 8) {
   14B1 E5 81              5121 	mov	a,sp
   14B3 24 FB              5122 	add	a,#0xfb
   14B5 F8                 5123 	mov	r0,a
   14B6 E6                 5124 	mov	a,@r0
   14B7 08                 5125 	inc	r0
   14B8 46                 5126 	orl	a,@r0
   14B9 60 28              5127 	jz	00101$
   14BB E5 81              5128 	mov	a,sp
   14BD 24 FB              5129 	add	a,#0xfb
   14BF F8                 5130 	mov	r0,a
   14C0 74 06              5131 	mov	a,#0x06
   14C2 26                 5132 	add	a,@r0
   14C3 FA                 5133 	mov	r2,a
   14C4 E4                 5134 	clr	a
   14C5 08                 5135 	inc	r0
   14C6 36                 5136 	addc	a,@r0
   14C7 FB                 5137 	mov	r3,a
   14C8 08                 5138 	inc	r0
   14C9 86 04              5139 	mov	ar4,@r0
   14CB 8A 82              5140 	mov	dpl,r2
   14CD 8B 83              5141 	mov	dph,r3
   14CF 8C F0              5142 	mov	b,r4
   14D1 12s00r00           5143 	lcall	__gptrget
   14D4 FE                 5144 	mov	r6,a
   14D5 A3                 5145 	inc	dptr
   14D6 12s00r00           5146 	lcall	__gptrget
   14D9 FF                 5147 	mov	r7,a
   14DA C3                 5148 	clr	c
   14DB EE                 5149 	mov	a,r6
   14DC 94 08              5150 	subb	a,#0x08
   14DE EF                 5151 	mov	a,r7
   14DF 94 00              5152 	subb	a,#0x00
   14E1 50 06              5153 	jnc	00102$
   14E3                    5154 00101$:
                           5155 ;	../../../contiki-sensinode//cpu/cc253x/usb/usb-arch.c:921: return USB_READ_BLOCK;
   14E3 75 82 01           5156 	mov	dpl,#0x01
   14E6 02s16r57           5157 	ljmp	00109$
   14E9                    5158 00102$:
                           5159 ;	../../../contiki-sensinode//cpu/cc253x/usb/usb-arch.c:924: read_hw_buffer(buffer->data, 0, 8);
   14E9 E5 81              5160 	mov	a,sp
   14EB 24 FB              5161 	add	a,#0xfb
   14ED F8                 5162 	mov	r0,a
   14EE A9 81              5163 	mov	r1,sp
   14F0 19                 5164 	dec	r1
   14F1 19                 5165 	dec	r1
   14F2 74 03              5166 	mov	a,#0x03
   14F4 26                 5167 	add	a,@r0
   14F5 F7                 5168 	mov	@r1,a
   14F6 E4                 5169 	clr	a
   14F7 08                 5170 	inc	r0
   14F8 36                 5171 	addc	a,@r0
   14F9 09                 5172 	inc	r1
   14FA F7                 5173 	mov	@r1,a
   14FB 08                 5174 	inc	r0
   14FC 09                 5175 	inc	r1
   14FD E6                 5176 	mov	a,@r0
   14FE F7                 5177 	mov	@r1,a
   14FF A8 81              5178 	mov	r0,sp
   1501 18                 5179 	dec	r0
   1502 18                 5180 	dec	r0
   1503 86 82              5181 	mov	dpl,@r0
   1505 08                 5182 	inc	r0
   1506 86 83              5183 	mov	dph,@r0
   1508 08                 5184 	inc	r0
   1509 86 F0              5185 	mov	b,@r0
   150B 12s00r00           5186 	lcall	__gptrget
   150E FD                 5187 	mov	r5,a
   150F A3                 5188 	inc	dptr
   1510 12s00r00           5189 	lcall	__gptrget
   1513 FE                 5190 	mov	r6,a
   1514 A3                 5191 	inc	dptr
   1515 12s00r00           5192 	lcall	__gptrget
   1518 FF                 5193 	mov	r7,a
   1519 C0 04              5194 	push	ar4
   151B C0 03              5195 	push	ar3
   151D C0 02              5196 	push	ar2
   151F 74 08              5197 	mov	a,#0x08
   1521 C0 E0              5198 	push	acc
   1523 E4                 5199 	clr	a
   1524 C0 E0              5200 	push	acc
   1526 E4                 5201 	clr	a
   1527 C0 E0              5202 	push	acc
   1529 8D 82              5203 	mov	dpl,r5
   152B 8E 83              5204 	mov	dph,r6
   152D 8F F0              5205 	mov	b,r7
   152F 78r99              5206 	mov	r0,#_read_hw_buffer
   1531 79s01              5207 	mov	r1,#(_read_hw_buffer >> 8)
   1533 7As00              5208 	mov	r2,#(_read_hw_buffer >> 16)
   1535 12s00r00           5209 	lcall	__sdcc_banked_call
   1538 15 81              5210 	dec	sp
   153A 15 81              5211 	dec	sp
   153C 15 81              5212 	dec	sp
   153E D0 02              5213 	pop	ar2
   1540 D0 03              5214 	pop	ar3
   1542 D0 04              5215 	pop	ar4
                           5216 ;	../../../contiki-sensinode//cpu/cc253x/usb/usb-arch.c:925: buffer->left -= 8;
   1544 8A 82              5217 	mov	dpl,r2
   1546 8B 83              5218 	mov	dph,r3
   1548 8C F0              5219 	mov	b,r4
   154A 12s00r00           5220 	lcall	__gptrget
   154D FE                 5221 	mov	r6,a
   154E A3                 5222 	inc	dptr
   154F 12s00r00           5223 	lcall	__gptrget
   1552 FF                 5224 	mov	r7,a
   1553 EE                 5225 	mov	a,r6
   1554 24 F8              5226 	add	a,#0xF8
   1556 FE                 5227 	mov	r6,a
   1557 EF                 5228 	mov	a,r7
   1558 34 FF              5229 	addc	a,#0xFF
   155A FF                 5230 	mov	r7,a
   155B 8A 82              5231 	mov	dpl,r2
   155D 8B 83              5232 	mov	dph,r3
   155F 8C F0              5233 	mov	b,r4
   1561 EE                 5234 	mov	a,r6
   1562 12s00r00           5235 	lcall	__gptrput
   1565 A3                 5236 	inc	dptr
   1566 EF                 5237 	mov	a,r7
   1567 12s00r00           5238 	lcall	__gptrput
                           5239 ;	../../../contiki-sensinode//cpu/cc253x/usb/usb-arch.c:927: buffer->flags &= ~USB_BUFFER_SUBMITTED;
   156A E5 81              5240 	mov	a,sp
   156C 24 FB              5241 	add	a,#0xfb
   156E F8                 5242 	mov	r0,a
   156F 74 08              5243 	mov	a,#0x08
   1571 26                 5244 	add	a,@r0
   1572 FD                 5245 	mov	r5,a
   1573 E4                 5246 	clr	a
   1574 08                 5247 	inc	r0
   1575 36                 5248 	addc	a,@r0
   1576 FE                 5249 	mov	r6,a
   1577 08                 5250 	inc	r0
   1578 86 07              5251 	mov	ar7,@r0
   157A 8D 82              5252 	mov	dpl,r5
   157C 8E 83              5253 	mov	dph,r6
   157E 8F F0              5254 	mov	b,r7
   1580 12s00r00           5255 	lcall	__gptrget
   1583 FB                 5256 	mov	r3,a
   1584 A3                 5257 	inc	dptr
   1585 12s00r00           5258 	lcall	__gptrget
   1588 FC                 5259 	mov	r4,a
   1589 53 03 FE           5260 	anl	ar3,#0xFE
   158C 8D 82              5261 	mov	dpl,r5
   158E 8E 83              5262 	mov	dph,r6
   1590 8F F0              5263 	mov	b,r7
   1592 EB                 5264 	mov	a,r3
   1593 12s00r00           5265 	lcall	__gptrput
   1596 A3                 5266 	inc	dptr
   1597 EC                 5267 	mov	a,r4
   1598 12s00r00           5268 	lcall	__gptrput
                           5269 ;	../../../contiki-sensinode//cpu/cc253x/usb/usb-arch.c:928: if(buffer->flags & USB_BUFFER_NOTIFY) {
   159B EB                 5270 	mov	a,r3
   159C 30 E3 09           5271 	jnb	acc.3,00105$
                           5272 ;	../../../contiki-sensinode//cpu/cc253x/usb/usb-arch.c:929: res |= USB_READ_NOTIFY;
   159F E5 81              5273 	mov	a,sp
   15A1 24 FA              5274 	add	a,#0xfa
   15A3 F8                 5275 	mov	r0,a
   15A4 E6                 5276 	mov	a,@r0
   15A5 44 02              5277 	orl	a,#0x02
   15A7 F6                 5278 	mov	@r0,a
   15A8                    5279 00105$:
                           5280 ;	../../../contiki-sensinode//cpu/cc253x/usb/usb-arch.c:932: if(buffer->data[6] || buffer->data[7]) {
   15A8 A8 81              5281 	mov	r0,sp
   15AA 18                 5282 	dec	r0
   15AB 18                 5283 	dec	r0
   15AC 86 82              5284 	mov	dpl,@r0
   15AE 08                 5285 	inc	r0
   15AF 86 83              5286 	mov	dph,@r0
   15B1 08                 5287 	inc	r0
   15B2 86 F0              5288 	mov	b,@r0
   15B4 12s00r00           5289 	lcall	__gptrget
   15B7 FD                 5290 	mov	r5,a
   15B8 A3                 5291 	inc	dptr
   15B9 12s00r00           5292 	lcall	__gptrget
   15BC FE                 5293 	mov	r6,a
   15BD A3                 5294 	inc	dptr
   15BE 12s00r00           5295 	lcall	__gptrget
   15C1 FF                 5296 	mov	r7,a
   15C2 74 06              5297 	mov	a,#0x06
   15C4 2D                 5298 	add	a,r5
   15C5 FA                 5299 	mov	r2,a
   15C6 E4                 5300 	clr	a
   15C7 3E                 5301 	addc	a,r6
   15C8 FB                 5302 	mov	r3,a
   15C9 8F 04              5303 	mov	ar4,r7
   15CB 8A 82              5304 	mov	dpl,r2
   15CD 8B 83              5305 	mov	dph,r3
   15CF 8C F0              5306 	mov	b,r4
   15D1 12s00r00           5307 	lcall	__gptrget
   15D4 70 14              5308 	jnz	00106$
   15D6 74 07              5309 	mov	a,#0x07
   15D8 2D                 5310 	add	a,r5
   15D9 FA                 5311 	mov	r2,a
   15DA E4                 5312 	clr	a
   15DB 3E                 5313 	addc	a,r6
   15DC FB                 5314 	mov	r3,a
   15DD 8F 04              5315 	mov	ar4,r7
   15DF 8A 82              5316 	mov	dpl,r2
   15E1 8B 83              5317 	mov	dph,r3
   15E3 8C F0              5318 	mov	b,r4
   15E5 12s00r00           5319 	lcall	__gptrget
   15E8 60 1F              5320 	jz	00107$
   15EA                    5321 00106$:
                           5322 ;	../../../contiki-sensinode//cpu/cc253x/usb/usb-arch.c:934: USBCS0 |= USBCS0_CLR_OUTPKT_RDY;
   15EA 90 62 11           5323 	mov	dptr,#_USBCS0
   15ED E0                 5324 	movx	a,@dptr
   15EE 44 40              5325 	orl	a,#0x40
   15F0 F0                 5326 	movx	@dptr,a
                           5327 ;	../../../contiki-sensinode//cpu/cc253x/usb/usb-arch.c:935: ep0status = buffer->data[0] & 0x80 ? EP_TX : EP_RX;
   15F1 8D 82              5328 	mov	dpl,r5
   15F3 8E 83              5329 	mov	dph,r6
   15F5 8F F0              5330 	mov	b,r7
   15F7 12s00r00           5331 	lcall	__gptrget
   15FA FC                 5332 	mov	r4,a
   15FB 30 E7 04           5333 	jnb	acc.7,00111$
   15FE 7C 02              5334 	mov	r4,#0x02
   1600 80 02              5335 	sjmp	00112$
   1602                    5336 00111$:
   1602 7C 01              5337 	mov	r4,#0x01
   1604                    5338 00112$:
   1604 90s00r00           5339 	mov	dptr,#_ep0status
   1607 EC                 5340 	mov	a,r4
   1608 F0                 5341 	movx	@dptr,a
   1609                    5342 00107$:
                           5343 ;	../../../contiki-sensinode//cpu/cc253x/usb/usb-arch.c:942: buffer->data += 8;
   1609 74 08              5344 	mov	a,#0x08
   160B 2D                 5345 	add	a,r5
   160C FD                 5346 	mov	r5,a
   160D E4                 5347 	clr	a
   160E 3E                 5348 	addc	a,r6
   160F FE                 5349 	mov	r6,a
   1610 A8 81              5350 	mov	r0,sp
   1612 18                 5351 	dec	r0
   1613 18                 5352 	dec	r0
   1614 86 82              5353 	mov	dpl,@r0
   1616 08                 5354 	inc	r0
   1617 86 83              5355 	mov	dph,@r0
   1619 08                 5356 	inc	r0
   161A 86 F0              5357 	mov	b,@r0
   161C ED                 5358 	mov	a,r5
   161D 12s00r00           5359 	lcall	__gptrput
   1620 A3                 5360 	inc	dptr
   1621 EE                 5361 	mov	a,r6
   1622 12s00r00           5362 	lcall	__gptrput
   1625 A3                 5363 	inc	dptr
   1626 EF                 5364 	mov	a,r7
   1627 12s00r00           5365 	lcall	__gptrput
                           5366 ;	../../../contiki-sensinode//cpu/cc253x/usb/usb-arch.c:944: usb_endpoints[0].buffer = buffer->next;
   162A E5 81              5367 	mov	a,sp
   162C 24 FB              5368 	add	a,#0xfb
   162E F8                 5369 	mov	r0,a
   162F 86 82              5370 	mov	dpl,@r0
   1631 08                 5371 	inc	r0
   1632 86 83              5372 	mov	dph,@r0
   1634 08                 5373 	inc	r0
   1635 86 F0              5374 	mov	b,@r0
   1637 12s00r00           5375 	lcall	__gptrget
   163A FD                 5376 	mov	r5,a
   163B A3                 5377 	inc	dptr
   163C 12s00r00           5378 	lcall	__gptrget
   163F FE                 5379 	mov	r6,a
   1640 A3                 5380 	inc	dptr
   1641 12s00r00           5381 	lcall	__gptrget
   1644 FF                 5382 	mov	r7,a
   1645 90s00r04           5383 	mov	dptr,#(_usb_endpoints + 0x0003)
   1648 ED                 5384 	mov	a,r5
   1649 F0                 5385 	movx	@dptr,a
   164A A3                 5386 	inc	dptr
   164B EE                 5387 	mov	a,r6
   164C F0                 5388 	movx	@dptr,a
   164D A3                 5389 	inc	dptr
   164E EF                 5390 	mov	a,r7
   164F F0                 5391 	movx	@dptr,a
                           5392 ;	../../../contiki-sensinode//cpu/cc253x/usb/usb-arch.c:946: return res;
   1650 E5 81              5393 	mov	a,sp
   1652 24 FA              5394 	add	a,#0xfa
   1654 F8                 5395 	mov	r0,a
   1655 86 82              5396 	mov	dpl,@r0
   1657                    5397 00109$:
   1657 E5 81              5398 	mov	a,sp
   1659 24 F9              5399 	add	a,#0xF9
   165B F5 81              5400 	mov	sp,a
   165D 02s00r00           5401 	ljmp	__sdcc_banked_ret
                           5402 ;------------------------------------------------------------
                           5403 ;Allocation info for local variables in function 'ep0_get_data_pkt'
                           5404 ;------------------------------------------------------------
                           5405 ;res                       Allocated to stack - sp -4
                           5406 ;short_packet              Allocated to stack - sp -3
                           5407 ;buffer                    Allocated to registers r3 r4 r5 
                           5408 ;len                       Allocated to stack - sp -2
                           5409 ;temp                      Allocated to registers 
                           5410 ;sloc0                     Allocated to stack - sp -1
                           5411 ;------------------------------------------------------------
                           5412 ;	../../../contiki-sensinode//cpu/cc253x/usb/usb-arch.c:950: ep0_get_data_pkt(void)
                           5413 ;	-----------------------------------------
                           5414 ;	 function ep0_get_data_pkt
                           5415 ;	-----------------------------------------
   1660                    5416 _ep0_get_data_pkt:
   1660 E5 81              5417 	mov	a,sp
   1662 24 05              5418 	add	a,#0x05
                           5419 ;	../../../contiki-sensinode//cpu/cc253x/usb/usb-arch.c:952: uint8_t res = 0;
   1664 F5 81              5420 	mov	sp,a
   1666 24 FC              5421 	add	a,#0xfc
   1668 F8                 5422 	mov	r0,a
   1669 76 00              5423 	mov	@r0,#0x00
                           5424 ;	../../../contiki-sensinode//cpu/cc253x/usb/usb-arch.c:953: uint8_t short_packet = 0;
   166B E5 81              5425 	mov	a,sp
   166D 24 FD              5426 	add	a,#0xfd
   166F F8                 5427 	mov	r0,a
   1670 76 00              5428 	mov	@r0,#0x00
                           5429 ;	../../../contiki-sensinode//cpu/cc253x/usb/usb-arch.c:954: USBBuffer *buffer = usb_endpoints[0].buffer;
   1672 90s00r04           5430 	mov	dptr,#(_usb_endpoints + 0x0003)
   1675 E0                 5431 	movx	a,@dptr
   1676 FB                 5432 	mov	r3,a
   1677 A3                 5433 	inc	dptr
   1678 E0                 5434 	movx	a,@dptr
   1679 FC                 5435 	mov	r4,a
   167A A3                 5436 	inc	dptr
   167B E0                 5437 	movx	a,@dptr
   167C FD                 5438 	mov	r5,a
                           5439 ;	../../../contiki-sensinode//cpu/cc253x/usb/usb-arch.c:955: uint8_t len = USBCNT0;
   167D 90 62 16           5440 	mov	dptr,#_USBCNT0
   1680 E0                 5441 	movx	a,@dptr
   1681 FA                 5442 	mov	r2,a
   1682 A8 81              5443 	mov	r0,sp
   1684 18                 5444 	dec	r0
   1685 18                 5445 	dec	r0
   1686 A6 02              5446 	mov	@r0,ar2
                           5447 ;	../../../contiki-sensinode//cpu/cc253x/usb/usb-arch.c:957: if(!buffer) {
   1688 EB                 5448 	mov	a,r3
   1689 4C                 5449 	orl	a,r4
   168A 70 06              5450 	jnz	00102$
                           5451 ;	../../../contiki-sensinode//cpu/cc253x/usb/usb-arch.c:958: return USB_READ_BLOCK;
   168C 75 82 01           5452 	mov	dpl,#0x01
   168F 02s17rEA           5453 	ljmp	00117$
   1692                    5454 00102$:
                           5455 ;	../../../contiki-sensinode//cpu/cc253x/usb/usb-arch.c:961: if(buffer->flags & (USB_BUFFER_SETUP | USB_BUFFER_IN)) {
   1692 74 08              5456 	mov	a,#0x08
   1694 2B                 5457 	add	a,r3
   1695 FA                 5458 	mov	r2,a
   1696 E4                 5459 	clr	a
   1697 3C                 5460 	addc	a,r4
   1698 FE                 5461 	mov	r6,a
   1699 8D 07              5462 	mov	ar7,r5
   169B 8A 82              5463 	mov	dpl,r2
   169D 8E 83              5464 	mov	dph,r6
   169F 8F F0              5465 	mov	b,r7
   16A1 A8 81              5466 	mov	r0,sp
   16A3 18                 5467 	dec	r0
   16A4 12s00r00           5468 	lcall	__gptrget
   16A7 F6                 5469 	mov	@r0,a
   16A8 A3                 5470 	inc	dptr
   16A9 12s00r00           5471 	lcall	__gptrget
   16AC 08                 5472 	inc	r0
   16AD F6                 5473 	mov	@r0,a
   16AE A8 81              5474 	mov	r0,sp
   16B0 18                 5475 	dec	r0
   16B1 E6                 5476 	mov	a,@r0
   16B2 54 60              5477 	anl	a,#0x60
   16B4 70 03              5478 	jnz	00137$
   16B6 02s17r45           5479 	ljmp	00109$
   16B9                    5480 00137$:
                           5481 ;	../../../contiki-sensinode//cpu/cc253x/usb/usb-arch.c:964: buffer->flags |= USB_BUFFER_FAILED;
   16B9 C0 03              5482 	push	ar3
   16BB C0 04              5483 	push	ar4
   16BD C0 05              5484 	push	ar5
   16BF E5 81              5485 	mov	a,sp
   16C1 24 FC              5486 	add	a,#0xfc
   16C3 F8                 5487 	mov	r0,a
   16C4 74 80              5488 	mov	a,#0x80
   16C6 46                 5489 	orl	a,@r0
   16C7 FC                 5490 	mov	r4,a
   16C8 08                 5491 	inc	r0
   16C9 86 05              5492 	mov	ar5,@r0
   16CB 8A 82              5493 	mov	dpl,r2
   16CD 8E 83              5494 	mov	dph,r6
   16CF 8F F0              5495 	mov	b,r7
   16D1 EC                 5496 	mov	a,r4
   16D2 12s00r00           5497 	lcall	__gptrput
   16D5 A3                 5498 	inc	dptr
   16D6 ED                 5499 	mov	a,r5
   16D7 12s00r00           5500 	lcall	__gptrput
                           5501 ;	../../../contiki-sensinode//cpu/cc253x/usb/usb-arch.c:965: buffer->flags &= ~USB_BUFFER_SUBMITTED;
   16DA 53 04 FE           5502 	anl	ar4,#0xFE
   16DD 8A 82              5503 	mov	dpl,r2
   16DF 8E 83              5504 	mov	dph,r6
   16E1 8F F0              5505 	mov	b,r7
   16E3 EC                 5506 	mov	a,r4
   16E4 12s00r00           5507 	lcall	__gptrput
   16E7 A3                 5508 	inc	dptr
   16E8 ED                 5509 	mov	a,r5
   16E9 12s00r00           5510 	lcall	__gptrput
                           5511 ;	../../../contiki-sensinode//cpu/cc253x/usb/usb-arch.c:966: if(buffer->flags & USB_BUFFER_NOTIFY) {
   16EC EC                 5512 	mov	a,r4
   16ED D0 05              5513 	pop	ar5
   16EF D0 04              5514 	pop	ar4
   16F1 D0 03              5515 	pop	ar3
   16F3 30 E3 07           5516 	jnb	acc.3,00123$
                           5517 ;	../../../contiki-sensinode//cpu/cc253x/usb/usb-arch.c:967: res |= USB_READ_NOTIFY;
   16F6 E5 81              5518 	mov	a,sp
   16F8 24 FC              5519 	add	a,#0xfc
   16FA F8                 5520 	mov	r0,a
   16FB 76 02              5521 	mov	@r0,#0x02
                           5522 ;	../../../contiki-sensinode//cpu/cc253x/usb/usb-arch.c:970: while(len--) {
   16FD                    5523 00123$:
   16FD A8 81              5524 	mov	r0,sp
   16FF 18                 5525 	dec	r0
   1700 18                 5526 	dec	r0
   1701 86 07              5527 	mov	ar7,@r0
   1703                    5528 00105$:
   1703 8F 06              5529 	mov	ar6,r7
   1705 1F                 5530 	dec	r7
   1706 EE                 5531 	mov	a,r6
   1707 60 06              5532 	jz	00107$
                           5533 ;	../../../contiki-sensinode//cpu/cc253x/usb/usb-arch.c:971: temp = USBF0;
   1709 90 62 20           5534 	mov	dptr,#_USBF0
   170C E0                 5535 	movx	a,@dptr
   170D 80 F4              5536 	sjmp	00105$
   170F                    5537 00107$:
                           5538 ;	../../../contiki-sensinode//cpu/cc253x/usb/usb-arch.c:973: usb_endpoints[0].buffer = buffer->next;
   170F 8B 82              5539 	mov	dpl,r3
   1711 8C 83              5540 	mov	dph,r4
   1713 8D F0              5541 	mov	b,r5
   1715 12s00r00           5542 	lcall	__gptrget
   1718 FA                 5543 	mov	r2,a
   1719 A3                 5544 	inc	dptr
   171A 12s00r00           5545 	lcall	__gptrget
   171D FE                 5546 	mov	r6,a
   171E A3                 5547 	inc	dptr
   171F 12s00r00           5548 	lcall	__gptrget
   1722 FF                 5549 	mov	r7,a
   1723 90s00r04           5550 	mov	dptr,#(_usb_endpoints + 0x0003)
   1726 EA                 5551 	mov	a,r2
   1727 F0                 5552 	movx	@dptr,a
   1728 A3                 5553 	inc	dptr
   1729 EE                 5554 	mov	a,r6
   172A F0                 5555 	movx	@dptr,a
   172B A3                 5556 	inc	dptr
   172C EF                 5557 	mov	a,r7
   172D F0                 5558 	movx	@dptr,a
                           5559 ;	../../../contiki-sensinode//cpu/cc253x/usb/usb-arch.c:975: USBCS0 |= USBCS0_CLR_OUTPKT_RDY | USBCS0_DATA_END;
   172E 90 62 11           5560 	mov	dptr,#_USBCS0
   1731 E0                 5561 	movx	a,@dptr
   1732 FF                 5562 	mov	r7,a
   1733 44 48              5563 	orl	a,#0x48
   1735 F0                 5564 	movx	@dptr,a
                           5565 ;	../../../contiki-sensinode//cpu/cc253x/usb/usb-arch.c:977: ep0status = EP_IDLE;
   1736 90s00r00           5566 	mov	dptr,#_ep0status
   1739 E4                 5567 	clr	a
   173A F0                 5568 	movx	@dptr,a
                           5569 ;	../../../contiki-sensinode//cpu/cc253x/usb/usb-arch.c:978: return res;
   173B E5 81              5570 	mov	a,sp
   173D 24 FC              5571 	add	a,#0xfc
   173F F8                 5572 	mov	r0,a
   1740 86 82              5573 	mov	dpl,@r0
   1742 02s17rEA           5574 	ljmp	00117$
   1745                    5575 00109$:
                           5576 ;	../../../contiki-sensinode//cpu/cc253x/usb/usb-arch.c:981: if(get_receive_capacity(buffer) < len) {
   1745 8B 82              5577 	mov	dpl,r3
   1747 8C 83              5578 	mov	dph,r4
   1749 8D F0              5579 	mov	b,r5
   174B C0 05              5580 	push	ar5
   174D C0 04              5581 	push	ar4
   174F C0 03              5582 	push	ar3
   1751 78rB8              5583 	mov	r0,#_get_receive_capacity
   1753 79s0F              5584 	mov	r1,#(_get_receive_capacity >> 8)
   1755 7As00              5585 	mov	r2,#(_get_receive_capacity >> 16)
   1757 12s00r00           5586 	lcall	__sdcc_banked_call
   175A AE 82              5587 	mov	r6,dpl
   175C AF 83              5588 	mov	r7,dph
   175E D0 03              5589 	pop	ar3
   1760 D0 04              5590 	pop	ar4
   1762 D0 05              5591 	pop	ar5
   1764 A8 81              5592 	mov	r0,sp
   1766 18                 5593 	dec	r0
   1767 18                 5594 	dec	r0
   1768 A9 81              5595 	mov	r1,sp
   176A 19                 5596 	dec	r1
   176B E6                 5597 	mov	a,@r0
   176C F7                 5598 	mov	@r1,a
   176D 09                 5599 	inc	r1
   176E 77 00              5600 	mov	@r1,#0x00
   1770 A8 81              5601 	mov	r0,sp
   1772 18                 5602 	dec	r0
   1773 C3                 5603 	clr	c
   1774 EE                 5604 	mov	a,r6
   1775 96                 5605 	subb	a,@r0
   1776 EF                 5606 	mov	a,r7
   1777 08                 5607 	inc	r0
   1778 96                 5608 	subb	a,@r0
   1779 50 05              5609 	jnc	00111$
                           5610 ;	../../../contiki-sensinode//cpu/cc253x/usb/usb-arch.c:983: return USB_READ_BLOCK;
   177B 75 82 01           5611 	mov	dpl,#0x01
   177E 80 6A              5612 	sjmp	00117$
   1780                    5613 00111$:
                           5614 ;	../../../contiki-sensinode//cpu/cc253x/usb/usb-arch.c:986: if(len < usb_endpoints[0].xfer_size) {
   1780 90s00r0C           5615 	mov	dptr,#(_usb_endpoints + 0x000b)
   1783 E0                 5616 	movx	a,@dptr
   1784 FE                 5617 	mov	r6,a
   1785 A3                 5618 	inc	dptr
   1786 E0                 5619 	movx	a,@dptr
   1787 FF                 5620 	mov	r7,a
   1788 A8 81              5621 	mov	r0,sp
   178A 18                 5622 	dec	r0
   178B C3                 5623 	clr	c
   178C E6                 5624 	mov	a,@r0
   178D 9E                 5625 	subb	a,r6
   178E 08                 5626 	inc	r0
   178F E6                 5627 	mov	a,@r0
   1790 9F                 5628 	subb	a,r7
   1791 50 07              5629 	jnc	00113$
                           5630 ;	../../../contiki-sensinode//cpu/cc253x/usb/usb-arch.c:987: short_packet = 1;
   1793 E5 81              5631 	mov	a,sp
   1795 24 FD              5632 	add	a,#0xfd
   1797 F8                 5633 	mov	r0,a
   1798 76 01              5634 	mov	@r0,#0x01
   179A                    5635 00113$:
                           5636 ;	../../../contiki-sensinode//cpu/cc253x/usb/usb-arch.c:990: res = fill_buffers(buffer, 0, len, short_packet);
   179A E5 81              5637 	mov	a,sp
   179C 24 FD              5638 	add	a,#0xfd
   179E F8                 5639 	mov	r0,a
   179F E6                 5640 	mov	a,@r0
   17A0 C0 E0              5641 	push	acc
   17A2 A8 81              5642 	mov	r0,sp
   17A4 18                 5643 	dec	r0
   17A5 18                 5644 	dec	r0
   17A6 E6                 5645 	mov	a,@r0
   17A7 C0 E0              5646 	push	acc
   17A9 08                 5647 	inc	r0
   17AA E6                 5648 	mov	a,@r0
   17AB C0 E0              5649 	push	acc
   17AD E4                 5650 	clr	a
   17AE C0 E0              5651 	push	acc
   17B0 8B 82              5652 	mov	dpl,r3
   17B2 8C 83              5653 	mov	dph,r4
   17B4 8D F0              5654 	mov	b,r5
   17B6 78r1E              5655 	mov	r0,#_fill_buffers
   17B8 79s11              5656 	mov	r1,#(_fill_buffers >> 8)
   17BA 7As00              5657 	mov	r2,#(_fill_buffers >> 16)
   17BC 12s00r00           5658 	lcall	__sdcc_banked_call
   17BF AF 82              5659 	mov	r7,dpl
   17C1 E5 81              5660 	mov	a,sp
   17C3 24 FC              5661 	add	a,#0xfc
   17C5 F5 81              5662 	mov	sp,a
   17C7 24 FC              5663 	add	a,#0xfc
   17C9 F8                 5664 	mov	r0,a
   17CA A6 07              5665 	mov	@r0,ar7
                           5666 ;	../../../contiki-sensinode//cpu/cc253x/usb/usb-arch.c:992: if(short_packet) {
   17CC E5 81              5667 	mov	a,sp
   17CE 24 FD              5668 	add	a,#0xfd
   17D0 F8                 5669 	mov	r0,a
   17D1 E6                 5670 	mov	a,@r0
   17D2 60 07              5671 	jz	00115$
                           5672 ;	../../../contiki-sensinode//cpu/cc253x/usb/usb-arch.c:994: ep0status = EP_IDLE;
   17D4 90s00r00           5673 	mov	dptr,#_ep0status
   17D7 E4                 5674 	clr	a
   17D8 F0                 5675 	movx	@dptr,a
   17D9 80 08              5676 	sjmp	00116$
   17DB                    5677 00115$:
                           5678 ;	../../../contiki-sensinode//cpu/cc253x/usb/usb-arch.c:997: USBCS0 |= USBCS0_CLR_OUTPKT_RDY;
   17DB 90 62 11           5679 	mov	dptr,#_USBCS0
   17DE E0                 5680 	movx	a,@dptr
   17DF FF                 5681 	mov	r7,a
   17E0 44 40              5682 	orl	a,#0x40
   17E2 F0                 5683 	movx	@dptr,a
   17E3                    5684 00116$:
                           5685 ;	../../../contiki-sensinode//cpu/cc253x/usb/usb-arch.c:999: return res;
   17E3 E5 81              5686 	mov	a,sp
   17E5 24 FC              5687 	add	a,#0xfc
   17E7 F8                 5688 	mov	r0,a
   17E8 86 82              5689 	mov	dpl,@r0
   17EA                    5690 00117$:
   17EA E5 81              5691 	mov	a,sp
   17EC 24 FB              5692 	add	a,#0xFB
   17EE F5 81              5693 	mov	sp,a
   17F0 02s00r00           5694 	ljmp	__sdcc_banked_ret
                           5695 ;------------------------------------------------------------
                           5696 ;Allocation info for local variables in function 'ep0_tx'
                           5697 ;------------------------------------------------------------
                           5698 ;buffer                    Allocated to stack - sp -11
                           5699 ;len                       Allocated to stack - sp -8
                           5700 ;data_end                  Allocated to stack - sp -6
                           5701 ;res                       Allocated to stack - sp -5
                           5702 ;copy                      Allocated to stack - sp -4
                           5703 ;sloc0                     Allocated to stack - sp -2
                           5704 ;------------------------------------------------------------
                           5705 ;	../../../contiki-sensinode//cpu/cc253x/usb/usb-arch.c:1003: ep0_tx(void)
                           5706 ;	-----------------------------------------
                           5707 ;	 function ep0_tx
                           5708 ;	-----------------------------------------
   17F3                    5709 _ep0_tx:
   17F3 E5 81              5710 	mov	a,sp
   17F5 24 0C              5711 	add	a,#0x0C
   17F7 F5 81              5712 	mov	sp,a
                           5713 ;	../../../contiki-sensinode//cpu/cc253x/usb/usb-arch.c:1005: USBBuffer *buffer = usb_endpoints[0].buffer;
   17F9 90s00r04           5714 	mov	dptr,#(_usb_endpoints + 0x0003)
   17FC E0                 5715 	movx	a,@dptr
   17FD FD                 5716 	mov	r5,a
   17FE A3                 5717 	inc	dptr
   17FF E0                 5718 	movx	a,@dptr
   1800 FE                 5719 	mov	r6,a
   1801 A3                 5720 	inc	dptr
   1802 E0                 5721 	movx	a,@dptr
   1803 FF                 5722 	mov	r7,a
   1804 E5 81              5723 	mov	a,sp
   1806 24 F5              5724 	add	a,#0xf5
   1808 F8                 5725 	mov	r0,a
   1809 A6 05              5726 	mov	@r0,ar5
   180B 08                 5727 	inc	r0
   180C A6 06              5728 	mov	@r0,ar6
   180E 08                 5729 	inc	r0
   180F A6 07              5730 	mov	@r0,ar7
                           5731 ;	../../../contiki-sensinode//cpu/cc253x/usb/usb-arch.c:1006: unsigned int len = usb_endpoints[0].xfer_size;
   1811 90s00r0C           5732 	mov	dptr,#(_usb_endpoints + 0x000b)
   1814 E0                 5733 	movx	a,@dptr
   1815 FB                 5734 	mov	r3,a
   1816 A3                 5735 	inc	dptr
   1817 E0                 5736 	movx	a,@dptr
   1818 FC                 5737 	mov	r4,a
   1819 E5 81              5738 	mov	a,sp
   181B 24 F8              5739 	add	a,#0xf8
   181D F8                 5740 	mov	r0,a
   181E A6 03              5741 	mov	@r0,ar3
   1820 08                 5742 	inc	r0
   1821 A6 04              5743 	mov	@r0,ar4
                           5744 ;	../../../contiki-sensinode//cpu/cc253x/usb/usb-arch.c:1007: uint8_t data_end = 0;
   1823 E5 81              5745 	mov	a,sp
   1825 24 FA              5746 	add	a,#0xfa
   1827 F8                 5747 	mov	r0,a
   1828 76 00              5748 	mov	@r0,#0x00
                           5749 ;	../../../contiki-sensinode//cpu/cc253x/usb/usb-arch.c:1008: uint8_t res = 0;
   182A E5 81              5750 	mov	a,sp
   182C 24 FB              5751 	add	a,#0xfb
   182E F8                 5752 	mov	r0,a
   182F 76 00              5753 	mov	@r0,#0x00
                           5754 ;	../../../contiki-sensinode//cpu/cc253x/usb/usb-arch.c:1011: if((USBCS0 & USBCS0_INPKT_RDY) || (ep0status != EP_TX)) {
   1831 90 62 11           5755 	mov	dptr,#_USBCS0
   1834 E0                 5756 	movx	a,@dptr
   1835 FA                 5757 	mov	r2,a
   1836 20 E1 0A           5758 	jb	acc.1,00101$
   1839 90s00r00           5759 	mov	dptr,#_ep0status
   183C E0                 5760 	movx	a,@dptr
   183D FA                 5761 	mov	r2,a
   183E BA 02 02           5762 	cjne	r2,#0x02,00158$
   1841 80 06              5763 	sjmp	00102$
   1843                    5764 00158$:
   1843                    5765 00101$:
                           5766 ;	../../../contiki-sensinode//cpu/cc253x/usb/usb-arch.c:1012: return 0;
   1843 75 82 00           5767 	mov	dpl,#0x00
   1846 02s1ArD3           5768 	ljmp	00131$
   1849                    5769 00102$:
                           5770 ;	../../../contiki-sensinode//cpu/cc253x/usb/usb-arch.c:1015: if(!buffer) {
   1849 E5 81              5771 	mov	a,sp
   184B 24 F5              5772 	add	a,#0xf5
   184D F8                 5773 	mov	r0,a
   184E E6                 5774 	mov	a,@r0
   184F 08                 5775 	inc	r0
   1850 46                 5776 	orl	a,@r0
                           5777 ;	../../../contiki-sensinode//cpu/cc253x/usb/usb-arch.c:1016: return 0;
   1851 70 05              5778 	jnz	00105$
   1853 F5 82              5779 	mov	dpl,a
   1855 02s1ArD3           5780 	ljmp	00131$
   1858                    5781 00105$:
                           5782 ;	../../../contiki-sensinode//cpu/cc253x/usb/usb-arch.c:1019: if(!(buffer->flags & USB_BUFFER_IN)) {
   1858 E5 81              5783 	mov	a,sp
   185A 24 F5              5784 	add	a,#0xf5
   185C F8                 5785 	mov	r0,a
   185D 74 08              5786 	mov	a,#0x08
   185F 26                 5787 	add	a,@r0
   1860 FA                 5788 	mov	r2,a
   1861 E4                 5789 	clr	a
   1862 08                 5790 	inc	r0
   1863 36                 5791 	addc	a,@r0
   1864 FB                 5792 	mov	r3,a
   1865 08                 5793 	inc	r0
   1866 86 04              5794 	mov	ar4,@r0
   1868 8A 82              5795 	mov	dpl,r2
   186A 8B 83              5796 	mov	dph,r3
   186C 8C F0              5797 	mov	b,r4
   186E 12s00r00           5798 	lcall	__gptrget
   1871 FA                 5799 	mov	r2,a
   1872 A3                 5800 	inc	dptr
   1873 12s00r00           5801 	lcall	__gptrget
   1876 FB                 5802 	mov	r3,a
   1877 EA                 5803 	mov	a,r2
   1878 20 E6 06           5804 	jb	acc.6,00122$
                           5805 ;	../../../contiki-sensinode//cpu/cc253x/usb/usb-arch.c:1020: return 0;                   // Huh .. problem ... we should TX but queued buffer is in RX ...
   187B 75 82 00           5806 	mov	dpl,#0x00
   187E 02s1ArD3           5807 	ljmp	00131$
                           5808 ;	../../../contiki-sensinode//cpu/cc253x/usb/usb-arch.c:1023: while(buffer) {
   1881                    5809 00122$:
   1881 E5 81              5810 	mov	a,sp
   1883 24 F5              5811 	add	a,#0xf5
   1885 F8                 5812 	mov	r0,a
   1886 E6                 5813 	mov	a,@r0
   1887 08                 5814 	inc	r0
   1888 46                 5815 	orl	a,@r0
   1889 70 03              5816 	jnz	00161$
   188B 02s1Ar80           5817 	ljmp	00124$
   188E                    5818 00161$:
                           5819 ;	../../../contiki-sensinode//cpu/cc253x/usb/usb-arch.c:1026: if(buffer->left < len) {
   188E E5 81              5820 	mov	a,sp
   1890 24 F5              5821 	add	a,#0xf5
   1892 F8                 5822 	mov	r0,a
   1893 74 06              5823 	mov	a,#0x06
   1895 26                 5824 	add	a,@r0
   1896 FA                 5825 	mov	r2,a
   1897 E4                 5826 	clr	a
   1898 08                 5827 	inc	r0
   1899 36                 5828 	addc	a,@r0
   189A FB                 5829 	mov	r3,a
   189B 08                 5830 	inc	r0
   189C 86 04              5831 	mov	ar4,@r0
   189E 8A 82              5832 	mov	dpl,r2
   18A0 8B 83              5833 	mov	dph,r3
   18A2 8C F0              5834 	mov	b,r4
   18A4 12s00r00           5835 	lcall	__gptrget
   18A7 FB                 5836 	mov	r3,a
   18A8 A3                 5837 	inc	dptr
   18A9 12s00r00           5838 	lcall	__gptrget
   18AC FC                 5839 	mov	r4,a
   18AD E5 81              5840 	mov	a,sp
   18AF 24 F8              5841 	add	a,#0xf8
   18B1 F8                 5842 	mov	r0,a
   18B2 C3                 5843 	clr	c
   18B3 EB                 5844 	mov	a,r3
   18B4 96                 5845 	subb	a,@r0
   18B5 EC                 5846 	mov	a,r4
   18B6 08                 5847 	inc	r0
   18B7 96                 5848 	subb	a,@r0
   18B8 50 0C              5849 	jnc	00109$
                           5850 ;	../../../contiki-sensinode//cpu/cc253x/usb/usb-arch.c:1027: copy = buffer->left;
   18BA E5 81              5851 	mov	a,sp
   18BC 24 FC              5852 	add	a,#0xfc
   18BE F8                 5853 	mov	r0,a
   18BF A6 03              5854 	mov	@r0,ar3
   18C1 08                 5855 	inc	r0
   18C2 A6 04              5856 	mov	@r0,ar4
   18C4 80 10              5857 	sjmp	00110$
   18C6                    5858 00109$:
                           5859 ;	../../../contiki-sensinode//cpu/cc253x/usb/usb-arch.c:1029: copy = len;
   18C6 E5 81              5860 	mov	a,sp
   18C8 24 F8              5861 	add	a,#0xf8
   18CA F8                 5862 	mov	r0,a
   18CB E5 81              5863 	mov	a,sp
   18CD 24 FC              5864 	add	a,#0xfc
   18CF F9                 5865 	mov	r1,a
   18D0 E6                 5866 	mov	a,@r0
   18D1 F7                 5867 	mov	@r1,a
   18D2 08                 5868 	inc	r0
   18D3 09                 5869 	inc	r1
   18D4 E6                 5870 	mov	a,@r0
   18D5 F7                 5871 	mov	@r1,a
   18D6                    5872 00110$:
                           5873 ;	../../../contiki-sensinode//cpu/cc253x/usb/usb-arch.c:1032: len -= copy;
   18D6 E5 81              5874 	mov	a,sp
   18D8 24 F8              5875 	add	a,#0xf8
   18DA F8                 5876 	mov	r0,a
   18DB E5 81              5877 	mov	a,sp
   18DD 24 FC              5878 	add	a,#0xfc
   18DF F9                 5879 	mov	r1,a
   18E0 E6                 5880 	mov	a,@r0
   18E1 C3                 5881 	clr	c
   18E2 97                 5882 	subb	a,@r1
   18E3 F6                 5883 	mov	@r0,a
   18E4 08                 5884 	inc	r0
   18E5 E6                 5885 	mov	a,@r0
   18E6 09                 5886 	inc	r1
   18E7 97                 5887 	subb	a,@r1
   18E8 F6                 5888 	mov	@r0,a
                           5889 ;	../../../contiki-sensinode//cpu/cc253x/usb/usb-arch.c:1033: buffer->left -= copy;
   18E9 E5 81              5890 	mov	a,sp
   18EB 24 F5              5891 	add	a,#0xf5
   18ED F8                 5892 	mov	r0,a
   18EE 74 06              5893 	mov	a,#0x06
   18F0 26                 5894 	add	a,@r0
   18F1 FA                 5895 	mov	r2,a
   18F2 E4                 5896 	clr	a
   18F3 08                 5897 	inc	r0
   18F4 36                 5898 	addc	a,@r0
   18F5 FB                 5899 	mov	r3,a
   18F6 08                 5900 	inc	r0
   18F7 86 04              5901 	mov	ar4,@r0
   18F9 8A 82              5902 	mov	dpl,r2
   18FB 8B 83              5903 	mov	dph,r3
   18FD 8C F0              5904 	mov	b,r4
   18FF 12s00r00           5905 	lcall	__gptrget
   1902 FE                 5906 	mov	r6,a
   1903 A3                 5907 	inc	dptr
   1904 12s00r00           5908 	lcall	__gptrget
   1907 FF                 5909 	mov	r7,a
   1908 E5 81              5910 	mov	a,sp
   190A 24 FC              5911 	add	a,#0xfc
   190C F8                 5912 	mov	r0,a
   190D EE                 5913 	mov	a,r6
   190E C3                 5914 	clr	c
   190F 96                 5915 	subb	a,@r0
   1910 FE                 5916 	mov	r6,a
   1911 EF                 5917 	mov	a,r7
   1912 08                 5918 	inc	r0
   1913 96                 5919 	subb	a,@r0
   1914 FF                 5920 	mov	r7,a
   1915 8A 82              5921 	mov	dpl,r2
   1917 8B 83              5922 	mov	dph,r3
   1919 8C F0              5923 	mov	b,r4
   191B EE                 5924 	mov	a,r6
   191C 12s00r00           5925 	lcall	__gptrput
   191F A3                 5926 	inc	dptr
   1920 EF                 5927 	mov	a,r7
   1921 12s00r00           5928 	lcall	__gptrput
                           5929 ;	../../../contiki-sensinode//cpu/cc253x/usb/usb-arch.c:1034: write_hw_buffer(0, buffer->data, copy);
   1924 E5 81              5930 	mov	a,sp
   1926 24 F5              5931 	add	a,#0xf5
   1928 F8                 5932 	mov	r0,a
   1929 A9 81              5933 	mov	r1,sp
   192B 19                 5934 	dec	r1
   192C 19                 5935 	dec	r1
   192D 74 03              5936 	mov	a,#0x03
   192F 26                 5937 	add	a,@r0
   1930 F7                 5938 	mov	@r1,a
   1931 E4                 5939 	clr	a
   1932 08                 5940 	inc	r0
   1933 36                 5941 	addc	a,@r0
   1934 09                 5942 	inc	r1
   1935 F7                 5943 	mov	@r1,a
   1936 08                 5944 	inc	r0
   1937 09                 5945 	inc	r1
   1938 E6                 5946 	mov	a,@r0
   1939 F7                 5947 	mov	@r1,a
   193A A8 81              5948 	mov	r0,sp
   193C 18                 5949 	dec	r0
   193D 18                 5950 	dec	r0
   193E 86 82              5951 	mov	dpl,@r0
   1940 08                 5952 	inc	r0
   1941 86 83              5953 	mov	dph,@r0
   1943 08                 5954 	inc	r0
   1944 86 F0              5955 	mov	b,@r0
   1946 12s00r00           5956 	lcall	__gptrget
   1949 FD                 5957 	mov	r5,a
   194A A3                 5958 	inc	dptr
   194B 12s00r00           5959 	lcall	__gptrget
   194E FE                 5960 	mov	r6,a
   194F A3                 5961 	inc	dptr
   1950 12s00r00           5962 	lcall	__gptrget
   1953 FF                 5963 	mov	r7,a
   1954 C0 04              5964 	push	ar4
   1956 C0 03              5965 	push	ar3
   1958 C0 02              5966 	push	ar2
   195A E5 81              5967 	mov	a,sp
   195C 24 F9              5968 	add	a,#0xf9
   195E F8                 5969 	mov	r0,a
   195F E6                 5970 	mov	a,@r0
   1960 C0 E0              5971 	push	acc
   1962 08                 5972 	inc	r0
   1963 E6                 5973 	mov	a,@r0
   1964 C0 E0              5974 	push	acc
   1966 C0 05              5975 	push	ar5
   1968 C0 06              5976 	push	ar6
   196A C0 07              5977 	push	ar7
   196C 75 82 00           5978 	mov	dpl,#0x00
   196F 78r0D              5979 	mov	r0,#_write_hw_buffer
   1971 79s02              5980 	mov	r1,#(_write_hw_buffer >> 8)
   1973 7As00              5981 	mov	r2,#(_write_hw_buffer >> 16)
   1975 12s00r00           5982 	lcall	__sdcc_banked_call
   1978 E5 81              5983 	mov	a,sp
   197A 24 FB              5984 	add	a,#0xfb
   197C F5 81              5985 	mov	sp,a
   197E D0 02              5986 	pop	ar2
   1980 D0 03              5987 	pop	ar3
   1982 D0 04              5988 	pop	ar4
                           5989 ;	../../../contiki-sensinode//cpu/cc253x/usb/usb-arch.c:1035: buffer->data += copy;
   1984 A8 81              5990 	mov	r0,sp
   1986 18                 5991 	dec	r0
   1987 18                 5992 	dec	r0
   1988 86 82              5993 	mov	dpl,@r0
   198A 08                 5994 	inc	r0
   198B 86 83              5995 	mov	dph,@r0
   198D 08                 5996 	inc	r0
   198E 86 F0              5997 	mov	b,@r0
   1990 12s00r00           5998 	lcall	__gptrget
   1993 FD                 5999 	mov	r5,a
   1994 A3                 6000 	inc	dptr
   1995 12s00r00           6001 	lcall	__gptrget
   1998 FE                 6002 	mov	r6,a
   1999 A3                 6003 	inc	dptr
   199A 12s00r00           6004 	lcall	__gptrget
   199D FF                 6005 	mov	r7,a
   199E E5 81              6006 	mov	a,sp
   19A0 24 FC              6007 	add	a,#0xfc
   19A2 F8                 6008 	mov	r0,a
   19A3 E6                 6009 	mov	a,@r0
   19A4 2D                 6010 	add	a,r5
   19A5 FD                 6011 	mov	r5,a
   19A6 08                 6012 	inc	r0
   19A7 E6                 6013 	mov	a,@r0
   19A8 3E                 6014 	addc	a,r6
   19A9 FE                 6015 	mov	r6,a
   19AA A8 81              6016 	mov	r0,sp
   19AC 18                 6017 	dec	r0
   19AD 18                 6018 	dec	r0
   19AE 86 82              6019 	mov	dpl,@r0
   19B0 08                 6020 	inc	r0
   19B1 86 83              6021 	mov	dph,@r0
   19B3 08                 6022 	inc	r0
   19B4 86 F0              6023 	mov	b,@r0
   19B6 ED                 6024 	mov	a,r5
   19B7 12s00r00           6025 	lcall	__gptrput
   19BA A3                 6026 	inc	dptr
   19BB EE                 6027 	mov	a,r6
   19BC 12s00r00           6028 	lcall	__gptrput
   19BF A3                 6029 	inc	dptr
   19C0 EF                 6030 	mov	a,r7
   19C1 12s00r00           6031 	lcall	__gptrput
                           6032 ;	../../../contiki-sensinode//cpu/cc253x/usb/usb-arch.c:1036: if(buffer->left == 0) {
   19C4 8A 82              6033 	mov	dpl,r2
   19C6 8B 83              6034 	mov	dph,r3
   19C8 8C F0              6035 	mov	b,r4
   19CA 12s00r00           6036 	lcall	__gptrget
   19CD FA                 6037 	mov	r2,a
   19CE A3                 6038 	inc	dptr
   19CF 12s00r00           6039 	lcall	__gptrget
   19D2 FB                 6040 	mov	r3,a
   19D3 4A                 6041 	orl	a,r2
   19D4 60 03              6042 	jz	00163$
   19D6 02s1Ar73           6043 	ljmp	00119$
   19D9                    6044 00163$:
                           6045 ;	../../../contiki-sensinode//cpu/cc253x/usb/usb-arch.c:1037: if(buffer->flags & USB_BUFFER_SHORT_END) {
   19D9 E5 81              6046 	mov	a,sp
   19DB 24 F5              6047 	add	a,#0xf5
   19DD F8                 6048 	mov	r0,a
   19DE 74 08              6049 	mov	a,#0x08
   19E0 26                 6050 	add	a,@r0
   19E1 FD                 6051 	mov	r5,a
   19E2 E4                 6052 	clr	a
   19E3 08                 6053 	inc	r0
   19E4 36                 6054 	addc	a,@r0
   19E5 FE                 6055 	mov	r6,a
   19E6 08                 6056 	inc	r0
   19E7 86 07              6057 	mov	ar7,@r0
   19E9 8D 82              6058 	mov	dpl,r5
   19EB 8E 83              6059 	mov	dph,r6
   19ED 8F F0              6060 	mov	b,r7
   19EF 12s00r00           6061 	lcall	__gptrget
   19F2 FD                 6062 	mov	r5,a
   19F3 A3                 6063 	inc	dptr
   19F4 12s00r00           6064 	lcall	__gptrget
   19F7 FE                 6065 	mov	r6,a
   19F8 ED                 6066 	mov	a,r5
   19F9 30 E1 1A           6067 	jnb	acc.1,00115$
                           6068 ;	../../../contiki-sensinode//cpu/cc253x/usb/usb-arch.c:1038: if(len == 0) {
   19FC E5 81              6069 	mov	a,sp
   19FE 24 F8              6070 	add	a,#0xf8
   1A00 F8                 6071 	mov	r0,a
   1A01 E6                 6072 	mov	a,@r0
   1A02 08                 6073 	inc	r0
   1A03 46                 6074 	orl	a,@r0
   1A04 60 7A              6075 	jz	00124$
                           6076 ;	../../../contiki-sensinode//cpu/cc253x/usb/usb-arch.c:1041: data_end = 1;
   1A06 E5 81              6077 	mov	a,sp
   1A08 24 FA              6078 	add	a,#0xfa
   1A0A F8                 6079 	mov	r0,a
   1A0B 76 01              6080 	mov	@r0,#0x01
                           6081 ;	../../../contiki-sensinode//cpu/cc253x/usb/usb-arch.c:1042: len = 0;              // Stop looking for more data to send
   1A0D E5 81              6082 	mov	a,sp
   1A0F 24 F8              6083 	add	a,#0xf8
   1A11 F8                 6084 	mov	r0,a
   1A12 E4                 6085 	clr	a
   1A13 F6                 6086 	mov	@r0,a
   1A14 08                 6087 	inc	r0
   1A15 F6                 6088 	mov	@r0,a
   1A16                    6089 00115$:
                           6090 ;	../../../contiki-sensinode//cpu/cc253x/usb/usb-arch.c:1045: buffer->flags &= ~USB_BUFFER_SUBMITTED;
   1A16 E5 81              6091 	mov	a,sp
   1A18 24 F5              6092 	add	a,#0xf5
   1A1A F8                 6093 	mov	r0,a
   1A1B 74 08              6094 	mov	a,#0x08
   1A1D 26                 6095 	add	a,@r0
   1A1E FD                 6096 	mov	r5,a
   1A1F E4                 6097 	clr	a
   1A20 08                 6098 	inc	r0
   1A21 36                 6099 	addc	a,@r0
   1A22 FE                 6100 	mov	r6,a
   1A23 08                 6101 	inc	r0
   1A24 86 07              6102 	mov	ar7,@r0
   1A26 8D 82              6103 	mov	dpl,r5
   1A28 8E 83              6104 	mov	dph,r6
   1A2A 8F F0              6105 	mov	b,r7
   1A2C 12s00r00           6106 	lcall	__gptrget
   1A2F FB                 6107 	mov	r3,a
   1A30 A3                 6108 	inc	dptr
   1A31 12s00r00           6109 	lcall	__gptrget
   1A34 FC                 6110 	mov	r4,a
   1A35 53 03 FE           6111 	anl	ar3,#0xFE
   1A38 8D 82              6112 	mov	dpl,r5
   1A3A 8E 83              6113 	mov	dph,r6
   1A3C 8F F0              6114 	mov	b,r7
   1A3E EB                 6115 	mov	a,r3
   1A3F 12s00r00           6116 	lcall	__gptrput
   1A42 A3                 6117 	inc	dptr
   1A43 EC                 6118 	mov	a,r4
   1A44 12s00r00           6119 	lcall	__gptrput
                           6120 ;	../../../contiki-sensinode//cpu/cc253x/usb/usb-arch.c:1046: if(buffer->flags & USB_BUFFER_NOTIFY) {
   1A47 EB                 6121 	mov	a,r3
   1A48 30 E3 09           6122 	jnb	acc.3,00117$
                           6123 ;	../../../contiki-sensinode//cpu/cc253x/usb/usb-arch.c:1047: res |= USB_WRITE_NOTIFY;
   1A4B E5 81              6124 	mov	a,sp
   1A4D 24 FB              6125 	add	a,#0xfb
   1A4F F8                 6126 	mov	r0,a
   1A50 E6                 6127 	mov	a,@r0
   1A51 44 02              6128 	orl	a,#0x02
   1A53 F6                 6129 	mov	@r0,a
   1A54                    6130 00117$:
                           6131 ;	../../../contiki-sensinode//cpu/cc253x/usb/usb-arch.c:1049: buffer = buffer->next;
   1A54 E5 81              6132 	mov	a,sp
   1A56 24 F5              6133 	add	a,#0xf5
   1A58 F8                 6134 	mov	r0,a
   1A59 86 82              6135 	mov	dpl,@r0
   1A5B 08                 6136 	inc	r0
   1A5C 86 83              6137 	mov	dph,@r0
   1A5E 08                 6138 	inc	r0
   1A5F 86 F0              6139 	mov	b,@r0
   1A61 12s00r00           6140 	lcall	__gptrget
   1A64 18                 6141 	dec	r0
   1A65 18                 6142 	dec	r0
   1A66 F6                 6143 	mov	@r0,a
   1A67 A3                 6144 	inc	dptr
   1A68 12s00r00           6145 	lcall	__gptrget
   1A6B 08                 6146 	inc	r0
   1A6C F6                 6147 	mov	@r0,a
   1A6D A3                 6148 	inc	dptr
   1A6E 12s00r00           6149 	lcall	__gptrget
   1A71 08                 6150 	inc	r0
   1A72 F6                 6151 	mov	@r0,a
   1A73                    6152 00119$:
                           6153 ;	../../../contiki-sensinode//cpu/cc253x/usb/usb-arch.c:1051: if(len == 0) {
   1A73 E5 81              6154 	mov	a,sp
   1A75 24 F8              6155 	add	a,#0xf8
   1A77 F8                 6156 	mov	r0,a
   1A78 E6                 6157 	mov	a,@r0
   1A79 08                 6158 	inc	r0
   1A7A 46                 6159 	orl	a,@r0
   1A7B 60 03              6160 	jz	00167$
   1A7D 02s18r81           6161 	ljmp	00122$
   1A80                    6162 00167$:
                           6163 ;	../../../contiki-sensinode//cpu/cc253x/usb/usb-arch.c:1052: break;                    // FIFO is full, send packet.
   1A80                    6164 00124$:
                           6165 ;	../../../contiki-sensinode//cpu/cc253x/usb/usb-arch.c:1055: if(len) {
   1A80 E5 81              6166 	mov	a,sp
   1A82 24 F8              6167 	add	a,#0xf8
   1A84 F8                 6168 	mov	r0,a
   1A85 E6                 6169 	mov	a,@r0
   1A86 08                 6170 	inc	r0
   1A87 46                 6171 	orl	a,@r0
   1A88 60 07              6172 	jz	00126$
                           6173 ;	../../../contiki-sensinode//cpu/cc253x/usb/usb-arch.c:1057: data_end = 1;
   1A8A E5 81              6174 	mov	a,sp
   1A8C 24 FA              6175 	add	a,#0xfa
   1A8E F8                 6176 	mov	r0,a
   1A8F 76 01              6177 	mov	@r0,#0x01
   1A91                    6178 00126$:
                           6179 ;	../../../contiki-sensinode//cpu/cc253x/usb/usb-arch.c:1059: usb_endpoints[0].buffer = buffer;
   1A91 90s00r04           6180 	mov	dptr,#(_usb_endpoints + 0x0003)
   1A94 E5 81              6181 	mov	a,sp
   1A96 24 F5              6182 	add	a,#0xf5
   1A98 F8                 6183 	mov	r0,a
   1A99 E6                 6184 	mov	a,@r0
   1A9A F0                 6185 	movx	@dptr,a
   1A9B A3                 6186 	inc	dptr
   1A9C 08                 6187 	inc	r0
   1A9D E6                 6188 	mov	a,@r0
   1A9E F0                 6189 	movx	@dptr,a
   1A9F A3                 6190 	inc	dptr
   1AA0 08                 6191 	inc	r0
   1AA1 E6                 6192 	mov	a,@r0
   1AA2 F0                 6193 	movx	@dptr,a
                           6194 ;	../../../contiki-sensinode//cpu/cc253x/usb/usb-arch.c:1063: if(data_end || !buffer) {
   1AA3 E5 81              6195 	mov	a,sp
   1AA5 24 FA              6196 	add	a,#0xfa
   1AA7 F8                 6197 	mov	r0,a
   1AA8 E6                 6198 	mov	a,@r0
   1AA9 70 0A              6199 	jnz	00127$
   1AAB E5 81              6200 	mov	a,sp
   1AAD 24 F5              6201 	add	a,#0xf5
   1AAF F8                 6202 	mov	r0,a
   1AB0 E6                 6203 	mov	a,@r0
   1AB1 08                 6204 	inc	r0
   1AB2 46                 6205 	orl	a,@r0
   1AB3 70 0F              6206 	jnz	00128$
   1AB5                    6207 00127$:
                           6208 ;	../../../contiki-sensinode//cpu/cc253x/usb/usb-arch.c:1064: ep0status = EP_IDLE;
   1AB5 90s00r00           6209 	mov	dptr,#_ep0status
   1AB8 E4                 6210 	clr	a
   1AB9 F0                 6211 	movx	@dptr,a
                           6212 ;	../../../contiki-sensinode//cpu/cc253x/usb/usb-arch.c:1065: USBCS0 |= USBCS0_INPKT_RDY | USBCS0_DATA_END;
   1ABA 90 62 11           6213 	mov	dptr,#_USBCS0
   1ABD E0                 6214 	movx	a,@dptr
   1ABE FF                 6215 	mov	r7,a
   1ABF 44 0A              6216 	orl	a,#0x0A
   1AC1 F0                 6217 	movx	@dptr,a
   1AC2 80 08              6218 	sjmp	00129$
   1AC4                    6219 00128$:
                           6220 ;	../../../contiki-sensinode//cpu/cc253x/usb/usb-arch.c:1067: USBCS0 |= USBCS0_INPKT_RDY;
   1AC4 90 62 11           6221 	mov	dptr,#_USBCS0
   1AC7 E0                 6222 	movx	a,@dptr
   1AC8 FF                 6223 	mov	r7,a
   1AC9 44 02              6224 	orl	a,#0x02
   1ACB F0                 6225 	movx	@dptr,a
   1ACC                    6226 00129$:
                           6227 ;	../../../contiki-sensinode//cpu/cc253x/usb/usb-arch.c:1070: return res;
   1ACC E5 81              6228 	mov	a,sp
   1ACE 24 FB              6229 	add	a,#0xfb
   1AD0 F8                 6230 	mov	r0,a
   1AD1 86 82              6231 	mov	dpl,@r0
   1AD3                    6232 00131$:
   1AD3 E5 81              6233 	mov	a,sp
   1AD5 24 F4              6234 	add	a,#0xF4
   1AD7 F5 81              6235 	mov	sp,a
   1AD9 02s00r00           6236 	ljmp	__sdcc_banked_ret
                           6237 ;------------------------------------------------------------
                           6238 ;Allocation info for local variables in function 'usb_arch_ep0_irq'
                           6239 ;------------------------------------------------------------
                           6240 ;cs0                       Allocated to registers r7 
                           6241 ;res                       Allocated to registers r7 
                           6242 ;------------------------------------------------------------
                           6243 ;	../../../contiki-sensinode//cpu/cc253x/usb/usb-arch.c:1074: usb_arch_ep0_irq(void)
                           6244 ;	-----------------------------------------
                           6245 ;	 function usb_arch_ep0_irq
                           6246 ;	-----------------------------------------
   1ADC                    6247 _usb_arch_ep0_irq:
                           6248 ;	../../../contiki-sensinode//cpu/cc253x/usb/usb-arch.c:1079: USBINDEX = 0;
   1ADC 90 62 0E           6249 	mov	dptr,#_USBINDEX
   1ADF E4                 6250 	clr	a
   1AE0 F0                 6251 	movx	@dptr,a
                           6252 ;	../../../contiki-sensinode//cpu/cc253x/usb/usb-arch.c:1080: cs0 = USBCS0;
   1AE1 90 62 11           6253 	mov	dptr,#_USBCS0
   1AE4 E0                 6254 	movx	a,@dptr
                           6255 ;	../../../contiki-sensinode//cpu/cc253x/usb/usb-arch.c:1081: if(cs0 & USBCS0_SENT_STALL) {
   1AE5 FF                 6256 	mov	r7,a
   1AE6 30 E2 09           6257 	jnb	acc.2,00102$
                           6258 ;	../../../contiki-sensinode//cpu/cc253x/usb/usb-arch.c:1083: USBCS0 = 0;
   1AE9 90 62 11           6259 	mov	dptr,#_USBCS0
                           6260 ;	../../../contiki-sensinode//cpu/cc253x/usb/usb-arch.c:1084: ep0status = EP_IDLE;
   1AEC E4                 6261 	clr	a
   1AED F0                 6262 	movx	@dptr,a
   1AEE 90s00r00           6263 	mov	dptr,#_ep0status
   1AF1 F0                 6264 	movx	@dptr,a
   1AF2                    6265 00102$:
                           6266 ;	../../../contiki-sensinode//cpu/cc253x/usb/usb-arch.c:1086: if(cs0 & USBCS0_SETUP_END) {
   1AF2 EF                 6267 	mov	a,r7
   1AF3 30 E4 0B           6268 	jnb	acc.4,00104$
                           6269 ;	../../../contiki-sensinode//cpu/cc253x/usb/usb-arch.c:1088: USBCS0 = USBCS0_CLR_SETUP_END;
   1AF6 90 62 11           6270 	mov	dptr,#_USBCS0
   1AF9 74 80              6271 	mov	a,#0x80
   1AFB F0                 6272 	movx	@dptr,a
                           6273 ;	../../../contiki-sensinode//cpu/cc253x/usb/usb-arch.c:1089: ep0status = EP_IDLE;
   1AFC 90s00r00           6274 	mov	dptr,#_ep0status
   1AFF E4                 6275 	clr	a
   1B00 F0                 6276 	movx	@dptr,a
   1B01                    6277 00104$:
                           6278 ;	../../../contiki-sensinode//cpu/cc253x/usb/usb-arch.c:1092: if(cs0 & USBCS0_OUTPKT_RDY) {
   1B01 EF                 6279 	mov	a,r7
   1B02 30 E0 49           6280 	jnb	acc.0,00113$
                           6281 ;	../../../contiki-sensinode//cpu/cc253x/usb/usb-arch.c:1093: if(ep0status == EP_IDLE) {
   1B05 90s00r00           6282 	mov	dptr,#_ep0status
   1B08 E0                 6283 	movx	a,@dptr
   1B09 FF                 6284 	mov	r7,a
   1B0A 70 0D              6285 	jnz	00106$
                           6286 ;	../../../contiki-sensinode//cpu/cc253x/usb/usb-arch.c:1094: res = ep0_get_setup_pkt();
   1B0C 78r4D              6287 	mov	r0,#_ep0_get_setup_pkt
   1B0E 79s14              6288 	mov	r1,#(_ep0_get_setup_pkt >> 8)
   1B10 7As00              6289 	mov	r2,#(_ep0_get_setup_pkt >> 16)
   1B12 12s00r00           6290 	lcall	__sdcc_banked_call
   1B15 AF 82              6291 	mov	r7,dpl
   1B17 80 0D              6292 	sjmp	00107$
   1B19                    6293 00106$:
                           6294 ;	../../../contiki-sensinode//cpu/cc253x/usb/usb-arch.c:1096: res = ep0_get_data_pkt();
   1B19 78r60              6295 	mov	r0,#_ep0_get_data_pkt
   1B1B 79s16              6296 	mov	r1,#(_ep0_get_data_pkt >> 8)
   1B1D 7As00              6297 	mov	r2,#(_ep0_get_data_pkt >> 16)
   1B1F 12s00r00           6298 	lcall	__sdcc_banked_call
   1B22 AE 82              6299 	mov	r6,dpl
   1B24 8E 07              6300 	mov	ar7,r6
   1B26                    6301 00107$:
                           6302 ;	../../../contiki-sensinode//cpu/cc253x/usb/usb-arch.c:1099: if(res & USB_READ_NOTIFY) {
   1B26 EF                 6303 	mov	a,r7
   1B27 30 E1 1E           6304 	jnb	acc.1,00109$
                           6305 ;	../../../contiki-sensinode//cpu/cc253x/usb/usb-arch.c:1100: notify_ep_process(&usb_endpoints[0], USB_EP_EVENT_NOTIFICATION);
   1B2A C0 07              6306 	push	ar7
   1B2C 74 01              6307 	mov	a,#0x01
   1B2E C0 E0              6308 	push	acc
   1B30 E4                 6309 	clr	a
   1B31 C0 E0              6310 	push	acc
   1B33 90s00r01           6311 	mov	dptr,#_usb_endpoints
   1B36 75 F0 00           6312 	mov	b,#0x00
   1B39 78r37              6313 	mov	r0,#_notify_ep_process
   1B3B 79s00              6314 	mov	r1,#(_notify_ep_process >> 8)
   1B3D 7As00              6315 	mov	r2,#(_notify_ep_process >> 16)
   1B3F 12s00r00           6316 	lcall	__sdcc_banked_call
   1B42 15 81              6317 	dec	sp
   1B44 15 81              6318 	dec	sp
   1B46 D0 07              6319 	pop	ar7
   1B48                    6320 00109$:
                           6321 ;	../../../contiki-sensinode//cpu/cc253x/usb/usb-arch.c:1102: if(res & USB_READ_BLOCK) {
   1B48 EF                 6322 	mov	a,r7
   1B49 30 E0 02           6323 	jnb	acc.0,00113$
                           6324 ;	../../../contiki-sensinode//cpu/cc253x/usb/usb-arch.c:1103: return;
   1B4C 80 2B              6325 	sjmp	00116$
   1B4E                    6326 00113$:
                           6327 ;	../../../contiki-sensinode//cpu/cc253x/usb/usb-arch.c:1107: res = ep0_tx();
   1B4E 78rF3              6328 	mov	r0,#_ep0_tx
   1B50 79s17              6329 	mov	r1,#(_ep0_tx >> 8)
   1B52 7As00              6330 	mov	r2,#(_ep0_tx >> 16)
   1B54 12s00r00           6331 	lcall	__sdcc_banked_call
   1B57 AE 82              6332 	mov	r6,dpl
   1B59 8E 07              6333 	mov	ar7,r6
                           6334 ;	../../../contiki-sensinode//cpu/cc253x/usb/usb-arch.c:1109: if(res & USB_WRITE_NOTIFY) {
   1B5B EF                 6335 	mov	a,r7
   1B5C 30 E1 1A           6336 	jnb	acc.1,00116$
                           6337 ;	../../../contiki-sensinode//cpu/cc253x/usb/usb-arch.c:1110: notify_ep_process(&usb_endpoints[0], USB_EP_EVENT_NOTIFICATION);
   1B5F 74 01              6338 	mov	a,#0x01
   1B61 C0 E0              6339 	push	acc
   1B63 E4                 6340 	clr	a
   1B64 C0 E0              6341 	push	acc
   1B66 90s00r01           6342 	mov	dptr,#_usb_endpoints
   1B69 75 F0 00           6343 	mov	b,#0x00
   1B6C 78r37              6344 	mov	r0,#_notify_ep_process
   1B6E 79s00              6345 	mov	r1,#(_notify_ep_process >> 8)
   1B70 7As00              6346 	mov	r2,#(_notify_ep_process >> 16)
   1B72 12s00r00           6347 	lcall	__sdcc_banked_call
   1B75 15 81              6348 	dec	sp
   1B77 15 81              6349 	dec	sp
   1B79                    6350 00116$:
   1B79 02s00r00           6351 	ljmp	__sdcc_banked_ret
                           6352 ;------------------------------------------------------------
                           6353 ;Allocation info for local variables in function 'ep_tx'
                           6354 ;------------------------------------------------------------
                           6355 ;ep_hw                     Allocated to stack - sp -14
                           6356 ;len                       Allocated to stack - sp -13
                           6357 ;res                       Allocated to stack - sp -11
                           6358 ;ep                        Allocated to registers r4 r3 r5 
                           6359 ;copy                      Allocated to stack - sp -10
                           6360 ;sloc0                     Allocated to stack - sp -8
                           6361 ;sloc1                     Allocated to stack - sp -5
                           6362 ;sloc2                     Allocated to stack - sp -2
                           6363 ;sloc3                     Allocated to stack - sp -1
                           6364 ;------------------------------------------------------------
                           6365 ;	../../../contiki-sensinode//cpu/cc253x/usb/usb-arch.c:1116: ep_tx(uint8_t ep_hw)
                           6366 ;	-----------------------------------------
                           6367 ;	 function ep_tx
                           6368 ;	-----------------------------------------
   1B7C                    6369 _ep_tx:
   1B7C C0 82              6370 	push	dpl
   1B7E E5 81              6371 	mov	a,sp
   1B80 24 0E              6372 	add	a,#0x0E
                           6373 ;	../../../contiki-sensinode//cpu/cc253x/usb/usb-arch.c:1119: uint8_t res = 0;
   1B82 F5 81              6374 	mov	sp,a
   1B84 24 F5              6375 	add	a,#0xf5
   1B86 F8                 6376 	mov	r0,a
   1B87 76 00              6377 	mov	@r0,#0x00
                           6378 ;	../../../contiki-sensinode//cpu/cc253x/usb/usb-arch.c:1120: USBEndpoint *ep = EP_STRUCT(ep_hw);
   1B89 E5 81              6379 	mov	a,sp
   1B8B 24 F2              6380 	add	a,#0xf2
   1B8D F8                 6381 	mov	r0,a
   1B8E 74 7F              6382 	mov	a,#0x7F
   1B90 56                 6383 	anl	a,@r0
   1B91 75 F0 0D           6384 	mov	b,#0x0D
   1B94 A4                 6385 	mul	ab
   1B95 24r01              6386 	add	a,#_usb_endpoints
   1B97 FC                 6387 	mov	r4,a
   1B98 E4                 6388 	clr	a
   1B99 34s00              6389 	addc	a,#(_usb_endpoints >> 8)
   1B9B FB                 6390 	mov	r3,a
   1B9C 7D 00              6391 	mov	r5,#0x00
                           6392 ;	../../../contiki-sensinode//cpu/cc253x/usb/usb-arch.c:1122: len = ep->xfer_size;
   1B9E 74 0B              6393 	mov	a,#0x0B
   1BA0 2C                 6394 	add	a,r4
   1BA1 FA                 6395 	mov	r2,a
   1BA2 E4                 6396 	clr	a
   1BA3 3B                 6397 	addc	a,r3
   1BA4 FE                 6398 	mov	r6,a
   1BA5 8D 07              6399 	mov	ar7,r5
   1BA7 8A 82              6400 	mov	dpl,r2
   1BA9 8E 83              6401 	mov	dph,r6
   1BAB 8F F0              6402 	mov	b,r7
   1BAD 12s00r00           6403 	lcall	__gptrget
   1BB0 FA                 6404 	mov	r2,a
   1BB1 A3                 6405 	inc	dptr
   1BB2 12s00r00           6406 	lcall	__gptrget
   1BB5 FE                 6407 	mov	r6,a
   1BB6 E5 81              6408 	mov	a,sp
   1BB8 24 F3              6409 	add	a,#0xf3
   1BBA F8                 6410 	mov	r0,a
   1BBB A6 02              6411 	mov	@r0,ar2
   1BBD 08                 6412 	inc	r0
   1BBE A6 06              6413 	mov	@r0,ar6
                           6414 ;	../../../contiki-sensinode//cpu/cc253x/usb/usb-arch.c:1124: if(ep->halted) {
   1BC0 8C 82              6415 	mov	dpl,r4
   1BC2 8B 83              6416 	mov	dph,r3
   1BC4 8D F0              6417 	mov	b,r5
   1BC6 12s00r00           6418 	lcall	__gptrget
   1BC9 60 06              6419 	jz	00102$
                           6420 ;	../../../contiki-sensinode//cpu/cc253x/usb/usb-arch.c:1125: return 0;
   1BCB 75 82 00           6421 	mov	dpl,#0x00
   1BCE 02s1ErD6           6422 	ljmp	00123$
   1BD1                    6423 00102$:
                           6424 ;	../../../contiki-sensinode//cpu/cc253x/usb/usb-arch.c:1128: if(!ep->buffer || !(ep->buffer->flags & USB_BUFFER_IN)) {
   1BD1 74 03              6425 	mov	a,#0x03
   1BD3 2C                 6426 	add	a,r4
   1BD4 FA                 6427 	mov	r2,a
   1BD5 E4                 6428 	clr	a
   1BD6 3B                 6429 	addc	a,r3
   1BD7 FE                 6430 	mov	r6,a
   1BD8 8D 07              6431 	mov	ar7,r5
   1BDA 8A 82              6432 	mov	dpl,r2
   1BDC 8E 83              6433 	mov	dph,r6
   1BDE 8F F0              6434 	mov	b,r7
   1BE0 12s00r00           6435 	lcall	__gptrget
   1BE3 FA                 6436 	mov	r2,a
   1BE4 A3                 6437 	inc	dptr
   1BE5 12s00r00           6438 	lcall	__gptrget
   1BE8 FE                 6439 	mov	r6,a
   1BE9 A3                 6440 	inc	dptr
   1BEA 12s00r00           6441 	lcall	__gptrget
   1BED FF                 6442 	mov	r7,a
   1BEE EA                 6443 	mov	a,r2
   1BEF 4E                 6444 	orl	a,r6
   1BF0 60 27              6445 	jz	00103$
   1BF2 C0 04              6446 	push	ar4
   1BF4 C0 03              6447 	push	ar3
   1BF6 C0 05              6448 	push	ar5
   1BF8 74 08              6449 	mov	a,#0x08
   1BFA 2A                 6450 	add	a,r2
   1BFB FA                 6451 	mov	r2,a
   1BFC E4                 6452 	clr	a
   1BFD 3E                 6453 	addc	a,r6
   1BFE FC                 6454 	mov	r4,a
   1BFF 8F 05              6455 	mov	ar5,r7
   1C01 8A 82              6456 	mov	dpl,r2
   1C03 8C 83              6457 	mov	dph,r4
   1C05 8D F0              6458 	mov	b,r5
   1C07 12s00r00           6459 	lcall	__gptrget
   1C0A FA                 6460 	mov	r2,a
   1C0B A3                 6461 	inc	dptr
   1C0C 12s00r00           6462 	lcall	__gptrget
   1C0F EA                 6463 	mov	a,r2
   1C10 D0 05              6464 	pop	ar5
   1C12 D0 03              6465 	pop	ar3
   1C14 D0 04              6466 	pop	ar4
   1C16 20 E6 06           6467 	jb	acc.6,00133$
   1C19                    6468 00103$:
                           6469 ;	../../../contiki-sensinode//cpu/cc253x/usb/usb-arch.c:1129: return 0;
   1C19 75 82 00           6470 	mov	dpl,#0x00
   1C1C 02s1ErD6           6471 	ljmp	00123$
                           6472 ;	../../../contiki-sensinode//cpu/cc253x/usb/usb-arch.c:1132: while(ep->buffer) {
   1C1F                    6473 00133$:
   1C1F E5 81              6474 	mov	a,sp
   1C21 24 F2              6475 	add	a,#0xf2
   1C23 F8                 6476 	mov	r0,a
   1C24 A9 81              6477 	mov	r1,sp
   1C26 19                 6478 	dec	r1
   1C27 19                 6479 	dec	r1
   1C28 74 7F              6480 	mov	a,#0x7F
   1C2A 56                 6481 	anl	a,@r0
   1C2B F7                 6482 	mov	@r1,a
   1C2C                    6483 00120$:
   1C2C E5 81              6484 	mov	a,sp
   1C2E 24 F8              6485 	add	a,#0xf8
   1C30 F8                 6486 	mov	r0,a
   1C31 74 03              6487 	mov	a,#0x03
   1C33 2C                 6488 	add	a,r4
   1C34 F6                 6489 	mov	@r0,a
   1C35 E4                 6490 	clr	a
   1C36 3B                 6491 	addc	a,r3
   1C37 08                 6492 	inc	r0
   1C38 F6                 6493 	mov	@r0,a
   1C39 08                 6494 	inc	r0
   1C3A A6 05              6495 	mov	@r0,ar5
   1C3C E5 81              6496 	mov	a,sp
   1C3E 24 F8              6497 	add	a,#0xf8
   1C40 F8                 6498 	mov	r0,a
   1C41 86 82              6499 	mov	dpl,@r0
   1C43 08                 6500 	inc	r0
   1C44 86 83              6501 	mov	dph,@r0
   1C46 08                 6502 	inc	r0
   1C47 86 F0              6503 	mov	b,@r0
   1C49 12s00r00           6504 	lcall	__gptrget
   1C4C FA                 6505 	mov	r2,a
   1C4D A3                 6506 	inc	dptr
   1C4E 12s00r00           6507 	lcall	__gptrget
   1C51 FE                 6508 	mov	r6,a
   1C52 A3                 6509 	inc	dptr
   1C53 12s00r00           6510 	lcall	__gptrget
   1C56 FF                 6511 	mov	r7,a
   1C57 EA                 6512 	mov	a,r2
   1C58 4E                 6513 	orl	a,r6
   1C59 70 03              6514 	jnz	00146$
   1C5B 02s1ErC7           6515 	ljmp	00122$
   1C5E                    6516 00146$:
                           6517 ;	../../../contiki-sensinode//cpu/cc253x/usb/usb-arch.c:1135: if(ep->buffer->left < len) {
   1C5E 74 06              6518 	mov	a,#0x06
   1C60 2A                 6519 	add	a,r2
   1C61 FA                 6520 	mov	r2,a
   1C62 E4                 6521 	clr	a
   1C63 3E                 6522 	addc	a,r6
   1C64 FE                 6523 	mov	r6,a
   1C65 8A 82              6524 	mov	dpl,r2
   1C67 8E 83              6525 	mov	dph,r6
   1C69 8F F0              6526 	mov	b,r7
   1C6B E5 81              6527 	mov	a,sp
   1C6D 24 FB              6528 	add	a,#0xfb
   1C6F F8                 6529 	mov	r0,a
   1C70 12s00r00           6530 	lcall	__gptrget
   1C73 F6                 6531 	mov	@r0,a
   1C74 A3                 6532 	inc	dptr
   1C75 12s00r00           6533 	lcall	__gptrget
   1C78 08                 6534 	inc	r0
   1C79 F6                 6535 	mov	@r0,a
   1C7A E5 81              6536 	mov	a,sp
   1C7C 24 FB              6537 	add	a,#0xfb
   1C7E F8                 6538 	mov	r0,a
   1C7F E5 81              6539 	mov	a,sp
   1C81 24 F3              6540 	add	a,#0xf3
   1C83 F9                 6541 	mov	r1,a
   1C84 C3                 6542 	clr	c
   1C85 E6                 6543 	mov	a,@r0
   1C86 97                 6544 	subb	a,@r1
   1C87 08                 6545 	inc	r0
   1C88 E6                 6546 	mov	a,@r0
   1C89 09                 6547 	inc	r1
   1C8A 97                 6548 	subb	a,@r1
   1C8B 50 16              6549 	jnc	00107$
                           6550 ;	../../../contiki-sensinode//cpu/cc253x/usb/usb-arch.c:1136: copy = ep->buffer->left;
   1C8D E5 81              6551 	mov	a,sp
   1C8F 24 FB              6552 	add	a,#0xfb
   1C91 F8                 6553 	mov	r0,a
   1C92 86 06              6554 	mov	ar6,@r0
   1C94 08                 6555 	inc	r0
   1C95 86 07              6556 	mov	ar7,@r0
   1C97 E5 81              6557 	mov	a,sp
   1C99 24 F6              6558 	add	a,#0xf6
   1C9B F8                 6559 	mov	r0,a
   1C9C A6 06              6560 	mov	@r0,ar6
   1C9E 08                 6561 	inc	r0
   1C9F A6 07              6562 	mov	@r0,ar7
   1CA1 80 10              6563 	sjmp	00108$
   1CA3                    6564 00107$:
                           6565 ;	../../../contiki-sensinode//cpu/cc253x/usb/usb-arch.c:1138: copy = len;
   1CA3 E5 81              6566 	mov	a,sp
   1CA5 24 F3              6567 	add	a,#0xf3
   1CA7 F8                 6568 	mov	r0,a
   1CA8 E5 81              6569 	mov	a,sp
   1CAA 24 F6              6570 	add	a,#0xf6
   1CAC F9                 6571 	mov	r1,a
   1CAD E6                 6572 	mov	a,@r0
   1CAE F7                 6573 	mov	@r1,a
   1CAF 08                 6574 	inc	r0
   1CB0 09                 6575 	inc	r1
   1CB1 E6                 6576 	mov	a,@r0
   1CB2 F7                 6577 	mov	@r1,a
   1CB3                    6578 00108$:
                           6579 ;	../../../contiki-sensinode//cpu/cc253x/usb/usb-arch.c:1141: len -= copy;
   1CB3 C0 04              6580 	push	ar4
   1CB5 C0 03              6581 	push	ar3
   1CB7 C0 05              6582 	push	ar5
   1CB9 E5 81              6583 	mov	a,sp
   1CBB 24 F0              6584 	add	a,#0xf0
   1CBD F8                 6585 	mov	r0,a
   1CBE E5 81              6586 	mov	a,sp
   1CC0 24 F3              6587 	add	a,#0xf3
   1CC2 F9                 6588 	mov	r1,a
   1CC3 E6                 6589 	mov	a,@r0
   1CC4 C3                 6590 	clr	c
   1CC5 97                 6591 	subb	a,@r1
   1CC6 F6                 6592 	mov	@r0,a
   1CC7 08                 6593 	inc	r0
   1CC8 E6                 6594 	mov	a,@r0
   1CC9 09                 6595 	inc	r1
   1CCA 97                 6596 	subb	a,@r1
   1CCB F6                 6597 	mov	@r0,a
                           6598 ;	../../../contiki-sensinode//cpu/cc253x/usb/usb-arch.c:1142: ep->buffer->left -= copy;
   1CCC E5 81              6599 	mov	a,sp
   1CCE 24 F5              6600 	add	a,#0xf5
   1CD0 F8                 6601 	mov	r0,a
   1CD1 86 82              6602 	mov	dpl,@r0
   1CD3 08                 6603 	inc	r0
   1CD4 86 83              6604 	mov	dph,@r0
   1CD6 08                 6605 	inc	r0
   1CD7 86 F0              6606 	mov	b,@r0
   1CD9 12s00r00           6607 	lcall	__gptrget
   1CDC FB                 6608 	mov	r3,a
   1CDD A3                 6609 	inc	dptr
   1CDE 12s00r00           6610 	lcall	__gptrget
   1CE1 FC                 6611 	mov	r4,a
   1CE2 A3                 6612 	inc	dptr
   1CE3 12s00r00           6613 	lcall	__gptrget
   1CE6 FD                 6614 	mov	r5,a
   1CE7 E5 81              6615 	mov	a,sp
   1CE9 24 F8              6616 	add	a,#0xf8
   1CEB F8                 6617 	mov	r0,a
   1CEC 74 06              6618 	mov	a,#0x06
   1CEE 2B                 6619 	add	a,r3
   1CEF F6                 6620 	mov	@r0,a
   1CF0 E4                 6621 	clr	a
   1CF1 3C                 6622 	addc	a,r4
   1CF2 08                 6623 	inc	r0
   1CF3 F6                 6624 	mov	@r0,a
   1CF4 08                 6625 	inc	r0
   1CF5 A6 05              6626 	mov	@r0,ar5
   1CF7 E5 81              6627 	mov	a,sp
   1CF9 24 F8              6628 	add	a,#0xf8
   1CFB F8                 6629 	mov	r0,a
   1CFC 86 82              6630 	mov	dpl,@r0
   1CFE 08                 6631 	inc	r0
   1CFF 86 83              6632 	mov	dph,@r0
   1D01 08                 6633 	inc	r0
   1D02 86 F0              6634 	mov	b,@r0
   1D04 12s00r00           6635 	lcall	__gptrget
   1D07 FE                 6636 	mov	r6,a
   1D08 A3                 6637 	inc	dptr
   1D09 12s00r00           6638 	lcall	__gptrget
   1D0C FF                 6639 	mov	r7,a
   1D0D E5 81              6640 	mov	a,sp
   1D0F 24 F3              6641 	add	a,#0xf3
   1D11 F8                 6642 	mov	r0,a
   1D12 EE                 6643 	mov	a,r6
   1D13 C3                 6644 	clr	c
   1D14 96                 6645 	subb	a,@r0
   1D15 FE                 6646 	mov	r6,a
   1D16 EF                 6647 	mov	a,r7
   1D17 08                 6648 	inc	r0
   1D18 96                 6649 	subb	a,@r0
   1D19 FF                 6650 	mov	r7,a
   1D1A E5 81              6651 	mov	a,sp
   1D1C 24 F8              6652 	add	a,#0xf8
   1D1E F8                 6653 	mov	r0,a
   1D1F 86 82              6654 	mov	dpl,@r0
   1D21 08                 6655 	inc	r0
   1D22 86 83              6656 	mov	dph,@r0
   1D24 08                 6657 	inc	r0
   1D25 86 F0              6658 	mov	b,@r0
   1D27 EE                 6659 	mov	a,r6
   1D28 12s00r00           6660 	lcall	__gptrput
   1D2B A3                 6661 	inc	dptr
   1D2C EF                 6662 	mov	a,r7
   1D2D 12s00r00           6663 	lcall	__gptrput
                           6664 ;	../../../contiki-sensinode//cpu/cc253x/usb/usb-arch.c:1143: write_hw_buffer(EP_INDEX(ep_hw), ep->buffer->data, copy);
   1D30 74 03              6665 	mov	a,#0x03
   1D32 2B                 6666 	add	a,r3
   1D33 FB                 6667 	mov	r3,a
   1D34 E4                 6668 	clr	a
   1D35 3C                 6669 	addc	a,r4
   1D36 FC                 6670 	mov	r4,a
   1D37 8B 82              6671 	mov	dpl,r3
   1D39 8C 83              6672 	mov	dph,r4
   1D3B 8D F0              6673 	mov	b,r5
   1D3D 12s00r00           6674 	lcall	__gptrget
   1D40 FB                 6675 	mov	r3,a
   1D41 A3                 6676 	inc	dptr
   1D42 12s00r00           6677 	lcall	__gptrget
   1D45 FC                 6678 	mov	r4,a
   1D46 A3                 6679 	inc	dptr
   1D47 12s00r00           6680 	lcall	__gptrget
   1D4A FD                 6681 	mov	r5,a
   1D4B C0 05              6682 	push	ar5
   1D4D C0 04              6683 	push	ar4
   1D4F C0 03              6684 	push	ar3
   1D51 E5 81              6685 	mov	a,sp
   1D53 24 F0              6686 	add	a,#0xf0
   1D55 F8                 6687 	mov	r0,a
   1D56 E6                 6688 	mov	a,@r0
   1D57 C0 E0              6689 	push	acc
   1D59 08                 6690 	inc	r0
   1D5A E6                 6691 	mov	a,@r0
   1D5B C0 E0              6692 	push	acc
   1D5D C0 03              6693 	push	ar3
   1D5F C0 04              6694 	push	ar4
   1D61 C0 05              6695 	push	ar5
   1D63 E5 81              6696 	mov	a,sp
   1D65 24 F3              6697 	add	a,#0xf3
   1D67 F8                 6698 	mov	r0,a
   1D68 86 82              6699 	mov	dpl,@r0
   1D6A 78r0D              6700 	mov	r0,#_write_hw_buffer
   1D6C 79s02              6701 	mov	r1,#(_write_hw_buffer >> 8)
   1D6E 7As00              6702 	mov	r2,#(_write_hw_buffer >> 16)
   1D70 12s00r00           6703 	lcall	__sdcc_banked_call
   1D73 E5 81              6704 	mov	a,sp
   1D75 24 FB              6705 	add	a,#0xfb
   1D77 F5 81              6706 	mov	sp,a
   1D79 D0 03              6707 	pop	ar3
   1D7B D0 04              6708 	pop	ar4
   1D7D D0 05              6709 	pop	ar5
                           6710 ;	../../../contiki-sensinode//cpu/cc253x/usb/usb-arch.c:1144: ep->buffer->data += copy;
   1D7F E5 81              6711 	mov	a,sp
   1D81 24 F5              6712 	add	a,#0xf5
   1D83 F8                 6713 	mov	r0,a
   1D84 86 82              6714 	mov	dpl,@r0
   1D86 08                 6715 	inc	r0
   1D87 86 83              6716 	mov	dph,@r0
   1D89 08                 6717 	inc	r0
   1D8A 86 F0              6718 	mov	b,@r0
   1D8C E5 81              6719 	mov	a,sp
   1D8E 24 F8              6720 	add	a,#0xf8
   1D90 F9                 6721 	mov	r1,a
   1D91 12s00r00           6722 	lcall	__gptrget
   1D94 F7                 6723 	mov	@r1,a
   1D95 A3                 6724 	inc	dptr
   1D96 12s00r00           6725 	lcall	__gptrget
   1D99 09                 6726 	inc	r1
   1D9A F7                 6727 	mov	@r1,a
   1D9B A3                 6728 	inc	dptr
   1D9C 12s00r00           6729 	lcall	__gptrget
   1D9F 09                 6730 	inc	r1
   1DA0 F7                 6731 	mov	@r1,a
   1DA1 E5 81              6732 	mov	a,sp
   1DA3 24 F8              6733 	add	a,#0xf8
   1DA5 F8                 6734 	mov	r0,a
   1DA6 74 03              6735 	mov	a,#0x03
   1DA8 26                 6736 	add	a,@r0
   1DA9 FD                 6737 	mov	r5,a
   1DAA E4                 6738 	clr	a
   1DAB 08                 6739 	inc	r0
   1DAC 36                 6740 	addc	a,@r0
   1DAD FE                 6741 	mov	r6,a
   1DAE 08                 6742 	inc	r0
   1DAF 86 07              6743 	mov	ar7,@r0
   1DB1 8D 82              6744 	mov	dpl,r5
   1DB3 8E 83              6745 	mov	dph,r6
   1DB5 8F F0              6746 	mov	b,r7
   1DB7 12s00r00           6747 	lcall	__gptrget
   1DBA FA                 6748 	mov	r2,a
   1DBB A3                 6749 	inc	dptr
   1DBC 12s00r00           6750 	lcall	__gptrget
   1DBF FB                 6751 	mov	r3,a
   1DC0 A3                 6752 	inc	dptr
   1DC1 12s00r00           6753 	lcall	__gptrget
   1DC4 FC                 6754 	mov	r4,a
   1DC5 E5 81              6755 	mov	a,sp
   1DC7 24 F3              6756 	add	a,#0xf3
   1DC9 F8                 6757 	mov	r0,a
   1DCA E6                 6758 	mov	a,@r0
   1DCB 2A                 6759 	add	a,r2
   1DCC FA                 6760 	mov	r2,a
   1DCD 08                 6761 	inc	r0
   1DCE E6                 6762 	mov	a,@r0
   1DCF 3B                 6763 	addc	a,r3
   1DD0 FB                 6764 	mov	r3,a
   1DD1 8D 82              6765 	mov	dpl,r5
   1DD3 8E 83              6766 	mov	dph,r6
   1DD5 8F F0              6767 	mov	b,r7
   1DD7 EA                 6768 	mov	a,r2
   1DD8 12s00r00           6769 	lcall	__gptrput
   1DDB A3                 6770 	inc	dptr
   1DDC EB                 6771 	mov	a,r3
   1DDD 12s00r00           6772 	lcall	__gptrput
   1DE0 A3                 6773 	inc	dptr
   1DE1 EC                 6774 	mov	a,r4
   1DE2 12s00r00           6775 	lcall	__gptrput
                           6776 ;	../../../contiki-sensinode//cpu/cc253x/usb/usb-arch.c:1146: if(ep->buffer->left == 0) {
   1DE5 E5 81              6777 	mov	a,sp
   1DE7 24 F8              6778 	add	a,#0xf8
   1DE9 F8                 6779 	mov	r0,a
   1DEA 74 06              6780 	mov	a,#0x06
   1DEC 26                 6781 	add	a,@r0
   1DED FD                 6782 	mov	r5,a
   1DEE E4                 6783 	clr	a
   1DEF 08                 6784 	inc	r0
   1DF0 36                 6785 	addc	a,@r0
   1DF1 FE                 6786 	mov	r6,a
   1DF2 08                 6787 	inc	r0
   1DF3 86 07              6788 	mov	ar7,@r0
   1DF5 8D 82              6789 	mov	dpl,r5
   1DF7 8E 83              6790 	mov	dph,r6
   1DF9 8F F0              6791 	mov	b,r7
   1DFB 12s00r00           6792 	lcall	__gptrget
   1DFE FD                 6793 	mov	r5,a
   1DFF A3                 6794 	inc	dptr
   1E00 12s00r00           6795 	lcall	__gptrget
   1E03 FE                 6796 	mov	r6,a
   1E04 4D                 6797 	orl	a,r5
   1E05 D0 05              6798 	pop	ar5
   1E07 D0 03              6799 	pop	ar3
   1E09 D0 04              6800 	pop	ar4
   1E0B 60 03              6801 	jz	00148$
   1E0D 02s1ErBA           6802 	ljmp	00117$
   1E10                    6803 00148$:
                           6804 ;	../../../contiki-sensinode//cpu/cc253x/usb/usb-arch.c:1147: if(ep->buffer->flags & USB_BUFFER_SHORT_END) {
   1E10 E5 81              6805 	mov	a,sp
   1E12 24 FB              6806 	add	a,#0xfb
   1E14 F8                 6807 	mov	r0,a
   1E15 74 08              6808 	mov	a,#0x08
   1E17 26                 6809 	add	a,@r0
   1E18 FA                 6810 	mov	r2,a
   1E19 E4                 6811 	clr	a
   1E1A 08                 6812 	inc	r0
   1E1B 36                 6813 	addc	a,@r0
   1E1C FE                 6814 	mov	r6,a
   1E1D 08                 6815 	inc	r0
   1E1E 86 07              6816 	mov	ar7,@r0
   1E20 8A 82              6817 	mov	dpl,r2
   1E22 8E 83              6818 	mov	dph,r6
   1E24 8F F0              6819 	mov	b,r7
   1E26 A8 81              6820 	mov	r0,sp
   1E28 18                 6821 	dec	r0
   1E29 12s00r00           6822 	lcall	__gptrget
   1E2C F6                 6823 	mov	@r0,a
   1E2D A3                 6824 	inc	dptr
   1E2E 12s00r00           6825 	lcall	__gptrget
   1E31 08                 6826 	inc	r0
   1E32 F6                 6827 	mov	@r0,a
   1E33 A8 81              6828 	mov	r0,sp
   1E35 18                 6829 	dec	r0
   1E36 E6                 6830 	mov	a,@r0
   1E37 30 E1 16           6831 	jnb	acc.1,00113$
                           6832 ;	../../../contiki-sensinode//cpu/cc253x/usb/usb-arch.c:1148: if(len == 0) {
   1E3A E5 81              6833 	mov	a,sp
   1E3C 24 F3              6834 	add	a,#0xf3
   1E3E F8                 6835 	mov	r0,a
   1E3F E6                 6836 	mov	a,@r0
   1E40 08                 6837 	inc	r0
   1E41 46                 6838 	orl	a,@r0
   1E42 70 03              6839 	jnz	00150$
   1E44 02s1ErC7           6840 	ljmp	00122$
   1E47                    6841 00150$:
                           6842 ;	../../../contiki-sensinode//cpu/cc253x/usb/usb-arch.c:1151: len = 0;              // Stop looking for more data to send
   1E47 E5 81              6843 	mov	a,sp
   1E49 24 F3              6844 	add	a,#0xf3
   1E4B F8                 6845 	mov	r0,a
   1E4C E4                 6846 	clr	a
   1E4D F6                 6847 	mov	@r0,a
   1E4E 08                 6848 	inc	r0
   1E4F F6                 6849 	mov	@r0,a
   1E50                    6850 00113$:
                           6851 ;	../../../contiki-sensinode//cpu/cc253x/usb/usb-arch.c:1154: ep->buffer->flags &= ~USB_BUFFER_SUBMITTED;
   1E50 C0 04              6852 	push	ar4
   1E52 C0 03              6853 	push	ar3
   1E54 C0 05              6854 	push	ar5
   1E56 E5 81              6855 	mov	a,sp
   1E58 24 FC              6856 	add	a,#0xfc
   1E5A F8                 6857 	mov	r0,a
   1E5B 74 FE              6858 	mov	a,#0xFE
   1E5D 56                 6859 	anl	a,@r0
   1E5E FC                 6860 	mov	r4,a
   1E5F 08                 6861 	inc	r0
   1E60 86 05              6862 	mov	ar5,@r0
   1E62 8A 82              6863 	mov	dpl,r2
   1E64 8E 83              6864 	mov	dph,r6
   1E66 8F F0              6865 	mov	b,r7
   1E68 EC                 6866 	mov	a,r4
   1E69 12s00r00           6867 	lcall	__gptrput
   1E6C A3                 6868 	inc	dptr
   1E6D ED                 6869 	mov	a,r5
   1E6E 12s00r00           6870 	lcall	__gptrput
                           6871 ;	../../../contiki-sensinode//cpu/cc253x/usb/usb-arch.c:1155: if(ep->buffer->flags & USB_BUFFER_NOTIFY) {
   1E71 EC                 6872 	mov	a,r4
   1E72 D0 05              6873 	pop	ar5
   1E74 D0 03              6874 	pop	ar3
   1E76 D0 04              6875 	pop	ar4
   1E78 30 E3 09           6876 	jnb	acc.3,00115$
                           6877 ;	../../../contiki-sensinode//cpu/cc253x/usb/usb-arch.c:1156: res |= USB_WRITE_NOTIFY;
   1E7B E5 81              6878 	mov	a,sp
   1E7D 24 F5              6879 	add	a,#0xf5
   1E7F F8                 6880 	mov	r0,a
   1E80 E6                 6881 	mov	a,@r0
   1E81 44 02              6882 	orl	a,#0x02
   1E83 F6                 6883 	mov	@r0,a
   1E84                    6884 00115$:
                           6885 ;	../../../contiki-sensinode//cpu/cc253x/usb/usb-arch.c:1158: ep->buffer = ep->buffer->next;
   1E84 E5 81              6886 	mov	a,sp
   1E86 24 FB              6887 	add	a,#0xfb
   1E88 F8                 6888 	mov	r0,a
   1E89 86 82              6889 	mov	dpl,@r0
   1E8B 08                 6890 	inc	r0
   1E8C 86 83              6891 	mov	dph,@r0
   1E8E 08                 6892 	inc	r0
   1E8F 86 F0              6893 	mov	b,@r0
   1E91 12s00r00           6894 	lcall	__gptrget
   1E94 FA                 6895 	mov	r2,a
   1E95 A3                 6896 	inc	dptr
   1E96 12s00r00           6897 	lcall	__gptrget
   1E99 FE                 6898 	mov	r6,a
   1E9A A3                 6899 	inc	dptr
   1E9B 12s00r00           6900 	lcall	__gptrget
   1E9E FF                 6901 	mov	r7,a
   1E9F E5 81              6902 	mov	a,sp
   1EA1 24 F8              6903 	add	a,#0xf8
   1EA3 F8                 6904 	mov	r0,a
   1EA4 86 82              6905 	mov	dpl,@r0
   1EA6 08                 6906 	inc	r0
   1EA7 86 83              6907 	mov	dph,@r0
   1EA9 08                 6908 	inc	r0
   1EAA 86 F0              6909 	mov	b,@r0
   1EAC EA                 6910 	mov	a,r2
   1EAD 12s00r00           6911 	lcall	__gptrput
   1EB0 A3                 6912 	inc	dptr
   1EB1 EE                 6913 	mov	a,r6
   1EB2 12s00r00           6914 	lcall	__gptrput
   1EB5 A3                 6915 	inc	dptr
   1EB6 EF                 6916 	mov	a,r7
   1EB7 12s00r00           6917 	lcall	__gptrput
   1EBA                    6918 00117$:
                           6919 ;	../../../contiki-sensinode//cpu/cc253x/usb/usb-arch.c:1160: if(len == 0)
   1EBA E5 81              6920 	mov	a,sp
   1EBC 24 F3              6921 	add	a,#0xf3
   1EBE F8                 6922 	mov	r0,a
   1EBF E6                 6923 	mov	a,@r0
   1EC0 08                 6924 	inc	r0
   1EC1 46                 6925 	orl	a,@r0
   1EC2 60 03              6926 	jz	00152$
   1EC4 02s1Cr2C           6927 	ljmp	00120$
   1EC7                    6928 00152$:
                           6929 ;	../../../contiki-sensinode//cpu/cc253x/usb/usb-arch.c:1161: break;                    // FIFO is full, send packet.
   1EC7                    6930 00122$:
                           6931 ;	../../../contiki-sensinode//cpu/cc253x/usb/usb-arch.c:1164: USBCSIL |= USBCSIL_INPKT_RDY;
   1EC7 90 62 11           6932 	mov	dptr,#_USBCSIL
   1ECA E0                 6933 	movx	a,@dptr
   1ECB FF                 6934 	mov	r7,a
   1ECC 44 01              6935 	orl	a,#0x01
   1ECE F0                 6936 	movx	@dptr,a
                           6937 ;	../../../contiki-sensinode//cpu/cc253x/usb/usb-arch.c:1166: return res;
   1ECF E5 81              6938 	mov	a,sp
   1ED1 24 F5              6939 	add	a,#0xf5
   1ED3 F8                 6940 	mov	r0,a
   1ED4 86 82              6941 	mov	dpl,@r0
   1ED6                    6942 00123$:
   1ED6 E5 81              6943 	mov	a,sp
   1ED8 24 F1              6944 	add	a,#0xF1
   1EDA F5 81              6945 	mov	sp,a
   1EDC 02s00r00           6946 	ljmp	__sdcc_banked_ret
                           6947 ;------------------------------------------------------------
                           6948 ;Allocation info for local variables in function 'ep_get_data_pkt'
                           6949 ;------------------------------------------------------------
                           6950 ;ep_hw                     Allocated to stack - sp -6
                           6951 ;pkt_len                   Allocated to stack - sp -5
                           6952 ;res                       Allocated to registers r7 
                           6953 ;short_packet              Allocated to stack - sp -3
                           6954 ;ep                        Allocated to registers r4 r3 r5 
                           6955 ;sloc0                     Allocated to stack - sp -2
                           6956 ;sloc1                     Allocated to stack - sp -1
                           6957 ;------------------------------------------------------------
                           6958 ;	../../../contiki-sensinode//cpu/cc253x/usb/usb-arch.c:1171: ep_get_data_pkt(uint8_t ep_hw)
                           6959 ;	-----------------------------------------
                           6960 ;	 function ep_get_data_pkt
                           6961 ;	-----------------------------------------
   1EDF                    6962 _ep_get_data_pkt:
   1EDF C0 82              6963 	push	dpl
   1EE1 E5 81              6964 	mov	a,sp
   1EE3 24 06              6965 	add	a,#0x06
                           6966 ;	../../../contiki-sensinode//cpu/cc253x/usb/usb-arch.c:1175: uint8_t short_packet = 0;
   1EE5 F5 81              6967 	mov	sp,a
   1EE7 24 FD              6968 	add	a,#0xfd
   1EE9 F8                 6969 	mov	r0,a
   1EEA 76 00              6970 	mov	@r0,#0x00
                           6971 ;	../../../contiki-sensinode//cpu/cc253x/usb/usb-arch.c:1176: USBEndpoint *ep = EP_STRUCT(ep_hw);
   1EEC E5 81              6972 	mov	a,sp
   1EEE 24 FA              6973 	add	a,#0xfa
   1EF0 F8                 6974 	mov	r0,a
   1EF1 74 7F              6975 	mov	a,#0x7F
   1EF3 56                 6976 	anl	a,@r0
   1EF4 75 F0 0D           6977 	mov	b,#0x0D
   1EF7 A4                 6978 	mul	ab
   1EF8 24r01              6979 	add	a,#_usb_endpoints
   1EFA FC                 6980 	mov	r4,a
   1EFB E4                 6981 	clr	a
   1EFC 34s00              6982 	addc	a,#(_usb_endpoints >> 8)
   1EFE FB                 6983 	mov	r3,a
   1EFF 7D 00              6984 	mov	r5,#0x00
                           6985 ;	../../../contiki-sensinode//cpu/cc253x/usb/usb-arch.c:1178: if(!ep->buffer) {
   1F01 74 03              6986 	mov	a,#0x03
   1F03 2C                 6987 	add	a,r4
   1F04 FA                 6988 	mov	r2,a
   1F05 E4                 6989 	clr	a
   1F06 3B                 6990 	addc	a,r3
   1F07 FE                 6991 	mov	r6,a
   1F08 8D 07              6992 	mov	ar7,r5
   1F0A 8A 82              6993 	mov	dpl,r2
   1F0C 8E 83              6994 	mov	dph,r6
   1F0E 8F F0              6995 	mov	b,r7
   1F10 12s00r00           6996 	lcall	__gptrget
   1F13 FA                 6997 	mov	r2,a
   1F14 A3                 6998 	inc	dptr
   1F15 12s00r00           6999 	lcall	__gptrget
   1F18 FE                 7000 	mov	r6,a
   1F19 A3                 7001 	inc	dptr
   1F1A 12s00r00           7002 	lcall	__gptrget
   1F1D FF                 7003 	mov	r7,a
   1F1E EA                 7004 	mov	a,r2
   1F1F 4E                 7005 	orl	a,r6
   1F20 70 06              7006 	jnz	00102$
                           7007 ;	../../../contiki-sensinode//cpu/cc253x/usb/usb-arch.c:1179: return USB_READ_BLOCK;
   1F22 75 82 01           7008 	mov	dpl,#0x01
   1F25 02s20r74           7009 	ljmp	00111$
   1F28                    7010 00102$:
                           7011 ;	../../../contiki-sensinode//cpu/cc253x/usb/usb-arch.c:1182: if(ep->buffer->flags & USB_BUFFER_HALT) {
   1F28 C0 04              7012 	push	ar4
   1F2A C0 03              7013 	push	ar3
   1F2C C0 05              7014 	push	ar5
   1F2E 74 08              7015 	mov	a,#0x08
   1F30 2A                 7016 	add	a,r2
   1F31 FB                 7017 	mov	r3,a
   1F32 E4                 7018 	clr	a
   1F33 3E                 7019 	addc	a,r6
   1F34 FC                 7020 	mov	r4,a
   1F35 8F 05              7021 	mov	ar5,r7
   1F37 8B 82              7022 	mov	dpl,r3
   1F39 8C 83              7023 	mov	dph,r4
   1F3B 8D F0              7024 	mov	b,r5
   1F3D 12s00r00           7025 	lcall	__gptrget
   1F40 A3                 7026 	inc	dptr
   1F41 12s00r00           7027 	lcall	__gptrget
   1F44 D0 05              7028 	pop	ar5
   1F46 D0 03              7029 	pop	ar3
   1F48 D0 04              7030 	pop	ar4
   1F4A 30 E0 36           7031 	jnb	acc.0,00106$
                           7032 ;	../../../contiki-sensinode//cpu/cc253x/usb/usb-arch.c:1183: ep->halted = 1;
   1F4D 8C 82              7033 	mov	dpl,r4
   1F4F 8B 83              7034 	mov	dph,r3
   1F51 8D F0              7035 	mov	b,r5
   1F53 74 01              7036 	mov	a,#0x01
   1F55 12s00r00           7037 	lcall	__gptrput
                           7038 ;	../../../contiki-sensinode//cpu/cc253x/usb/usb-arch.c:1184: if(!(USBCSOL & USBCSOL_SEND_STALL)) {
   1F58 90 62 14           7039 	mov	dptr,#_USBCSOL
   1F5B A8 81              7040 	mov	r0,sp
   1F5D 18                 7041 	dec	r0
   1F5E 18                 7042 	dec	r0
   1F5F E0                 7043 	movx	a,@dptr
   1F60 F6                 7044 	mov	@r0,a
   1F61 A8 81              7045 	mov	r0,sp
   1F63 18                 7046 	dec	r0
   1F64 18                 7047 	dec	r0
   1F65 E6                 7048 	mov	a,@r0
   1F66 20 E5 14           7049 	jb	acc.5,00104$
                           7050 ;	../../../contiki-sensinode//cpu/cc253x/usb/usb-arch.c:1185: USBCSOL |= USBCSOL_SEND_STALL;
   1F69 90 62 14           7051 	mov	dptr,#_USBCSOL
   1F6C A8 81              7052 	mov	r0,sp
   1F6E 18                 7053 	dec	r0
   1F6F 18                 7054 	dec	r0
   1F70 E0                 7055 	movx	a,@dptr
   1F71 F6                 7056 	mov	@r0,a
   1F72 A8 81              7057 	mov	r0,sp
   1F74 18                 7058 	dec	r0
   1F75 18                 7059 	dec	r0
   1F76 90 62 14           7060 	mov	dptr,#_USBCSOL
   1F79 74 20              7061 	mov	a,#0x20
   1F7B 46                 7062 	orl	a,@r0
   1F7C F0                 7063 	movx	@dptr,a
   1F7D                    7064 00104$:
                           7065 ;	../../../contiki-sensinode//cpu/cc253x/usb/usb-arch.c:1187: return 0;
   1F7D 75 82 00           7066 	mov	dpl,#0x00
   1F80 02s20r74           7067 	ljmp	00111$
   1F83                    7068 00106$:
                           7069 ;	../../../contiki-sensinode//cpu/cc253x/usb/usb-arch.c:1190: pkt_len = USBCNTL | (USBCNTH << 8);
   1F83 C0 04              7070 	push	ar4
   1F85 C0 03              7071 	push	ar3
   1F87 C0 05              7072 	push	ar5
   1F89 90 62 17           7073 	mov	dptr,#_USBCNTH
   1F8C E0                 7074 	movx	a,@dptr
   1F8D FD                 7075 	mov	r5,a
   1F8E 7C 00              7076 	mov	r4,#0x00
   1F90 E5 81              7077 	mov	a,sp
   1F92 24 FC              7078 	add	a,#0xfc
   1F94 F8                 7079 	mov	r0,a
   1F95 08                 7080 	inc	r0
   1F96 A6 05              7081 	mov	@r0,ar5
   1F98 18                 7082 	dec	r0
   1F99 76 00              7083 	mov	@r0,#0x00
   1F9B 90 62 16           7084 	mov	dptr,#_USBCNTL
   1F9E E0                 7085 	movx	a,@dptr
   1F9F FB                 7086 	mov	r3,a
   1FA0 7D 00              7087 	mov	r5,#0x00
   1FA2 E5 81              7088 	mov	a,sp
   1FA4 24 FC              7089 	add	a,#0xfc
   1FA6 F8                 7090 	mov	r0,a
   1FA7 E6                 7091 	mov	a,@r0
   1FA8 42 03              7092 	orl	ar3,a
   1FAA 08                 7093 	inc	r0
   1FAB E6                 7094 	mov	a,@r0
   1FAC 42 05              7095 	orl	ar5,a
   1FAE E5 81              7096 	mov	a,sp
   1FB0 24 F8              7097 	add	a,#0xf8
   1FB2 F8                 7098 	mov	r0,a
   1FB3 A6 03              7099 	mov	@r0,ar3
   1FB5 08                 7100 	inc	r0
   1FB6 A6 05              7101 	mov	@r0,ar5
                           7102 ;	../../../contiki-sensinode//cpu/cc253x/usb/usb-arch.c:1191: if(get_receive_capacity(ep->buffer) < pkt_len) {
   1FB8 8A 82              7103 	mov	dpl,r2
   1FBA 8E 83              7104 	mov	dph,r6
   1FBC 8F F0              7105 	mov	b,r7
   1FBE C0 05              7106 	push	ar5
   1FC0 C0 04              7107 	push	ar4
   1FC2 C0 03              7108 	push	ar3
   1FC4 78rB8              7109 	mov	r0,#_get_receive_capacity
   1FC6 79s0F              7110 	mov	r1,#(_get_receive_capacity >> 8)
   1FC8 7As00              7111 	mov	r2,#(_get_receive_capacity >> 16)
   1FCA 12s00r00           7112 	lcall	__sdcc_banked_call
   1FCD AE 82              7113 	mov	r6,dpl
   1FCF AF 83              7114 	mov	r7,dph
   1FD1 D0 03              7115 	pop	ar3
   1FD3 D0 04              7116 	pop	ar4
   1FD5 D0 05              7117 	pop	ar5
   1FD7 E5 81              7118 	mov	a,sp
   1FD9 24 F8              7119 	add	a,#0xf8
   1FDB F8                 7120 	mov	r0,a
   1FDC C3                 7121 	clr	c
   1FDD EE                 7122 	mov	a,r6
   1FDE 96                 7123 	subb	a,@r0
   1FDF EF                 7124 	mov	a,r7
   1FE0 08                 7125 	inc	r0
   1FE1 96                 7126 	subb	a,@r0
   1FE2 D0 05              7127 	pop	ar5
   1FE4 D0 03              7128 	pop	ar3
   1FE6 D0 04              7129 	pop	ar4
   1FE8 50 06              7130 	jnc	00108$
                           7131 ;	../../../contiki-sensinode//cpu/cc253x/usb/usb-arch.c:1192: return USB_READ_BLOCK;
   1FEA 75 82 01           7132 	mov	dpl,#0x01
   1FED 02s20r74           7133 	ljmp	00111$
   1FF0                    7134 00108$:
                           7135 ;	../../../contiki-sensinode//cpu/cc253x/usb/usb-arch.c:1195: if(pkt_len < ep->xfer_size) {
   1FF0 74 0B              7136 	mov	a,#0x0B
   1FF2 2C                 7137 	add	a,r4
   1FF3 FA                 7138 	mov	r2,a
   1FF4 E4                 7139 	clr	a
   1FF5 3B                 7140 	addc	a,r3
   1FF6 FE                 7141 	mov	r6,a
   1FF7 8D 07              7142 	mov	ar7,r5
   1FF9 8A 82              7143 	mov	dpl,r2
   1FFB 8E 83              7144 	mov	dph,r6
   1FFD 8F F0              7145 	mov	b,r7
   1FFF 12s00r00           7146 	lcall	__gptrget
   2002 FA                 7147 	mov	r2,a
   2003 A3                 7148 	inc	dptr
   2004 12s00r00           7149 	lcall	__gptrget
   2007 FE                 7150 	mov	r6,a
   2008 E5 81              7151 	mov	a,sp
   200A 24 FB              7152 	add	a,#0xfb
   200C F8                 7153 	mov	r0,a
   200D C3                 7154 	clr	c
   200E E6                 7155 	mov	a,@r0
   200F 9A                 7156 	subb	a,r2
   2010 08                 7157 	inc	r0
   2011 E6                 7158 	mov	a,@r0
   2012 9E                 7159 	subb	a,r6
   2013 50 07              7160 	jnc	00110$
                           7161 ;	../../../contiki-sensinode//cpu/cc253x/usb/usb-arch.c:1196: short_packet = 1;
   2015 E5 81              7162 	mov	a,sp
   2017 24 FD              7163 	add	a,#0xfd
   2019 F8                 7164 	mov	r0,a
   201A 76 01              7165 	mov	@r0,#0x01
   201C                    7166 00110$:
                           7167 ;	../../../contiki-sensinode//cpu/cc253x/usb/usb-arch.c:1199: res = fill_buffers(ep->buffer, ep_hw, pkt_len, short_packet);
   201C 74 03              7168 	mov	a,#0x03
   201E 2C                 7169 	add	a,r4
   201F FC                 7170 	mov	r4,a
   2020 E4                 7171 	clr	a
   2021 3B                 7172 	addc	a,r3
   2022 FB                 7173 	mov	r3,a
   2023 8C 82              7174 	mov	dpl,r4
   2025 8B 83              7175 	mov	dph,r3
   2027 8D F0              7176 	mov	b,r5
   2029 12s00r00           7177 	lcall	__gptrget
   202C FC                 7178 	mov	r4,a
   202D A3                 7179 	inc	dptr
   202E 12s00r00           7180 	lcall	__gptrget
   2031 FB                 7181 	mov	r3,a
   2032 A3                 7182 	inc	dptr
   2033 12s00r00           7183 	lcall	__gptrget
   2036 FD                 7184 	mov	r5,a
   2037 E5 81              7185 	mov	a,sp
   2039 24 FD              7186 	add	a,#0xfd
   203B F8                 7187 	mov	r0,a
   203C E6                 7188 	mov	a,@r0
   203D C0 E0              7189 	push	acc
   203F E5 81              7190 	mov	a,sp
   2041 24 FA              7191 	add	a,#0xfa
   2043 F8                 7192 	mov	r0,a
   2044 E6                 7193 	mov	a,@r0
   2045 C0 E0              7194 	push	acc
   2047 08                 7195 	inc	r0
   2048 E6                 7196 	mov	a,@r0
   2049 C0 E0              7197 	push	acc
   204B E5 81              7198 	mov	a,sp
   204D 24 F7              7199 	add	a,#0xf7
   204F F8                 7200 	mov	r0,a
   2050 E6                 7201 	mov	a,@r0
   2051 C0 E0              7202 	push	acc
   2053 8C 82              7203 	mov	dpl,r4
   2055 8B 83              7204 	mov	dph,r3
   2057 8D F0              7205 	mov	b,r5
   2059 78r1E              7206 	mov	r0,#_fill_buffers
   205B 79s11              7207 	mov	r1,#(_fill_buffers >> 8)
   205D 7As00              7208 	mov	r2,#(_fill_buffers >> 16)
   205F 12s00r00           7209 	lcall	__sdcc_banked_call
   2062 AF 82              7210 	mov	r7,dpl
   2064 E5 81              7211 	mov	a,sp
   2066 24 FC              7212 	add	a,#0xfc
   2068 F5 81              7213 	mov	sp,a
                           7214 ;	../../../contiki-sensinode//cpu/cc253x/usb/usb-arch.c:1201: USBCSOL &= ~USBCSOL_OUTPKT_RDY;
   206A 90 62 14           7215 	mov	dptr,#_USBCSOL
   206D E0                 7216 	movx	a,@dptr
   206E 54 FE              7217 	anl	a,#0xFE
   2070 FE                 7218 	mov	r6,a
   2071 F0                 7219 	movx	@dptr,a
                           7220 ;	../../../contiki-sensinode//cpu/cc253x/usb/usb-arch.c:1203: return res;
   2072 8F 82              7221 	mov	dpl,r7
   2074                    7222 00111$:
   2074 E5 81              7223 	mov	a,sp
   2076 24 F9              7224 	add	a,#0xF9
   2078 F5 81              7225 	mov	sp,a
   207A 02s00r00           7226 	ljmp	__sdcc_banked_ret
                           7227 ;------------------------------------------------------------
                           7228 ;Allocation info for local variables in function 'usb_arch_epout_irq'
                           7229 ;------------------------------------------------------------
                           7230 ;ep_hw                     Allocated to registers r7 
                           7231 ;csl                       Allocated to registers r3 
                           7232 ;res                       Allocated to registers r7 
                           7233 ;ep                        Allocated to registers r5 r4 r6 
                           7234 ;------------------------------------------------------------
                           7235 ;	../../../contiki-sensinode//cpu/cc253x/usb/usb-arch.c:1207: usb_arch_epout_irq(uint8_t ep_hw)
                           7236 ;	-----------------------------------------
                           7237 ;	 function usb_arch_epout_irq
                           7238 ;	-----------------------------------------
   207D                    7239 _usb_arch_epout_irq:
   207D AF 82              7240 	mov	r7,dpl
                           7241 ;	../../../contiki-sensinode//cpu/cc253x/usb/usb-arch.c:1212: USBEndpoint *ep = EP_STRUCT(ep_hw);
   207F 74 7F              7242 	mov	a,#0x7F
   2081 5F                 7243 	anl	a,r7
   2082 75 F0 0D           7244 	mov	b,#0x0D
   2085 A4                 7245 	mul	ab
   2086 24r01              7246 	add	a,#_usb_endpoints
   2088 FD                 7247 	mov	r5,a
   2089 E4                 7248 	clr	a
   208A 34s00              7249 	addc	a,#(_usb_endpoints >> 8)
   208C FC                 7250 	mov	r4,a
   208D 7E 00              7251 	mov	r6,#0x00
                           7252 ;	../../../contiki-sensinode//cpu/cc253x/usb/usb-arch.c:1215: USBINDEX = ep_hw;
   208F 90 62 0E           7253 	mov	dptr,#_USBINDEX
   2092 EF                 7254 	mov	a,r7
   2093 F0                 7255 	movx	@dptr,a
                           7256 ;	../../../contiki-sensinode//cpu/cc253x/usb/usb-arch.c:1216: csl = USBCSOL;
   2094 90 62 14           7257 	mov	dptr,#_USBCSOL
   2097 E0                 7258 	movx	a,@dptr
                           7259 ;	../../../contiki-sensinode//cpu/cc253x/usb/usb-arch.c:1218: if(csl & USBCSOL_SENT_STALL) {
   2098 FB                 7260 	mov	r3,a
   2099 30 E6 08           7261 	jnb	acc.6,00102$
                           7262 ;	../../../contiki-sensinode//cpu/cc253x/usb/usb-arch.c:1219: USBCSOL &= ~USBCSOL_SENT_STALL;
   209C 90 62 14           7263 	mov	dptr,#_USBCSOL
   209F E0                 7264 	movx	a,@dptr
   20A0 54 BF              7265 	anl	a,#0xBF
   20A2 FA                 7266 	mov	r2,a
   20A3 F0                 7267 	movx	@dptr,a
   20A4                    7268 00102$:
                           7269 ;	../../../contiki-sensinode//cpu/cc253x/usb/usb-arch.c:1222: if(csl & USBCSOL_OVERRUN) {
   20A4 EB                 7270 	mov	a,r3
   20A5 30 E2 08           7271 	jnb	acc.2,00104$
                           7272 ;	../../../contiki-sensinode//cpu/cc253x/usb/usb-arch.c:1224: USBCSOL &= ~USBCSOL_OVERRUN;
   20A8 90 62 14           7273 	mov	dptr,#_USBCSOL
   20AB E0                 7274 	movx	a,@dptr
   20AC 54 FB              7275 	anl	a,#0xFB
   20AE FA                 7276 	mov	r2,a
   20AF F0                 7277 	movx	@dptr,a
   20B0                    7278 00104$:
                           7279 ;	../../../contiki-sensinode//cpu/cc253x/usb/usb-arch.c:1227: if(csl & USBCSOL_OUTPKT_RDY) {
   20B0 EB                 7280 	mov	a,r3
   20B1 30 E0 37           7281 	jnb	acc.0,00109$
                           7282 ;	../../../contiki-sensinode//cpu/cc253x/usb/usb-arch.c:1228: res = ep_get_data_pkt(ep_hw);
   20B4 8F 82              7283 	mov	dpl,r7
   20B6 C0 06              7284 	push	ar6
   20B8 C0 05              7285 	push	ar5
   20BA C0 04              7286 	push	ar4
   20BC 78rDF              7287 	mov	r0,#_ep_get_data_pkt
   20BE 79s1E              7288 	mov	r1,#(_ep_get_data_pkt >> 8)
   20C0 7As00              7289 	mov	r2,#(_ep_get_data_pkt >> 16)
   20C2 12s00r00           7290 	lcall	__sdcc_banked_call
   20C5 AF 82              7291 	mov	r7,dpl
   20C7 D0 04              7292 	pop	ar4
   20C9 D0 05              7293 	pop	ar5
   20CB D0 06              7294 	pop	ar6
                           7295 ;	../../../contiki-sensinode//cpu/cc253x/usb/usb-arch.c:1230: if(res & USB_READ_NOTIFY) {
   20CD EF                 7296 	mov	a,r7
   20CE 30 E1 1A           7297 	jnb	acc.1,00109$
                           7298 ;	../../../contiki-sensinode//cpu/cc253x/usb/usb-arch.c:1231: notify_ep_process(ep, USB_EP_EVENT_NOTIFICATION);
   20D1 74 01              7299 	mov	a,#0x01
   20D3 C0 E0              7300 	push	acc
   20D5 E4                 7301 	clr	a
   20D6 C0 E0              7302 	push	acc
   20D8 8D 82              7303 	mov	dpl,r5
   20DA 8C 83              7304 	mov	dph,r4
   20DC 8E F0              7305 	mov	b,r6
   20DE 78r37              7306 	mov	r0,#_notify_ep_process
   20E0 79s00              7307 	mov	r1,#(_notify_ep_process >> 8)
   20E2 7As00              7308 	mov	r2,#(_notify_ep_process >> 16)
   20E4 12s00r00           7309 	lcall	__sdcc_banked_call
   20E7 15 81              7310 	dec	sp
   20E9 15 81              7311 	dec	sp
   20EB                    7312 00109$:
   20EB 02s00r00           7313 	ljmp	__sdcc_banked_ret
                           7314 ;------------------------------------------------------------
                           7315 ;Allocation info for local variables in function 'usb_arch_epin_irq'
                           7316 ;------------------------------------------------------------
                           7317 ;ep_hw                     Allocated to registers r7 
                           7318 ;csl                       Allocated to registers r3 
                           7319 ;res                       Allocated to registers r7 
                           7320 ;ep                        Allocated to registers r5 r4 r6 
                           7321 ;------------------------------------------------------------
                           7322 ;	../../../contiki-sensinode//cpu/cc253x/usb/usb-arch.c:1237: usb_arch_epin_irq(uint8_t ep_hw)
                           7323 ;	-----------------------------------------
                           7324 ;	 function usb_arch_epin_irq
                           7325 ;	-----------------------------------------
   20EE                    7326 _usb_arch_epin_irq:
   20EE AF 82              7327 	mov	r7,dpl
                           7328 ;	../../../contiki-sensinode//cpu/cc253x/usb/usb-arch.c:1241: USBEndpoint *ep = EP_STRUCT(ep_hw);
   20F0 74 7F              7329 	mov	a,#0x7F
   20F2 5F                 7330 	anl	a,r7
   20F3 75 F0 0D           7331 	mov	b,#0x0D
   20F6 A4                 7332 	mul	ab
   20F7 24r01              7333 	add	a,#_usb_endpoints
   20F9 FD                 7334 	mov	r5,a
   20FA E4                 7335 	clr	a
   20FB 34s00              7336 	addc	a,#(_usb_endpoints >> 8)
   20FD FC                 7337 	mov	r4,a
   20FE 7E 00              7338 	mov	r6,#0x00
                           7339 ;	../../../contiki-sensinode//cpu/cc253x/usb/usb-arch.c:1245: USBINDEX = ep_hw;
   2100 90 62 0E           7340 	mov	dptr,#_USBINDEX
   2103 EF                 7341 	mov	a,r7
   2104 F0                 7342 	movx	@dptr,a
                           7343 ;	../../../contiki-sensinode//cpu/cc253x/usb/usb-arch.c:1246: csl = USBCSIL;
   2105 90 62 11           7344 	mov	dptr,#_USBCSIL
   2108 E0                 7345 	movx	a,@dptr
                           7346 ;	../../../contiki-sensinode//cpu/cc253x/usb/usb-arch.c:1248: if(csl & USBCSIL_SENT_STALL) {
   2109 FB                 7347 	mov	r3,a
   210A 30 E5 08           7348 	jnb	acc.5,00102$
                           7349 ;	../../../contiki-sensinode//cpu/cc253x/usb/usb-arch.c:1249: USBCSIL &= ~USBCSIL_SENT_STALL;
   210D 90 62 11           7350 	mov	dptr,#_USBCSIL
   2110 E0                 7351 	movx	a,@dptr
   2111 54 DF              7352 	anl	a,#0xDF
   2113 FA                 7353 	mov	r2,a
   2114 F0                 7354 	movx	@dptr,a
   2115                    7355 00102$:
                           7356 ;	../../../contiki-sensinode//cpu/cc253x/usb/usb-arch.c:1252: if(csl & USBCSIL_UNDERRUN) {
   2115 EB                 7357 	mov	a,r3
   2116 30 E2 08           7358 	jnb	acc.2,00104$
                           7359 ;	../../../contiki-sensinode//cpu/cc253x/usb/usb-arch.c:1253: USBCSIL &= ~USBCSIL_UNDERRUN;
   2119 90 62 11           7360 	mov	dptr,#_USBCSIL
   211C E0                 7361 	movx	a,@dptr
   211D 54 FB              7362 	anl	a,#0xFB
   211F FA                 7363 	mov	r2,a
   2120 F0                 7364 	movx	@dptr,a
   2121                    7365 00104$:
                           7366 ;	../../../contiki-sensinode//cpu/cc253x/usb/usb-arch.c:1256: if(!(csl & USBCSIL_INPKT_RDY)) {
   2121 EB                 7367 	mov	a,r3
   2122 20 E0 37           7368 	jb	acc.0,00109$
                           7369 ;	../../../contiki-sensinode//cpu/cc253x/usb/usb-arch.c:1257: res = ep_tx(ep_hw);
   2125 8F 82              7370 	mov	dpl,r7
   2127 C0 06              7371 	push	ar6
   2129 C0 05              7372 	push	ar5
   212B C0 04              7373 	push	ar4
   212D 78r7C              7374 	mov	r0,#_ep_tx
   212F 79s1B              7375 	mov	r1,#(_ep_tx >> 8)
   2131 7As00              7376 	mov	r2,#(_ep_tx >> 16)
   2133 12s00r00           7377 	lcall	__sdcc_banked_call
   2136 AF 82              7378 	mov	r7,dpl
   2138 D0 04              7379 	pop	ar4
   213A D0 05              7380 	pop	ar5
   213C D0 06              7381 	pop	ar6
                           7382 ;	../../../contiki-sensinode//cpu/cc253x/usb/usb-arch.c:1258: if(res & USB_WRITE_NOTIFY) {
   213E EF                 7383 	mov	a,r7
   213F 30 E1 1A           7384 	jnb	acc.1,00109$
                           7385 ;	../../../contiki-sensinode//cpu/cc253x/usb/usb-arch.c:1259: notify_ep_process(ep, USB_EP_EVENT_NOTIFICATION);
   2142 74 01              7386 	mov	a,#0x01
   2144 C0 E0              7387 	push	acc
   2146 E4                 7388 	clr	a
   2147 C0 E0              7389 	push	acc
   2149 8D 82              7390 	mov	dpl,r5
   214B 8C 83              7391 	mov	dph,r4
   214D 8E F0              7392 	mov	b,r6
   214F 78r37              7393 	mov	r0,#_notify_ep_process
   2151 79s00              7394 	mov	r1,#(_notify_ep_process >> 8)
   2153 7As00              7395 	mov	r2,#(_notify_ep_process >> 16)
   2155 12s00r00           7396 	lcall	__sdcc_banked_call
   2158 15 81              7397 	dec	sp
   215A 15 81              7398 	dec	sp
   215C                    7399 00109$:
   215C 02s00r00           7400 	ljmp	__sdcc_banked_ret
                           7401 ;------------------------------------------------------------
                           7402 ;Allocation info for local variables in function 'usb_irq'
                           7403 ;------------------------------------------------------------
                           7404 ;ep_in_if                  Allocated to registers r7 
                           7405 ;ep_out_if                 Allocated to stack - sp +0
                           7406 ;common_if                 Allocated to registers r5 
                           7407 ;i                         Allocated to registers r4 
                           7408 ;------------------------------------------------------------
                           7409 ;	../../../contiki-sensinode//cpu/cc253x/usb/usb-arch.c:1270: usb_irq(void)
                           7410 ;	-----------------------------------------
                           7411 ;	 function usb_irq
                           7412 ;	-----------------------------------------
   215F                    7413 _usb_irq:
   215F 05 81              7414 	inc	sp
                           7415 ;	../../../contiki-sensinode//cpu/cc253x/usb/usb-arch.c:1272: uint8_t ep_in_if = USBIIF & USBIIE;
   2161 90 62 02           7416 	mov	dptr,#_USBIIF
   2164 E0                 7417 	movx	a,@dptr
   2165 FF                 7418 	mov	r7,a
   2166 90 62 07           7419 	mov	dptr,#_USBIIE
   2169 E0                 7420 	movx	a,@dptr
   216A 52 07              7421 	anl	ar7,a
                           7422 ;	../../../contiki-sensinode//cpu/cc253x/usb/usb-arch.c:1273: uint8_t ep_out_if = USBOIF & USBOIE;
   216C 90 62 04           7423 	mov	dptr,#_USBOIF
   216F E0                 7424 	movx	a,@dptr
   2170 FE                 7425 	mov	r6,a
   2171 90 62 09           7426 	mov	dptr,#_USBOIE
   2174 E0                 7427 	movx	a,@dptr
   2175 52 06              7428 	anl	ar6,a
   2177 A8 81              7429 	mov	r0,sp
   2179 A6 06              7430 	mov	@r0,ar6
                           7431 ;	../../../contiki-sensinode//cpu/cc253x/usb/usb-arch.c:1274: uint8_t common_if = USBCIF & USBCIE;
   217B 90 62 06           7432 	mov	dptr,#_USBCIF
   217E E0                 7433 	movx	a,@dptr
   217F FD                 7434 	mov	r5,a
   2180 90 62 0B           7435 	mov	dptr,#_USBCIE
   2183 E0                 7436 	movx	a,@dptr
   2184 FC                 7437 	mov	r4,a
   2185 52 05              7438 	anl	ar5,a
                           7439 ;	../../../contiki-sensinode//cpu/cc253x/usb/usb-arch.c:1277: if(ep_in_if) {
   2187 EF                 7440 	mov	a,r7
   2188 60 5B              7441 	jz	00106$
                           7442 ;	../../../contiki-sensinode//cpu/cc253x/usb/usb-arch.c:1279: if(ep_in_if & 0x1) {
   218A EF                 7443 	mov	a,r7
   218B 30 E0 11           7444 	jnb	acc.0,00139$
                           7445 ;	../../../contiki-sensinode//cpu/cc253x/usb/usb-arch.c:1280: usb_arch_ep0_irq();
   218E C0 07              7446 	push	ar7
   2190 C0 05              7447 	push	ar5
   2192 78rDC              7448 	mov	r0,#_usb_arch_ep0_irq
   2194 79s1A              7449 	mov	r1,#(_usb_arch_ep0_irq >> 8)
   2196 7As00              7450 	mov	r2,#(_usb_arch_ep0_irq >> 16)
   2198 12s00r00           7451 	lcall	__sdcc_banked_call
   219B D0 05              7452 	pop	ar5
   219D D0 07              7453 	pop	ar7
                           7454 ;	../../../contiki-sensinode//cpu/cc253x/usb/usb-arch.c:1282: for(i = 1; i < 6; i++) {
   219F                    7455 00139$:
   219F 7C 01              7456 	mov	r4,#0x01
   21A1                    7457 00117$:
   21A1 BC 06 00           7458 	cjne	r4,#0x06,00173$
   21A4                    7459 00173$:
   21A4 50 3F              7460 	jnc	00106$
                           7461 ;	../../../contiki-sensinode//cpu/cc253x/usb/usb-arch.c:1283: if(ep_in_if & EPxIF(i)) {
   21A6 C0 05              7462 	push	ar5
   21A8 8C F0              7463 	mov	b,r4
   21AA 05 F0              7464 	inc	b
   21AC 7A 01              7465 	mov	r2,#0x01
   21AE 7B 00              7466 	mov	r3,#0x00
   21B0 80 06              7467 	sjmp	00176$
   21B2                    7468 00175$:
   21B2 EA                 7469 	mov	a,r2
   21B3 2A                 7470 	add	a,r2
   21B4 FA                 7471 	mov	r2,a
   21B5 EB                 7472 	mov	a,r3
   21B6 33                 7473 	rlc	a
   21B7 FB                 7474 	mov	r3,a
   21B8                    7475 00176$:
   21B8 D5 F0 F7           7476 	djnz	b,00175$
   21BB 8F 05              7477 	mov	ar5,r7
   21BD 7E 00              7478 	mov	r6,#0x00
   21BF ED                 7479 	mov	a,r5
   21C0 52 02              7480 	anl	ar2,a
   21C2 EE                 7481 	mov	a,r6
   21C3 52 03              7482 	anl	ar3,a
   21C5 D0 05              7483 	pop	ar5
   21C7 EA                 7484 	mov	a,r2
   21C8 4B                 7485 	orl	a,r3
   21C9 60 17              7486 	jz	00119$
                           7487 ;	../../../contiki-sensinode//cpu/cc253x/usb/usb-arch.c:1284: usb_arch_epin_irq(i);
   21CB 8C 82              7488 	mov	dpl,r4
   21CD C0 07              7489 	push	ar7
   21CF C0 05              7490 	push	ar5
   21D1 C0 04              7491 	push	ar4
   21D3 78rEE              7492 	mov	r0,#_usb_arch_epin_irq
   21D5 79s20              7493 	mov	r1,#(_usb_arch_epin_irq >> 8)
   21D7 7As00              7494 	mov	r2,#(_usb_arch_epin_irq >> 16)
   21D9 12s00r00           7495 	lcall	__sdcc_banked_call
   21DC D0 04              7496 	pop	ar4
   21DE D0 05              7497 	pop	ar5
   21E0 D0 07              7498 	pop	ar7
   21E2                    7499 00119$:
                           7500 ;	../../../contiki-sensinode//cpu/cc253x/usb/usb-arch.c:1282: for(i = 1; i < 6; i++) {
   21E2 0C                 7501 	inc	r4
   21E3 80 BC              7502 	sjmp	00117$
   21E5                    7503 00106$:
                           7504 ;	../../../contiki-sensinode//cpu/cc253x/usb/usb-arch.c:1288: if(ep_out_if) {
   21E5 A8 81              7505 	mov	r0,sp
   21E7 E6                 7506 	mov	a,@r0
   21E8 60 49              7507 	jz	00110$
                           7508 ;	../../../contiki-sensinode//cpu/cc253x/usb/usb-arch.c:1289: for(i = 1; i < 6; i++) {
   21EA 7E 01              7509 	mov	r6,#0x01
   21EC                    7510 00121$:
   21EC BE 06 00           7511 	cjne	r6,#0x06,00179$
   21EF                    7512 00179$:
   21EF 50 42              7513 	jnc	00110$
                           7514 ;	../../../contiki-sensinode//cpu/cc253x/usb/usb-arch.c:1290: if(ep_out_if & EPxIF(i)) {
   21F1 C0 05              7515 	push	ar5
   21F3 8E F0              7516 	mov	b,r6
   21F5 05 F0              7517 	inc	b
   21F7 7B 01              7518 	mov	r3,#0x01
   21F9 7C 00              7519 	mov	r4,#0x00
   21FB 80 06              7520 	sjmp	00182$
   21FD                    7521 00181$:
   21FD EB                 7522 	mov	a,r3
   21FE 2B                 7523 	add	a,r3
   21FF FB                 7524 	mov	r3,a
   2200 EC                 7525 	mov	a,r4
   2201 33                 7526 	rlc	a
   2202 FC                 7527 	mov	r4,a
   2203                    7528 00182$:
   2203 D5 F0 F7           7529 	djnz	b,00181$
   2206 A8 81              7530 	mov	r0,sp
   2208 18                 7531 	dec	r0
   2209 86 02              7532 	mov	ar2,@r0
   220B 7D 00              7533 	mov	r5,#0x00
   220D EA                 7534 	mov	a,r2
   220E 52 03              7535 	anl	ar3,a
   2210 ED                 7536 	mov	a,r5
   2211 52 04              7537 	anl	ar4,a
   2213 D0 05              7538 	pop	ar5
   2215 EB                 7539 	mov	a,r3
   2216 4C                 7540 	orl	a,r4
   2217 60 17              7541 	jz	00123$
                           7542 ;	../../../contiki-sensinode//cpu/cc253x/usb/usb-arch.c:1291: usb_arch_epout_irq(i);
   2219 8E 82              7543 	mov	dpl,r6
   221B C0 07              7544 	push	ar7
   221D C0 06              7545 	push	ar6
   221F C0 05              7546 	push	ar5
   2221 78r7D              7547 	mov	r0,#_usb_arch_epout_irq
   2223 79s20              7548 	mov	r1,#(_usb_arch_epout_irq >> 8)
   2225 7As00              7549 	mov	r2,#(_usb_arch_epout_irq >> 16)
   2227 12s00r00           7550 	lcall	__sdcc_banked_call
   222A D0 05              7551 	pop	ar5
   222C D0 06              7552 	pop	ar6
   222E D0 07              7553 	pop	ar7
   2230                    7554 00123$:
                           7555 ;	../../../contiki-sensinode//cpu/cc253x/usb/usb-arch.c:1289: for(i = 1; i < 6; i++) {
   2230 0E                 7556 	inc	r6
   2231 80 B9              7557 	sjmp	00121$
   2233                    7558 00110$:
                           7559 ;	../../../contiki-sensinode//cpu/cc253x/usb/usb-arch.c:1295: if(common_if & RSTIF) {
   2233 ED                 7560 	mov	a,r5
   2234 30 E2 1D           7561 	jnb	acc.2,00112$
                           7562 ;	../../../contiki-sensinode//cpu/cc253x/usb/usb-arch.c:1296: usb_arch_reset();
   2237 C0 07              7563 	push	ar7
   2239 C0 05              7564 	push	ar5
   223B 78r84              7565 	mov	r0,#_usb_arch_reset
   223D 79s02              7566 	mov	r1,#(_usb_arch_reset >> 8)
   223F 7As00              7567 	mov	r2,#(_usb_arch_reset >> 16)
   2241 12s00r00           7568 	lcall	__sdcc_banked_call
                           7569 ;	../../../contiki-sensinode//cpu/cc253x/usb/usb-arch.c:1297: notify_process(USB_EVENT_RESET);
   2244 90 00 08           7570 	mov	dptr,#0x0008
   2247 78r00              7571 	mov	r0,#_notify_process
   2249 79s00              7572 	mov	r1,#(_notify_process >> 8)
   224B 7As00              7573 	mov	r2,#(_notify_process >> 16)
   224D 12s00r00           7574 	lcall	__sdcc_banked_call
   2250 D0 05              7575 	pop	ar5
   2252 D0 07              7576 	pop	ar7
   2254                    7577 00112$:
                           7578 ;	../../../contiki-sensinode//cpu/cc253x/usb/usb-arch.c:1299: if(common_if & RESUMEIF) {
   2254 ED                 7579 	mov	a,r5
   2255 30 E1 14           7580 	jnb	acc.1,00114$
                           7581 ;	../../../contiki-sensinode//cpu/cc253x/usb/usb-arch.c:1300: notify_process(USB_EVENT_RESUME);
   2258 90 00 04           7582 	mov	dptr,#0x0004
   225B C0 07              7583 	push	ar7
   225D C0 05              7584 	push	ar5
   225F 78r00              7585 	mov	r0,#_notify_process
   2261 79s00              7586 	mov	r1,#(_notify_process >> 8)
   2263 7As00              7587 	mov	r2,#(_notify_process >> 16)
   2265 12s00r00           7588 	lcall	__sdcc_banked_call
   2268 D0 05              7589 	pop	ar5
   226A D0 07              7590 	pop	ar7
   226C                    7591 00114$:
                           7592 ;	../../../contiki-sensinode//cpu/cc253x/usb/usb-arch.c:1302: if(common_if & SUSPENDIF) {
   226C ED                 7593 	mov	a,r5
   226D 30 E0 14           7594 	jnb	acc.0,00116$
                           7595 ;	../../../contiki-sensinode//cpu/cc253x/usb/usb-arch.c:1303: notify_process(USB_EVENT_SUSPEND);
   2270 90 00 02           7596 	mov	dptr,#0x0002
   2273 C0 07              7597 	push	ar7
   2275 C0 05              7598 	push	ar5
   2277 78r00              7599 	mov	r0,#_notify_process
   2279 79s00              7600 	mov	r1,#(_notify_process >> 8)
   227B 7As00              7601 	mov	r2,#(_notify_process >> 16)
   227D 12s00r00           7602 	lcall	__sdcc_banked_call
   2280 D0 05              7603 	pop	ar5
   2282 D0 07              7604 	pop	ar7
   2284                    7605 00116$:
                           7606 ;	../../../contiki-sensinode//cpu/cc253x/usb/usb-arch.c:1306: return ep_in_if || ep_out_if || common_if ? CC253x_P2_ACK : CC253x_P2_NACK;
   2284 EF                 7607 	mov	a,r7
   2285 70 08              7608 	jnz	00133$
   2287 A8 81              7609 	mov	r0,sp
   2289 E6                 7610 	mov	a,@r0
   228A 70 03              7611 	jnz	00133$
   228C FF                 7612 	mov	r7,a
   228D 80 02              7613 	sjmp	00134$
   228F                    7614 00133$:
   228F 7F 01              7615 	mov	r7,#0x01
   2291                    7616 00134$:
   2291 EF                 7617 	mov	a,r7
   2292 70 06              7618 	jnz	00130$
   2294 ED                 7619 	mov	a,r5
   2295 70 03              7620 	jnz	00130$
   2297 FF                 7621 	mov	r7,a
   2298 80 02              7622 	sjmp	00131$
   229A                    7623 00130$:
   229A 7F 01              7624 	mov	r7,#0x01
   229C                    7625 00131$:
   229C EF                 7626 	mov	a,r7
   229D 60 02              7627 	jz	00127$
   229F 74 01              7628 	mov	a,#0x01
   22A1                    7629 00127$:
   22A1 FF                 7630 	mov	r7,a
   22A2 F5 82              7631 	mov	dpl,a
   22A4 15 81              7632 	dec	sp
   22A6 02s00r00           7633 	ljmp	__sdcc_banked_ret
                           7634 	.area CSEG    (CODE)
                           7635 	.area CONST   (CODE)
   0000                    7636 _ep_xfer_size:
   0000 08 00              7637 	.byte #0x08,#0x00	; 8
   0002 08 00              7638 	.byte #0x08,#0x00	; 8
   0004 08 00              7639 	.byte #0x08,#0x00	; 8
   0006 08 00              7640 	.byte #0x08,#0x00	; 8
   0008 00 00              7641 	.byte #0x00,#0x00	; 0
   000A 00 00              7642 	.byte #0x00,#0x00	; 0
                           7643 	.area XINIT   (CODE)
   0000                    7644 __xinit__usb_irq_handler:
                           7645 ; generic printIvalPtr
   0000 00 00 00           7646 	.byte #0x00,#0x00,#0x00
   0003r5Fs21s00           7647 	.byte _usb_irq,(_usb_irq >> 8),(_usb_irq >> 16)
   0006                    7648 __xinit__event_process:
                           7649 ; generic printIvalPtr
   0006 00 00 00           7650 	.byte #0x00,#0x00,#0x00
   0009                    7651 __xinit__events:
   0009 00 00              7652 	.byte #0x00,#0x00	; 0
                           7653 	.area CABS    (ABS,CODE)
