                              1 ;--------------------------------------------------------
                              2 ; File Created by SDCC : free open source ANSI-C Compiler
                              3 ; Version 3.1.1 #7100 (Oct 29 2014) (Linux)
                              4 ; This file was generated Wed Dec  2 18:11:05 2015
                              5 ;--------------------------------------------------------
                              6 	.module usb_core
                              7 	.optsdcc -mmcs51 --model-huge
                              8 	
                              9 ;--------------------------------------------------------
                             10 ; Public variables in this module
                             11 ;--------------------------------------------------------
                             12 	.globl _usb_class_get_string_descriptor
                             13 	.globl _usb_arch_send_pending
                             14 	.globl _usb_arch_get_global_events
                             15 	.globl _usb_arch_set_global_event_process
                             16 	.globl _usb_arch_set_address
                             17 	.globl _usb_arch_get_ep_status
                             18 	.globl _usb_arch_set_configuration
                             19 	.globl _usb_arch_halt_endpoint
                             20 	.globl _usb_arch_control_stall
                             21 	.globl _usb_arch_discard_all_buffers
                             22 	.globl _usb_arch_disable_endpoint
                             23 	.globl _usb_arch_setup_interrupt_endpoint
                             24 	.globl _usb_arch_setup_bulk_endpoint
                             25 	.globl _usb_arch_setup
                             26 	.globl _usb_get_ep_events
                             27 	.globl _usb_set_ep_event_process
                             28 	.globl _usb_submit_xmit_buffer
                             29 	.globl _usb_submit_recv_buffer
                             30 	.globl _process_poll
                             31 	.globl _process_start
                             32 	.globl _usb_process
                             33 	.globl _usb_setup_buffer
                             34 	.globl _usb_set_global_event_process
                             35 	.globl _usb_get_global_events
                             36 	.globl _usb_send_ctrl_response
                             37 	.globl _usb_error_stall
                             38 	.globl _usb_send_ctrl_status
                             39 	.globl _usb_get_ctrl_data
                             40 	.globl _usb_setup
                             41 	.globl _usb_register_request_handler
                             42 	.globl _usb_prepend_request_handler
                             43 	.globl _usb_get_current_configuration
                             44 	.globl _usb_setup_bulk_endpoint
                             45 	.globl _usb_setup_interrupt_endpoint
                             46 	.globl _usb_disable_endpoint
                             47 	.globl _usb_discard_all_buffers
                             48 	.globl _usb_halt_endpoint
                             49 	.globl _usb_send_pending
                             50 ;--------------------------------------------------------
                             51 ; special function registers
                             52 ;--------------------------------------------------------
                             53 	.area RSEG    (ABS,DATA)
   0000                      54 	.org 0x0000
                             55 ;--------------------------------------------------------
                             56 ; special function bits
                             57 ;--------------------------------------------------------
                             58 	.area RSEG    (ABS,DATA)
   0000                      59 	.org 0x0000
                             60 ;--------------------------------------------------------
                             61 ; overlayable register banks
                             62 ;--------------------------------------------------------
                             63 	.area REG_BANK_0	(REL,OVR,DATA)
   0000                      64 	.ds 8
                             65 ;--------------------------------------------------------
                             66 ; internal ram data
                             67 ;--------------------------------------------------------
                             68 	.area DSEG    (DATA)
                             69 ;--------------------------------------------------------
                             70 ; overlayable items in internal ram 
                             71 ;--------------------------------------------------------
                             72 	.area OSEG    (OVR,DATA)
                             73 ;--------------------------------------------------------
                             74 ; indirectly addressable internal ram data
                             75 ;--------------------------------------------------------
                             76 	.area ISEG    (DATA)
                             77 ;--------------------------------------------------------
                             78 ; absolute internal ram data
                             79 ;--------------------------------------------------------
                             80 	.area IABS    (ABS,DATA)
                             81 	.area IABS    (ABS,DATA)
                             82 ;--------------------------------------------------------
                             83 ; bit data
                             84 ;--------------------------------------------------------
                             85 	.area BSEG    (BIT)
                             86 ;--------------------------------------------------------
                             87 ; paged external ram data
                             88 ;--------------------------------------------------------
                             89 	.area PSEG    (PAG,XDATA)
                             90 ;--------------------------------------------------------
                             91 ; external ram data
                             92 ;--------------------------------------------------------
                             93 	.area XSEG    (XDATA)
   0000                      94 _usb_setup_buffer::
   0000                      95 	.ds 8
   0008                      96 _ctrl_buffer:
   0008                      97 	.ds 14
   0016                      98 _usb_device_status:
   0016                      99 	.ds 2
   0018                     100 _usb_configuration_value:
   0018                     101 	.ds 1
   0019                     102 _get_endpoint_status_status_1_1:
   0019                     103 	.ds 2
                            104 ;--------------------------------------------------------
                            105 ; absolute external ram data
                            106 ;--------------------------------------------------------
                            107 	.area XABS    (ABS,XDATA)
                            108 ;--------------------------------------------------------
                            109 ; external initialized ram data
                            110 ;--------------------------------------------------------
                            111 	.area XISEG   (XDATA)
   0000                     112 _usb_request_handler_hooks:
   0000                     113 	.ds 3
   0003                     114 _usb_flags:
   0003                     115 	.ds 1
   0004                     116 _global_user_event_pocess:
   0004                     117 	.ds 3
   0007                     118 _global_user_events:
   0007                     119 	.ds 2
   0009                     120 _error_stall:
   0009                     121 	.ds 1
   000A                     122 _data_callback:
   000A                     123 	.ds 3
   000D                     124 _ctrl_data:
   000D                     125 	.ds 3
   0010                     126 _ctrl_data_len:
   0010                     127 	.ds 2
   0012                     128 _standard_request_hook:
   0012                     129 	.ds 6
   0018                     130 _usb_process::
   0018                     131 	.ds 10
                            132 	.area HOME    (CODE)
                            133 	.area GSINIT0 (CODE)
                            134 	.area GSINIT1 (CODE)
                            135 	.area GSINIT2 (CODE)
                            136 	.area GSINIT3 (CODE)
                            137 	.area GSINIT4 (CODE)
                            138 	.area GSINIT5 (CODE)
                            139 	.area GSINIT  (CODE)
                            140 	.area GSFINAL (CODE)
                            141 	.area CSEG    (CODE)
                            142 ;--------------------------------------------------------
                            143 ; global & static initialisations
                            144 ;--------------------------------------------------------
                            145 	.area HOME    (CODE)
                            146 	.area GSINIT  (CODE)
                            147 	.area GSFINAL (CODE)
                            148 	.area GSINIT  (CODE)
                            149 ;--------------------------------------------------------
                            150 ; Home
                            151 ;--------------------------------------------------------
                            152 	.area HOME    (CODE)
                            153 	.area HOME    (CODE)
                            154 ;--------------------------------------------------------
                            155 ; code
                            156 ;--------------------------------------------------------
                            157 	.area BANK1   (CODE)
                            158 ;------------------------------------------------------------
                            159 ;Allocation info for local variables in function 'usb_set_global_event_process'
                            160 ;------------------------------------------------------------
                            161 ;p                         Allocated to registers 
                            162 ;------------------------------------------------------------
                            163 ;	../../../contiki-sensinode//cpu/cc253x/usb/common/usb-core.c:42: usb_set_global_event_process(struct process *p)
                            164 ;	-----------------------------------------
                            165 ;	 function usb_set_global_event_process
                            166 ;	-----------------------------------------
   0000                     167 _usb_set_global_event_process:
                    0007    168 	ar7 = 0x07
                    0006    169 	ar6 = 0x06
                    0005    170 	ar5 = 0x05
                    0004    171 	ar4 = 0x04
                    0003    172 	ar3 = 0x03
                    0002    173 	ar2 = 0x02
                    0001    174 	ar1 = 0x01
                    0000    175 	ar0 = 0x00
   0000 AF F0               176 	mov	r7,b
   0002 AE 83               177 	mov	r6,dph
   0004 E5 82               178 	mov	a,dpl
   0006 90s00r04            179 	mov	dptr,#_global_user_event_pocess
   0009 F0                  180 	movx	@dptr,a
   000A A3                  181 	inc	dptr
   000B EE                  182 	mov	a,r6
   000C F0                  183 	movx	@dptr,a
   000D A3                  184 	inc	dptr
   000E EF                  185 	mov	a,r7
   000F F0                  186 	movx	@dptr,a
                            187 ;	../../../contiki-sensinode//cpu/cc253x/usb/common/usb-core.c:44: global_user_event_pocess = p;
   0010 02s00r00            188 	ljmp	__sdcc_banked_ret
                            189 ;------------------------------------------------------------
                            190 ;Allocation info for local variables in function 'usb_get_global_events'
                            191 ;------------------------------------------------------------
                            192 ;e                         Allocated to registers r6 r7 
                            193 ;------------------------------------------------------------
                            194 ;	../../../contiki-sensinode//cpu/cc253x/usb/common/usb-core.c:47: usb_get_global_events(void)
                            195 ;	-----------------------------------------
                            196 ;	 function usb_get_global_events
                            197 ;	-----------------------------------------
   0013                     198 _usb_get_global_events:
                            199 ;	../../../contiki-sensinode//cpu/cc253x/usb/common/usb-core.c:49: unsigned int e = global_user_events;
   0013 90s00r07            200 	mov	dptr,#_global_user_events
   0016 E0                  201 	movx	a,@dptr
   0017 FE                  202 	mov	r6,a
   0018 A3                  203 	inc	dptr
   0019 E0                  204 	movx	a,@dptr
   001A FF                  205 	mov	r7,a
                            206 ;	../../../contiki-sensinode//cpu/cc253x/usb/common/usb-core.c:50: global_user_events = 0;
   001B 90s00r07            207 	mov	dptr,#_global_user_events
   001E E4                  208 	clr	a
   001F F0                  209 	movx	@dptr,a
   0020 A3                  210 	inc	dptr
   0021 F0                  211 	movx	@dptr,a
                            212 ;	../../../contiki-sensinode//cpu/cc253x/usb/common/usb-core.c:51: return e;
   0022 8E 82               213 	mov	dpl,r6
   0024 8F 83               214 	mov	dph,r7
   0026 02s00r00            215 	ljmp	__sdcc_banked_ret
                            216 ;------------------------------------------------------------
                            217 ;Allocation info for local variables in function 'notify_user'
                            218 ;------------------------------------------------------------
                            219 ;e                         Allocated to registers r6 r7 
                            220 ;------------------------------------------------------------
                            221 ;	../../../contiki-sensinode//cpu/cc253x/usb/common/usb-core.c:55: notify_user(unsigned int e)
                            222 ;	-----------------------------------------
                            223 ;	 function notify_user
                            224 ;	-----------------------------------------
   0029                     225 _notify_user:
   0029 AE 82               226 	mov	r6,dpl
   002B AF 83               227 	mov	r7,dph
                            228 ;	../../../contiki-sensinode//cpu/cc253x/usb/common/usb-core.c:57: global_user_events |= e;
   002D 90s00r07            229 	mov	dptr,#_global_user_events
   0030 E0                  230 	movx	a,@dptr
   0031 FC                  231 	mov	r4,a
   0032 A3                  232 	inc	dptr
   0033 E0                  233 	movx	a,@dptr
   0034 FD                  234 	mov	r5,a
   0035 90s00r07            235 	mov	dptr,#_global_user_events
   0038 EE                  236 	mov	a,r6
   0039 4C                  237 	orl	a,r4
   003A F0                  238 	movx	@dptr,a
   003B EF                  239 	mov	a,r7
   003C 4D                  240 	orl	a,r5
   003D A3                  241 	inc	dptr
   003E F0                  242 	movx	@dptr,a
                            243 ;	../../../contiki-sensinode//cpu/cc253x/usb/common/usb-core.c:58: if(global_user_event_pocess) {
   003F 90s00r04            244 	mov	dptr,#_global_user_event_pocess
   0042 E0                  245 	movx	a,@dptr
   0043 FD                  246 	mov	r5,a
   0044 A3                  247 	inc	dptr
   0045 E0                  248 	movx	a,@dptr
   0046 FE                  249 	mov	r6,a
   0047 A3                  250 	inc	dptr
   0048 E0                  251 	movx	a,@dptr
   0049 FF                  252 	mov	r7,a
   004A ED                  253 	mov	a,r5
   004B 4E                  254 	orl	a,r6
   004C 60 0F               255 	jz	00103$
                            256 ;	../../../contiki-sensinode//cpu/cc253x/usb/common/usb-core.c:59: process_poll(global_user_event_pocess);
   004E 8D 82               257 	mov	dpl,r5
   0050 8E 83               258 	mov	dph,r6
   0052 8F F0               259 	mov	b,r7
   0054 78r00               260 	mov	r0,#_process_poll
   0056 79s00               261 	mov	r1,#(_process_poll >> 8)
   0058 7As00               262 	mov	r2,#(_process_poll >> 16)
   005A 12s00r00            263 	lcall	__sdcc_banked_call
   005D                     264 00103$:
   005D 02s00r00            265 	ljmp	__sdcc_banked_ret
                            266 ;------------------------------------------------------------
                            267 ;Allocation info for local variables in function 'usb_send_ctrl_response'
                            268 ;------------------------------------------------------------
                            269 ;len                       Allocated to stack - sp -4
                            270 ;data                      Allocated to registers r5 r6 r7 
                            271 ;------------------------------------------------------------
                            272 ;	../../../contiki-sensinode//cpu/cc253x/usb/common/usb-core.c:64: usb_send_ctrl_response(const uint8_t * data, unsigned int len)
                            273 ;	-----------------------------------------
                            274 ;	 function usb_send_ctrl_response
                            275 ;	-----------------------------------------
   0060                     276 _usb_send_ctrl_response:
   0060 AD 82               277 	mov	r5,dpl
   0062 AE 83               278 	mov	r6,dph
   0064 AF F0               279 	mov	r7,b
                            280 ;	../../../contiki-sensinode//cpu/cc253x/usb/common/usb-core.c:66: if(ctrl_buffer.flags & USB_BUFFER_SUBMITTED)
   0066 90s00r10            281 	mov	dptr,#(_ctrl_buffer + 0x0008)
   0069 E0                  282 	movx	a,@dptr
   006A FB                  283 	mov	r3,a
   006B A3                  284 	inc	dptr
   006C E0                  285 	movx	a,@dptr
   006D FC                  286 	mov	r4,a
   006E EB                  287 	mov	a,r3
   006F 30 E0 03            288 	jnb	acc.0,00102$
                            289 ;	../../../contiki-sensinode//cpu/cc253x/usb/common/usb-core.c:67: return;
   0072 02s01r09            290 	ljmp	00107$
   0075                     291 00102$:
                            292 ;	../../../contiki-sensinode//cpu/cc253x/usb/common/usb-core.c:68: if(len >= usb_setup_buffer.wLength) {
   0075 90s00r06            293 	mov	dptr,#(_usb_setup_buffer + 0x0006)
   0078 E0                  294 	movx	a,@dptr
   0079 FB                  295 	mov	r3,a
   007A A3                  296 	inc	dptr
   007B E0                  297 	movx	a,@dptr
   007C FC                  298 	mov	r4,a
   007D E5 81               299 	mov	a,sp
   007F 24 FC               300 	add	a,#0xfc
   0081 F8                  301 	mov	r0,a
   0082 C3                  302 	clr	c
   0083 E6                  303 	mov	a,@r0
   0084 9B                  304 	subb	a,r3
   0085 08                  305 	inc	r0
   0086 E6                  306 	mov	a,@r0
   0087 9C                  307 	subb	a,r4
   0088 40 0A               308 	jc	00104$
                            309 ;	../../../contiki-sensinode//cpu/cc253x/usb/common/usb-core.c:69: len = usb_setup_buffer.wLength;     /* Truncate if too long */
   008A E5 81               310 	mov	a,sp
   008C 24 FC               311 	add	a,#0xfc
   008E F8                  312 	mov	r0,a
   008F A6 03               313 	mov	@r0,ar3
   0091 08                  314 	inc	r0
   0092 A6 04               315 	mov	@r0,ar4
   0094                     316 00104$:
                            317 ;	../../../contiki-sensinode//cpu/cc253x/usb/common/usb-core.c:71: ctrl_buffer.flags = USB_BUFFER_NOTIFY | USB_BUFFER_IN;
   0094 90s00r10            318 	mov	dptr,#(_ctrl_buffer + 0x0008)
   0097 74 48               319 	mov	a,#0x48
   0099 F0                  320 	movx	@dptr,a
   009A A3                  321 	inc	dptr
   009B E4                  322 	clr	a
   009C F0                  323 	movx	@dptr,a
                            324 ;	../../../contiki-sensinode//cpu/cc253x/usb/common/usb-core.c:72: if(len < usb_setup_buffer.wLength) {
   009D E5 81               325 	mov	a,sp
   009F 24 FC               326 	add	a,#0xfc
   00A1 F8                  327 	mov	r0,a
   00A2 C3                  328 	clr	c
   00A3 E6                  329 	mov	a,@r0
   00A4 9B                  330 	subb	a,r3
   00A5 08                  331 	inc	r0
   00A6 E6                  332 	mov	a,@r0
   00A7 9C                  333 	subb	a,r4
   00A8 50 13               334 	jnc	00106$
                            335 ;	../../../contiki-sensinode//cpu/cc253x/usb/common/usb-core.c:73: ctrl_buffer.flags |= USB_BUFFER_SHORT_END;
   00AA 90s00r10            336 	mov	dptr,#(_ctrl_buffer + 0x0008)
   00AD E0                  337 	movx	a,@dptr
   00AE FB                  338 	mov	r3,a
   00AF A3                  339 	inc	dptr
   00B0 E0                  340 	movx	a,@dptr
   00B1 FC                  341 	mov	r4,a
   00B2 43 03 02            342 	orl	ar3,#0x02
   00B5 90s00r10            343 	mov	dptr,#(_ctrl_buffer + 0x0008)
   00B8 EB                  344 	mov	a,r3
   00B9 F0                  345 	movx	@dptr,a
   00BA A3                  346 	inc	dptr
   00BB EC                  347 	mov	a,r4
   00BC F0                  348 	movx	@dptr,a
   00BD                     349 00106$:
                            350 ;	../../../contiki-sensinode//cpu/cc253x/usb/common/usb-core.c:75: ctrl_buffer.next = NULL;
   00BD 90s00r08            351 	mov	dptr,#_ctrl_buffer
   00C0 E4                  352 	clr	a
   00C1 F0                  353 	movx	@dptr,a
   00C2 A3                  354 	inc	dptr
   00C3 F0                  355 	movx	@dptr,a
   00C4 A3                  356 	inc	dptr
   00C5 F0                  357 	movx	@dptr,a
                            358 ;	../../../contiki-sensinode//cpu/cc253x/usb/common/usb-core.c:76: ctrl_buffer.data = (uint8_t *) data;
   00C6 90s00r0B            359 	mov	dptr,#(_ctrl_buffer + 0x0003)
   00C9 ED                  360 	mov	a,r5
   00CA F0                  361 	movx	@dptr,a
   00CB A3                  362 	inc	dptr
   00CC EE                  363 	mov	a,r6
   00CD F0                  364 	movx	@dptr,a
   00CE A3                  365 	inc	dptr
   00CF EF                  366 	mov	a,r7
   00D0 F0                  367 	movx	@dptr,a
                            368 ;	../../../contiki-sensinode//cpu/cc253x/usb/common/usb-core.c:77: ctrl_buffer.left = len;
   00D1 90s00r0E            369 	mov	dptr,#(_ctrl_buffer + 0x0006)
   00D4 E5 81               370 	mov	a,sp
   00D6 24 FC               371 	add	a,#0xfc
   00D8 F8                  372 	mov	r0,a
   00D9 E6                  373 	mov	a,@r0
   00DA F0                  374 	movx	@dptr,a
   00DB A3                  375 	inc	dptr
   00DC 08                  376 	inc	r0
   00DD E6                  377 	mov	a,@r0
   00DE F0                  378 	movx	@dptr,a
                            379 ;	../../../contiki-sensinode//cpu/cc253x/usb/common/usb-core.c:78: ctrl_buffer.id = IN_ID;
   00DF 90s00r12            380 	mov	dptr,#(_ctrl_buffer + 0x000a)
   00E2 74 03               381 	mov	a,#0x03
   00E4 F0                  382 	movx	@dptr,a
   00E5 A3                  383 	inc	dptr
   00E6 E4                  384 	clr	a
   00E7 F0                  385 	movx	@dptr,a
   00E8 A3                  386 	inc	dptr
   00E9 F0                  387 	movx	@dptr,a
   00EA A3                  388 	inc	dptr
   00EB F0                  389 	movx	@dptr,a
                            390 ;	../../../contiki-sensinode//cpu/cc253x/usb/common/usb-core.c:79: usb_submit_xmit_buffer(0, &ctrl_buffer);
   00EC 74r08               391 	mov	a,#_ctrl_buffer
   00EE C0 E0               392 	push	acc
   00F0 74s00               393 	mov	a,#(_ctrl_buffer >> 8)
   00F2 C0 E0               394 	push	acc
   00F4 E4                  395 	clr	a
   00F5 C0 E0               396 	push	acc
   00F7 75 82 00            397 	mov	dpl,#0x00
   00FA 78r00               398 	mov	r0,#_usb_submit_xmit_buffer
   00FC 79s00               399 	mov	r1,#(_usb_submit_xmit_buffer >> 8)
   00FE 7As00               400 	mov	r2,#(_usb_submit_xmit_buffer >> 16)
   0100 12s00r00            401 	lcall	__sdcc_banked_call
   0103 15 81               402 	dec	sp
   0105 15 81               403 	dec	sp
   0107 15 81               404 	dec	sp
   0109                     405 00107$:
   0109 02s00r00            406 	ljmp	__sdcc_banked_ret
                            407 ;------------------------------------------------------------
                            408 ;Allocation info for local variables in function 'usb_error_stall'
                            409 ;------------------------------------------------------------
                            410 ;	../../../contiki-sensinode//cpu/cc253x/usb/common/usb-core.c:85: usb_error_stall()
                            411 ;	-----------------------------------------
                            412 ;	 function usb_error_stall
                            413 ;	-----------------------------------------
   010C                     414 _usb_error_stall:
                            415 ;	../../../contiki-sensinode//cpu/cc253x/usb/common/usb-core.c:87: error_stall = 1;
   010C 90s00r09            416 	mov	dptr,#_error_stall
   010F 74 01               417 	mov	a,#0x01
   0111 F0                  418 	movx	@dptr,a
                            419 ;	../../../contiki-sensinode//cpu/cc253x/usb/common/usb-core.c:88: usb_arch_control_stall(0);
   0112 75 82 00            420 	mov	dpl,#0x00
   0115 78r00               421 	mov	r0,#_usb_arch_control_stall
   0117 79s00               422 	mov	r1,#(_usb_arch_control_stall >> 8)
   0119 7As00               423 	mov	r2,#(_usb_arch_control_stall >> 16)
   011B 12s00r00            424 	lcall	__sdcc_banked_call
   011E 02s00r00            425 	ljmp	__sdcc_banked_ret
                            426 ;------------------------------------------------------------
                            427 ;Allocation info for local variables in function 'usb_send_ctrl_status'
                            428 ;------------------------------------------------------------
                            429 ;	../../../contiki-sensinode//cpu/cc253x/usb/common/usb-core.c:92: usb_send_ctrl_status()
                            430 ;	-----------------------------------------
                            431 ;	 function usb_send_ctrl_status
                            432 ;	-----------------------------------------
   0121                     433 _usb_send_ctrl_status:
                            434 ;	../../../contiki-sensinode//cpu/cc253x/usb/common/usb-core.c:94: if(ctrl_buffer.flags & USB_BUFFER_SUBMITTED)
   0121 90s00r10            435 	mov	dptr,#(_ctrl_buffer + 0x0008)
   0124 E0                  436 	movx	a,@dptr
   0125 FE                  437 	mov	r6,a
   0126 A3                  438 	inc	dptr
   0127 E0                  439 	movx	a,@dptr
   0128 FF                  440 	mov	r7,a
   0129 EE                  441 	mov	a,r6
   012A 30 E0 02            442 	jnb	acc.0,00102$
                            443 ;	../../../contiki-sensinode//cpu/cc253x/usb/common/usb-core.c:95: return;
   012D 80 4C               444 	sjmp	00103$
   012F                     445 00102$:
                            446 ;	../../../contiki-sensinode//cpu/cc253x/usb/common/usb-core.c:96: ctrl_buffer.flags = USB_BUFFER_NOTIFY | USB_BUFFER_IN;
   012F 90s00r10            447 	mov	dptr,#(_ctrl_buffer + 0x0008)
   0132 74 48               448 	mov	a,#0x48
   0134 F0                  449 	movx	@dptr,a
   0135 A3                  450 	inc	dptr
                            451 ;	../../../contiki-sensinode//cpu/cc253x/usb/common/usb-core.c:97: ctrl_buffer.next = NULL;
   0136 E4                  452 	clr	a
   0137 F0                  453 	movx	@dptr,a
   0138 90s00r08            454 	mov	dptr,#_ctrl_buffer
   013B F0                  455 	movx	@dptr,a
   013C A3                  456 	inc	dptr
                            457 ;	../../../contiki-sensinode//cpu/cc253x/usb/common/usb-core.c:98: ctrl_buffer.data = NULL;
   013D E4                  458 	clr	a
   013E F0                  459 	movx	@dptr,a
   013F A3                  460 	inc	dptr
   0140 F0                  461 	movx	@dptr,a
   0141 90s00r0B            462 	mov	dptr,#(_ctrl_buffer + 0x0003)
   0144 F0                  463 	movx	@dptr,a
   0145 A3                  464 	inc	dptr
                            465 ;	../../../contiki-sensinode//cpu/cc253x/usb/common/usb-core.c:99: ctrl_buffer.left = 0;
   0146 E4                  466 	clr	a
   0147 F0                  467 	movx	@dptr,a
   0148 A3                  468 	inc	dptr
   0149 F0                  469 	movx	@dptr,a
   014A 90s00r0E            470 	mov	dptr,#(_ctrl_buffer + 0x0006)
   014D F0                  471 	movx	@dptr,a
   014E A3                  472 	inc	dptr
   014F E4                  473 	clr	a
   0150 F0                  474 	movx	@dptr,a
                            475 ;	../../../contiki-sensinode//cpu/cc253x/usb/common/usb-core.c:100: ctrl_buffer.id = STATUS_IN_ID;
   0151 90s00r12            476 	mov	dptr,#(_ctrl_buffer + 0x000a)
   0154 74 05               477 	mov	a,#0x05
   0156 F0                  478 	movx	@dptr,a
   0157 A3                  479 	inc	dptr
   0158 E4                  480 	clr	a
   0159 F0                  481 	movx	@dptr,a
   015A A3                  482 	inc	dptr
   015B F0                  483 	movx	@dptr,a
   015C A3                  484 	inc	dptr
   015D F0                  485 	movx	@dptr,a
                            486 ;	../../../contiki-sensinode//cpu/cc253x/usb/common/usb-core.c:101: usb_submit_xmit_buffer(0, &ctrl_buffer);
   015E 74r08               487 	mov	a,#_ctrl_buffer
   0160 C0 E0               488 	push	acc
   0162 74s00               489 	mov	a,#(_ctrl_buffer >> 8)
   0164 C0 E0               490 	push	acc
   0166 E4                  491 	clr	a
   0167 C0 E0               492 	push	acc
   0169 75 82 00            493 	mov	dpl,#0x00
   016C 78r00               494 	mov	r0,#_usb_submit_xmit_buffer
   016E 79s00               495 	mov	r1,#(_usb_submit_xmit_buffer >> 8)
   0170 7As00               496 	mov	r2,#(_usb_submit_xmit_buffer >> 16)
   0172 12s00r00            497 	lcall	__sdcc_banked_call
   0175 15 81               498 	dec	sp
   0177 15 81               499 	dec	sp
   0179 15 81               500 	dec	sp
   017B                     501 00103$:
   017B 02s00r00            502 	ljmp	__sdcc_banked_ret
                            503 ;------------------------------------------------------------
                            504 ;Allocation info for local variables in function 'usb_get_ctrl_data'
                            505 ;------------------------------------------------------------
                            506 ;length                    Allocated to stack - sp -4
                            507 ;cb                        Allocated to stack - sp -7
                            508 ;data                      Allocated to registers r5 r6 r7 
                            509 ;------------------------------------------------------------
                            510 ;	../../../contiki-sensinode//cpu/cc253x/usb/common/usb-core.c:111: usb_get_ctrl_data(uint8_t * data, unsigned int length,
                            511 ;	-----------------------------------------
                            512 ;	 function usb_get_ctrl_data
                            513 ;	-----------------------------------------
   017E                     514 _usb_get_ctrl_data:
   017E AD 82               515 	mov	r5,dpl
   0180 AE 83               516 	mov	r6,dph
   0182 AF F0               517 	mov	r7,b
                            518 ;	../../../contiki-sensinode//cpu/cc253x/usb/common/usb-core.c:114: if(ctrl_buffer.flags & USB_BUFFER_SUBMITTED)
   0184 90s00r10            519 	mov	dptr,#(_ctrl_buffer + 0x0008)
   0187 E0                  520 	movx	a,@dptr
   0188 FB                  521 	mov	r3,a
   0189 A3                  522 	inc	dptr
   018A E0                  523 	movx	a,@dptr
   018B FC                  524 	mov	r4,a
   018C EB                  525 	mov	a,r3
   018D 30 E0 03            526 	jnb	acc.0,00102$
                            527 ;	../../../contiki-sensinode//cpu/cc253x/usb/common/usb-core.c:115: return;
   0190 02s02r11            528 	ljmp	00103$
   0193                     529 00102$:
                            530 ;	../../../contiki-sensinode//cpu/cc253x/usb/common/usb-core.c:117: data_callback = cb;
   0193 E5 81               531 	mov	a,sp
   0195 24 F9               532 	add	a,#0xf9
   0197 F8                  533 	mov	r0,a
   0198 90s00r0A            534 	mov	dptr,#_data_callback
   019B E6                  535 	mov	a,@r0
   019C F0                  536 	movx	@dptr,a
   019D 08                  537 	inc	r0
   019E A3                  538 	inc	dptr
   019F E6                  539 	mov	a,@r0
   01A0 F0                  540 	movx	@dptr,a
   01A1 08                  541 	inc	r0
   01A2 A3                  542 	inc	dptr
   01A3 E6                  543 	mov	a,@r0
   01A4 F0                  544 	movx	@dptr,a
                            545 ;	../../../contiki-sensinode//cpu/cc253x/usb/common/usb-core.c:118: ctrl_data = data;
   01A5 90s00r0D            546 	mov	dptr,#_ctrl_data
   01A8 ED                  547 	mov	a,r5
   01A9 F0                  548 	movx	@dptr,a
   01AA A3                  549 	inc	dptr
   01AB EE                  550 	mov	a,r6
   01AC F0                  551 	movx	@dptr,a
   01AD A3                  552 	inc	dptr
   01AE EF                  553 	mov	a,r7
   01AF F0                  554 	movx	@dptr,a
                            555 ;	../../../contiki-sensinode//cpu/cc253x/usb/common/usb-core.c:119: ctrl_data_len = length;
   01B0 E5 81               556 	mov	a,sp
   01B2 24 FC               557 	add	a,#0xfc
   01B4 F8                  558 	mov	r0,a
   01B5 86 03               559 	mov	ar3,@r0
   01B7 08                  560 	inc	r0
   01B8 86 04               561 	mov	ar4,@r0
   01BA 90s00r10            562 	mov	dptr,#_ctrl_data_len
   01BD EB                  563 	mov	a,r3
   01BE F0                  564 	movx	@dptr,a
   01BF A3                  565 	inc	dptr
   01C0 EC                  566 	mov	a,r4
   01C1 F0                  567 	movx	@dptr,a
                            568 ;	../../../contiki-sensinode//cpu/cc253x/usb/common/usb-core.c:120: ctrl_buffer.flags = USB_BUFFER_NOTIFY;
   01C2 90s00r10            569 	mov	dptr,#(_ctrl_buffer + 0x0008)
   01C5 74 08               570 	mov	a,#0x08
   01C7 F0                  571 	movx	@dptr,a
   01C8 A3                  572 	inc	dptr
                            573 ;	../../../contiki-sensinode//cpu/cc253x/usb/common/usb-core.c:121: ctrl_buffer.next = NULL;
   01C9 E4                  574 	clr	a
   01CA F0                  575 	movx	@dptr,a
   01CB 90s00r08            576 	mov	dptr,#_ctrl_buffer
   01CE F0                  577 	movx	@dptr,a
   01CF A3                  578 	inc	dptr
   01D0 E4                  579 	clr	a
   01D1 F0                  580 	movx	@dptr,a
   01D2 A3                  581 	inc	dptr
   01D3 F0                  582 	movx	@dptr,a
                            583 ;	../../../contiki-sensinode//cpu/cc253x/usb/common/usb-core.c:122: ctrl_buffer.data = data;
   01D4 90s00r0B            584 	mov	dptr,#(_ctrl_buffer + 0x0003)
   01D7 ED                  585 	mov	a,r5
   01D8 F0                  586 	movx	@dptr,a
   01D9 A3                  587 	inc	dptr
   01DA EE                  588 	mov	a,r6
   01DB F0                  589 	movx	@dptr,a
   01DC A3                  590 	inc	dptr
   01DD EF                  591 	mov	a,r7
   01DE F0                  592 	movx	@dptr,a
                            593 ;	../../../contiki-sensinode//cpu/cc253x/usb/common/usb-core.c:123: ctrl_buffer.left = length;
   01DF 90s00r0E            594 	mov	dptr,#(_ctrl_buffer + 0x0006)
   01E2 EB                  595 	mov	a,r3
   01E3 F0                  596 	movx	@dptr,a
   01E4 A3                  597 	inc	dptr
   01E5 EC                  598 	mov	a,r4
   01E6 F0                  599 	movx	@dptr,a
                            600 ;	../../../contiki-sensinode//cpu/cc253x/usb/common/usb-core.c:124: ctrl_buffer.id = OUT_ID;
   01E7 90s00r12            601 	mov	dptr,#(_ctrl_buffer + 0x000a)
   01EA 74 02               602 	mov	a,#0x02
   01EC F0                  603 	movx	@dptr,a
   01ED A3                  604 	inc	dptr
   01EE E4                  605 	clr	a
   01EF F0                  606 	movx	@dptr,a
   01F0 A3                  607 	inc	dptr
   01F1 F0                  608 	movx	@dptr,a
   01F2 A3                  609 	inc	dptr
   01F3 F0                  610 	movx	@dptr,a
                            611 ;	../../../contiki-sensinode//cpu/cc253x/usb/common/usb-core.c:125: usb_submit_recv_buffer(0, &ctrl_buffer);
   01F4 74r08               612 	mov	a,#_ctrl_buffer
   01F6 C0 E0               613 	push	acc
   01F8 74s00               614 	mov	a,#(_ctrl_buffer >> 8)
   01FA C0 E0               615 	push	acc
   01FC E4                  616 	clr	a
   01FD C0 E0               617 	push	acc
   01FF 75 82 00            618 	mov	dpl,#0x00
   0202 78r00               619 	mov	r0,#_usb_submit_recv_buffer
   0204 79s00               620 	mov	r1,#(_usb_submit_recv_buffer >> 8)
   0206 7As00               621 	mov	r2,#(_usb_submit_recv_buffer >> 16)
   0208 12s00r00            622 	lcall	__sdcc_banked_call
   020B 15 81               623 	dec	sp
   020D 15 81               624 	dec	sp
   020F 15 81               625 	dec	sp
   0211                     626 00103$:
   0211 02s00r00            627 	ljmp	__sdcc_banked_ret
                            628 ;------------------------------------------------------------
                            629 ;Allocation info for local variables in function 'get_device_descriptor'
                            630 ;------------------------------------------------------------
                            631 ;	../../../contiki-sensinode//cpu/cc253x/usb/common/usb-core.c:138: get_device_descriptor()
                            632 ;	-----------------------------------------
                            633 ;	 function get_device_descriptor
                            634 ;	-----------------------------------------
   0214                     635 _get_device_descriptor:
                            636 ;	../../../contiki-sensinode//cpu/cc253x/usb/common/usb-core.c:140: usb_send_ctrl_response((unsigned char *)&device_descriptor,
   0214 7Er00               637 	mov	r6,#_device_descriptor
   0216 7Fs00               638 	mov	r7,#(_device_descriptor >> 8)
   0218 7D 80               639 	mov	r5,#0x80
   021A 74 12               640 	mov	a,#0x12
   021C C0 E0               641 	push	acc
   021E E4                  642 	clr	a
   021F C0 E0               643 	push	acc
   0221 8E 82               644 	mov	dpl,r6
   0223 8F 83               645 	mov	dph,r7
   0225 8D F0               646 	mov	b,r5
   0227 78r60               647 	mov	r0,#_usb_send_ctrl_response
   0229 79s00               648 	mov	r1,#(_usb_send_ctrl_response >> 8)
   022B 7As00               649 	mov	r2,#(_usb_send_ctrl_response >> 16)
   022D 12s00r00            650 	lcall	__sdcc_banked_call
   0230 15 81               651 	dec	sp
   0232 15 81               652 	dec	sp
   0234 02s00r00            653 	ljmp	__sdcc_banked_ret
                            654 ;------------------------------------------------------------
                            655 ;Allocation info for local variables in function 'get_string_descriptor'
                            656 ;------------------------------------------------------------
                            657 ;descriptor                Allocated to registers r5 r6 r7 
                            658 ;------------------------------------------------------------
                            659 ;	../../../contiki-sensinode//cpu/cc253x/usb/common/usb-core.c:145: get_string_descriptor()
                            660 ;	-----------------------------------------
                            661 ;	 function get_string_descriptor
                            662 ;	-----------------------------------------
   0237                     663 _get_string_descriptor:
                            664 ;	../../../contiki-sensinode//cpu/cc253x/usb/common/usb-core.c:186: LOW_BYTE(usb_setup_buffer.wValue));
   0237 90s00r02            665 	mov	dptr,#(_usb_setup_buffer + 0x0002)
   023A E0                  666 	movx	a,@dptr
   023B FE                  667 	mov	r6,a
   023C A3                  668 	inc	dptr
   023D E0                  669 	movx	a,@dptr
                            670 ;	../../../contiki-sensinode//cpu/cc253x/usb/common/usb-core.c:185: usb_class_get_string_descriptor(usb_setup_buffer.wIndex,
   023E 90s00r04            671 	mov	dptr,#(_usb_setup_buffer + 0x0004)
   0241 E0                  672 	movx	a,@dptr
   0242 FD                  673 	mov	r5,a
   0243 A3                  674 	inc	dptr
   0244 E0                  675 	movx	a,@dptr
   0245 FF                  676 	mov	r7,a
   0246 C0 06               677 	push	ar6
   0248 8D 82               678 	mov	dpl,r5
   024A 8F 83               679 	mov	dph,r7
   024C 78r00               680 	mov	r0,#_usb_class_get_string_descriptor
   024E 79s00               681 	mov	r1,#(_usb_class_get_string_descriptor >> 8)
   0250 7As00               682 	mov	r2,#(_usb_class_get_string_descriptor >> 16)
   0252 12s00r00            683 	lcall	__sdcc_banked_call
   0255 AD 82               684 	mov	r5,dpl
   0257 AE 83               685 	mov	r6,dph
   0259 AF F0               686 	mov	r7,b
   025B 15 81               687 	dec	sp
                            688 ;	../../../contiki-sensinode//cpu/cc253x/usb/common/usb-core.c:187: if(!descriptor) {
   025D ED                  689 	mov	a,r5
   025E 4E                  690 	orl	a,r6
   025F 70 0B               691 	jnz	00102$
                            692 ;	../../../contiki-sensinode//cpu/cc253x/usb/common/usb-core.c:188: usb_error_stall();
   0261 78r0C               693 	mov	r0,#_usb_error_stall
   0263 79s01               694 	mov	r1,#(_usb_error_stall >> 8)
   0265 7As00               695 	mov	r2,#(_usb_error_stall >> 16)
   0267 12s00r00            696 	lcall	__sdcc_banked_call
                            697 ;	../../../contiki-sensinode//cpu/cc253x/usb/common/usb-core.c:189: return;
   026A 80 23               698 	sjmp	00103$
   026C                     699 00102$:
                            700 ;	../../../contiki-sensinode//cpu/cc253x/usb/common/usb-core.c:192: descriptor->bLength);
   026C 8D 82               701 	mov	dpl,r5
   026E 8E 83               702 	mov	dph,r6
   0270 8F F0               703 	mov	b,r7
   0272 12s00r00            704 	lcall	__gptrget
   0275 FC                  705 	mov	r4,a
   0276 7B 00               706 	mov	r3,#0x00
                            707 ;	../../../contiki-sensinode//cpu/cc253x/usb/common/usb-core.c:191: usb_send_ctrl_response((const unsigned char *)descriptor,
   0278 C0 04               708 	push	ar4
   027A C0 03               709 	push	ar3
   027C 8D 82               710 	mov	dpl,r5
   027E 8E 83               711 	mov	dph,r6
   0280 8F F0               712 	mov	b,r7
   0282 78r60               713 	mov	r0,#_usb_send_ctrl_response
   0284 79s00               714 	mov	r1,#(_usb_send_ctrl_response >> 8)
   0286 7As00               715 	mov	r2,#(_usb_send_ctrl_response >> 16)
   0288 12s00r00            716 	lcall	__sdcc_banked_call
   028B 15 81               717 	dec	sp
   028D 15 81               718 	dec	sp
   028F                     719 00103$:
   028F 02s00r00            720 	ljmp	__sdcc_banked_ret
                            721 ;------------------------------------------------------------
                            722 ;Allocation info for local variables in function 'get_configuration_descriptor'
                            723 ;------------------------------------------------------------
                            724 ;	../../../contiki-sensinode//cpu/cc253x/usb/common/usb-core.c:197: get_configuration_descriptor()
                            725 ;	-----------------------------------------
                            726 ;	 function get_configuration_descriptor
                            727 ;	-----------------------------------------
   0292                     728 _get_configuration_descriptor:
                            729 ;	../../../contiki-sensinode//cpu/cc253x/usb/common/usb-core.c:200: configuration_head->wTotalLength);
   0292 90s00r00            730 	mov	dptr,#_configuration_head
   0295 E0                  731 	movx	a,@dptr
   0296 FD                  732 	mov	r5,a
   0297 A3                  733 	inc	dptr
   0298 E0                  734 	movx	a,@dptr
   0299 FE                  735 	mov	r6,a
   029A A3                  736 	inc	dptr
   029B E0                  737 	movx	a,@dptr
   029C FF                  738 	mov	r7,a
   029D 74 02               739 	mov	a,#0x02
   029F 2D                  740 	add	a,r5
   02A0 FA                  741 	mov	r2,a
   02A1 E4                  742 	clr	a
   02A2 3E                  743 	addc	a,r6
   02A3 FB                  744 	mov	r3,a
   02A4 8F 04               745 	mov	ar4,r7
   02A6 8A 82               746 	mov	dpl,r2
   02A8 8B 83               747 	mov	dph,r3
   02AA 8C F0               748 	mov	b,r4
   02AC 12s00r00            749 	lcall	__gptrget
   02AF FA                  750 	mov	r2,a
   02B0 A3                  751 	inc	dptr
   02B1 12s00r00            752 	lcall	__gptrget
   02B4 FB                  753 	mov	r3,a
                            754 ;	../../../contiki-sensinode//cpu/cc253x/usb/common/usb-core.c:199: usb_send_ctrl_response((unsigned char *)configuration_head,
   02B5 C0 02               755 	push	ar2
   02B7 C0 03               756 	push	ar3
   02B9 8D 82               757 	mov	dpl,r5
   02BB 8E 83               758 	mov	dph,r6
   02BD 8F F0               759 	mov	b,r7
   02BF 78r60               760 	mov	r0,#_usb_send_ctrl_response
   02C1 79s00               761 	mov	r1,#(_usb_send_ctrl_response >> 8)
   02C3 7As00               762 	mov	r2,#(_usb_send_ctrl_response >> 16)
   02C5 12s00r00            763 	lcall	__sdcc_banked_call
   02C8 15 81               764 	dec	sp
   02CA 15 81               765 	dec	sp
   02CC 02s00r00            766 	ljmp	__sdcc_banked_ret
                            767 ;------------------------------------------------------------
                            768 ;Allocation info for local variables in function 'get_configuration'
                            769 ;------------------------------------------------------------
                            770 ;	../../../contiki-sensinode//cpu/cc253x/usb/common/usb-core.c:204: get_configuration()
                            771 ;	-----------------------------------------
                            772 ;	 function get_configuration
                            773 ;	-----------------------------------------
   02CF                     774 _get_configuration:
                            775 ;	../../../contiki-sensinode//cpu/cc253x/usb/common/usb-core.c:206: usb_send_ctrl_response((unsigned char *)&usb_configuration_value,
   02CF 74 01               776 	mov	a,#0x01
   02D1 C0 E0               777 	push	acc
   02D3 E4                  778 	clr	a
   02D4 C0 E0               779 	push	acc
   02D6 90s00r18            780 	mov	dptr,#_usb_configuration_value
   02D9 75 F0 00            781 	mov	b,#0x00
   02DC 78r60               782 	mov	r0,#_usb_send_ctrl_response
   02DE 79s00               783 	mov	r1,#(_usb_send_ctrl_response >> 8)
   02E0 7As00               784 	mov	r2,#(_usb_send_ctrl_response >> 16)
   02E2 12s00r00            785 	lcall	__sdcc_banked_call
   02E5 15 81               786 	dec	sp
   02E7 15 81               787 	dec	sp
   02E9 02s00r00            788 	ljmp	__sdcc_banked_ret
                            789 ;------------------------------------------------------------
                            790 ;Allocation info for local variables in function 'set_configuration'
                            791 ;------------------------------------------------------------
                            792 ;	../../../contiki-sensinode//cpu/cc253x/usb/common/usb-core.c:212: set_configuration()
                            793 ;	-----------------------------------------
                            794 ;	 function set_configuration
                            795 ;	-----------------------------------------
   02EC                     796 _set_configuration:
                            797 ;	../../../contiki-sensinode//cpu/cc253x/usb/common/usb-core.c:214: notify_user(USB_EVENT_CONFIG);
   02EC 90 00 01            798 	mov	dptr,#0x0001
   02EF 78r29               799 	mov	r0,#_notify_user
   02F1 79s00               800 	mov	r1,#(_notify_user >> 8)
   02F3 7As00               801 	mov	r2,#(_notify_user >> 16)
   02F5 12s00r00            802 	lcall	__sdcc_banked_call
                            803 ;	../../../contiki-sensinode//cpu/cc253x/usb/common/usb-core.c:215: if(usb_configuration_value != LOW_BYTE(usb_setup_buffer.wValue)) {
   02F8 90s00r02            804 	mov	dptr,#(_usb_setup_buffer + 0x0002)
   02FB E0                  805 	movx	a,@dptr
   02FC FE                  806 	mov	r6,a
   02FD A3                  807 	inc	dptr
   02FE E0                  808 	movx	a,@dptr
   02FF 90s00r18            809 	mov	dptr,#_usb_configuration_value
   0302 E0                  810 	movx	a,@dptr
   0303 FF                  811 	mov	r7,a
   0304 B5 06 02            812 	cjne	a,ar6,00108$
   0307 80 1E               813 	sjmp	00102$
   0309                     814 00108$:
                            815 ;	../../../contiki-sensinode//cpu/cc253x/usb/common/usb-core.c:216: usb_configuration_value = LOW_BYTE(usb_setup_buffer.wValue);
   0309 90s00r18            816 	mov	dptr,#_usb_configuration_value
   030C EE                  817 	mov	a,r6
   030D F0                  818 	movx	@dptr,a
                            819 ;	../../../contiki-sensinode//cpu/cc253x/usb/common/usb-core.c:217: usb_arch_set_configuration(usb_configuration_value);
   030E 8E 82               820 	mov	dpl,r6
   0310 78r00               821 	mov	r0,#_usb_arch_set_configuration
   0312 79s00               822 	mov	r1,#(_usb_arch_set_configuration >> 8)
   0314 7As00               823 	mov	r2,#(_usb_arch_set_configuration >> 16)
   0316 12s00r00            824 	lcall	__sdcc_banked_call
                            825 ;	../../../contiki-sensinode//cpu/cc253x/usb/common/usb-core.c:218: usb_send_ctrl_status();
   0319 78r21               826 	mov	r0,#_usb_send_ctrl_status
   031B 79s01               827 	mov	r1,#(_usb_send_ctrl_status >> 8)
   031D 7As00               828 	mov	r2,#(_usb_send_ctrl_status >> 16)
   031F 12s00r00            829 	lcall	__sdcc_banked_call
                            830 ;	../../../contiki-sensinode//cpu/cc253x/usb/common/usb-core.c:219: return 1;
   0322 90 00 01            831 	mov	dptr,#0x0001
   0325 80 0C               832 	sjmp	00104$
   0327                     833 00102$:
                            834 ;	../../../contiki-sensinode//cpu/cc253x/usb/common/usb-core.c:221: usb_send_ctrl_status();
   0327 78r21               835 	mov	r0,#_usb_send_ctrl_status
   0329 79s01               836 	mov	r1,#(_usb_send_ctrl_status >> 8)
   032B 7As00               837 	mov	r2,#(_usb_send_ctrl_status >> 16)
   032D 12s00r00            838 	lcall	__sdcc_banked_call
                            839 ;	../../../contiki-sensinode//cpu/cc253x/usb/common/usb-core.c:222: return 0;
   0330 90 00 00            840 	mov	dptr,#0x0000
   0333                     841 00104$:
   0333 02s00r00            842 	ljmp	__sdcc_banked_ret
                            843 ;------------------------------------------------------------
                            844 ;Allocation info for local variables in function 'get_device_status'
                            845 ;------------------------------------------------------------
                            846 ;	../../../contiki-sensinode//cpu/cc253x/usb/common/usb-core.c:227: get_device_status()
                            847 ;	-----------------------------------------
                            848 ;	 function get_device_status
                            849 ;	-----------------------------------------
   0336                     850 _get_device_status:
                            851 ;	../../../contiki-sensinode//cpu/cc253x/usb/common/usb-core.c:230: usb_send_ctrl_response((const unsigned char *)&usb_device_status,
   0336 7Er16               852 	mov	r6,#_usb_device_status
   0338 7Fs00               853 	mov	r7,#(_usb_device_status >> 8)
   033A 7D 00               854 	mov	r5,#0x00
   033C 74 02               855 	mov	a,#0x02
   033E C0 E0               856 	push	acc
   0340 E4                  857 	clr	a
   0341 C0 E0               858 	push	acc
   0343 8E 82               859 	mov	dpl,r6
   0345 8F 83               860 	mov	dph,r7
   0347 8D F0               861 	mov	b,r5
   0349 78r60               862 	mov	r0,#_usb_send_ctrl_response
   034B 79s00               863 	mov	r1,#(_usb_send_ctrl_response >> 8)
   034D 7As00               864 	mov	r2,#(_usb_send_ctrl_response >> 16)
   034F 12s00r00            865 	lcall	__sdcc_banked_call
   0352 15 81               866 	dec	sp
   0354 15 81               867 	dec	sp
   0356 02s00r00            868 	ljmp	__sdcc_banked_ret
                            869 ;------------------------------------------------------------
                            870 ;Allocation info for local variables in function 'get_endpoint_status'
                            871 ;------------------------------------------------------------
                            872 ;status                    Allocated with name '_get_endpoint_status_status_1_1'
                            873 ;------------------------------------------------------------
                            874 ;	../../../contiki-sensinode//cpu/cc253x/usb/common/usb-core.c:235: get_endpoint_status()
                            875 ;	-----------------------------------------
                            876 ;	 function get_endpoint_status
                            877 ;	-----------------------------------------
   0359                     878 _get_endpoint_status:
                            879 ;	../../../contiki-sensinode//cpu/cc253x/usb/common/usb-core.c:240: if((usb_setup_buffer.wIndex & 0x7f) == 0) {
   0359 90s00r04            880 	mov	dptr,#(_usb_setup_buffer + 0x0004)
   035C E0                  881 	movx	a,@dptr
   035D FE                  882 	mov	r6,a
   035E A3                  883 	inc	dptr
   035F E0                  884 	movx	a,@dptr
   0360 FF                  885 	mov	r7,a
   0361 EE                  886 	mov	a,r6
   0362 54 7F               887 	anl	a,#0x7F
   0364 60 02               888 	jz	00109$
   0366 80 22               889 	sjmp	00102$
   0368                     890 00109$:
                            891 ;	../../../contiki-sensinode//cpu/cc253x/usb/common/usb-core.c:241: usb_send_ctrl_response((const unsigned char *)&zero_word,
   0368 7Cr01               892 	mov	r4,#_zero_word
   036A 7Ds00               893 	mov	r5,#(_zero_word >> 8)
   036C 7B 80               894 	mov	r3,#0x80
   036E 74 02               895 	mov	a,#0x02
   0370 C0 E0               896 	push	acc
   0372 E4                  897 	clr	a
   0373 C0 E0               898 	push	acc
   0375 8C 82               899 	mov	dpl,r4
   0377 8D 83               900 	mov	dph,r5
   0379 8B F0               901 	mov	b,r3
   037B 78r60               902 	mov	r0,#_usb_send_ctrl_response
   037D 79s00               903 	mov	r1,#(_usb_send_ctrl_response >> 8)
   037F 7As00               904 	mov	r2,#(_usb_send_ctrl_response >> 16)
   0381 12s00r00            905 	lcall	__sdcc_banked_call
   0384 15 81               906 	dec	sp
   0386 15 81               907 	dec	sp
   0388 80 38               908 	sjmp	00104$
   038A                     909 00102$:
                            910 ;	../../../contiki-sensinode//cpu/cc253x/usb/common/usb-core.c:244: status = usb_arch_get_ep_status(usb_setup_buffer.wIndex);
   038A 8E 82               911 	mov	dpl,r6
   038C 78r00               912 	mov	r0,#_usb_arch_get_ep_status
   038E 79s00               913 	mov	r1,#(_usb_arch_get_ep_status >> 8)
   0390 7As00               914 	mov	r2,#(_usb_arch_get_ep_status >> 16)
   0392 12s00r00            915 	lcall	__sdcc_banked_call
   0395 E5 82               916 	mov	a,dpl
   0397 85 83 F0            917 	mov	b,dph
   039A 90s00r19            918 	mov	dptr,#_get_endpoint_status_status_1_1
   039D F0                  919 	movx	@dptr,a
   039E A3                  920 	inc	dptr
   039F E5 F0               921 	mov	a,b
   03A1 F0                  922 	movx	@dptr,a
                            923 ;	../../../contiki-sensinode//cpu/cc253x/usb/common/usb-core.c:245: usb_send_ctrl_response((uint8_t *) & status, sizeof(status));
   03A2 7Er19               924 	mov	r6,#_get_endpoint_status_status_1_1
   03A4 7Fs00               925 	mov	r7,#(_get_endpoint_status_status_1_1 >> 8)
   03A6 7D 00               926 	mov	r5,#0x00
   03A8 74 02               927 	mov	a,#0x02
   03AA C0 E0               928 	push	acc
   03AC E4                  929 	clr	a
   03AD C0 E0               930 	push	acc
   03AF 8E 82               931 	mov	dpl,r6
   03B1 8F 83               932 	mov	dph,r7
   03B3 8D F0               933 	mov	b,r5
   03B5 78r60               934 	mov	r0,#_usb_send_ctrl_response
   03B7 79s00               935 	mov	r1,#(_usb_send_ctrl_response >> 8)
   03B9 7As00               936 	mov	r2,#(_usb_send_ctrl_response >> 16)
   03BB 12s00r00            937 	lcall	__sdcc_banked_call
   03BE 15 81               938 	dec	sp
   03C0 15 81               939 	dec	sp
   03C2                     940 00104$:
   03C2 02s00r00            941 	ljmp	__sdcc_banked_ret
                            942 ;------------------------------------------------------------
                            943 ;Allocation info for local variables in function 'get_interface_status'
                            944 ;------------------------------------------------------------
                            945 ;	../../../contiki-sensinode//cpu/cc253x/usb/common/usb-core.c:250: get_interface_status()
                            946 ;	-----------------------------------------
                            947 ;	 function get_interface_status
                            948 ;	-----------------------------------------
   03C5                     949 _get_interface_status:
                            950 ;	../../../contiki-sensinode//cpu/cc253x/usb/common/usb-core.c:253: usb_send_ctrl_response((const unsigned char *)&zero_word,
   03C5 7Er01               951 	mov	r6,#_zero_word
   03C7 7Fs00               952 	mov	r7,#(_zero_word >> 8)
   03C9 7D 80               953 	mov	r5,#0x80
   03CB 74 02               954 	mov	a,#0x02
   03CD C0 E0               955 	push	acc
   03CF E4                  956 	clr	a
   03D0 C0 E0               957 	push	acc
   03D2 8E 82               958 	mov	dpl,r6
   03D4 8F 83               959 	mov	dph,r7
   03D6 8D F0               960 	mov	b,r5
   03D8 78r60               961 	mov	r0,#_usb_send_ctrl_response
   03DA 79s00               962 	mov	r1,#(_usb_send_ctrl_response >> 8)
   03DC 7As00               963 	mov	r2,#(_usb_send_ctrl_response >> 16)
   03DE 12s00r00            964 	lcall	__sdcc_banked_call
   03E1 15 81               965 	dec	sp
   03E3 15 81               966 	dec	sp
   03E5 02s00r00            967 	ljmp	__sdcc_banked_ret
                            968 ;------------------------------------------------------------
                            969 ;Allocation info for local variables in function 'get_interface'
                            970 ;------------------------------------------------------------
                            971 ;	../../../contiki-sensinode//cpu/cc253x/usb/common/usb-core.c:258: get_interface()
                            972 ;	-----------------------------------------
                            973 ;	 function get_interface
                            974 ;	-----------------------------------------
   03E8                     975 _get_interface:
                            976 ;	../../../contiki-sensinode//cpu/cc253x/usb/common/usb-core.c:261: if(usb_configuration_value == 0)
   03E8 90s00r18            977 	mov	dptr,#_usb_configuration_value
   03EB E0                  978 	movx	a,@dptr
   03EC FF                  979 	mov	r7,a
   03ED 70 0B               980 	jnz	00102$
                            981 ;	../../../contiki-sensinode//cpu/cc253x/usb/common/usb-core.c:262: usb_error_stall();
   03EF 78r0C               982 	mov	r0,#_usb_error_stall
   03F1 79s01               983 	mov	r1,#(_usb_error_stall >> 8)
   03F3 7As00               984 	mov	r2,#(_usb_error_stall >> 16)
   03F5 12s00r00            985 	lcall	__sdcc_banked_call
   03F8 80 1A               986 	sjmp	00104$
   03FA                     987 00102$:
                            988 ;	../../../contiki-sensinode//cpu/cc253x/usb/common/usb-core.c:264: usb_send_ctrl_response(&zero_byte, sizeof(zero_byte));
   03FA 74 01               989 	mov	a,#0x01
   03FC C0 E0               990 	push	acc
   03FE E4                  991 	clr	a
   03FF C0 E0               992 	push	acc
   0401 90s00r00            993 	mov	dptr,#_zero_byte
   0404 75 F0 80            994 	mov	b,#0x80
   0407 78r60               995 	mov	r0,#_usb_send_ctrl_response
   0409 79s00               996 	mov	r1,#(_usb_send_ctrl_response >> 8)
   040B 7As00               997 	mov	r2,#(_usb_send_ctrl_response >> 16)
   040D 12s00r00            998 	lcall	__sdcc_banked_call
   0410 15 81               999 	dec	sp
   0412 15 81              1000 	dec	sp
   0414                    1001 00104$:
   0414 02s00r00           1002 	ljmp	__sdcc_banked_ret
                           1003 ;------------------------------------------------------------
                           1004 ;Allocation info for local variables in function 'handle_standard_requests'
                           1005 ;------------------------------------------------------------
                           1006 ;	../../../contiki-sensinode//cpu/cc253x/usb/common/usb-core.c:270: handle_standard_requests()
                           1007 ;	-----------------------------------------
                           1008 ;	 function handle_standard_requests
                           1009 ;	-----------------------------------------
   0417                    1010 _handle_standard_requests:
                           1011 ;	../../../contiki-sensinode//cpu/cc253x/usb/common/usb-core.c:272: switch (usb_setup_buffer.bmRequestType) {
   0417 90s00r00           1012 	mov	dptr,#_usb_setup_buffer
   041A E0                 1013 	movx	a,@dptr
   041B FF                 1014 	mov	r7,a
   041C BF 00 03           1015 	cjne	r7,#0x00,00184$
   041F 02s04rF9           1016 	ljmp	00121$
   0422                    1017 00184$:
   0422 BF 01 03           1018 	cjne	r7,#0x01,00185$
   0425 02s05r2D           1019 	ljmp	00128$
   0428                    1020 00185$:
   0428 BF 02 03           1021 	cjne	r7,#0x02,00186$
   042B 02s05r45           1022 	ljmp	00132$
   042E                    1023 00186$:
   042E BF 80 02           1024 	cjne	r7,#0x80,00187$
   0431 80 0F              1025 	sjmp	00101$
   0433                    1026 00187$:
   0433 BF 81 03           1027 	cjne	r7,#0x81,00188$
   0436 02s04rC3           1028 	ljmp	00113$
   0439                    1029 00188$:
   0439 BF 82 03           1030 	cjne	r7,#0x82,00189$
   043C 02s04rDE           1031 	ljmp	00117$
   043F                    1032 00189$:
   043F 02s05r9B           1033 	ljmp	00140$
                           1034 ;	../../../contiki-sensinode//cpu/cc253x/usb/common/usb-core.c:273: case 0x80:                   /* standard device IN requests */
   0442                    1035 00101$:
                           1036 ;	../../../contiki-sensinode//cpu/cc253x/usb/common/usb-core.c:274: switch (usb_setup_buffer.bRequest) {
   0442 90s00r01           1037 	mov	dptr,#(_usb_setup_buffer + 0x0001)
   0445 E0                 1038 	movx	a,@dptr
   0446 FF                 1039 	mov	r7,a
   0447 60 5C              1040 	jz	00109$
   0449 BF 06 02           1041 	cjne	r7,#0x06,00191$
   044C 80 0A              1042 	sjmp	00102$
   044E                    1043 00191$:
   044E BF 08 02           1044 	cjne	r7,#0x08,00192$
   0451 80 46              1045 	sjmp	00108$
   0453                    1046 00192$:
                           1047 ;	../../../contiki-sensinode//cpu/cc253x/usb/common/usb-core.c:275: case GET_DESCRIPTOR:
   0453 BF 0A 67           1048 	cjne	r7,#0x0A,00111$
   0456 80 59              1049 	sjmp	00110$
   0458                    1050 00102$:
                           1051 ;	../../../contiki-sensinode//cpu/cc253x/usb/common/usb-core.c:276: switch (HIGH_BYTE(usb_setup_buffer.wValue)) {
   0458 90s00r02           1052 	mov	dptr,#(_usb_setup_buffer + 0x0002)
   045B E0                 1053 	movx	a,@dptr
   045C FE                 1054 	mov	r6,a
   045D A3                 1055 	inc	dptr
   045E E0                 1056 	movx	a,@dptr
   045F FF                 1057 	mov	r7,a
   0460 BF 01 02           1058 	cjne	r7,#0x01,00194$
   0463 80 0A              1059 	sjmp	00103$
   0465                    1060 00194$:
   0465 BF 02 02           1061 	cjne	r7,#0x02,00195$
   0468 80 11              1062 	sjmp	00104$
   046A                    1063 00195$:
                           1064 ;	../../../contiki-sensinode//cpu/cc253x/usb/common/usb-core.c:277: case DEVICE:
   046A BF 03 26           1065 	cjne	r7,#0x03,00106$
   046D 80 18              1066 	sjmp	00105$
   046F                    1067 00103$:
                           1068 ;	../../../contiki-sensinode//cpu/cc253x/usb/common/usb-core.c:278: get_device_descriptor();
   046F 78r14              1069 	mov	r0,#_get_device_descriptor
   0471 79s02              1070 	mov	r1,#(_get_device_descriptor >> 8)
   0473 7As00              1071 	mov	r2,#(_get_device_descriptor >> 16)
   0475 12s00r00           1072 	lcall	__sdcc_banked_call
                           1073 ;	../../../contiki-sensinode//cpu/cc253x/usb/common/usb-core.c:279: break;
   0478 02s05rA0           1074 	ljmp	00141$
                           1075 ;	../../../contiki-sensinode//cpu/cc253x/usb/common/usb-core.c:280: case CONFIGURATION:
   047B                    1076 00104$:
                           1077 ;	../../../contiki-sensinode//cpu/cc253x/usb/common/usb-core.c:281: get_configuration_descriptor();
   047B 78r92              1078 	mov	r0,#_get_configuration_descriptor
   047D 79s02              1079 	mov	r1,#(_get_configuration_descriptor >> 8)
   047F 7As00              1080 	mov	r2,#(_get_configuration_descriptor >> 16)
   0481 12s00r00           1081 	lcall	__sdcc_banked_call
                           1082 ;	../../../contiki-sensinode//cpu/cc253x/usb/common/usb-core.c:282: break;
   0484 02s05rA0           1083 	ljmp	00141$
                           1084 ;	../../../contiki-sensinode//cpu/cc253x/usb/common/usb-core.c:283: case STRING:
   0487                    1085 00105$:
                           1086 ;	../../../contiki-sensinode//cpu/cc253x/usb/common/usb-core.c:284: get_string_descriptor();
   0487 78r37              1087 	mov	r0,#_get_string_descriptor
   0489 79s02              1088 	mov	r1,#(_get_string_descriptor >> 8)
   048B 7As00              1089 	mov	r2,#(_get_string_descriptor >> 16)
   048D 12s00r00           1090 	lcall	__sdcc_banked_call
                           1091 ;	../../../contiki-sensinode//cpu/cc253x/usb/common/usb-core.c:285: break;
   0490 02s05rA0           1092 	ljmp	00141$
                           1093 ;	../../../contiki-sensinode//cpu/cc253x/usb/common/usb-core.c:286: default:
   0493                    1094 00106$:
                           1095 ;	../../../contiki-sensinode//cpu/cc253x/usb/common/usb-core.c:288: return 0;
   0493 90 00 00           1096 	mov	dptr,#0x0000
   0496 02s05rA3           1097 	ljmp	00142$
                           1098 ;	../../../contiki-sensinode//cpu/cc253x/usb/common/usb-core.c:291: case GET_CONFIGURATION:
   0499                    1099 00108$:
                           1100 ;	../../../contiki-sensinode//cpu/cc253x/usb/common/usb-core.c:292: get_configuration();
   0499 78rCF              1101 	mov	r0,#_get_configuration
   049B 79s02              1102 	mov	r1,#(_get_configuration >> 8)
   049D 7As00              1103 	mov	r2,#(_get_configuration >> 16)
   049F 12s00r00           1104 	lcall	__sdcc_banked_call
                           1105 ;	../../../contiki-sensinode//cpu/cc253x/usb/common/usb-core.c:293: break;
   04A2 02s05rA0           1106 	ljmp	00141$
                           1107 ;	../../../contiki-sensinode//cpu/cc253x/usb/common/usb-core.c:294: case GET_STATUS:
   04A5                    1108 00109$:
                           1109 ;	../../../contiki-sensinode//cpu/cc253x/usb/common/usb-core.c:295: get_device_status();
   04A5 78r36              1110 	mov	r0,#_get_device_status
   04A7 79s03              1111 	mov	r1,#(_get_device_status >> 8)
   04A9 7As00              1112 	mov	r2,#(_get_device_status >> 16)
   04AB 12s00r00           1113 	lcall	__sdcc_banked_call
                           1114 ;	../../../contiki-sensinode//cpu/cc253x/usb/common/usb-core.c:296: break;
   04AE 02s05rA0           1115 	ljmp	00141$
                           1116 ;	../../../contiki-sensinode//cpu/cc253x/usb/common/usb-core.c:297: case GET_INTERFACE:
   04B1                    1117 00110$:
                           1118 ;	../../../contiki-sensinode//cpu/cc253x/usb/common/usb-core.c:298: get_interface();
   04B1 78rE8              1119 	mov	r0,#_get_interface
   04B3 79s03              1120 	mov	r1,#(_get_interface >> 8)
   04B5 7As00              1121 	mov	r2,#(_get_interface >> 16)
   04B7 12s00r00           1122 	lcall	__sdcc_banked_call
                           1123 ;	../../../contiki-sensinode//cpu/cc253x/usb/common/usb-core.c:299: break;
   04BA 02s05rA0           1124 	ljmp	00141$
                           1125 ;	../../../contiki-sensinode//cpu/cc253x/usb/common/usb-core.c:300: default:
   04BD                    1126 00111$:
                           1127 ;	../../../contiki-sensinode//cpu/cc253x/usb/common/usb-core.c:301: return 0;
   04BD 90 00 00           1128 	mov	dptr,#0x0000
   04C0 02s05rA3           1129 	ljmp	00142$
                           1130 ;	../../../contiki-sensinode//cpu/cc253x/usb/common/usb-core.c:304: case 0x81:                   /* standard interface IN requests */
   04C3                    1131 00113$:
                           1132 ;	../../../contiki-sensinode//cpu/cc253x/usb/common/usb-core.c:305: switch (usb_setup_buffer.bRequest) {
   04C3 90s00r01           1133 	mov	dptr,#(_usb_setup_buffer + 0x0001)
   04C6 E0                 1134 	movx	a,@dptr
   04C7 FF                 1135 	mov	r7,a
   04C8 60 02              1136 	jz	00198$
   04CA 80 0C              1137 	sjmp	00115$
   04CC                    1138 00198$:
                           1139 ;	../../../contiki-sensinode//cpu/cc253x/usb/common/usb-core.c:307: get_interface_status();
   04CC 78rC5              1140 	mov	r0,#_get_interface_status
   04CE 79s03              1141 	mov	r1,#(_get_interface_status >> 8)
   04D0 7As00              1142 	mov	r2,#(_get_interface_status >> 16)
   04D2 12s00r00           1143 	lcall	__sdcc_banked_call
                           1144 ;	../../../contiki-sensinode//cpu/cc253x/usb/common/usb-core.c:308: break;
   04D5 02s05rA0           1145 	ljmp	00141$
                           1146 ;	../../../contiki-sensinode//cpu/cc253x/usb/common/usb-core.c:318: default:
   04D8                    1147 00115$:
                           1148 ;	../../../contiki-sensinode//cpu/cc253x/usb/common/usb-core.c:319: return 0;
   04D8 90 00 00           1149 	mov	dptr,#0x0000
   04DB 02s05rA3           1150 	ljmp	00142$
                           1151 ;	../../../contiki-sensinode//cpu/cc253x/usb/common/usb-core.c:322: case 0x82:                   /* standard endpoint IN requests */
   04DE                    1152 00117$:
                           1153 ;	../../../contiki-sensinode//cpu/cc253x/usb/common/usb-core.c:323: switch (usb_setup_buffer.bRequest) {
   04DE 90s00r01           1154 	mov	dptr,#(_usb_setup_buffer + 0x0001)
   04E1 E0                 1155 	movx	a,@dptr
   04E2 FF                 1156 	mov	r7,a
   04E3 60 02              1157 	jz	00200$
   04E5 80 0C              1158 	sjmp	00119$
   04E7                    1159 00200$:
                           1160 ;	../../../contiki-sensinode//cpu/cc253x/usb/common/usb-core.c:325: get_endpoint_status();
   04E7 78r59              1161 	mov	r0,#_get_endpoint_status
   04E9 79s03              1162 	mov	r1,#(_get_endpoint_status >> 8)
   04EB 7As00              1163 	mov	r2,#(_get_endpoint_status >> 16)
   04ED 12s00r00           1164 	lcall	__sdcc_banked_call
                           1165 ;	../../../contiki-sensinode//cpu/cc253x/usb/common/usb-core.c:326: break;
   04F0 02s05rA0           1166 	ljmp	00141$
                           1167 ;	../../../contiki-sensinode//cpu/cc253x/usb/common/usb-core.c:327: default:
   04F3                    1168 00119$:
                           1169 ;	../../../contiki-sensinode//cpu/cc253x/usb/common/usb-core.c:328: return 0;
   04F3 90 00 00           1170 	mov	dptr,#0x0000
   04F6 02s05rA3           1171 	ljmp	00142$
                           1172 ;	../../../contiki-sensinode//cpu/cc253x/usb/common/usb-core.c:331: case 0x00:                   /* standard device OUT requests */
   04F9                    1173 00121$:
                           1174 ;	../../../contiki-sensinode//cpu/cc253x/usb/common/usb-core.c:332: switch (usb_setup_buffer.bRequest) {
   04F9 90s00r01           1175 	mov	dptr,#(_usb_setup_buffer + 0x0001)
   04FC E0                 1176 	movx	a,@dptr
   04FD FF                 1177 	mov	r7,a
   04FE BF 05 02           1178 	cjne	r7,#0x05,00201$
   0501 80 05              1179 	sjmp	00122$
   0503                    1180 00201$:
                           1181 ;	../../../contiki-sensinode//cpu/cc253x/usb/common/usb-core.c:333: case SET_ADDRESS:
   0503 BF 09 21           1182 	cjne	r7,#0x09,00126$
   0506 80 13              1183 	sjmp	00123$
   0508                    1184 00122$:
                           1185 ;	../../../contiki-sensinode//cpu/cc253x/usb/common/usb-core.c:335: usb_flags |= USB_FLAG_ADDRESS_PENDING;
   0508 90s00r03           1186 	mov	dptr,#_usb_flags
   050B E0                 1187 	movx	a,@dptr
   050C 44 01              1188 	orl	a,#0x01
   050E F0                 1189 	movx	@dptr,a
                           1190 ;	../../../contiki-sensinode//cpu/cc253x/usb/common/usb-core.c:338: usb_send_ctrl_status();
   050F 78r21              1191 	mov	r0,#_usb_send_ctrl_status
   0511 79s01              1192 	mov	r1,#(_usb_send_ctrl_status >> 8)
   0513 7As00              1193 	mov	r2,#(_usb_send_ctrl_status >> 16)
   0515 12s00r00           1194 	lcall	__sdcc_banked_call
                           1195 ;	../../../contiki-sensinode//cpu/cc253x/usb/common/usb-core.c:339: break;
   0518 02s05rA0           1196 	ljmp	00141$
                           1197 ;	../../../contiki-sensinode//cpu/cc253x/usb/common/usb-core.c:349: case SET_CONFIGURATION:
   051B                    1198 00123$:
                           1199 ;	../../../contiki-sensinode//cpu/cc253x/usb/common/usb-core.c:350: if(set_configuration()) {
   051B 78rEC              1200 	mov	r0,#_set_configuration
   051D 79s02              1201 	mov	r1,#(_set_configuration >> 8)
   051F 7As00              1202 	mov	r2,#(_set_configuration >> 16)
   0521 12s00r00           1203 	lcall	__sdcc_banked_call
                           1204 ;	../../../contiki-sensinode//cpu/cc253x/usb/common/usb-core.c:356: break;
   0524 02s05rA0           1205 	ljmp	00141$
                           1206 ;	../../../contiki-sensinode//cpu/cc253x/usb/common/usb-core.c:357: default:
   0527                    1207 00126$:
                           1208 ;	../../../contiki-sensinode//cpu/cc253x/usb/common/usb-core.c:358: return 0;
   0527 90 00 00           1209 	mov	dptr,#0x0000
   052A 02s05rA3           1210 	ljmp	00142$
                           1211 ;	../../../contiki-sensinode//cpu/cc253x/usb/common/usb-core.c:361: case 0x01:                   /* standard interface OUT requests */
   052D                    1212 00128$:
                           1213 ;	../../../contiki-sensinode//cpu/cc253x/usb/common/usb-core.c:362: switch (usb_setup_buffer.bRequest) {
   052D 90s00r01           1214 	mov	dptr,#(_usb_setup_buffer + 0x0001)
   0530 E0                 1215 	movx	a,@dptr
   0531 FF                 1216 	mov	r7,a
   0532 BF 0B 0B           1217 	cjne	r7,#0x0B,00130$
                           1218 ;	../../../contiki-sensinode//cpu/cc253x/usb/common/usb-core.c:365: usb_send_ctrl_status();
   0535 78r21              1219 	mov	r0,#_usb_send_ctrl_status
   0537 79s01              1220 	mov	r1,#(_usb_send_ctrl_status >> 8)
   0539 7As00              1221 	mov	r2,#(_usb_send_ctrl_status >> 16)
   053B 12s00r00           1222 	lcall	__sdcc_banked_call
                           1223 ;	../../../contiki-sensinode//cpu/cc253x/usb/common/usb-core.c:366: break;
                           1224 ;	../../../contiki-sensinode//cpu/cc253x/usb/common/usb-core.c:367: default:
   053E 80 60              1225 	sjmp	00141$
   0540                    1226 00130$:
                           1227 ;	../../../contiki-sensinode//cpu/cc253x/usb/common/usb-core.c:368: return 0;
   0540 90 00 00           1228 	mov	dptr,#0x0000
                           1229 ;	../../../contiki-sensinode//cpu/cc253x/usb/common/usb-core.c:371: case 0x02:                   /* standard endpoint OUT requests */
   0543 80 5E              1230 	sjmp	00142$
   0545                    1231 00132$:
                           1232 ;	../../../contiki-sensinode//cpu/cc253x/usb/common/usb-core.c:372: switch (usb_setup_buffer.bRequest) {
   0545 90s00r01           1233 	mov	dptr,#(_usb_setup_buffer + 0x0001)
   0548 E0                 1234 	movx	a,@dptr
   0549 FF                 1235 	mov	r7,a
   054A BF 01 02           1236 	cjne	r7,#0x01,00205$
   054D 80 03              1237 	sjmp	00134$
   054F                    1238 00205$:
   054F BF 03 44           1239 	cjne	r7,#0x03,00138$
                           1240 ;	../../../contiki-sensinode//cpu/cc253x/usb/common/usb-core.c:374: case CLEAR_FEATURE:
   0552                    1241 00134$:
                           1242 ;	../../../contiki-sensinode//cpu/cc253x/usb/common/usb-core.c:375: if(usb_setup_buffer.wValue == ENDPOINT_HALT_FEATURE) {
   0552 90s00r02           1243 	mov	dptr,#(_usb_setup_buffer + 0x0002)
   0555 E0                 1244 	movx	a,@dptr
   0556 FD                 1245 	mov	r5,a
   0557 A3                 1246 	inc	dptr
   0558 E0                 1247 	movx	a,@dptr
   0559 FE                 1248 	mov	r6,a
   055A 4D                 1249 	orl	a,r5
                           1250 ;	../../../contiki-sensinode//cpu/cc253x/usb/common/usb-core.c:377: usb_setup_buffer.bRequest == SET_FEATURE);
   055B 70 2E              1251 	jnz	00136$
   055D BF 03 01           1252 	cjne	r7,#0x03,00209$
   0560 04                 1253 	inc	a
   0561                    1254 00209$:
   0561 FF                 1255 	mov	r7,a
   0562 33                 1256 	rlc	a
   0563 95 E0              1257 	subb	a,acc
   0565 FE                 1258 	mov	r6,a
                           1259 ;	../../../contiki-sensinode//cpu/cc253x/usb/common/usb-core.c:376: usb_arch_halt_endpoint(usb_setup_buffer.wIndex,
   0566 90s00r04           1260 	mov	dptr,#(_usb_setup_buffer + 0x0004)
   0569 E0                 1261 	movx	a,@dptr
   056A FC                 1262 	mov	r4,a
   056B A3                 1263 	inc	dptr
   056C E0                 1264 	movx	a,@dptr
   056D C0 07              1265 	push	ar7
   056F C0 06              1266 	push	ar6
   0571 8C 82              1267 	mov	dpl,r4
   0573 78r00              1268 	mov	r0,#_usb_arch_halt_endpoint
   0575 79s00              1269 	mov	r1,#(_usb_arch_halt_endpoint >> 8)
   0577 7As00              1270 	mov	r2,#(_usb_arch_halt_endpoint >> 16)
   0579 12s00r00           1271 	lcall	__sdcc_banked_call
   057C 15 81              1272 	dec	sp
   057E 15 81              1273 	dec	sp
                           1274 ;	../../../contiki-sensinode//cpu/cc253x/usb/common/usb-core.c:378: usb_send_ctrl_status();
   0580 78r21              1275 	mov	r0,#_usb_send_ctrl_status
   0582 79s01              1276 	mov	r1,#(_usb_send_ctrl_status >> 8)
   0584 7As00              1277 	mov	r2,#(_usb_send_ctrl_status >> 16)
   0586 12s00r00           1278 	lcall	__sdcc_banked_call
   0589 80 15              1279 	sjmp	00141$
   058B                    1280 00136$:
                           1281 ;	../../../contiki-sensinode//cpu/cc253x/usb/common/usb-core.c:380: usb_error_stall();
   058B 78r0C              1282 	mov	r0,#_usb_error_stall
   058D 79s01              1283 	mov	r1,#(_usb_error_stall >> 8)
   058F 7As00              1284 	mov	r2,#(_usb_error_stall >> 16)
   0591 12s00r00           1285 	lcall	__sdcc_banked_call
                           1286 ;	../../../contiki-sensinode//cpu/cc253x/usb/common/usb-core.c:382: break;
                           1287 ;	../../../contiki-sensinode//cpu/cc253x/usb/common/usb-core.c:383: default:
   0594 80 0A              1288 	sjmp	00141$
   0596                    1289 00138$:
                           1290 ;	../../../contiki-sensinode//cpu/cc253x/usb/common/usb-core.c:384: return 0;
   0596 90 00 00           1291 	mov	dptr,#0x0000
                           1292 ;	../../../contiki-sensinode//cpu/cc253x/usb/common/usb-core.c:413: default:
   0599 80 08              1293 	sjmp	00142$
   059B                    1294 00140$:
                           1295 ;	../../../contiki-sensinode//cpu/cc253x/usb/common/usb-core.c:414: return 0;
   059B 90 00 00           1296 	mov	dptr,#0x0000
                           1297 ;	../../../contiki-sensinode//cpu/cc253x/usb/common/usb-core.c:415: }
   059E 80 03              1298 	sjmp	00142$
   05A0                    1299 00141$:
                           1300 ;	../../../contiki-sensinode//cpu/cc253x/usb/common/usb-core.c:416: return 1;
   05A0 90 00 01           1301 	mov	dptr,#0x0001
   05A3                    1302 00142$:
   05A3 02s00r00           1303 	ljmp	__sdcc_banked_ret
                           1304 ;------------------------------------------------------------
                           1305 ;Allocation info for local variables in function 'submit_setup'
                           1306 ;------------------------------------------------------------
                           1307 ;	../../../contiki-sensinode//cpu/cc253x/usb/common/usb-core.c:433: submit_setup(void)
                           1308 ;	-----------------------------------------
                           1309 ;	 function submit_setup
                           1310 ;	-----------------------------------------
   05A6                    1311 _submit_setup:
                           1312 ;	../../../contiki-sensinode//cpu/cc253x/usb/common/usb-core.c:435: ctrl_buffer.next = NULL;
   05A6 90s00r08           1313 	mov	dptr,#_ctrl_buffer
   05A9 E4                 1314 	clr	a
   05AA F0                 1315 	movx	@dptr,a
   05AB A3                 1316 	inc	dptr
   05AC F0                 1317 	movx	@dptr,a
   05AD A3                 1318 	inc	dptr
   05AE F0                 1319 	movx	@dptr,a
                           1320 ;	../../../contiki-sensinode//cpu/cc253x/usb/common/usb-core.c:436: ctrl_buffer.data = (uint8_t *) & usb_setup_buffer;
   05AF 90s00r0B           1321 	mov	dptr,#(_ctrl_buffer + 0x0003)
   05B2 74r00              1322 	mov	a,#_usb_setup_buffer
   05B4 F0                 1323 	movx	@dptr,a
   05B5 A3                 1324 	inc	dptr
   05B6 74s00              1325 	mov	a,#(_usb_setup_buffer >> 8)
   05B8 F0                 1326 	movx	@dptr,a
   05B9 A3                 1327 	inc	dptr
   05BA E4                 1328 	clr	a
   05BB F0                 1329 	movx	@dptr,a
                           1330 ;	../../../contiki-sensinode//cpu/cc253x/usb/common/usb-core.c:437: ctrl_buffer.left = sizeof(usb_setup_buffer);
   05BC 90s00r0E           1331 	mov	dptr,#(_ctrl_buffer + 0x0006)
   05BF 74 08              1332 	mov	a,#0x08
   05C1 F0                 1333 	movx	@dptr,a
   05C2 A3                 1334 	inc	dptr
   05C3 E4                 1335 	clr	a
   05C4 F0                 1336 	movx	@dptr,a
                           1337 ;	../../../contiki-sensinode//cpu/cc253x/usb/common/usb-core.c:438: ctrl_buffer.flags = (USB_BUFFER_PACKET_END | USB_BUFFER_SETUP
   05C5 90s00r10           1338 	mov	dptr,#(_ctrl_buffer + 0x0008)
   05C8 74 2C              1339 	mov	a,#0x2C
   05CA F0                 1340 	movx	@dptr,a
   05CB A3                 1341 	inc	dptr
   05CC E4                 1342 	clr	a
   05CD F0                 1343 	movx	@dptr,a
                           1344 ;	../../../contiki-sensinode//cpu/cc253x/usb/common/usb-core.c:440: ctrl_buffer.id = SETUP_ID;
   05CE 90s00r12           1345 	mov	dptr,#(_ctrl_buffer + 0x000a)
   05D1 74 01              1346 	mov	a,#0x01
   05D3 F0                 1347 	movx	@dptr,a
   05D4 A3                 1348 	inc	dptr
   05D5 E4                 1349 	clr	a
   05D6 F0                 1350 	movx	@dptr,a
   05D7 A3                 1351 	inc	dptr
   05D8 F0                 1352 	movx	@dptr,a
   05D9 A3                 1353 	inc	dptr
   05DA F0                 1354 	movx	@dptr,a
                           1355 ;	../../../contiki-sensinode//cpu/cc253x/usb/common/usb-core.c:441: usb_submit_recv_buffer(0, &ctrl_buffer);
   05DB 74r08              1356 	mov	a,#_ctrl_buffer
   05DD C0 E0              1357 	push	acc
   05DF 74s00              1358 	mov	a,#(_ctrl_buffer >> 8)
   05E1 C0 E0              1359 	push	acc
   05E3 E4                 1360 	clr	a
   05E4 C0 E0              1361 	push	acc
   05E6 75 82 00           1362 	mov	dpl,#0x00
   05E9 78r00              1363 	mov	r0,#_usb_submit_recv_buffer
   05EB 79s00              1364 	mov	r1,#(_usb_submit_recv_buffer >> 8)
   05ED 7As00              1365 	mov	r2,#(_usb_submit_recv_buffer >> 16)
   05EF 12s00r00           1366 	lcall	__sdcc_banked_call
   05F2 15 81              1367 	dec	sp
   05F4 15 81              1368 	dec	sp
   05F6 15 81              1369 	dec	sp
   05F8 02s00r00           1370 	ljmp	__sdcc_banked_ret
                           1371 ;------------------------------------------------------------
                           1372 ;Allocation info for local variables in function 'process_thread_usb_process'
                           1373 ;------------------------------------------------------------
                           1374 ;ev                        Allocated to stack - sp -9
                           1375 ;data                      Allocated to stack - sp -12
                           1376 ;process_pt                Allocated to stack - sp -5
                           1377 ;PT_YIELD_FLAG             Allocated to registers r4 
                           1378 ;events                    Allocated to registers r3 r4 
                           1379 ;hook                      Allocated to registers r2 r3 r4 
                           1380 ;i                         Allocated to registers r6 r7 
                           1381 ;handler                   Allocated to stack - sp -2
                           1382 ;------------------------------------------------------------
                           1383 ;	../../../contiki-sensinode//cpu/cc253x/usb/common/usb-core.c:446: PROCESS_THREAD(usb_process, ev, data)
                           1384 ;	-----------------------------------------
                           1385 ;	 function process_thread_usb_process
                           1386 ;	-----------------------------------------
   05FB                    1387 _process_thread_usb_process:
   05FB C0 82              1388 	push	dpl
   05FD C0 83              1389 	push	dph
   05FF C0 F0              1390 	push	b
   0601 05 81              1391 	inc	sp
   0603 05 81              1392 	inc	sp
   0605 05 81              1393 	inc	sp
                           1394 ;	../../../contiki-sensinode//cpu/cc253x/usb/common/usb-core.c:448: PROCESS_BEGIN();
   0607 7C 01              1395 	mov	r4,#0x01
   0609 E5 81              1396 	mov	a,sp
   060B 24 FB              1397 	add	a,#0xfb
   060D F8                 1398 	mov	r0,a
   060E 86 82              1399 	mov	dpl,@r0
   0610 08                 1400 	inc	r0
   0611 86 83              1401 	mov	dph,@r0
   0613 08                 1402 	inc	r0
   0614 86 F0              1403 	mov	b,@r0
   0616 12s00r00           1404 	lcall	__gptrget
   0619 FA                 1405 	mov	r2,a
   061A A3                 1406 	inc	dptr
   061B 12s00r00           1407 	lcall	__gptrget
   061E FB                 1408 	mov	r3,a
   061F BA 00 05           1409 	cjne	r2,#0x00,00232$
   0622 BB 00 02           1410 	cjne	r3,#0x00,00232$
   0625 80 0B              1411 	sjmp	00163$
   0627                    1412 00232$:
   0627 BA C3 05           1413 	cjne	r2,#0xC3,00233$
   062A BB 01 02           1414 	cjne	r3,#0x01,00233$
   062D 80 1D              1415 	sjmp	00102$
   062F                    1416 00233$:
   062F 02s09rBE           1417 	ljmp	00165$
                           1418 ;	../../../contiki-sensinode//cpu/cc253x/usb/common/usb-core.c:450: while(1) {
   0632                    1419 00163$:
                           1420 ;	../../../contiki-sensinode//cpu/cc253x/usb/common/usb-core.c:451: PROCESS_WAIT_EVENT();
   0632 7C 00              1421 	mov	r4,#0x00
   0634 E5 81              1422 	mov	a,sp
   0636 24 FB              1423 	add	a,#0xfb
   0638 F8                 1424 	mov	r0,a
   0639 86 82              1425 	mov	dpl,@r0
   063B 08                 1426 	inc	r0
   063C 86 83              1427 	mov	dph,@r0
   063E 08                 1428 	inc	r0
   063F 86 F0              1429 	mov	b,@r0
   0641 74 C3              1430 	mov	a,#0xC3
   0643 12s00r00           1431 	lcall	__gptrput
   0646 A3                 1432 	inc	dptr
   0647 74 01              1433 	mov	a,#0x01
   0649 12s00r00           1434 	lcall	__gptrput
   064C                    1435 00102$:
   064C EC                 1436 	mov	a,r4
   064D 70 06              1437 	jnz	00106$
   064F 75 82 01           1438 	mov	dpl,#0x01
   0652 02s09rD7           1439 	ljmp	00169$
   0655                    1440 00106$:
                           1441 ;	../../../contiki-sensinode//cpu/cc253x/usb/common/usb-core.c:452: if(ev == PROCESS_EVENT_EXIT)
   0655 E5 81              1442 	mov	a,sp
   0657 24 F7              1443 	add	a,#0xf7
   0659 F8                 1444 	mov	r0,a
   065A B6 83 03           1445 	cjne	@r0,#0x83,00235$
   065D 02s09rBE           1446 	ljmp	00165$
   0660                    1447 00235$:
                           1448 ;	../../../contiki-sensinode//cpu/cc253x/usb/common/usb-core.c:454: if(ev == PROCESS_EVENT_POLL) {
   0660 E5 81              1449 	mov	a,sp
   0662 24 F7              1450 	add	a,#0xf7
   0664 F8                 1451 	mov	r0,a
   0665 B6 82 CA           1452 	cjne	@r0,#0x82,00163$
                           1453 ;	../../../contiki-sensinode//cpu/cc253x/usb/common/usb-core.c:455: unsigned int events = usb_arch_get_global_events();
   0668 78r00              1454 	mov	r0,#_usb_arch_get_global_events
   066A 79s00              1455 	mov	r1,#(_usb_arch_get_global_events >> 8)
   066C 7As00              1456 	mov	r2,#(_usb_arch_get_global_events >> 16)
   066E 12s00r00           1457 	lcall	__sdcc_banked_call
   0671 AB 82              1458 	mov	r3,dpl
   0673 AC 83              1459 	mov	r4,dph
                           1460 ;	../../../contiki-sensinode//cpu/cc253x/usb/common/usb-core.c:457: if(events) {
   0675 EB                 1461 	mov	a,r3
   0676 4C                 1462 	orl	a,r4
   0677 60 4E              1463 	jz	00117$
                           1464 ;	../../../contiki-sensinode//cpu/cc253x/usb/common/usb-core.c:458: if(events & USB_EVENT_RESET) {
   0679 EB                 1465 	mov	a,r3
   067A 30 E3 22           1466 	jnb	acc.3,00111$
                           1467 ;	../../../contiki-sensinode//cpu/cc253x/usb/common/usb-core.c:459: submit_setup();
   067D C0 04              1468 	push	ar4
   067F C0 03              1469 	push	ar3
   0681 78rA6              1470 	mov	r0,#_submit_setup
   0683 79s05              1471 	mov	r1,#(_submit_setup >> 8)
   0685 7As00              1472 	mov	r2,#(_submit_setup >> 16)
   0687 12s00r00           1473 	lcall	__sdcc_banked_call
                           1474 ;	../../../contiki-sensinode//cpu/cc253x/usb/common/usb-core.c:460: usb_configuration_value = 0;
   068A 90s00r18           1475 	mov	dptr,#_usb_configuration_value
   068D E4                 1476 	clr	a
   068E F0                 1477 	movx	@dptr,a
                           1478 ;	../../../contiki-sensinode//cpu/cc253x/usb/common/usb-core.c:461: notify_user(USB_EVENT_RESET);
   068F 90 00 08           1479 	mov	dptr,#0x0008
   0692 78r29              1480 	mov	r0,#_notify_user
   0694 79s00              1481 	mov	r1,#(_notify_user >> 8)
   0696 7As00              1482 	mov	r2,#(_notify_user >> 16)
   0698 12s00r00           1483 	lcall	__sdcc_banked_call
   069B D0 03              1484 	pop	ar3
   069D D0 04              1485 	pop	ar4
   069F                    1486 00111$:
                           1487 ;	../../../contiki-sensinode//cpu/cc253x/usb/common/usb-core.c:463: if(events & USB_EVENT_SUSPEND) {
   069F EB                 1488 	mov	a,r3
   06A0 30 E1 14           1489 	jnb	acc.1,00113$
                           1490 ;	../../../contiki-sensinode//cpu/cc253x/usb/common/usb-core.c:464: notify_user(USB_EVENT_SUSPEND);
   06A3 90 00 02           1491 	mov	dptr,#0x0002
   06A6 C0 04              1492 	push	ar4
   06A8 C0 03              1493 	push	ar3
   06AA 78r29              1494 	mov	r0,#_notify_user
   06AC 79s00              1495 	mov	r1,#(_notify_user >> 8)
   06AE 7As00              1496 	mov	r2,#(_notify_user >> 16)
   06B0 12s00r00           1497 	lcall	__sdcc_banked_call
   06B3 D0 03              1498 	pop	ar3
   06B5 D0 04              1499 	pop	ar4
   06B7                    1500 00113$:
                           1501 ;	../../../contiki-sensinode//cpu/cc253x/usb/common/usb-core.c:466: if(events & USB_EVENT_RESUME) {
   06B7 EB                 1502 	mov	a,r3
   06B8 30 E2 0C           1503 	jnb	acc.2,00117$
                           1504 ;	../../../contiki-sensinode//cpu/cc253x/usb/common/usb-core.c:467: notify_user(USB_EVENT_RESUME);
   06BB 90 00 04           1505 	mov	dptr,#0x0004
   06BE 78r29              1506 	mov	r0,#_notify_user
   06C0 79s00              1507 	mov	r1,#(_notify_user >> 8)
   06C2 7As00              1508 	mov	r2,#(_notify_user >> 16)
   06C4 12s00r00           1509 	lcall	__sdcc_banked_call
   06C7                    1510 00117$:
                           1511 ;	../../../contiki-sensinode//cpu/cc253x/usb/common/usb-core.c:471: events = usb_get_ep_events(0);
   06C7 75 82 00           1512 	mov	dpl,#0x00
   06CA 78r00              1513 	mov	r0,#_usb_get_ep_events
   06CC 79s00              1514 	mov	r1,#(_usb_get_ep_events >> 8)
   06CE 7As00              1515 	mov	r2,#(_usb_get_ep_events >> 16)
   06D0 12s00r00           1516 	lcall	__sdcc_banked_call
   06D3 AA 82              1517 	mov	r2,dpl
   06D5 AF 83              1518 	mov	r7,dph
   06D7 8A 03              1519 	mov	ar3,r2
   06D9 8F 04              1520 	mov	ar4,r7
                           1521 ;	../../../contiki-sensinode//cpu/cc253x/usb/common/usb-core.c:472: if(events) {
   06DB EB                 1522 	mov	a,r3
   06DC 4C                 1523 	orl	a,r4
   06DD 70 03              1524 	jnz	00242$
   06DF 02s06r32           1525 	ljmp	00163$
   06E2                    1526 00242$:
                           1527 ;	../../../contiki-sensinode//cpu/cc253x/usb/common/usb-core.c:473: if((events & USB_EP_EVENT_NOTIFICATION)
   06E2 EB                 1528 	mov	a,r3
   06E3 20 E0 03           1529 	jb	acc.0,00243$
   06E6 02s06r32           1530 	ljmp	00163$
   06E9                    1531 00243$:
                           1532 ;	../../../contiki-sensinode//cpu/cc253x/usb/common/usb-core.c:474: && !(ctrl_buffer.flags & USB_BUFFER_SUBMITTED)) {
   06E9 90s00r10           1533 	mov	dptr,#(_ctrl_buffer + 0x0008)
   06EC E0                 1534 	movx	a,@dptr
   06ED FB                 1535 	mov	r3,a
   06EE A3                 1536 	inc	dptr
   06EF E0                 1537 	movx	a,@dptr
   06F0 FC                 1538 	mov	r4,a
   06F1 EB                 1539 	mov	a,r3
   06F2 30 E0 03           1540 	jnb	acc.0,00244$
   06F5 02s06r32           1541 	ljmp	00163$
   06F8                    1542 00244$:
                           1543 ;	../../../contiki-sensinode//cpu/cc253x/usb/common/usb-core.c:476: if(ctrl_buffer.flags & USB_BUFFER_FAILED) {
   06F8 EB                 1544 	mov	a,r3
   06F9 30 E7 0C           1545 	jnb	acc.7,00153$
                           1546 ;	../../../contiki-sensinode//cpu/cc253x/usb/common/usb-core.c:480: submit_setup();
   06FC 78rA6              1547 	mov	r0,#_submit_setup
   06FE 79s05              1548 	mov	r1,#(_submit_setup >> 8)
   0700 7As00              1549 	mov	r2,#(_submit_setup >> 16)
   0702 12s00r00           1550 	lcall	__sdcc_banked_call
   0705 02s06r32           1551 	ljmp	00163$
   0708                    1552 00153$:
                           1553 ;	../../../contiki-sensinode//cpu/cc253x/usb/common/usb-core.c:481: } else if(ctrl_buffer.flags & USB_BUFFER_SETUP) {
   0708 EB                 1554 	mov	a,r3
   0709 20 E5 03           1555 	jb	acc.5,00246$
   070C 02s08r6A           1556 	ljmp	00150$
   070F                    1557 00246$:
                           1558 ;	../../../contiki-sensinode//cpu/cc253x/usb/common/usb-core.c:482: struct USBRequestHandlerHook *hook = usb_request_handler_hooks;
   070F 90s00r00           1559 	mov	dptr,#_usb_request_handler_hooks
   0712 E0                 1560 	movx	a,@dptr
   0713 FA                 1561 	mov	r2,a
   0714 A3                 1562 	inc	dptr
   0715 E0                 1563 	movx	a,@dptr
   0716 FB                 1564 	mov	r3,a
   0717 A3                 1565 	inc	dptr
   0718 E0                 1566 	movx	a,@dptr
   0719 FC                 1567 	mov	r4,a
                           1568 ;	../../../contiki-sensinode//cpu/cc253x/usb/common/usb-core.c:488: for(i = 0; i < 8; i++)
   071A 7E 08              1569 	mov	r6,#0x08
   071C 7F 00              1570 	mov	r7,#0x00
   071E                    1571 00168$:
   071E 1E                 1572 	dec	r6
   071F BE FF 01           1573 	cjne	r6,#0xFF,00247$
   0722 1F                 1574 	dec	r7
   0723                    1575 00247$:
   0723 EE                 1576 	mov	a,r6
   0724 4F                 1577 	orl	a,r7
   0725 70 F7              1578 	jnz	00168$
                           1579 ;	../../../contiki-sensinode//cpu/cc253x/usb/common/usb-core.c:493: while(hook) {
   0727                    1580 00123$:
   0727 EA                 1581 	mov	a,r2
   0728 4B                 1582 	orl	a,r3
   0729 70 03              1583 	jnz	00249$
   072B 02s08r42           1584 	ljmp	00125$
   072E                    1585 00249$:
                           1586 ;	../../../contiki-sensinode//cpu/cc253x/usb/common/usb-core.c:494: const struct USBRequestHandler *handler = hook->handler;
   072E 74 03              1587 	mov	a,#0x03
   0730 2A                 1588 	add	a,r2
   0731 FD                 1589 	mov	r5,a
   0732 E4                 1590 	clr	a
   0733 3B                 1591 	addc	a,r3
   0734 FE                 1592 	mov	r6,a
   0735 8C 07              1593 	mov	ar7,r4
   0737 8D 82              1594 	mov	dpl,r5
   0739 8E 83              1595 	mov	dph,r6
   073B 8F F0              1596 	mov	b,r7
   073D 12s00r00           1597 	lcall	__gptrget
   0740 FD                 1598 	mov	r5,a
   0741 A3                 1599 	inc	dptr
   0742 12s00r00           1600 	lcall	__gptrget
   0745 FE                 1601 	mov	r6,a
   0746 A3                 1602 	inc	dptr
   0747 12s00r00           1603 	lcall	__gptrget
   074A FF                 1604 	mov	r7,a
   074B A8 81              1605 	mov	r0,sp
   074D 18                 1606 	dec	r0
   074E 18                 1607 	dec	r0
   074F A6 05              1608 	mov	@r0,ar5
   0751 08                 1609 	inc	r0
   0752 A6 06              1610 	mov	@r0,ar6
   0754 08                 1611 	inc	r0
   0755 A6 07              1612 	mov	@r0,ar7
                           1613 ;	../../../contiki-sensinode//cpu/cc253x/usb/common/usb-core.c:497: if(((handler->request_type ^ usb_setup_buffer.bmRequestType)
   0757 C0 02              1614 	push	ar2
   0759 C0 03              1615 	push	ar3
   075B C0 04              1616 	push	ar4
   075D E5 81              1617 	mov	a,sp
   075F 24 FB              1618 	add	a,#0xfb
   0761 F8                 1619 	mov	r0,a
   0762 86 82              1620 	mov	dpl,@r0
   0764 08                 1621 	inc	r0
   0765 86 83              1622 	mov	dph,@r0
   0767 08                 1623 	inc	r0
   0768 86 F0              1624 	mov	b,@r0
   076A 12s00r00           1625 	lcall	__gptrget
   076D FC                 1626 	mov	r4,a
   076E 90s00r00           1627 	mov	dptr,#_usb_setup_buffer
   0771 E0                 1628 	movx	a,@dptr
   0772 62 04              1629 	xrl	ar4,a
                           1630 ;	../../../contiki-sensinode//cpu/cc253x/usb/common/usb-core.c:498: & handler->request_type_mask) == 0
   0774 E5 81              1631 	mov	a,sp
   0776 24 FB              1632 	add	a,#0xfb
   0778 F8                 1633 	mov	r0,a
   0779 74 01              1634 	mov	a,#0x01
   077B 26                 1635 	add	a,@r0
   077C FA                 1636 	mov	r2,a
   077D E4                 1637 	clr	a
   077E 08                 1638 	inc	r0
   077F 36                 1639 	addc	a,@r0
   0780 FB                 1640 	mov	r3,a
   0781 08                 1641 	inc	r0
   0782 86 07              1642 	mov	ar7,@r0
   0784 8A 82              1643 	mov	dpl,r2
   0786 8B 83              1644 	mov	dph,r3
   0788 8F F0              1645 	mov	b,r7
   078A 12s00r00           1646 	lcall	__gptrget
   078D 5C                 1647 	anl	a,r4
   078E D0 04              1648 	pop	ar4
   0790 D0 03              1649 	pop	ar3
   0792 D0 02              1650 	pop	ar2
   0794 60 03              1651 	jz	00250$
   0796 02s08r2B           1652 	ljmp	00121$
   0799                    1653 00250$:
                           1654 ;	../../../contiki-sensinode//cpu/cc253x/usb/common/usb-core.c:499: && ((handler->request ^ usb_setup_buffer.bRequest)
   0799 C0 02              1655 	push	ar2
   079B C0 03              1656 	push	ar3
   079D C0 04              1657 	push	ar4
   079F E5 81              1658 	mov	a,sp
   07A1 24 FB              1659 	add	a,#0xfb
   07A3 F8                 1660 	mov	r0,a
   07A4 74 02              1661 	mov	a,#0x02
   07A6 26                 1662 	add	a,@r0
   07A7 FD                 1663 	mov	r5,a
   07A8 E4                 1664 	clr	a
   07A9 08                 1665 	inc	r0
   07AA 36                 1666 	addc	a,@r0
   07AB FE                 1667 	mov	r6,a
   07AC 08                 1668 	inc	r0
   07AD 86 07              1669 	mov	ar7,@r0
   07AF 8D 82              1670 	mov	dpl,r5
   07B1 8E 83              1671 	mov	dph,r6
   07B3 8F F0              1672 	mov	b,r7
   07B5 12s00r00           1673 	lcall	__gptrget
   07B8 FD                 1674 	mov	r5,a
   07B9 90s00r01           1675 	mov	dptr,#(_usb_setup_buffer + 0x0001)
   07BC E0                 1676 	movx	a,@dptr
   07BD 62 05              1677 	xrl	ar5,a
                           1678 ;	../../../contiki-sensinode//cpu/cc253x/usb/common/usb-core.c:500: & handler->request_mask) == 0) {
   07BF E5 81              1679 	mov	a,sp
   07C1 24 FB              1680 	add	a,#0xfb
   07C3 F8                 1681 	mov	r0,a
   07C4 74 03              1682 	mov	a,#0x03
   07C6 26                 1683 	add	a,@r0
   07C7 FC                 1684 	mov	r4,a
   07C8 E4                 1685 	clr	a
   07C9 08                 1686 	inc	r0
   07CA 36                 1687 	addc	a,@r0
   07CB FE                 1688 	mov	r6,a
   07CC 08                 1689 	inc	r0
   07CD 86 07              1690 	mov	ar7,@r0
   07CF 8C 82              1691 	mov	dpl,r4
   07D1 8E 83              1692 	mov	dph,r6
   07D3 8F F0              1693 	mov	b,r7
   07D5 12s00r00           1694 	lcall	__gptrget
   07D8 5D                 1695 	anl	a,r5
   07D9 D0 04              1696 	pop	ar4
   07DB D0 03              1697 	pop	ar3
   07DD D0 02              1698 	pop	ar2
   07DF 70 4A              1699 	jnz	00121$
                           1700 ;	../../../contiki-sensinode//cpu/cc253x/usb/common/usb-core.c:501: if(handler->handler_func())
   07E1 A8 81              1701 	mov	r0,sp
   07E3 18                 1702 	dec	r0
   07E4 18                 1703 	dec	r0
   07E5 74 04              1704 	mov	a,#0x04
   07E7 26                 1705 	add	a,@r0
   07E8 FD                 1706 	mov	r5,a
   07E9 E4                 1707 	clr	a
   07EA 08                 1708 	inc	r0
   07EB 36                 1709 	addc	a,@r0
   07EC FE                 1710 	mov	r6,a
   07ED 08                 1711 	inc	r0
   07EE 86 07              1712 	mov	ar7,@r0
   07F0 8D 82              1713 	mov	dpl,r5
   07F2 8E 83              1714 	mov	dph,r6
   07F4 8F F0              1715 	mov	b,r7
   07F6 12s00r00           1716 	lcall	__gptrget
   07F9 FD                 1717 	mov	r5,a
   07FA A3                 1718 	inc	dptr
   07FB 12s00r00           1719 	lcall	__gptrget
   07FE FE                 1720 	mov	r6,a
   07FF A3                 1721 	inc	dptr
   0800 12s00r00           1722 	lcall	__gptrget
   0803 FF                 1723 	mov	r7,a
   0804 C0 07              1724 	push	ar7
   0806 C0 04              1725 	push	ar4
   0808 C0 03              1726 	push	ar3
   080A C0 02              1727 	push	ar2
   080C C0 05              1728 	push	ar5
   080E C0 06              1729 	push	ar6
   0810 C0 07              1730 	push	ar7
   0812 D0 02              1731 	pop	ar2
   0814 D0 01              1732 	pop	ar1
   0816 D0 00              1733 	pop	ar0
   0818 12s00r00           1734 	lcall	__sdcc_banked_call
   081B AD 82              1735 	mov	r5,dpl
   081D AE 83              1736 	mov	r6,dph
   081F D0 02              1737 	pop	ar2
   0821 D0 03              1738 	pop	ar3
   0823 D0 04              1739 	pop	ar4
   0825 D0 07              1740 	pop	ar7
   0827 ED                 1741 	mov	a,r5
   0828 4E                 1742 	orl	a,r6
   0829 70 17              1743 	jnz	00125$
                           1744 ;	../../../contiki-sensinode//cpu/cc253x/usb/common/usb-core.c:502: break;
   082B                    1745 00121$:
                           1746 ;	../../../contiki-sensinode//cpu/cc253x/usb/common/usb-core.c:504: hook = hook->next;
   082B 8A 82              1747 	mov	dpl,r2
   082D 8B 83              1748 	mov	dph,r3
   082F 8C F0              1749 	mov	b,r4
   0831 12s00r00           1750 	lcall	__gptrget
   0834 FA                 1751 	mov	r2,a
   0835 A3                 1752 	inc	dptr
   0836 12s00r00           1753 	lcall	__gptrget
   0839 FB                 1754 	mov	r3,a
   083A A3                 1755 	inc	dptr
   083B 12s00r00           1756 	lcall	__gptrget
   083E FC                 1757 	mov	r4,a
   083F 02s07r27           1758 	ljmp	00123$
   0842                    1759 00125$:
                           1760 ;	../../../contiki-sensinode//cpu/cc253x/usb/common/usb-core.c:506: if(!hook) {
   0842 EA                 1761 	mov	a,r2
   0843 4B                 1762 	orl	a,r3
   0844 70 09              1763 	jnz	00127$
                           1764 ;	../../../contiki-sensinode//cpu/cc253x/usb/common/usb-core.c:508: usb_error_stall();
   0846 78r0C              1765 	mov	r0,#_usb_error_stall
   0848 79s01              1766 	mov	r1,#(_usb_error_stall >> 8)
   084A 7As00              1767 	mov	r2,#(_usb_error_stall >> 16)
   084C 12s00r00           1768 	lcall	__sdcc_banked_call
   084F                    1769 00127$:
                           1770 ;	../../../contiki-sensinode//cpu/cc253x/usb/common/usb-core.c:516: if(error_stall) {
   084F 90s00r09           1771 	mov	dptr,#_error_stall
   0852 E0                 1772 	movx	a,@dptr
   0853 FF                 1773 	mov	r7,a
   0854 70 03              1774 	jnz	00255$
   0856 02s06r32           1775 	ljmp	00163$
   0859                    1776 00255$:
                           1777 ;	../../../contiki-sensinode//cpu/cc253x/usb/common/usb-core.c:517: error_stall = 0;
   0859 90s00r09           1778 	mov	dptr,#_error_stall
   085C E4                 1779 	clr	a
   085D F0                 1780 	movx	@dptr,a
                           1781 ;	../../../contiki-sensinode//cpu/cc253x/usb/common/usb-core.c:518: submit_setup();
   085E 78rA6              1782 	mov	r0,#_submit_setup
   0860 79s05              1783 	mov	r1,#(_submit_setup >> 8)
   0862 7As00              1784 	mov	r2,#(_submit_setup >> 16)
   0864 12s00r00           1785 	lcall	__sdcc_banked_call
   0867 02s06r32           1786 	ljmp	00163$
   086A                    1787 00150$:
                           1788 ;	../../../contiki-sensinode//cpu/cc253x/usb/common/usb-core.c:521: if(ctrl_buffer.id == IN_ID) {
   086A 90s00r12           1789 	mov	dptr,#(_ctrl_buffer + 0x000a)
   086D E0                 1790 	movx	a,@dptr
   086E FC                 1791 	mov	r4,a
   086F A3                 1792 	inc	dptr
   0870 E0                 1793 	movx	a,@dptr
   0871 FD                 1794 	mov	r5,a
   0872 A3                 1795 	inc	dptr
   0873 E0                 1796 	movx	a,@dptr
   0874 FE                 1797 	mov	r6,a
   0875 A3                 1798 	inc	dptr
   0876 E0                 1799 	movx	a,@dptr
   0877 FF                 1800 	mov	r7,a
   0878 BC 03 58           1801 	cjne	r4,#0x03,00147$
   087B BD 00 55           1802 	cjne	r5,#0x00,00147$
   087E BE 00 52           1803 	cjne	r6,#0x00,00147$
   0881 BF 00 4F           1804 	cjne	r7,#0x00,00147$
                           1805 ;	../../../contiki-sensinode//cpu/cc253x/usb/common/usb-core.c:524: ctrl_buffer.flags = USB_BUFFER_NOTIFY;
   0884 90s00r10           1806 	mov	dptr,#(_ctrl_buffer + 0x0008)
   0887 74 08              1807 	mov	a,#0x08
   0889 F0                 1808 	movx	@dptr,a
   088A A3                 1809 	inc	dptr
                           1810 ;	../../../contiki-sensinode//cpu/cc253x/usb/common/usb-core.c:525: ctrl_buffer.next = NULL;
   088B E4                 1811 	clr	a
   088C F0                 1812 	movx	@dptr,a
   088D 90s00r08           1813 	mov	dptr,#_ctrl_buffer
   0890 F0                 1814 	movx	@dptr,a
   0891 A3                 1815 	inc	dptr
                           1816 ;	../../../contiki-sensinode//cpu/cc253x/usb/common/usb-core.c:526: ctrl_buffer.data = NULL;
   0892 E4                 1817 	clr	a
   0893 F0                 1818 	movx	@dptr,a
   0894 A3                 1819 	inc	dptr
   0895 F0                 1820 	movx	@dptr,a
   0896 90s00r0B           1821 	mov	dptr,#(_ctrl_buffer + 0x0003)
   0899 F0                 1822 	movx	@dptr,a
   089A A3                 1823 	inc	dptr
                           1824 ;	../../../contiki-sensinode//cpu/cc253x/usb/common/usb-core.c:527: ctrl_buffer.left = 0;
   089B E4                 1825 	clr	a
   089C F0                 1826 	movx	@dptr,a
   089D A3                 1827 	inc	dptr
   089E F0                 1828 	movx	@dptr,a
   089F 90s00r0E           1829 	mov	dptr,#(_ctrl_buffer + 0x0006)
   08A2 F0                 1830 	movx	@dptr,a
   08A3 A3                 1831 	inc	dptr
   08A4 E4                 1832 	clr	a
   08A5 F0                 1833 	movx	@dptr,a
                           1834 ;	../../../contiki-sensinode//cpu/cc253x/usb/common/usb-core.c:528: ctrl_buffer.id = STATUS_OUT_ID;
   08A6 90s00r12           1835 	mov	dptr,#(_ctrl_buffer + 0x000a)
   08A9 74 04              1836 	mov	a,#0x04
   08AB F0                 1837 	movx	@dptr,a
   08AC A3                 1838 	inc	dptr
   08AD E4                 1839 	clr	a
   08AE F0                 1840 	movx	@dptr,a
   08AF A3                 1841 	inc	dptr
   08B0 F0                 1842 	movx	@dptr,a
   08B1 A3                 1843 	inc	dptr
   08B2 F0                 1844 	movx	@dptr,a
                           1845 ;	../../../contiki-sensinode//cpu/cc253x/usb/common/usb-core.c:529: usb_submit_recv_buffer(0, &ctrl_buffer);
   08B3 74r08              1846 	mov	a,#_ctrl_buffer
   08B5 C0 E0              1847 	push	acc
   08B7 74s00              1848 	mov	a,#(_ctrl_buffer >> 8)
   08B9 C0 E0              1849 	push	acc
   08BB E4                 1850 	clr	a
   08BC C0 E0              1851 	push	acc
   08BE 75 82 00           1852 	mov	dpl,#0x00
   08C1 78r00              1853 	mov	r0,#_usb_submit_recv_buffer
   08C3 79s00              1854 	mov	r1,#(_usb_submit_recv_buffer >> 8)
   08C5 7As00              1855 	mov	r2,#(_usb_submit_recv_buffer >> 16)
   08C7 12s00r00           1856 	lcall	__sdcc_banked_call
   08CA 15 81              1857 	dec	sp
   08CC 15 81              1858 	dec	sp
   08CE 15 81              1859 	dec	sp
   08D0 02s06r32           1860 	ljmp	00163$
   08D3                    1861 00147$:
                           1862 ;	../../../contiki-sensinode//cpu/cc253x/usb/common/usb-core.c:530: } else if(ctrl_buffer.id == STATUS_OUT_ID) {
   08D3 90s00r12           1863 	mov	dptr,#(_ctrl_buffer + 0x000a)
   08D6 E0                 1864 	movx	a,@dptr
   08D7 FC                 1865 	mov	r4,a
   08D8 A3                 1866 	inc	dptr
   08D9 E0                 1867 	movx	a,@dptr
   08DA FD                 1868 	mov	r5,a
   08DB A3                 1869 	inc	dptr
   08DC E0                 1870 	movx	a,@dptr
   08DD FE                 1871 	mov	r6,a
   08DE A3                 1872 	inc	dptr
   08DF E0                 1873 	movx	a,@dptr
   08E0 FF                 1874 	mov	r7,a
   08E1 BC 04 15           1875 	cjne	r4,#0x04,00144$
   08E4 BD 00 12           1876 	cjne	r5,#0x00,00144$
   08E7 BE 00 0F           1877 	cjne	r6,#0x00,00144$
   08EA BF 00 0C           1878 	cjne	r7,#0x00,00144$
                           1879 ;	../../../contiki-sensinode//cpu/cc253x/usb/common/usb-core.c:532: submit_setup();
   08ED 78rA6              1880 	mov	r0,#_submit_setup
   08EF 79s05              1881 	mov	r1,#(_submit_setup >> 8)
   08F1 7As00              1882 	mov	r2,#(_submit_setup >> 16)
   08F3 12s00r00           1883 	lcall	__sdcc_banked_call
   08F6 02s06r32           1884 	ljmp	00163$
   08F9                    1885 00144$:
                           1886 ;	../../../contiki-sensinode//cpu/cc253x/usb/common/usb-core.c:533: } else if(ctrl_buffer.id == STATUS_IN_ID) {
   08F9 BC 05 4C           1887 	cjne	r4,#0x05,00141$
   08FC BD 00 49           1888 	cjne	r5,#0x00,00141$
   08FF BE 00 46           1889 	cjne	r6,#0x00,00141$
   0902 BF 00 43           1890 	cjne	r7,#0x00,00141$
                           1891 ;	../../../contiki-sensinode//cpu/cc253x/usb/common/usb-core.c:535: if(usb_flags & USB_FLAG_ADDRESS_PENDING) {
   0905 90s00r03           1892 	mov	dptr,#_usb_flags
   0908 E0                 1893 	movx	a,@dptr
   0909 FB                 1894 	mov	r3,a
   090A 30 E0 2F           1895 	jnb	acc.0,00134$
                           1896 ;	../../../contiki-sensinode//cpu/cc253x/usb/common/usb-core.c:536: while(usb_send_pending(0));
   090D                    1897 00130$:
   090D 75 82 00           1898 	mov	dpl,#0x00
   0910 78r4E              1899 	mov	r0,#_usb_send_pending
   0912 79s0B              1900 	mov	r1,#(_usb_send_pending >> 8)
   0914 7As00              1901 	mov	r2,#(_usb_send_pending >> 16)
   0916 12s00r00           1902 	lcall	__sdcc_banked_call
   0919 E5 82              1903 	mov	a,dpl
   091B 85 83 F0           1904 	mov	b,dph
   091E 45 F0              1905 	orl	a,b
   0920 70 EB              1906 	jnz	00130$
                           1907 ;	../../../contiki-sensinode//cpu/cc253x/usb/common/usb-core.c:537: usb_arch_set_address(LOW_BYTE(usb_setup_buffer.wValue));
   0922 90s00r02           1908 	mov	dptr,#(_usb_setup_buffer + 0x0002)
   0925 E0                 1909 	movx	a,@dptr
   0926 FA                 1910 	mov	r2,a
   0927 A3                 1911 	inc	dptr
   0928 E0                 1912 	movx	a,@dptr
   0929 8A 82              1913 	mov	dpl,r2
   092B 78r00              1914 	mov	r0,#_usb_arch_set_address
   092D 79s00              1915 	mov	r1,#(_usb_arch_set_address >> 8)
   092F 7As00              1916 	mov	r2,#(_usb_arch_set_address >> 16)
   0931 12s00r00           1917 	lcall	__sdcc_banked_call
                           1918 ;	../../../contiki-sensinode//cpu/cc253x/usb/common/usb-core.c:538: usb_flags &= ~USB_FLAG_ADDRESS_PENDING;
   0934 90s00r03           1919 	mov	dptr,#_usb_flags
   0937 E0                 1920 	movx	a,@dptr
   0938 54 FE              1921 	anl	a,#0xFE
   093A FB                 1922 	mov	r3,a
   093B F0                 1923 	movx	@dptr,a
   093C                    1924 00134$:
                           1925 ;	../../../contiki-sensinode//cpu/cc253x/usb/common/usb-core.c:540: submit_setup();
   093C 78rA6              1926 	mov	r0,#_submit_setup
   093E 79s05              1927 	mov	r1,#(_submit_setup >> 8)
   0940 7As00              1928 	mov	r2,#(_submit_setup >> 16)
   0942 12s00r00           1929 	lcall	__sdcc_banked_call
   0945 02s06r32           1930 	ljmp	00163$
   0948                    1931 00141$:
                           1932 ;	../../../contiki-sensinode//cpu/cc253x/usb/common/usb-core.c:541: } else if(ctrl_buffer.id == OUT_ID) {
   0948 BC 02 0B           1933 	cjne	r4,#0x02,00264$
   094B BD 00 08           1934 	cjne	r5,#0x00,00264$
   094E BE 00 05           1935 	cjne	r6,#0x00,00264$
   0951 BF 00 02           1936 	cjne	r7,#0x00,00264$
   0954 80 03              1937 	sjmp	00265$
   0956                    1938 00264$:
   0956 02s06r32           1939 	ljmp	00163$
   0959                    1940 00265$:
                           1941 ;	../../../contiki-sensinode//cpu/cc253x/usb/common/usb-core.c:543: if(data_callback) {
   0959 90s00r0A           1942 	mov	dptr,#_data_callback
   095C E0                 1943 	movx	a,@dptr
   095D FD                 1944 	mov	r5,a
   095E A3                 1945 	inc	dptr
   095F E0                 1946 	movx	a,@dptr
   0960 FE                 1947 	mov	r6,a
   0961 A3                 1948 	inc	dptr
   0962 E0                 1949 	movx	a,@dptr
   0963 FF                 1950 	mov	r7,a
   0964 ED                 1951 	mov	a,r5
   0965 4E                 1952 	orl	a,r6
   0966 60 4A              1953 	jz	00136$
                           1954 ;	../../../contiki-sensinode//cpu/cc253x/usb/common/usb-core.c:544: data_callback(ctrl_data, ctrl_data_len - ctrl_buffer.left);
   0968 90s00r0E           1955 	mov	dptr,#(_ctrl_buffer + 0x0006)
   096B E0                 1956 	movx	a,@dptr
   096C FE                 1957 	mov	r6,a
   096D A3                 1958 	inc	dptr
   096E E0                 1959 	movx	a,@dptr
   096F FF                 1960 	mov	r7,a
   0970 90s00r10           1961 	mov	dptr,#_ctrl_data_len
   0973 E0                 1962 	movx	a,@dptr
   0974 FC                 1963 	mov	r4,a
   0975 A3                 1964 	inc	dptr
   0976 E0                 1965 	movx	a,@dptr
   0977 FD                 1966 	mov	r5,a
   0978 EC                 1967 	mov	a,r4
   0979 C3                 1968 	clr	c
   097A 9E                 1969 	subb	a,r6
   097B FE                 1970 	mov	r6,a
   097C ED                 1971 	mov	a,r5
   097D 9F                 1972 	subb	a,r7
   097E FF                 1973 	mov	r7,a
   097F 90s00r0D           1974 	mov	dptr,#_ctrl_data
   0982 E0                 1975 	movx	a,@dptr
   0983 FB                 1976 	mov	r3,a
   0984 A3                 1977 	inc	dptr
   0985 E0                 1978 	movx	a,@dptr
   0986 FC                 1979 	mov	r4,a
   0987 A3                 1980 	inc	dptr
   0988 E0                 1981 	movx	a,@dptr
   0989 FD                 1982 	mov	r5,a
   098A C0 06              1983 	push	ar6
   098C C0 07              1984 	push	ar7
   098E 90s00r0A           1985 	mov	dptr,#_data_callback
   0991 E0                 1986 	movx	a,@dptr
   0992 C0 E0              1987 	push	acc
   0994 A3                 1988 	inc	dptr
   0995 E0                 1989 	movx	a,@dptr
   0996 C0 E0              1990 	push	acc
   0998 A3                 1991 	inc	dptr
   0999 E0                 1992 	movx	a,@dptr
   099A C0 E0              1993 	push	acc
   099C 8B 82              1994 	mov	dpl,r3
   099E 8C 83              1995 	mov	dph,r4
   09A0 8D F0              1996 	mov	b,r5
   09A2 D0 02              1997 	pop	ar2
   09A4 D0 01              1998 	pop	ar1
   09A6 D0 00              1999 	pop	ar0
   09A8 12s00r00           2000 	lcall	__sdcc_banked_call
   09AB 15 81              2001 	dec	sp
   09AD 15 81              2002 	dec	sp
   09AF 02s06r32           2003 	ljmp	00163$
   09B2                    2004 00136$:
                           2005 ;	../../../contiki-sensinode//cpu/cc253x/usb/common/usb-core.c:546: usb_send_ctrl_status();
   09B2 78r21              2006 	mov	r0,#_usb_send_ctrl_status
   09B4 79s01              2007 	mov	r1,#(_usb_send_ctrl_status >> 8)
   09B6 7As00              2008 	mov	r2,#(_usb_send_ctrl_status >> 16)
   09B8 12s00r00           2009 	lcall	__sdcc_banked_call
   09BB 02s06r32           2010 	ljmp	00163$
                           2011 ;	../../../contiki-sensinode//cpu/cc253x/usb/common/usb-core.c:554: PROCESS_END();
   09BE                    2012 00165$:
   09BE E5 81              2013 	mov	a,sp
   09C0 24 FB              2014 	add	a,#0xfb
   09C2 F8                 2015 	mov	r0,a
   09C3 86 82              2016 	mov	dpl,@r0
   09C5 08                 2017 	inc	r0
   09C6 86 83              2018 	mov	dph,@r0
   09C8 08                 2019 	inc	r0
   09C9 86 F0              2020 	mov	b,@r0
   09CB E4                 2021 	clr	a
   09CC 12s00r00           2022 	lcall	__gptrput
   09CF A3                 2023 	inc	dptr
   09D0 E4                 2024 	clr	a
   09D1 12s00r00           2025 	lcall	__gptrput
   09D4 75 82 03           2026 	mov	dpl,#0x03
   09D7                    2027 00169$:
   09D7 E5 81              2028 	mov	a,sp
   09D9 24 FA              2029 	add	a,#0xFA
   09DB F5 81              2030 	mov	sp,a
   09DD 02s00r00           2031 	ljmp	__sdcc_banked_ret
                           2032 ;------------------------------------------------------------
                           2033 ;Allocation info for local variables in function 'usb_setup'
                           2034 ;------------------------------------------------------------
                           2035 ;	../../../contiki-sensinode//cpu/cc253x/usb/common/usb-core.c:559: usb_setup(void)
                           2036 ;	-----------------------------------------
                           2037 ;	 function usb_setup
                           2038 ;	-----------------------------------------
   09E0                    2039 _usb_setup:
                           2040 ;	../../../contiki-sensinode//cpu/cc253x/usb/common/usb-core.c:561: usb_arch_setup();
   09E0 78r00              2041 	mov	r0,#_usb_arch_setup
   09E2 79s00              2042 	mov	r1,#(_usb_arch_setup >> 8)
   09E4 7As00              2043 	mov	r2,#(_usb_arch_setup >> 16)
   09E6 12s00r00           2044 	lcall	__sdcc_banked_call
                           2045 ;	../../../contiki-sensinode//cpu/cc253x/usb/common/usb-core.c:562: process_start(&usb_process, NULL);
   09E9 E4                 2046 	clr	a
   09EA C0 E0              2047 	push	acc
   09EC C0 E0              2048 	push	acc
   09EE C0 E0              2049 	push	acc
   09F0 90s00r18           2050 	mov	dptr,#_usb_process
   09F3 75 F0 00           2051 	mov	b,#0x00
   09F6 78r00              2052 	mov	r0,#_process_start
   09F8 79s00              2053 	mov	r1,#(_process_start >> 8)
   09FA 7As00              2054 	mov	r2,#(_process_start >> 16)
   09FC 12s00r00           2055 	lcall	__sdcc_banked_call
   09FF 15 81              2056 	dec	sp
   0A01 15 81              2057 	dec	sp
   0A03 15 81              2058 	dec	sp
                           2059 ;	../../../contiki-sensinode//cpu/cc253x/usb/common/usb-core.c:563: usb_arch_set_global_event_process(&usb_process);
   0A05 90s00r18           2060 	mov	dptr,#_usb_process
   0A08 75 F0 00           2061 	mov	b,#0x00
   0A0B 78r00              2062 	mov	r0,#_usb_arch_set_global_event_process
   0A0D 79s00              2063 	mov	r1,#(_usb_arch_set_global_event_process >> 8)
   0A0F 7As00              2064 	mov	r2,#(_usb_arch_set_global_event_process >> 16)
   0A11 12s00r00           2065 	lcall	__sdcc_banked_call
                           2066 ;	../../../contiki-sensinode//cpu/cc253x/usb/common/usb-core.c:564: usb_set_ep_event_process(0, &usb_process);
   0A14 74r18              2067 	mov	a,#_usb_process
   0A16 C0 E0              2068 	push	acc
   0A18 74s00              2069 	mov	a,#(_usb_process >> 8)
   0A1A C0 E0              2070 	push	acc
   0A1C E4                 2071 	clr	a
   0A1D C0 E0              2072 	push	acc
   0A1F 75 82 00           2073 	mov	dpl,#0x00
   0A22 78r00              2074 	mov	r0,#_usb_set_ep_event_process
   0A24 79s00              2075 	mov	r1,#(_usb_set_ep_event_process >> 8)
   0A26 7As00              2076 	mov	r2,#(_usb_set_ep_event_process >> 16)
   0A28 12s00r00           2077 	lcall	__sdcc_banked_call
   0A2B 15 81              2078 	dec	sp
   0A2D 15 81              2079 	dec	sp
   0A2F 15 81              2080 	dec	sp
                           2081 ;	../../../contiki-sensinode//cpu/cc253x/usb/common/usb-core.c:566: usb_register_request_handler(&standard_request_hook);
   0A31 90s00r12           2082 	mov	dptr,#_standard_request_hook
   0A34 75 F0 00           2083 	mov	b,#0x00
   0A37 78r43              2084 	mov	r0,#_usb_register_request_handler
   0A39 79s0A              2085 	mov	r1,#(_usb_register_request_handler >> 8)
   0A3B 7As00              2086 	mov	r2,#(_usb_register_request_handler >> 16)
   0A3D 12s00r00           2087 	lcall	__sdcc_banked_call
   0A40 02s00r00           2088 	ljmp	__sdcc_banked_ret
                           2089 ;------------------------------------------------------------
                           2090 ;Allocation info for local variables in function 'usb_register_request_handler'
                           2091 ;------------------------------------------------------------
                           2092 ;hook                      Allocated to stack - sp -2
                           2093 ;prevp                     Allocated to registers r2 r3 r4 
                           2094 ;------------------------------------------------------------
                           2095 ;	../../../contiki-sensinode//cpu/cc253x/usb/common/usb-core.c:570: usb_register_request_handler(struct USBRequestHandlerHook *hook)
                           2096 ;	-----------------------------------------
                           2097 ;	 function usb_register_request_handler
                           2098 ;	-----------------------------------------
   0A43                    2099 _usb_register_request_handler:
   0A43 C0 82              2100 	push	dpl
   0A45 C0 83              2101 	push	dph
   0A47 C0 F0              2102 	push	b
                           2103 ;	../../../contiki-sensinode//cpu/cc253x/usb/common/usb-core.c:572: struct USBRequestHandlerHook **prevp = &usb_request_handler_hooks;
   0A49 7Ar00              2104 	mov	r2,#_usb_request_handler_hooks
   0A4B 7Bs00              2105 	mov	r3,#(_usb_request_handler_hooks >> 8)
   0A4D 7C 00              2106 	mov	r4,#0x00
                           2107 ;	../../../contiki-sensinode//cpu/cc253x/usb/common/usb-core.c:574: while(*prevp) {
   0A4F                    2108 00101$:
   0A4F 8A 82              2109 	mov	dpl,r2
   0A51 8B 83              2110 	mov	dph,r3
   0A53 8C F0              2111 	mov	b,r4
   0A55 12s00r00           2112 	lcall	__gptrget
   0A58 FD                 2113 	mov	r5,a
   0A59 A3                 2114 	inc	dptr
   0A5A 12s00r00           2115 	lcall	__gptrget
   0A5D FE                 2116 	mov	r6,a
   0A5E A3                 2117 	inc	dptr
   0A5F 12s00r00           2118 	lcall	__gptrget
   0A62 FF                 2119 	mov	r7,a
   0A63 ED                 2120 	mov	a,r5
   0A64 4E                 2121 	orl	a,r6
   0A65 60 08              2122 	jz	00103$
                           2123 ;	../../../contiki-sensinode//cpu/cc253x/usb/common/usb-core.c:575: prevp = &(*prevp)->next;
   0A67 8D 02              2124 	mov	ar2,r5
   0A69 8E 03              2125 	mov	ar3,r6
   0A6B 8F 04              2126 	mov	ar4,r7
   0A6D 80 E0              2127 	sjmp	00101$
   0A6F                    2128 00103$:
                           2129 ;	../../../contiki-sensinode//cpu/cc253x/usb/common/usb-core.c:578: *prevp = hook;
   0A6F 8A 82              2130 	mov	dpl,r2
   0A71 8B 83              2131 	mov	dph,r3
   0A73 8C F0              2132 	mov	b,r4
   0A75 A8 81              2133 	mov	r0,sp
   0A77 18                 2134 	dec	r0
   0A78 18                 2135 	dec	r0
   0A79 E6                 2136 	mov	a,@r0
   0A7A 12s00r00           2137 	lcall	__gptrput
   0A7D A3                 2138 	inc	dptr
   0A7E 08                 2139 	inc	r0
   0A7F E6                 2140 	mov	a,@r0
   0A80 12s00r00           2141 	lcall	__gptrput
   0A83 A3                 2142 	inc	dptr
   0A84 08                 2143 	inc	r0
   0A85 E6                 2144 	mov	a,@r0
   0A86 12s00r00           2145 	lcall	__gptrput
                           2146 ;	../../../contiki-sensinode//cpu/cc253x/usb/common/usb-core.c:579: hook->next = NULL;
   0A89 A8 81              2147 	mov	r0,sp
   0A8B 18                 2148 	dec	r0
   0A8C 18                 2149 	dec	r0
   0A8D 86 82              2150 	mov	dpl,@r0
   0A8F 08                 2151 	inc	r0
   0A90 86 83              2152 	mov	dph,@r0
   0A92 08                 2153 	inc	r0
   0A93 86 F0              2154 	mov	b,@r0
   0A95 E4                 2155 	clr	a
   0A96 12s00r00           2156 	lcall	__gptrput
   0A99 A3                 2157 	inc	dptr
   0A9A E4                 2158 	clr	a
   0A9B 12s00r00           2159 	lcall	__gptrput
   0A9E A3                 2160 	inc	dptr
   0A9F E4                 2161 	clr	a
   0AA0 12s00r00           2162 	lcall	__gptrput
   0AA3 15 81              2163 	dec	sp
   0AA5 15 81              2164 	dec	sp
   0AA7 15 81              2165 	dec	sp
   0AA9 02s00r00           2166 	ljmp	__sdcc_banked_ret
                           2167 ;------------------------------------------------------------
                           2168 ;Allocation info for local variables in function 'usb_prepend_request_handler'
                           2169 ;------------------------------------------------------------
                           2170 ;hook                      Allocated to registers r5 r6 r7 
                           2171 ;------------------------------------------------------------
                           2172 ;	../../../contiki-sensinode//cpu/cc253x/usb/common/usb-core.c:583: usb_prepend_request_handler(struct USBRequestHandlerHook *hook)
                           2173 ;	-----------------------------------------
                           2174 ;	 function usb_prepend_request_handler
                           2175 ;	-----------------------------------------
   0AAC                    2176 _usb_prepend_request_handler:
   0AAC AD 82              2177 	mov	r5,dpl
   0AAE AE 83              2178 	mov	r6,dph
   0AB0 AF F0              2179 	mov	r7,b
                           2180 ;	../../../contiki-sensinode//cpu/cc253x/usb/common/usb-core.c:585: hook->next = usb_request_handler_hooks;
   0AB2 90s00r00           2181 	mov	dptr,#_usb_request_handler_hooks
   0AB5 E0                 2182 	movx	a,@dptr
   0AB6 FA                 2183 	mov	r2,a
   0AB7 A3                 2184 	inc	dptr
   0AB8 E0                 2185 	movx	a,@dptr
   0AB9 FB                 2186 	mov	r3,a
   0ABA A3                 2187 	inc	dptr
   0ABB E0                 2188 	movx	a,@dptr
   0ABC FC                 2189 	mov	r4,a
   0ABD 8D 82              2190 	mov	dpl,r5
   0ABF 8E 83              2191 	mov	dph,r6
   0AC1 8F F0              2192 	mov	b,r7
   0AC3 EA                 2193 	mov	a,r2
   0AC4 12s00r00           2194 	lcall	__gptrput
   0AC7 A3                 2195 	inc	dptr
   0AC8 EB                 2196 	mov	a,r3
   0AC9 12s00r00           2197 	lcall	__gptrput
   0ACC A3                 2198 	inc	dptr
   0ACD EC                 2199 	mov	a,r4
   0ACE 12s00r00           2200 	lcall	__gptrput
                           2201 ;	../../../contiki-sensinode//cpu/cc253x/usb/common/usb-core.c:586: usb_request_handler_hooks = hook;
   0AD1 90s00r00           2202 	mov	dptr,#_usb_request_handler_hooks
   0AD4 ED                 2203 	mov	a,r5
   0AD5 F0                 2204 	movx	@dptr,a
   0AD6 A3                 2205 	inc	dptr
   0AD7 EE                 2206 	mov	a,r6
   0AD8 F0                 2207 	movx	@dptr,a
   0AD9 A3                 2208 	inc	dptr
   0ADA EF                 2209 	mov	a,r7
   0ADB F0                 2210 	movx	@dptr,a
   0ADC 02s00r00           2211 	ljmp	__sdcc_banked_ret
                           2212 ;------------------------------------------------------------
                           2213 ;Allocation info for local variables in function 'usb_get_current_configuration'
                           2214 ;------------------------------------------------------------
                           2215 ;	../../../contiki-sensinode//cpu/cc253x/usb/common/usb-core.c:591: usb_get_current_configuration(void)
                           2216 ;	-----------------------------------------
                           2217 ;	 function usb_get_current_configuration
                           2218 ;	-----------------------------------------
   0ADF                    2219 _usb_get_current_configuration:
                           2220 ;	../../../contiki-sensinode//cpu/cc253x/usb/common/usb-core.c:593: return usb_configuration_value;
   0ADF 90s00r18           2221 	mov	dptr,#_usb_configuration_value
   0AE2 E0                 2222 	movx	a,@dptr
   0AE3 FF                 2223 	mov	r7,a
   0AE4 7E 00              2224 	mov	r6,#0x00
   0AE6 8F 82              2225 	mov	dpl,r7
   0AE8 8E 83              2226 	mov	dph,r6
   0AEA 02s00r00           2227 	ljmp	__sdcc_banked_ret
                           2228 ;------------------------------------------------------------
                           2229 ;Allocation info for local variables in function 'usb_setup_bulk_endpoint'
                           2230 ;------------------------------------------------------------
                           2231 ;addr                      Allocated to registers r7 
                           2232 ;------------------------------------------------------------
                           2233 ;	../../../contiki-sensinode//cpu/cc253x/usb/common/usb-core.c:597: usb_setup_bulk_endpoint(unsigned char addr)
                           2234 ;	-----------------------------------------
                           2235 ;	 function usb_setup_bulk_endpoint
                           2236 ;	-----------------------------------------
   0AED                    2237 _usb_setup_bulk_endpoint:
                           2238 ;	../../../contiki-sensinode//cpu/cc253x/usb/common/usb-core.c:599: usb_arch_setup_bulk_endpoint(addr);
   0AED 78r00              2239 	mov	r0,#_usb_arch_setup_bulk_endpoint
   0AEF 79s00              2240 	mov	r1,#(_usb_arch_setup_bulk_endpoint >> 8)
   0AF1 7As00              2241 	mov	r2,#(_usb_arch_setup_bulk_endpoint >> 16)
   0AF3 12s00r00           2242 	lcall	__sdcc_banked_call
   0AF6 02s00r00           2243 	ljmp	__sdcc_banked_ret
                           2244 ;------------------------------------------------------------
                           2245 ;Allocation info for local variables in function 'usb_setup_interrupt_endpoint'
                           2246 ;------------------------------------------------------------
                           2247 ;addr                      Allocated to registers r7 
                           2248 ;------------------------------------------------------------
                           2249 ;	../../../contiki-sensinode//cpu/cc253x/usb/common/usb-core.c:603: usb_setup_interrupt_endpoint(unsigned char addr)
                           2250 ;	-----------------------------------------
                           2251 ;	 function usb_setup_interrupt_endpoint
                           2252 ;	-----------------------------------------
   0AF9                    2253 _usb_setup_interrupt_endpoint:
                           2254 ;	../../../contiki-sensinode//cpu/cc253x/usb/common/usb-core.c:605: usb_arch_setup_interrupt_endpoint(addr);
   0AF9 78r00              2255 	mov	r0,#_usb_arch_setup_interrupt_endpoint
   0AFB 79s00              2256 	mov	r1,#(_usb_arch_setup_interrupt_endpoint >> 8)
   0AFD 7As00              2257 	mov	r2,#(_usb_arch_setup_interrupt_endpoint >> 16)
   0AFF 12s00r00           2258 	lcall	__sdcc_banked_call
   0B02 02s00r00           2259 	ljmp	__sdcc_banked_ret
                           2260 ;------------------------------------------------------------
                           2261 ;Allocation info for local variables in function 'usb_disable_endpoint'
                           2262 ;------------------------------------------------------------
                           2263 ;addr                      Allocated to registers r7 
                           2264 ;------------------------------------------------------------
                           2265 ;	../../../contiki-sensinode//cpu/cc253x/usb/common/usb-core.c:609: usb_disable_endpoint(uint8_t addr)
                           2266 ;	-----------------------------------------
                           2267 ;	 function usb_disable_endpoint
                           2268 ;	-----------------------------------------
   0B05                    2269 _usb_disable_endpoint:
                           2270 ;	../../../contiki-sensinode//cpu/cc253x/usb/common/usb-core.c:611: usb_arch_discard_all_buffers(addr);
   0B05 AF 82              2271 	mov  r7,dpl
   0B07 C0 07              2272 	push	ar7
   0B09 78r00              2273 	mov	r0,#_usb_arch_discard_all_buffers
   0B0B 79s00              2274 	mov	r1,#(_usb_arch_discard_all_buffers >> 8)
   0B0D 7As00              2275 	mov	r2,#(_usb_arch_discard_all_buffers >> 16)
   0B0F 12s00r00           2276 	lcall	__sdcc_banked_call
   0B12 D0 07              2277 	pop	ar7
                           2278 ;	../../../contiki-sensinode//cpu/cc253x/usb/common/usb-core.c:612: usb_arch_disable_endpoint(addr);
   0B14 8F 82              2279 	mov	dpl,r7
   0B16 78r00              2280 	mov	r0,#_usb_arch_disable_endpoint
   0B18 79s00              2281 	mov	r1,#(_usb_arch_disable_endpoint >> 8)
   0B1A 7As00              2282 	mov	r2,#(_usb_arch_disable_endpoint >> 16)
   0B1C 12s00r00           2283 	lcall	__sdcc_banked_call
   0B1F 02s00r00           2284 	ljmp	__sdcc_banked_ret
                           2285 ;------------------------------------------------------------
                           2286 ;Allocation info for local variables in function 'usb_discard_all_buffers'
                           2287 ;------------------------------------------------------------
                           2288 ;addr                      Allocated to registers r7 
                           2289 ;------------------------------------------------------------
                           2290 ;	../../../contiki-sensinode//cpu/cc253x/usb/common/usb-core.c:616: usb_discard_all_buffers(uint8_t addr)
                           2291 ;	-----------------------------------------
                           2292 ;	 function usb_discard_all_buffers
                           2293 ;	-----------------------------------------
   0B22                    2294 _usb_discard_all_buffers:
                           2295 ;	../../../contiki-sensinode//cpu/cc253x/usb/common/usb-core.c:618: usb_arch_discard_all_buffers(addr);
   0B22 78r00              2296 	mov	r0,#_usb_arch_discard_all_buffers
   0B24 79s00              2297 	mov	r1,#(_usb_arch_discard_all_buffers >> 8)
   0B26 7As00              2298 	mov	r2,#(_usb_arch_discard_all_buffers >> 16)
   0B28 12s00r00           2299 	lcall	__sdcc_banked_call
   0B2B 02s00r00           2300 	ljmp	__sdcc_banked_ret
                           2301 ;------------------------------------------------------------
                           2302 ;Allocation info for local variables in function 'usb_halt_endpoint'
                           2303 ;------------------------------------------------------------
                           2304 ;halt                      Allocated to stack - sp -4
                           2305 ;addr                      Allocated to registers r7 
                           2306 ;------------------------------------------------------------
                           2307 ;	../../../contiki-sensinode//cpu/cc253x/usb/common/usb-core.c:622: usb_halt_endpoint(uint8_t addr, int halt)
                           2308 ;	-----------------------------------------
                           2309 ;	 function usb_halt_endpoint
                           2310 ;	-----------------------------------------
   0B2E                    2311 _usb_halt_endpoint:
   0B2E AF 82              2312 	mov	r7,dpl
                           2313 ;	../../../contiki-sensinode//cpu/cc253x/usb/common/usb-core.c:624: usb_arch_halt_endpoint(addr, halt);
   0B30 E5 81              2314 	mov	a,sp
   0B32 24 FC              2315 	add	a,#0xfc
   0B34 F8                 2316 	mov	r0,a
   0B35 E6                 2317 	mov	a,@r0
   0B36 C0 E0              2318 	push	acc
   0B38 08                 2319 	inc	r0
   0B39 E6                 2320 	mov	a,@r0
   0B3A C0 E0              2321 	push	acc
   0B3C 8F 82              2322 	mov	dpl,r7
   0B3E 78r00              2323 	mov	r0,#_usb_arch_halt_endpoint
   0B40 79s00              2324 	mov	r1,#(_usb_arch_halt_endpoint >> 8)
   0B42 7As00              2325 	mov	r2,#(_usb_arch_halt_endpoint >> 16)
   0B44 12s00r00           2326 	lcall	__sdcc_banked_call
   0B47 15 81              2327 	dec	sp
   0B49 15 81              2328 	dec	sp
   0B4B 02s00r00           2329 	ljmp	__sdcc_banked_ret
                           2330 ;------------------------------------------------------------
                           2331 ;Allocation info for local variables in function 'usb_send_pending'
                           2332 ;------------------------------------------------------------
                           2333 ;addr                      Allocated to registers r7 
                           2334 ;------------------------------------------------------------
                           2335 ;	../../../contiki-sensinode//cpu/cc253x/usb/common/usb-core.c:628: usb_send_pending(uint8_t addr)
                           2336 ;	-----------------------------------------
                           2337 ;	 function usb_send_pending
                           2338 ;	-----------------------------------------
   0B4E                    2339 _usb_send_pending:
                           2340 ;	../../../contiki-sensinode//cpu/cc253x/usb/common/usb-core.c:630: return usb_arch_send_pending(addr);
   0B4E 78r00              2341 	mov	r0,#_usb_arch_send_pending
   0B50 79s00              2342 	mov	r1,#(_usb_arch_send_pending >> 8)
   0B52 7As00              2343 	mov	r2,#(_usb_arch_send_pending >> 16)
   0B54 12s00r00           2344 	lcall	__sdcc_banked_call
   0B57 AE 82              2345 	mov	r6,dpl
   0B59 AF 83              2346 	mov  r7,dph
   0B5B 02s00r00           2347 	ljmp	__sdcc_banked_ret
                           2348 	.area CSEG    (CODE)
                           2349 	.area CONST   (CODE)
   0000                    2350 _zero_byte:
   0000 00                 2351 	.db #0x00	; 0
   0001                    2352 _zero_word:
   0001 00 00              2353 	.byte #0x00,#0x00	; 0
   0003                    2354 _standard_request_handler:
   0003 00                 2355 	.db #0x00	; 0
   0004 60                 2356 	.db #0x60	; 96
   0005 00                 2357 	.db #0x00	; 0
   0006 00                 2358 	.db #0x00	; 0
   0007r17s04s00           2359 	.byte _handle_standard_requests,(_handle_standard_requests >> 8),(_handle_standard_requests >> 16)
                           2360 	.area XINIT   (CODE)
   0000                    2361 __xinit__usb_request_handler_hooks:
                           2362 ; generic printIvalPtr
   0000 00 00 00           2363 	.byte #0x00,#0x00,#0x00
   0003                    2364 __xinit__usb_flags:
   0003 00                 2365 	.db #0x00	; 0
   0004                    2366 __xinit__global_user_event_pocess:
                           2367 ; generic printIvalPtr
   0004 00 00 00           2368 	.byte #0x00,#0x00,#0x00
   0007                    2369 __xinit__global_user_events:
   0007 00 00              2370 	.byte #0x00,#0x00	; 0
   0009                    2371 __xinit__error_stall:
   0009 00                 2372 	.db #0x00	; 0
   000A                    2373 __xinit__data_callback:
   000A 00 00 00           2374 	.byte #0x00,#0x00,#0x00
   000D                    2375 __xinit__ctrl_data:
   000D 00 00 00           2376 	.byte #0x00,#0x00,#0x00
   0010                    2377 __xinit__ctrl_data_len:
   0010 00 00              2378 	.byte #0x00,#0x00	; 0
   0012                    2379 __xinit__standard_request_hook:
                           2380 ; generic printIvalPtr
   0012 00 00 00           2381 	.byte #0x00,#0x00,#0x00
   0015r03s00 80           2382 	.byte _standard_request_handler,(_standard_request_handler >> 8),#0x80
   0018                    2383 __xinit__usb_process:
                           2384 ; generic printIvalPtr
   0018 00 00 00           2385 	.byte #0x00,#0x00,#0x00
   001BrFBs05s00           2386 	.byte _process_thread_usb_process,(_process_thread_usb_process >> 8),(_process_thread_usb_process >> 16)
   001E 00 00              2387 	.byte #0x00,#0x00	; 0
   0020 00                 2388 	.db #0x00	; 0
   0021 00                 2389 	.db #0x00	; 0
                           2390 	.area CABS    (ABS,CODE)
