                              1 ;--------------------------------------------------------
                              2 ; File Created by SDCC : free open source ANSI-C Compiler
                              3 ; Version 3.1.1 #7100 (Oct 29 2014) (Linux)
                              4 ; This file was generated Wed Dec  2 18:10:50 2015
                              5 ;--------------------------------------------------------
                              6 	.module xmac
                              7 	.optsdcc -mmcs51 --model-huge
                              8 	
                              9 ;--------------------------------------------------------
                             10 ; Public variables in this module
                             11 ;--------------------------------------------------------
                             12 	.globl _xmac_driver
                             13 	.globl _memb_alloc
                             14 	.globl _memb_init
                             15 	.globl _list_item_next
                             16 	.globl _list_add
                             17 	.globl _list_head
                             18 	.globl _list_init
                             19 	.globl _queuebuf_free
                             20 	.globl _queuebuf_to_packetbuf
                             21 	.globl _queuebuf_new_from_packetbuf
                             22 	.globl _packetbuf_addr
                             23 	.globl _packetbuf_set_addr
                             24 	.globl _packetbuf_attr
                             25 	.globl _packetbuf_set_attr
                             26 	.globl _packetbuf_compact
                             27 	.globl _packetbuf_totlen
                             28 	.globl _packetbuf_hdrptr
                             29 	.globl _packetbuf_dataptr
                             30 	.globl _rimeaddr_cmp
                             31 	.globl _rimeaddr_copy
                             32 	.globl _rtimer_set
                             33 	.globl _memcpy
                             34 	.globl _watchdog_periodic
                             35 	.globl _watchdog_start
                             36 	.globl _leds_toggle
                             37 	.globl _leds_off
                             38 	.globl _leds_on
                             39 	.globl _ACTIVE
                             40 	.globl _TX_BYTE
                             41 	.globl _RX_BYTE
                             42 	.globl _ERR
                             43 	.globl _FE
                             44 	.globl _SLAVE
                             45 	.globl _RE
                             46 	.globl _MODE
                             47 	.globl _T3OVFIF
                             48 	.globl _T3CH0IF
                             49 	.globl _T3CH1IF
                             50 	.globl _T4OVFIF
                             51 	.globl _T4CH0IF
                             52 	.globl _T4CH1IF
                             53 	.globl _OVFIM
                             54 	.globl _B_0
                             55 	.globl _B_1
                             56 	.globl _B_2
                             57 	.globl _B_3
                             58 	.globl _B_4
                             59 	.globl _B_5
                             60 	.globl _B_6
                             61 	.globl _B_7
                             62 	.globl _P2IF
                             63 	.globl _UTX0IF
                             64 	.globl _UTX1IF
                             65 	.globl _P1IF
                             66 	.globl _WDTIF
                             67 	.globl _ACC_0
                             68 	.globl _ACC_1
                             69 	.globl _ACC_2
                             70 	.globl _ACC_3
                             71 	.globl _ACC_4
                             72 	.globl _ACC_5
                             73 	.globl _ACC_6
                             74 	.globl _ACC_7
                             75 	.globl _P
                             76 	.globl _F1
                             77 	.globl _OV
                             78 	.globl _RS0
                             79 	.globl _RS1
                             80 	.globl _F0
                             81 	.globl _AC
                             82 	.globl _CY
                             83 	.globl _DMAIF
                             84 	.globl _T1IF
                             85 	.globl _T2IF
                             86 	.globl _T3IF
                             87 	.globl _T4IF
                             88 	.globl _P0IF
                             89 	.globl _STIF
                             90 	.globl _DMAIE
                             91 	.globl _T1IE
                             92 	.globl _T2IE
                             93 	.globl _T3IE
                             94 	.globl _T4IE
                             95 	.globl _P0IE
                             96 	.globl _RFERRIE
                             97 	.globl _ADCIE
                             98 	.globl _URX0IE
                             99 	.globl _URX1IE
                            100 	.globl _ENCIE
                            101 	.globl _STIE
                            102 	.globl _EA
                            103 	.globl _P2_0
                            104 	.globl _P2_1
                            105 	.globl _P2_2
                            106 	.globl _P2_3
                            107 	.globl _P2_4
                            108 	.globl _P2_5
                            109 	.globl _P2_6
                            110 	.globl _P2_7
                            111 	.globl _ENCIF_0
                            112 	.globl _ENCIF_1
                            113 	.globl _P1_0
                            114 	.globl _P1_1
                            115 	.globl _P1_2
                            116 	.globl _P1_3
                            117 	.globl _P1_4
                            118 	.globl _P1_5
                            119 	.globl _P1_6
                            120 	.globl _P1_7
                            121 	.globl _IT0
                            122 	.globl _RFERRIF
                            123 	.globl _IT1
                            124 	.globl _URX0IF
                            125 	.globl _ADCIF
                            126 	.globl _URX1IF
                            127 	.globl _P0_0
                            128 	.globl _P0_1
                            129 	.globl _P0_2
                            130 	.globl _P0_3
                            131 	.globl _P0_4
                            132 	.globl _P0_5
                            133 	.globl _P0_6
                            134 	.globl _P0_7
                            135 	.globl _WDCTL
                            136 	.globl _U1GCR
                            137 	.globl _U1UCR
                            138 	.globl _U1BAUD
                            139 	.globl _U1DBUF
                            140 	.globl _U1CSR
                            141 	.globl _U0GCR
                            142 	.globl _U0UCR
                            143 	.globl _U0BAUD
                            144 	.globl _U0DBUF
                            145 	.globl _U0CSR
                            146 	.globl _TIMIF
                            147 	.globl _T4CC1
                            148 	.globl _T4CCTL1
                            149 	.globl _T4CC0
                            150 	.globl _T4CCTL0
                            151 	.globl _T4CTL
                            152 	.globl _T4CNT
                            153 	.globl _T3CC1
                            154 	.globl _T3CCTL1
                            155 	.globl _T3CC0
                            156 	.globl _T3CCTL0
                            157 	.globl _T3CTL
                            158 	.globl _T3CNT
                            159 	.globl _T2MSEL
                            160 	.globl _T2IRQM
                            161 	.globl _T2MOVF2
                            162 	.globl _T2MOVF1
                            163 	.globl _T2MOVF0
                            164 	.globl _T2M1
                            165 	.globl _T2M0
                            166 	.globl _T2IRQF
                            167 	.globl _T2EVTCFG
                            168 	.globl _T2CTRL
                            169 	.globl _T1STAT
                            170 	.globl _T1CCTL2
                            171 	.globl _T1CCTL1
                            172 	.globl _T1CCTL0
                            173 	.globl _T1CTL
                            174 	.globl _T1CNTH
                            175 	.globl _T1CNTL
                            176 	.globl _T1CC2H
                            177 	.globl _T1CC2L
                            178 	.globl _T1CC1H
                            179 	.globl _T1CC1L
                            180 	.globl _T1CC0H
                            181 	.globl _T1CC0L
                            182 	.globl _CLKCONSTA
                            183 	.globl _CLKCONCMD
                            184 	.globl _SLEEPSTA
                            185 	.globl _SLEEPCMD
                            186 	.globl _STLOAD
                            187 	.globl _ST2
                            188 	.globl _ST1
                            189 	.globl _ST0
                            190 	.globl _RFERRF
                            191 	.globl _RFIRQF0
                            192 	.globl _RFST
                            193 	.globl _RFD
                            194 	.globl _RFIRQF1
                            195 	.globl _PSBANK
                            196 	.globl _FMAP
                            197 	.globl _MEMCTR
                            198 	.globl __XPAGE
                            199 	.globl _MPAGE
                            200 	.globl _PMUX
                            201 	.globl _P2DIR
                            202 	.globl _P1DIR
                            203 	.globl _P0DIR
                            204 	.globl _P2INP
                            205 	.globl _P1INP
                            206 	.globl _P2SEL
                            207 	.globl _P1SEL
                            208 	.globl _P0SEL
                            209 	.globl _APCFG
                            210 	.globl _PERCFG
                            211 	.globl _P0INP
                            212 	.globl _P2IEN
                            213 	.globl _P1IEN
                            214 	.globl _P0IEN
                            215 	.globl _PICTL
                            216 	.globl _P2IFG
                            217 	.globl _P1IFG
                            218 	.globl _P0IFG
                            219 	.globl _DMAREQ
                            220 	.globl _DMAARM
                            221 	.globl _DMA0CFGH
                            222 	.globl _DMA0CFGL
                            223 	.globl _DMA1CFGH
                            224 	.globl _DMA1CFGL
                            225 	.globl _DMAIRQ
                            226 	.globl _ENCCS
                            227 	.globl _ENCDO
                            228 	.globl _ENCDI
                            229 	.globl _RNDH
                            230 	.globl _RNDL
                            231 	.globl _ADCH
                            232 	.globl _ADCL
                            233 	.globl _ADCCON3
                            234 	.globl _ADCCON2
                            235 	.globl _ADCCON1
                            236 	.globl _B
                            237 	.globl _IRCON2
                            238 	.globl _ACC
                            239 	.globl _PSW
                            240 	.globl _IRCON
                            241 	.globl _IP1
                            242 	.globl _IEN1
                            243 	.globl _IP0
                            244 	.globl _IEN0
                            245 	.globl _P2
                            246 	.globl _S1CON
                            247 	.globl _IEN2
                            248 	.globl _S0CON
                            249 	.globl _DPS
                            250 	.globl _P1
                            251 	.globl _TCON
                            252 	.globl _PCON
                            253 	.globl _DPH1
                            254 	.globl _DPL1
                            255 	.globl _DPH0
                            256 	.globl _DPL0
                            257 	.globl _SP
                            258 	.globl _P0
                            259 	.globl _xmac_config
                            260 	.globl _X_IEEE_ADDR
                            261 	.globl _X_INFOPAGE
                            262 	.globl _X_P2DIR
                            263 	.globl _X_P1DIR
                            264 	.globl _X_P0DIR
                            265 	.globl _X_U1GCR
                            266 	.globl _X_U1UCR
                            267 	.globl _X_U1BAUD
                            268 	.globl _X_U1DBUF
                            269 	.globl _X_U1CSR
                            270 	.globl _X_P2INP
                            271 	.globl _X_P1INP
                            272 	.globl _X_P2SEL
                            273 	.globl _X_P1SEL
                            274 	.globl _X_P0SEL
                            275 	.globl _X_APCFG
                            276 	.globl _X_PERCFG
                            277 	.globl _X_T4CC1
                            278 	.globl _X_T4CCTL1
                            279 	.globl _X_T4CC0
                            280 	.globl _X_T4CCTL0
                            281 	.globl _X_T4CTL
                            282 	.globl _X_T4CNT
                            283 	.globl _X_RFIRQF0
                            284 	.globl _X_T1CCTL2
                            285 	.globl _X_T1CCTL1
                            286 	.globl _X_T1CCTL0
                            287 	.globl _X_T1CTL
                            288 	.globl _X_T1CNTH
                            289 	.globl _X_T1CNTL
                            290 	.globl _X_RFST
                            291 	.globl _X_T1CC2H
                            292 	.globl _X_T1CC2L
                            293 	.globl _X_T1CC1H
                            294 	.globl _X_T1CC1L
                            295 	.globl _X_T1CC0H
                            296 	.globl _X_T1CC0L
                            297 	.globl _X_RFD
                            298 	.globl _X_TIMIF
                            299 	.globl _X_DMAREQ
                            300 	.globl _X_DMAARM
                            301 	.globl _X_DMA0CFGH
                            302 	.globl _X_DMA0CFGL
                            303 	.globl _X_DMA1CFGH
                            304 	.globl _X_DMA1CFGL
                            305 	.globl _X_DMAIRQ
                            306 	.globl _X_T3CC1
                            307 	.globl _X_T3CCTL1
                            308 	.globl _X_T3CC0
                            309 	.globl _X_T3CCTL0
                            310 	.globl _X_T3CTL
                            311 	.globl _X_T3CNT
                            312 	.globl _X_WDCTL
                            313 	.globl _X_MEMCTR
                            314 	.globl _X_CLKCONCMD
                            315 	.globl _X_U0GCR
                            316 	.globl _X_U0UCR
                            317 	.globl _X_T2MSEL
                            318 	.globl _X_U0BAUD
                            319 	.globl _X_U0DBUF
                            320 	.globl _X_RFERRF
                            321 	.globl _X_SLEEPCMD
                            322 	.globl _X_RNDH
                            323 	.globl _X_RNDL
                            324 	.globl _X_ADCH
                            325 	.globl _X_ADCL
                            326 	.globl _X_ADCCON3
                            327 	.globl _X_ADCCON2
                            328 	.globl _X_ADCCON1
                            329 	.globl _X_ENCCS
                            330 	.globl _X_ENCDO
                            331 	.globl _X_ENCDI
                            332 	.globl _X_T1STAT
                            333 	.globl _X_PMUX
                            334 	.globl _X_STLOAD
                            335 	.globl _X_P2IEN
                            336 	.globl _X_P0IEN
                            337 	.globl _X_T2IRQM
                            338 	.globl _X_T2MOVF2
                            339 	.globl _X_T2MOVF1
                            340 	.globl _X_T2MOVF0
                            341 	.globl _X_T2M1
                            342 	.globl _X_T2M0
                            343 	.globl _X_T2IRQF
                            344 	.globl _X_P2
                            345 	.globl _X_PSBANK
                            346 	.globl _X_FMAP
                            347 	.globl _X_CLKCONSTA
                            348 	.globl _X_SLEEPSTA
                            349 	.globl _X_T2EVTCFG
                            350 	.globl _X_ST2
                            351 	.globl _X_ST1
                            352 	.globl _X_ST0
                            353 	.globl _X_T2CTRL
                            354 	.globl _X__XPAGE
                            355 	.globl _X_MPAGE
                            356 	.globl _X_RFIRQF1
                            357 	.globl _X_P1
                            358 	.globl _X_P0INP
                            359 	.globl _X_P1IEN
                            360 	.globl _X_PICTL
                            361 	.globl _X_P2IFG
                            362 	.globl _X_P1IFG
                            363 	.globl _X_P0IFG
                            364 	.globl _X_U0CSR
                            365 	.globl _X_P0
                            366 	.globl _USBF5
                            367 	.globl _USBF4
                            368 	.globl _USBF3
                            369 	.globl _USBF2
                            370 	.globl _USBF1
                            371 	.globl _USBF0
                            372 	.globl _USBCNTH
                            373 	.globl _USBCNTL
                            374 	.globl _USBCNT0
                            375 	.globl _USBCSOH
                            376 	.globl _USBCSOL
                            377 	.globl _USBMAXO
                            378 	.globl _USBCSIH
                            379 	.globl _USBCSIL
                            380 	.globl _USBCS0
                            381 	.globl _USBMAXI
                            382 	.globl _USBCTRL
                            383 	.globl _USBINDEX
                            384 	.globl _USBFRMH
                            385 	.globl _USBFRML
                            386 	.globl _USBCIE
                            387 	.globl _USBOIE
                            388 	.globl _USBIIE
                            389 	.globl _USBCIF
                            390 	.globl _USBOIF
                            391 	.globl _USBIIF
                            392 	.globl _USBPOW
                            393 	.globl _USBADDR
                            394 	.globl _CSPT
                            395 	.globl _CSPZ
                            396 	.globl _CSPY
                            397 	.globl _CSPX
                            398 	.globl _CSPSTAT
                            399 	.globl _CSPCTRL
                            400 	.globl _CSPPROG23
                            401 	.globl _CSPPROG22
                            402 	.globl _CSPPROG21
                            403 	.globl _CSPPROG20
                            404 	.globl _CSPPROG19
                            405 	.globl _CSPPROG18
                            406 	.globl _CSPPROG17
                            407 	.globl _CSPPROG16
                            408 	.globl _CSPPROG15
                            409 	.globl _CSPPROG14
                            410 	.globl _CSPPROG13
                            411 	.globl _CSPPROG12
                            412 	.globl _CSPPROG11
                            413 	.globl _CSPPROG10
                            414 	.globl _CSPPROG9
                            415 	.globl _CSPPROG8
                            416 	.globl _CSPPROG7
                            417 	.globl _CSPPROG6
                            418 	.globl _CSPPROG5
                            419 	.globl _CSPPROG4
                            420 	.globl _CSPPROG3
                            421 	.globl _CSPPROG2
                            422 	.globl _CSPPROG1
                            423 	.globl _CSPPROG0
                            424 	.globl _RFC_OBS_CTRL2
                            425 	.globl _RFC_OBS_CTRL1
                            426 	.globl _RFC_OBS_CTRL0
                            427 	.globl _TXFILTCFG
                            428 	.globl _PTEST1
                            429 	.globl _PTEST0
                            430 	.globl _ATEST
                            431 	.globl _DACTEST2
                            432 	.globl _DACTEST1
                            433 	.globl _DACTEST0
                            434 	.globl _MDMTEST1
                            435 	.globl _MDMTEST0
                            436 	.globl _ADCTEST2
                            437 	.globl _ADCTEST1
                            438 	.globl _ADCTEST0
                            439 	.globl _AGCCTRL3
                            440 	.globl _AGCCTRL2
                            441 	.globl _AGCCTRL1
                            442 	.globl _AGCCTRL0
                            443 	.globl _FSCAL3
                            444 	.globl _FSCAL2
                            445 	.globl _FSCAL1
                            446 	.globl _FSCAL0
                            447 	.globl _FSCTRL
                            448 	.globl _RXCTRL
                            449 	.globl _FREQEST
                            450 	.globl _MDMCTRL1
                            451 	.globl _MDMCTRL0
                            452 	.globl _RFRND
                            453 	.globl _RFERRM
                            454 	.globl _RFIRQM1
                            455 	.globl _RFIRQM0
                            456 	.globl _TXLAST_PTR
                            457 	.globl _TXFIRST_PTR
                            458 	.globl _RXP1_PTR
                            459 	.globl _RXLAST_PTR
                            460 	.globl _RXFIRST_PTR
                            461 	.globl _TXFIFOCNT
                            462 	.globl _RXFIFOCNT
                            463 	.globl _RXFIRST
                            464 	.globl _RSSISTAT
                            465 	.globl _RSSI
                            466 	.globl _CCACTRL1
                            467 	.globl _CCACTRL0
                            468 	.globl _FSMCTRL
                            469 	.globl _FIFOPCTRL
                            470 	.globl _FSMSTAT1
                            471 	.globl _FSMSTAT0
                            472 	.globl _TXCTRL
                            473 	.globl _TXPOWER
                            474 	.globl _FREQCTRL
                            475 	.globl _FREQTUNE
                            476 	.globl _RXMASKCLR
                            477 	.globl _RXMASKSET
                            478 	.globl _RXENABLE
                            479 	.globl _FRMCTRL1
                            480 	.globl _FRMCTRL0
                            481 	.globl _SRCEXTEN2
                            482 	.globl _SRCEXTEN1
                            483 	.globl _SRCEXTEN0
                            484 	.globl _SRCSHORTEN2
                            485 	.globl _SRCSHORTEN1
                            486 	.globl _SRCSHORTEN0
                            487 	.globl _SRCMATCH
                            488 	.globl _FRMFILT1
                            489 	.globl _FRMFILT0
                            490 	.globl _SHORT_ADDR1
                            491 	.globl _SHORT_ADDR0
                            492 	.globl _PAN_ID1
                            493 	.globl _PAN_ID0
                            494 	.globl _EXT_ADDR7
                            495 	.globl _EXT_ADDR6
                            496 	.globl _EXT_ADDR5
                            497 	.globl _EXT_ADDR4
                            498 	.globl _EXT_ADDR3
                            499 	.globl _EXT_ADDR2
                            500 	.globl _EXT_ADDR1
                            501 	.globl _EXT_ADDR0
                            502 	.globl _SRCSHORTPENDEN2
                            503 	.globl _SRCSHORTPENDEN1
                            504 	.globl _SRCSHORTPENDEN0
                            505 	.globl _SRCEXTPENDEN2
                            506 	.globl _SRCEXTPENDEN1
                            507 	.globl _SRCEXTPENDEN0
                            508 	.globl _SRCRESINDEX
                            509 	.globl _SRCRESMASK2
                            510 	.globl _SRCRESMASK1
                            511 	.globl _SRCRESMASK0
                            512 	.globl _SRC_ADDR_TABLE
                            513 	.globl _TXFIFO
                            514 	.globl _RXFIFO
                            515 	.globl _RFCORE_RAM
                            516 	.globl _CMPCTL
                            517 	.globl _OPAMPS
                            518 	.globl _OPAMPC
                            519 	.globl _STCV2
                            520 	.globl _STCV1
                            521 	.globl _STCV0
                            522 	.globl _STCS
                            523 	.globl _STCC
                            524 	.globl _T1CC4H
                            525 	.globl _T1CC4L
                            526 	.globl _T1CC3H
                            527 	.globl _T1CC3L
                            528 	.globl _XX_T1CC2H
                            529 	.globl _XX_T1CC2L
                            530 	.globl _XX_T1CC1H
                            531 	.globl _XX_T1CC1L
                            532 	.globl _XX_T1CC0H
                            533 	.globl _XX_T1CC0L
                            534 	.globl _T1CCTL4
                            535 	.globl _T1CCTL3
                            536 	.globl _XX_T1CCTL2
                            537 	.globl _XX_T1CCTL1
                            538 	.globl _XX_T1CCTL0
                            539 	.globl _CLD
                            540 	.globl _IRCTL
                            541 	.globl _CHIPINFO1
                            542 	.globl _CHIPINFO0
                            543 	.globl _FWDATA
                            544 	.globl _FADDRH
                            545 	.globl _FADDRL
                            546 	.globl _FCTL
                            547 	.globl _IVCTRL
                            548 	.globl _BATTMON
                            549 	.globl _SRCRC
                            550 	.globl _DBGDATA
                            551 	.globl _TESTREG0
                            552 	.globl _CHIPID
                            553 	.globl _CHVER
                            554 	.globl _OBSSEL5
                            555 	.globl _OBSSEL4
                            556 	.globl _OBSSEL3
                            557 	.globl _OBSSEL2
                            558 	.globl _OBSSEL1
                            559 	.globl _OBSSEL0
                            560 	.globl _I2CIO
                            561 	.globl _I2CWC
                            562 	.globl _I2CADDR
                            563 	.globl _I2CDATA
                            564 	.globl _I2CSTAT
                            565 	.globl _I2CCFG
                            566 	.globl _OPAMPMC
                            567 	.globl _MONMUX
                            568 	.globl _xmac_set_announcement_radio_txpower
                            569 ;--------------------------------------------------------
                            570 ; special function registers
                            571 ;--------------------------------------------------------
                            572 	.area RSEG    (ABS,DATA)
   0000                     573 	.org 0x0000
                    0080    574 _P0	=	0x0080
                    0081    575 _SP	=	0x0081
                    0082    576 _DPL0	=	0x0082
                    0083    577 _DPH0	=	0x0083
                    0084    578 _DPL1	=	0x0084
                    0085    579 _DPH1	=	0x0085
                    0087    580 _PCON	=	0x0087
                    0088    581 _TCON	=	0x0088
                    0090    582 _P1	=	0x0090
                    0092    583 _DPS	=	0x0092
                    0098    584 _S0CON	=	0x0098
                    009A    585 _IEN2	=	0x009a
                    009B    586 _S1CON	=	0x009b
                    00A0    587 _P2	=	0x00a0
                    00A8    588 _IEN0	=	0x00a8
                    00A9    589 _IP0	=	0x00a9
                    00B8    590 _IEN1	=	0x00b8
                    00B9    591 _IP1	=	0x00b9
                    00C0    592 _IRCON	=	0x00c0
                    00D0    593 _PSW	=	0x00d0
                    00E0    594 _ACC	=	0x00e0
                    00E8    595 _IRCON2	=	0x00e8
                    00F0    596 _B	=	0x00f0
                    00B4    597 _ADCCON1	=	0x00b4
                    00B5    598 _ADCCON2	=	0x00b5
                    00B6    599 _ADCCON3	=	0x00b6
                    00BA    600 _ADCL	=	0x00ba
                    00BB    601 _ADCH	=	0x00bb
                    00BC    602 _RNDL	=	0x00bc
                    00BD    603 _RNDH	=	0x00bd
                    00B1    604 _ENCDI	=	0x00b1
                    00B2    605 _ENCDO	=	0x00b2
                    00B3    606 _ENCCS	=	0x00b3
                    00D1    607 _DMAIRQ	=	0x00d1
                    00D2    608 _DMA1CFGL	=	0x00d2
                    00D3    609 _DMA1CFGH	=	0x00d3
                    00D4    610 _DMA0CFGL	=	0x00d4
                    00D5    611 _DMA0CFGH	=	0x00d5
                    00D6    612 _DMAARM	=	0x00d6
                    00D7    613 _DMAREQ	=	0x00d7
                    0089    614 _P0IFG	=	0x0089
                    008A    615 _P1IFG	=	0x008a
                    008B    616 _P2IFG	=	0x008b
                    008C    617 _PICTL	=	0x008c
                    00AB    618 _P0IEN	=	0x00ab
                    008D    619 _P1IEN	=	0x008d
                    00AC    620 _P2IEN	=	0x00ac
                    008F    621 _P0INP	=	0x008f
                    00F1    622 _PERCFG	=	0x00f1
                    00F2    623 _APCFG	=	0x00f2
                    00F3    624 _P0SEL	=	0x00f3
                    00F4    625 _P1SEL	=	0x00f4
                    00F5    626 _P2SEL	=	0x00f5
                    00F6    627 _P1INP	=	0x00f6
                    00F7    628 _P2INP	=	0x00f7
                    00FD    629 _P0DIR	=	0x00fd
                    00FE    630 _P1DIR	=	0x00fe
                    00FF    631 _P2DIR	=	0x00ff
                    00AE    632 _PMUX	=	0x00ae
                    0093    633 _MPAGE	=	0x0093
                    0093    634 __XPAGE	=	0x0093
                    00C7    635 _MEMCTR	=	0x00c7
                    009F    636 _FMAP	=	0x009f
                    009F    637 _PSBANK	=	0x009f
                    0091    638 _RFIRQF1	=	0x0091
                    00D9    639 _RFD	=	0x00d9
                    00E1    640 _RFST	=	0x00e1
                    00E9    641 _RFIRQF0	=	0x00e9
                    00BF    642 _RFERRF	=	0x00bf
                    0095    643 _ST0	=	0x0095
                    0096    644 _ST1	=	0x0096
                    0097    645 _ST2	=	0x0097
                    00AD    646 _STLOAD	=	0x00ad
                    00BE    647 _SLEEPCMD	=	0x00be
                    009D    648 _SLEEPSTA	=	0x009d
                    00C6    649 _CLKCONCMD	=	0x00c6
                    009E    650 _CLKCONSTA	=	0x009e
                    00DA    651 _T1CC0L	=	0x00da
                    00DB    652 _T1CC0H	=	0x00db
                    00DC    653 _T1CC1L	=	0x00dc
                    00DD    654 _T1CC1H	=	0x00dd
                    00DE    655 _T1CC2L	=	0x00de
                    00DF    656 _T1CC2H	=	0x00df
                    00E2    657 _T1CNTL	=	0x00e2
                    00E3    658 _T1CNTH	=	0x00e3
                    00E4    659 _T1CTL	=	0x00e4
                    00E5    660 _T1CCTL0	=	0x00e5
                    00E6    661 _T1CCTL1	=	0x00e6
                    00E7    662 _T1CCTL2	=	0x00e7
                    00AF    663 _T1STAT	=	0x00af
                    0094    664 _T2CTRL	=	0x0094
                    009C    665 _T2EVTCFG	=	0x009c
                    00A1    666 _T2IRQF	=	0x00a1
                    00A2    667 _T2M0	=	0x00a2
                    00A3    668 _T2M1	=	0x00a3
                    00A4    669 _T2MOVF0	=	0x00a4
                    00A5    670 _T2MOVF1	=	0x00a5
                    00A6    671 _T2MOVF2	=	0x00a6
                    00A7    672 _T2IRQM	=	0x00a7
                    00C3    673 _T2MSEL	=	0x00c3
                    00CA    674 _T3CNT	=	0x00ca
                    00CB    675 _T3CTL	=	0x00cb
                    00CC    676 _T3CCTL0	=	0x00cc
                    00CD    677 _T3CC0	=	0x00cd
                    00CE    678 _T3CCTL1	=	0x00ce
                    00CF    679 _T3CC1	=	0x00cf
                    00EA    680 _T4CNT	=	0x00ea
                    00EB    681 _T4CTL	=	0x00eb
                    00EC    682 _T4CCTL0	=	0x00ec
                    00ED    683 _T4CC0	=	0x00ed
                    00EE    684 _T4CCTL1	=	0x00ee
                    00EF    685 _T4CC1	=	0x00ef
                    00D8    686 _TIMIF	=	0x00d8
                    0086    687 _U0CSR	=	0x0086
                    00C1    688 _U0DBUF	=	0x00c1
                    00C2    689 _U0BAUD	=	0x00c2
                    00C4    690 _U0UCR	=	0x00c4
                    00C5    691 _U0GCR	=	0x00c5
                    00F8    692 _U1CSR	=	0x00f8
                    00F9    693 _U1DBUF	=	0x00f9
                    00FA    694 _U1BAUD	=	0x00fa
                    00FB    695 _U1UCR	=	0x00fb
                    00FC    696 _U1GCR	=	0x00fc
                    00C9    697 _WDCTL	=	0x00c9
                            698 ;--------------------------------------------------------
                            699 ; special function bits
                            700 ;--------------------------------------------------------
                            701 	.area RSEG    (ABS,DATA)
   0000                     702 	.org 0x0000
                    0087    703 _P0_7	=	0x0087
                    0086    704 _P0_6	=	0x0086
                    0085    705 _P0_5	=	0x0085
                    0084    706 _P0_4	=	0x0084
                    0083    707 _P0_3	=	0x0083
                    0082    708 _P0_2	=	0x0082
                    0081    709 _P0_1	=	0x0081
                    0080    710 _P0_0	=	0x0080
                    008F    711 _URX1IF	=	0x008f
                    008D    712 _ADCIF	=	0x008d
                    008B    713 _URX0IF	=	0x008b
                    008A    714 _IT1	=	0x008a
                    0089    715 _RFERRIF	=	0x0089
                    0088    716 _IT0	=	0x0088
                    0097    717 _P1_7	=	0x0097
                    0096    718 _P1_6	=	0x0096
                    0095    719 _P1_5	=	0x0095
                    0094    720 _P1_4	=	0x0094
                    0093    721 _P1_3	=	0x0093
                    0092    722 _P1_2	=	0x0092
                    0091    723 _P1_1	=	0x0091
                    0090    724 _P1_0	=	0x0090
                    0099    725 _ENCIF_1	=	0x0099
                    0098    726 _ENCIF_0	=	0x0098
                    00A7    727 _P2_7	=	0x00a7
                    00A6    728 _P2_6	=	0x00a6
                    00A5    729 _P2_5	=	0x00a5
                    00A4    730 _P2_4	=	0x00a4
                    00A3    731 _P2_3	=	0x00a3
                    00A2    732 _P2_2	=	0x00a2
                    00A1    733 _P2_1	=	0x00a1
                    00A0    734 _P2_0	=	0x00a0
                    00AF    735 _EA	=	0x00af
                    00AD    736 _STIE	=	0x00ad
                    00AC    737 _ENCIE	=	0x00ac
                    00AB    738 _URX1IE	=	0x00ab
                    00AA    739 _URX0IE	=	0x00aa
                    00A9    740 _ADCIE	=	0x00a9
                    00A8    741 _RFERRIE	=	0x00a8
                    00BD    742 _P0IE	=	0x00bd
                    00BC    743 _T4IE	=	0x00bc
                    00BB    744 _T3IE	=	0x00bb
                    00BA    745 _T2IE	=	0x00ba
                    00B9    746 _T1IE	=	0x00b9
                    00B8    747 _DMAIE	=	0x00b8
                    00C7    748 _STIF	=	0x00c7
                    00C5    749 _P0IF	=	0x00c5
                    00C4    750 _T4IF	=	0x00c4
                    00C3    751 _T3IF	=	0x00c3
                    00C2    752 _T2IF	=	0x00c2
                    00C1    753 _T1IF	=	0x00c1
                    00C0    754 _DMAIF	=	0x00c0
                    00D7    755 _CY	=	0x00d7
                    00D6    756 _AC	=	0x00d6
                    00D5    757 _F0	=	0x00d5
                    00D4    758 _RS1	=	0x00d4
                    00D3    759 _RS0	=	0x00d3
                    00D2    760 _OV	=	0x00d2
                    00D1    761 _F1	=	0x00d1
                    00D0    762 _P	=	0x00d0
                    00E7    763 _ACC_7	=	0x00e7
                    00E6    764 _ACC_6	=	0x00e6
                    00E5    765 _ACC_5	=	0x00e5
                    00E4    766 _ACC_4	=	0x00e4
                    00E3    767 _ACC_3	=	0x00e3
                    00E2    768 _ACC_2	=	0x00e2
                    00E1    769 _ACC_1	=	0x00e1
                    00E0    770 _ACC_0	=	0x00e0
                    00EC    771 _WDTIF	=	0x00ec
                    00EB    772 _P1IF	=	0x00eb
                    00EA    773 _UTX1IF	=	0x00ea
                    00E9    774 _UTX0IF	=	0x00e9
                    00E8    775 _P2IF	=	0x00e8
                    00F7    776 _B_7	=	0x00f7
                    00F6    777 _B_6	=	0x00f6
                    00F5    778 _B_5	=	0x00f5
                    00F4    779 _B_4	=	0x00f4
                    00F3    780 _B_3	=	0x00f3
                    00F2    781 _B_2	=	0x00f2
                    00F1    782 _B_1	=	0x00f1
                    00F0    783 _B_0	=	0x00f0
                    00DE    784 _OVFIM	=	0x00de
                    00DD    785 _T4CH1IF	=	0x00dd
                    00DC    786 _T4CH0IF	=	0x00dc
                    00DB    787 _T4OVFIF	=	0x00db
                    00DA    788 _T3CH1IF	=	0x00da
                    00D9    789 _T3CH0IF	=	0x00d9
                    00D8    790 _T3OVFIF	=	0x00d8
                    00FF    791 _MODE	=	0x00ff
                    00FE    792 _RE	=	0x00fe
                    00FD    793 _SLAVE	=	0x00fd
                    00FC    794 _FE	=	0x00fc
                    00FB    795 _ERR	=	0x00fb
                    00FA    796 _RX_BYTE	=	0x00fa
                    00F9    797 _TX_BYTE	=	0x00f9
                    00F8    798 _ACTIVE	=	0x00f8
                            799 ;--------------------------------------------------------
                            800 ; overlayable register banks
                            801 ;--------------------------------------------------------
                            802 	.area REG_BANK_0	(REL,OVR,DATA)
   0000                     803 	.ds 8
                            804 ;--------------------------------------------------------
                            805 ; internal ram data
                            806 ;--------------------------------------------------------
                            807 	.area DSEG    (DATA)
                            808 ;--------------------------------------------------------
                            809 ; overlayable items in internal ram 
                            810 ;--------------------------------------------------------
                            811 	.area OSEG    (OVR,DATA)
                            812 ;--------------------------------------------------------
                            813 ; indirectly addressable internal ram data
                            814 ;--------------------------------------------------------
                            815 	.area ISEG    (DATA)
                            816 ;--------------------------------------------------------
                            817 ; absolute internal ram data
                            818 ;--------------------------------------------------------
                            819 	.area IABS    (ABS,DATA)
                            820 	.area IABS    (ABS,DATA)
                            821 ;--------------------------------------------------------
                            822 ; bit data
                            823 ;--------------------------------------------------------
                            824 	.area BSEG    (BIT)
                            825 ;--------------------------------------------------------
                            826 ; paged external ram data
                            827 ;--------------------------------------------------------
                            828 	.area PSEG    (PAG,XDATA)
                            829 ;--------------------------------------------------------
                            830 ; external ram data
                            831 ;--------------------------------------------------------
                            832 	.area XSEG    (XDATA)
                    61A6    833 _MONMUX	=	0x61a6
                    61A6    834 _OPAMPMC	=	0x61a6
                    6230    835 _I2CCFG	=	0x6230
                    6231    836 _I2CSTAT	=	0x6231
                    6232    837 _I2CDATA	=	0x6232
                    6233    838 _I2CADDR	=	0x6233
                    6234    839 _I2CWC	=	0x6234
                    6235    840 _I2CIO	=	0x6235
                    6243    841 _OBSSEL0	=	0x6243
                    6244    842 _OBSSEL1	=	0x6244
                    6245    843 _OBSSEL2	=	0x6245
                    6246    844 _OBSSEL3	=	0x6246
                    6247    845 _OBSSEL4	=	0x6247
                    6248    846 _OBSSEL5	=	0x6248
                    6249    847 _CHVER	=	0x6249
                    624A    848 _CHIPID	=	0x624a
                    624B    849 _TESTREG0	=	0x624b
                    6260    850 _DBGDATA	=	0x6260
                    6262    851 _SRCRC	=	0x6262
                    6264    852 _BATTMON	=	0x6264
                    6265    853 _IVCTRL	=	0x6265
                    6270    854 _FCTL	=	0x6270
                    6271    855 _FADDRL	=	0x6271
                    6272    856 _FADDRH	=	0x6272
                    6273    857 _FWDATA	=	0x6273
                    6276    858 _CHIPINFO0	=	0x6276
                    6277    859 _CHIPINFO1	=	0x6277
                    6281    860 _IRCTL	=	0x6281
                    6290    861 _CLD	=	0x6290
                    62A0    862 _XX_T1CCTL0	=	0x62a0
                    62A1    863 _XX_T1CCTL1	=	0x62a1
                    62A2    864 _XX_T1CCTL2	=	0x62a2
                    62A3    865 _T1CCTL3	=	0x62a3
                    62A4    866 _T1CCTL4	=	0x62a4
                    62A6    867 _XX_T1CC0L	=	0x62a6
                    62A7    868 _XX_T1CC0H	=	0x62a7
                    62A8    869 _XX_T1CC1L	=	0x62a8
                    62A9    870 _XX_T1CC1H	=	0x62a9
                    62AA    871 _XX_T1CC2L	=	0x62aa
                    62AB    872 _XX_T1CC2H	=	0x62ab
                    62AC    873 _T1CC3L	=	0x62ac
                    62AD    874 _T1CC3H	=	0x62ad
                    62AE    875 _T1CC4L	=	0x62ae
                    62AF    876 _T1CC4H	=	0x62af
                    62B0    877 _STCC	=	0x62b0
                    62B1    878 _STCS	=	0x62b1
                    62B2    879 _STCV0	=	0x62b2
                    62B3    880 _STCV1	=	0x62b3
                    62B4    881 _STCV2	=	0x62b4
                    62C0    882 _OPAMPC	=	0x62c0
                    62C1    883 _OPAMPS	=	0x62c1
                    62D0    884 _CMPCTL	=	0x62d0
                    6000    885 _RFCORE_RAM	=	0x6000
                    6000    886 _RXFIFO	=	0x6000
                    6080    887 _TXFIFO	=	0x6080
                    6100    888 _SRC_ADDR_TABLE	=	0x6100
                    6160    889 _SRCRESMASK0	=	0x6160
                    6161    890 _SRCRESMASK1	=	0x6161
                    6162    891 _SRCRESMASK2	=	0x6162
                    6163    892 _SRCRESINDEX	=	0x6163
                    6164    893 _SRCEXTPENDEN0	=	0x6164
                    6165    894 _SRCEXTPENDEN1	=	0x6165
                    6166    895 _SRCEXTPENDEN2	=	0x6166
                    6167    896 _SRCSHORTPENDEN0	=	0x6167
                    6168    897 _SRCSHORTPENDEN1	=	0x6168
                    6169    898 _SRCSHORTPENDEN2	=	0x6169
                    616A    899 _EXT_ADDR0	=	0x616a
                    616B    900 _EXT_ADDR1	=	0x616b
                    616C    901 _EXT_ADDR2	=	0x616c
                    616D    902 _EXT_ADDR3	=	0x616d
                    616E    903 _EXT_ADDR4	=	0x616e
                    616F    904 _EXT_ADDR5	=	0x616f
                    6170    905 _EXT_ADDR6	=	0x6170
                    6171    906 _EXT_ADDR7	=	0x6171
                    6172    907 _PAN_ID0	=	0x6172
                    6173    908 _PAN_ID1	=	0x6173
                    6174    909 _SHORT_ADDR0	=	0x6174
                    6175    910 _SHORT_ADDR1	=	0x6175
                    6180    911 _FRMFILT0	=	0x6180
                    6181    912 _FRMFILT1	=	0x6181
                    6182    913 _SRCMATCH	=	0x6182
                    6183    914 _SRCSHORTEN0	=	0x6183
                    6184    915 _SRCSHORTEN1	=	0x6184
                    6185    916 _SRCSHORTEN2	=	0x6185
                    6186    917 _SRCEXTEN0	=	0x6186
                    6187    918 _SRCEXTEN1	=	0x6187
                    6188    919 _SRCEXTEN2	=	0x6188
                    6189    920 _FRMCTRL0	=	0x6189
                    618A    921 _FRMCTRL1	=	0x618a
                    618B    922 _RXENABLE	=	0x618b
                    618C    923 _RXMASKSET	=	0x618c
                    618D    924 _RXMASKCLR	=	0x618d
                    618E    925 _FREQTUNE	=	0x618e
                    618F    926 _FREQCTRL	=	0x618f
                    6190    927 _TXPOWER	=	0x6190
                    6191    928 _TXCTRL	=	0x6191
                    6192    929 _FSMSTAT0	=	0x6192
                    6193    930 _FSMSTAT1	=	0x6193
                    6194    931 _FIFOPCTRL	=	0x6194
                    6195    932 _FSMCTRL	=	0x6195
                    6196    933 _CCACTRL0	=	0x6196
                    6197    934 _CCACTRL1	=	0x6197
                    6198    935 _RSSI	=	0x6198
                    6199    936 _RSSISTAT	=	0x6199
                    619A    937 _RXFIRST	=	0x619a
                    619B    938 _RXFIFOCNT	=	0x619b
                    619C    939 _TXFIFOCNT	=	0x619c
                    619D    940 _RXFIRST_PTR	=	0x619d
                    619E    941 _RXLAST_PTR	=	0x619e
                    619F    942 _RXP1_PTR	=	0x619f
                    61A1    943 _TXFIRST_PTR	=	0x61a1
                    61A2    944 _TXLAST_PTR	=	0x61a2
                    61A3    945 _RFIRQM0	=	0x61a3
                    61A4    946 _RFIRQM1	=	0x61a4
                    61A5    947 _RFERRM	=	0x61a5
                    61A7    948 _RFRND	=	0x61a7
                    61A8    949 _MDMCTRL0	=	0x61a8
                    61A9    950 _MDMCTRL1	=	0x61a9
                    61AA    951 _FREQEST	=	0x61aa
                    61AB    952 _RXCTRL	=	0x61ab
                    61AC    953 _FSCTRL	=	0x61ac
                    61AD    954 _FSCAL0	=	0x61ad
                    61AE    955 _FSCAL1	=	0x61ae
                    61AF    956 _FSCAL2	=	0x61af
                    61B0    957 _FSCAL3	=	0x61b0
                    61B1    958 _AGCCTRL0	=	0x61b1
                    61B2    959 _AGCCTRL1	=	0x61b2
                    61B3    960 _AGCCTRL2	=	0x61b3
                    61B4    961 _AGCCTRL3	=	0x61b4
                    61B5    962 _ADCTEST0	=	0x61b5
                    61B6    963 _ADCTEST1	=	0x61b6
                    61B7    964 _ADCTEST2	=	0x61b7
                    61B8    965 _MDMTEST0	=	0x61b8
                    61B9    966 _MDMTEST1	=	0x61b9
                    61BA    967 _DACTEST0	=	0x61ba
                    61BB    968 _DACTEST1	=	0x61bb
                    61BC    969 _DACTEST2	=	0x61bc
                    61BD    970 _ATEST	=	0x61bd
                    61BE    971 _PTEST0	=	0x61be
                    61BF    972 _PTEST1	=	0x61bf
                    61FA    973 _TXFILTCFG	=	0x61fa
                    61EB    974 _RFC_OBS_CTRL0	=	0x61eb
                    61EC    975 _RFC_OBS_CTRL1	=	0x61ec
                    61ED    976 _RFC_OBS_CTRL2	=	0x61ed
                    61C0    977 _CSPPROG0	=	0x61c0
                    61C1    978 _CSPPROG1	=	0x61c1
                    61C2    979 _CSPPROG2	=	0x61c2
                    61C3    980 _CSPPROG3	=	0x61c3
                    61C4    981 _CSPPROG4	=	0x61c4
                    61C5    982 _CSPPROG5	=	0x61c5
                    61C6    983 _CSPPROG6	=	0x61c6
                    61C7    984 _CSPPROG7	=	0x61c7
                    61C8    985 _CSPPROG8	=	0x61c8
                    61C9    986 _CSPPROG9	=	0x61c9
                    61CA    987 _CSPPROG10	=	0x61ca
                    61CB    988 _CSPPROG11	=	0x61cb
                    61CC    989 _CSPPROG12	=	0x61cc
                    61CD    990 _CSPPROG13	=	0x61cd
                    61CE    991 _CSPPROG14	=	0x61ce
                    61CF    992 _CSPPROG15	=	0x61cf
                    61D0    993 _CSPPROG16	=	0x61d0
                    61D1    994 _CSPPROG17	=	0x61d1
                    61D2    995 _CSPPROG18	=	0x61d2
                    61D3    996 _CSPPROG19	=	0x61d3
                    61D4    997 _CSPPROG20	=	0x61d4
                    61D5    998 _CSPPROG21	=	0x61d5
                    61D6    999 _CSPPROG22	=	0x61d6
                    61D7   1000 _CSPPROG23	=	0x61d7
                    61E0   1001 _CSPCTRL	=	0x61e0
                    61E1   1002 _CSPSTAT	=	0x61e1
                    61E2   1003 _CSPX	=	0x61e2
                    61E3   1004 _CSPY	=	0x61e3
                    61E4   1005 _CSPZ	=	0x61e4
                    61E5   1006 _CSPT	=	0x61e5
                    6200   1007 _USBADDR	=	0x6200
                    6201   1008 _USBPOW	=	0x6201
                    6202   1009 _USBIIF	=	0x6202
                    6204   1010 _USBOIF	=	0x6204
                    6206   1011 _USBCIF	=	0x6206
                    6207   1012 _USBIIE	=	0x6207
                    6209   1013 _USBOIE	=	0x6209
                    620B   1014 _USBCIE	=	0x620b
                    620C   1015 _USBFRML	=	0x620c
                    620D   1016 _USBFRMH	=	0x620d
                    620E   1017 _USBINDEX	=	0x620e
                    620F   1018 _USBCTRL	=	0x620f
                    6210   1019 _USBMAXI	=	0x6210
                    6211   1020 _USBCS0	=	0x6211
                    6211   1021 _USBCSIL	=	0x6211
                    6212   1022 _USBCSIH	=	0x6212
                    6213   1023 _USBMAXO	=	0x6213
                    6214   1024 _USBCSOL	=	0x6214
                    6215   1025 _USBCSOH	=	0x6215
                    6216   1026 _USBCNT0	=	0x6216
                    6216   1027 _USBCNTL	=	0x6216
                    6217   1028 _USBCNTH	=	0x6217
                    6220   1029 _USBF0	=	0x6220
                    6222   1030 _USBF1	=	0x6222
                    6224   1031 _USBF2	=	0x6224
                    6226   1032 _USBF3	=	0x6226
                    6228   1033 _USBF4	=	0x6228
                    622A   1034 _USBF5	=	0x622a
                    7080   1035 _X_P0	=	0x7080
                    7086   1036 _X_U0CSR	=	0x7086
                    7089   1037 _X_P0IFG	=	0x7089
                    708A   1038 _X_P1IFG	=	0x708a
                    708B   1039 _X_P2IFG	=	0x708b
                    708C   1040 _X_PICTL	=	0x708c
                    708D   1041 _X_P1IEN	=	0x708d
                    708F   1042 _X_P0INP	=	0x708f
                    7090   1043 _X_P1	=	0x7090
                    7091   1044 _X_RFIRQF1	=	0x7091
                    7093   1045 _X_MPAGE	=	0x7093
                    7093   1046 _X__XPAGE	=	0x7093
                    7094   1047 _X_T2CTRL	=	0x7094
                    7095   1048 _X_ST0	=	0x7095
                    7096   1049 _X_ST1	=	0x7096
                    7097   1050 _X_ST2	=	0x7097
                    709C   1051 _X_T2EVTCFG	=	0x709c
                    709D   1052 _X_SLEEPSTA	=	0x709d
                    709E   1053 _X_CLKCONSTA	=	0x709e
                    709F   1054 _X_FMAP	=	0x709f
                    709F   1055 _X_PSBANK	=	0x709f
                    70A0   1056 _X_P2	=	0x70a0
                    70A1   1057 _X_T2IRQF	=	0x70a1
                    70A2   1058 _X_T2M0	=	0x70a2
                    70A3   1059 _X_T2M1	=	0x70a3
                    70A4   1060 _X_T2MOVF0	=	0x70a4
                    70A5   1061 _X_T2MOVF1	=	0x70a5
                    70A6   1062 _X_T2MOVF2	=	0x70a6
                    70A7   1063 _X_T2IRQM	=	0x70a7
                    70AB   1064 _X_P0IEN	=	0x70ab
                    70AC   1065 _X_P2IEN	=	0x70ac
                    70AD   1066 _X_STLOAD	=	0x70ad
                    70AE   1067 _X_PMUX	=	0x70ae
                    70AF   1068 _X_T1STAT	=	0x70af
                    70B1   1069 _X_ENCDI	=	0x70b1
                    70B2   1070 _X_ENCDO	=	0x70b2
                    70B3   1071 _X_ENCCS	=	0x70b3
                    70B4   1072 _X_ADCCON1	=	0x70b4
                    70B5   1073 _X_ADCCON2	=	0x70b5
                    70B6   1074 _X_ADCCON3	=	0x70b6
                    70BA   1075 _X_ADCL	=	0x70ba
                    70BB   1076 _X_ADCH	=	0x70bb
                    70BC   1077 _X_RNDL	=	0x70bc
                    70BD   1078 _X_RNDH	=	0x70bd
                    70BE   1079 _X_SLEEPCMD	=	0x70be
                    70BF   1080 _X_RFERRF	=	0x70bf
                    70C1   1081 _X_U0DBUF	=	0x70c1
                    70C2   1082 _X_U0BAUD	=	0x70c2
                    70C3   1083 _X_T2MSEL	=	0x70c3
                    70C4   1084 _X_U0UCR	=	0x70c4
                    70C5   1085 _X_U0GCR	=	0x70c5
                    70C6   1086 _X_CLKCONCMD	=	0x70c6
                    70C7   1087 _X_MEMCTR	=	0x70c7
                    70C9   1088 _X_WDCTL	=	0x70c9
                    70CA   1089 _X_T3CNT	=	0x70ca
                    70CB   1090 _X_T3CTL	=	0x70cb
                    70CC   1091 _X_T3CCTL0	=	0x70cc
                    70CD   1092 _X_T3CC0	=	0x70cd
                    70CE   1093 _X_T3CCTL1	=	0x70ce
                    70CF   1094 _X_T3CC1	=	0x70cf
                    70D1   1095 _X_DMAIRQ	=	0x70d1
                    70D2   1096 _X_DMA1CFGL	=	0x70d2
                    70D3   1097 _X_DMA1CFGH	=	0x70d3
                    70D4   1098 _X_DMA0CFGL	=	0x70d4
                    70D5   1099 _X_DMA0CFGH	=	0x70d5
                    70D6   1100 _X_DMAARM	=	0x70d6
                    70D7   1101 _X_DMAREQ	=	0x70d7
                    70D8   1102 _X_TIMIF	=	0x70d8
                    70D9   1103 _X_RFD	=	0x70d9
                    70DA   1104 _X_T1CC0L	=	0x70da
                    70DB   1105 _X_T1CC0H	=	0x70db
                    70DC   1106 _X_T1CC1L	=	0x70dc
                    70DD   1107 _X_T1CC1H	=	0x70dd
                    70DE   1108 _X_T1CC2L	=	0x70de
                    70DF   1109 _X_T1CC2H	=	0x70df
                    70E1   1110 _X_RFST	=	0x70e1
                    70E2   1111 _X_T1CNTL	=	0x70e2
                    70E3   1112 _X_T1CNTH	=	0x70e3
                    70E4   1113 _X_T1CTL	=	0x70e4
                    70E5   1114 _X_T1CCTL0	=	0x70e5
                    70E6   1115 _X_T1CCTL1	=	0x70e6
                    70E7   1116 _X_T1CCTL2	=	0x70e7
                    70E9   1117 _X_RFIRQF0	=	0x70e9
                    70EA   1118 _X_T4CNT	=	0x70ea
                    70EB   1119 _X_T4CTL	=	0x70eb
                    70EC   1120 _X_T4CCTL0	=	0x70ec
                    70ED   1121 _X_T4CC0	=	0x70ed
                    70EE   1122 _X_T4CCTL1	=	0x70ee
                    70EF   1123 _X_T4CC1	=	0x70ef
                    70F1   1124 _X_PERCFG	=	0x70f1
                    70F2   1125 _X_APCFG	=	0x70f2
                    70F3   1126 _X_P0SEL	=	0x70f3
                    70F4   1127 _X_P1SEL	=	0x70f4
                    70F5   1128 _X_P2SEL	=	0x70f5
                    70F6   1129 _X_P1INP	=	0x70f6
                    70F7   1130 _X_P2INP	=	0x70f7
                    70F8   1131 _X_U1CSR	=	0x70f8
                    70F9   1132 _X_U1DBUF	=	0x70f9
                    70FA   1133 _X_U1BAUD	=	0x70fa
                    70FB   1134 _X_U1UCR	=	0x70fb
                    70FC   1135 _X_U1GCR	=	0x70fc
                    70FD   1136 _X_P0DIR	=	0x70fd
                    70FE   1137 _X_P1DIR	=	0x70fe
                    70FF   1138 _X_P2DIR	=	0x70ff
                    7800   1139 _X_INFOPAGE	=	0x7800
                    780C   1140 _X_IEEE_ADDR	=	0x780c
   0000                    1141 _rt:
   0000                    1142 	.ds 8
   0008                    1143 _pt:
   0008                    1144 	.ds 2
   000A                    1145 _is_listening:
   000A                    1146 	.ds 1
   000B                    1147 _encounter_memb_memb_count:
   000B                    1148 	.ds 4
   000F                    1149 _encounter_memb_memb_mem:
   000F                    1150 	.ds 52
   0043                    1151 _is_streaming:
   0043                    1152 	.ds 1
   0044                    1153 _is_streaming_to:
   0044                    1154 	.ds 8
   004C                    1155 _is_streaming_to_too:
   004C                    1156 	.ds 8
   0054                    1157 _stream_until:
   0054                    1158 	.ds 2
   0056                    1159 _received_seqnos:
   0056                    1160 	.ds 72
                           1161 ;--------------------------------------------------------
                           1162 ; absolute external ram data
                           1163 ;--------------------------------------------------------
                           1164 	.area XABS    (ABS,XDATA)
                           1165 ;--------------------------------------------------------
                           1166 ; external initialized ram data
                           1167 ;--------------------------------------------------------
                           1168 	.area XISEG   (XDATA)
   0000                    1169 _xmac_config::
   0000                    1170 	.ds 8
   0008                    1171 _xmac_is_on:
   0008                    1172 	.ds 1
   0009                    1173 _waiting_for_packet:
   0009                    1174 	.ds 1
   000A                    1175 _someone_is_sending:
   000A                    1176 	.ds 1
   000B                    1177 _we_are_sending:
   000B                    1178 	.ds 1
   000C                    1179 _radio_is_on:
   000C                    1180 	.ds 1
   000D                    1181 _encounter_list_list:
   000D                    1182 	.ds 3
   0010                    1183 _encounter_list:
   0010                    1184 	.ds 3
   0013                    1185 _encounter_memb:
   0013                    1186 	.ds 10
                           1187 	.area HOME    (CODE)
                           1188 	.area GSINIT0 (CODE)
                           1189 	.area GSINIT1 (CODE)
                           1190 	.area GSINIT2 (CODE)
                           1191 	.area GSINIT3 (CODE)
                           1192 	.area GSINIT4 (CODE)
                           1193 	.area GSINIT5 (CODE)
                           1194 	.area GSINIT  (CODE)
                           1195 	.area GSFINAL (CODE)
                           1196 	.area CSEG    (CODE)
                           1197 ;--------------------------------------------------------
                           1198 ; global & static initialisations
                           1199 ;--------------------------------------------------------
                           1200 	.area HOME    (CODE)
                           1201 	.area GSINIT  (CODE)
                           1202 	.area GSFINAL (CODE)
                           1203 	.area GSINIT  (CODE)
                           1204 ;--------------------------------------------------------
                           1205 ; Home
                           1206 ;--------------------------------------------------------
                           1207 	.area HOME    (CODE)
                           1208 	.area HOME    (CODE)
                           1209 ;--------------------------------------------------------
                           1210 ; code
                           1211 ;--------------------------------------------------------
                           1212 	.area BANK1   (CODE)
                           1213 ;------------------------------------------------------------
                           1214 ;Allocation info for local variables in function 'on'
                           1215 ;------------------------------------------------------------
                           1216 ;	../../../contiki-sensinode//core/net/mac/xmac.c:233: on(void)
                           1217 ;	-----------------------------------------
                           1218 ;	 function on
                           1219 ;	-----------------------------------------
   0000                    1220 _on:
                    0007   1221 	ar7 = 0x07
                    0006   1222 	ar6 = 0x06
                    0005   1223 	ar5 = 0x05
                    0004   1224 	ar4 = 0x04
                    0003   1225 	ar3 = 0x03
                    0002   1226 	ar2 = 0x02
                    0001   1227 	ar1 = 0x01
                    0000   1228 	ar0 = 0x00
                           1229 ;	../../../contiki-sensinode//core/net/mac/xmac.c:235: if(xmac_is_on && radio_is_on == 0) {
   0000 90s00r08           1230 	mov	dptr,#_xmac_is_on
   0003 E0                 1231 	movx	a,@dptr
   0004 FF                 1232 	mov	r7,a
   0005 60 36              1233 	jz	00104$
   0007 90s00r0C           1234 	mov	dptr,#_radio_is_on
   000A E0                 1235 	movx	a,@dptr
   000B FF                 1236 	mov	r7,a
   000C 70 2F              1237 	jnz	00104$
                           1238 ;	../../../contiki-sensinode//core/net/mac/xmac.c:236: radio_is_on = 1;
   000E 90s00r0C           1239 	mov	dptr,#_radio_is_on
   0011 74 01              1240 	mov	a,#0x01
   0013 F0                 1241 	movx	@dptr,a
                           1242 ;	../../../contiki-sensinode//core/net/mac/xmac.c:237: NETSTACK_RADIO.on();
   0014 90s00r18           1243 	mov	dptr,#(_cc2530_rf_driver + 0x0018)
   0017 E4                 1244 	clr	a
   0018 93                 1245 	movc	a,@a+dptr
   0019 FD                 1246 	mov	r5,a
   001A A3                 1247 	inc	dptr
   001B E4                 1248 	clr	a
   001C 93                 1249 	movc	a,@a+dptr
   001D FE                 1250 	mov	r6,a
   001E A3                 1251 	inc	dptr
   001F E4                 1252 	clr	a
   0020 93                 1253 	movc	a,@a+dptr
   0021 FF                 1254 	mov	r7,a
   0022 C0 07              1255 	push	ar7
   0024 C0 06              1256 	push	ar6
   0026 C0 05              1257 	push	ar5
   0028 C0 05              1258 	push	ar5
   002A C0 06              1259 	push	ar6
   002C C0 07              1260 	push	ar7
   002E D0 02              1261 	pop	ar2
   0030 D0 01              1262 	pop	ar1
   0032 D0 00              1263 	pop	ar0
   0034 12s00r00           1264 	lcall	__sdcc_banked_call
   0037 D0 05              1265 	pop	ar5
   0039 D0 06              1266 	pop	ar6
   003B D0 07              1267 	pop	ar7
   003D                    1268 00104$:
   003D 02s00r00           1269 	ljmp	__sdcc_banked_ret
                           1270 ;------------------------------------------------------------
                           1271 ;Allocation info for local variables in function 'off'
                           1272 ;------------------------------------------------------------
                           1273 ;	../../../contiki-sensinode//core/net/mac/xmac.c:243: off(void)
                           1274 ;	-----------------------------------------
                           1275 ;	 function off
                           1276 ;	-----------------------------------------
   0040                    1277 _off:
                           1278 ;	../../../contiki-sensinode//core/net/mac/xmac.c:245: if(xmac_is_on && radio_is_on != 0 && is_listening == 0 &&
   0040 90s00r08           1279 	mov	dptr,#_xmac_is_on
   0043 E0                 1280 	movx	a,@dptr
   0044 FF                 1281 	mov	r7,a
   0045 60 43              1282 	jz	00106$
   0047 90s00r0C           1283 	mov	dptr,#_radio_is_on
   004A E0                 1284 	movx	a,@dptr
   004B FF                 1285 	mov	r7,a
   004C 60 3C              1286 	jz	00106$
   004E 90s00r0A           1287 	mov	dptr,#_is_listening
   0051 E0                 1288 	movx	a,@dptr
   0052 FF                 1289 	mov	r7,a
   0053 70 35              1290 	jnz	00106$
                           1291 ;	../../../contiki-sensinode//core/net/mac/xmac.c:246: is_streaming == 0) {
   0055 90s00r43           1292 	mov	dptr,#_is_streaming
   0058 E0                 1293 	movx	a,@dptr
   0059 FF                 1294 	mov	r7,a
   005A 70 2E              1295 	jnz	00106$
                           1296 ;	../../../contiki-sensinode//core/net/mac/xmac.c:247: radio_is_on = 0;
   005C 90s00r0C           1297 	mov	dptr,#_radio_is_on
   005F E4                 1298 	clr	a
   0060 F0                 1299 	movx	@dptr,a
                           1300 ;	../../../contiki-sensinode//core/net/mac/xmac.c:248: NETSTACK_RADIO.off();
   0061 90s00r1B           1301 	mov	dptr,#(_cc2530_rf_driver + 0x001b)
   0064 E4                 1302 	clr	a
   0065 93                 1303 	movc	a,@a+dptr
   0066 FD                 1304 	mov	r5,a
   0067 A3                 1305 	inc	dptr
   0068 E4                 1306 	clr	a
   0069 93                 1307 	movc	a,@a+dptr
   006A FE                 1308 	mov	r6,a
   006B A3                 1309 	inc	dptr
   006C E4                 1310 	clr	a
   006D 93                 1311 	movc	a,@a+dptr
   006E FF                 1312 	mov	r7,a
   006F C0 07              1313 	push	ar7
   0071 C0 06              1314 	push	ar6
   0073 C0 05              1315 	push	ar5
   0075 C0 05              1316 	push	ar5
   0077 C0 06              1317 	push	ar6
   0079 C0 07              1318 	push	ar7
   007B D0 02              1319 	pop	ar2
   007D D0 01              1320 	pop	ar1
   007F D0 00              1321 	pop	ar0
   0081 12s00r00           1322 	lcall	__sdcc_banked_call
   0084 D0 05              1323 	pop	ar5
   0086 D0 06              1324 	pop	ar6
   0088 D0 07              1325 	pop	ar7
   008A                    1326 00106$:
   008A 02s00r00           1327 	ljmp	__sdcc_banked_ret
                           1328 ;------------------------------------------------------------
                           1329 ;Allocation info for local variables in function 'schedule_powercycle'
                           1330 ;------------------------------------------------------------
                           1331 ;time                      Allocated to stack - sp -7
                           1332 ;t                         Allocated to stack - sp -2
                           1333 ;r                         Allocated to registers 
                           1334 ;------------------------------------------------------------
                           1335 ;	../../../contiki-sensinode//core/net/mac/xmac.c:255: schedule_powercycle(struct rtimer *t, rtimer_clock_t time)
                           1336 ;	-----------------------------------------
                           1337 ;	 function schedule_powercycle
                           1338 ;	-----------------------------------------
   008D                    1339 _schedule_powercycle:
   008D C0 82              1340 	push	dpl
   008F C0 83              1341 	push	dph
   0091 C0 F0              1342 	push	b
                           1343 ;	../../../contiki-sensinode//core/net/mac/xmac.c:258: if(xmac_is_on) {
   0093 90s00r08           1344 	mov	dptr,#_xmac_is_on
   0096 E0                 1345 	movx	a,@dptr
   0097 FC                 1346 	mov	r4,a
   0098 60 5B              1347 	jz	00103$
                           1348 ;	../../../contiki-sensinode//core/net/mac/xmac.c:260: (void (*)(struct rtimer *, void *))powercycle, NULL);
   009A 7Ar32              1349 	mov	r2,#_powercycle
   009C 7Bs01              1350 	mov	r3,#(_powercycle >> 8)
   009E 7Cs00              1351 	mov	r4,#(_powercycle >> 16)
                           1352 ;	../../../contiki-sensinode//core/net/mac/xmac.c:259: r = rtimer_set(t, RTIMER_TIME(t) + time, 1,
   00A0 A8 81              1353 	mov	r0,sp
   00A2 18                 1354 	dec	r0
   00A3 18                 1355 	dec	r0
   00A4 86 82              1356 	mov	dpl,@r0
   00A6 08                 1357 	inc	r0
   00A7 86 83              1358 	mov	dph,@r0
   00A9 08                 1359 	inc	r0
   00AA 86 F0              1360 	mov	b,@r0
   00AC 12s00r00           1361 	lcall	__gptrget
   00AF FE                 1362 	mov	r6,a
   00B0 A3                 1363 	inc	dptr
   00B1 12s00r00           1364 	lcall	__gptrget
   00B4 FF                 1365 	mov	r7,a
   00B5 E5 81              1366 	mov	a,sp
   00B7 24 F9              1367 	add	a,#0xf9
   00B9 F8                 1368 	mov	r0,a
   00BA E6                 1369 	mov	a,@r0
   00BB 2E                 1370 	add	a,r6
   00BC FE                 1371 	mov	r6,a
   00BD 08                 1372 	inc	r0
   00BE E6                 1373 	mov	a,@r0
   00BF 3F                 1374 	addc	a,r7
   00C0 FF                 1375 	mov	r7,a
   00C1 E4                 1376 	clr	a
   00C2 C0 E0              1377 	push	acc
   00C4 C0 E0              1378 	push	acc
   00C6 C0 E0              1379 	push	acc
   00C8 C0 02              1380 	push	ar2
   00CA C0 03              1381 	push	ar3
   00CC C0 04              1382 	push	ar4
   00CE 74 01              1383 	mov	a,#0x01
   00D0 C0 E0              1384 	push	acc
   00D2 E4                 1385 	clr	a
   00D3 C0 E0              1386 	push	acc
   00D5 C0 06              1387 	push	ar6
   00D7 C0 07              1388 	push	ar7
   00D9 E5 81              1389 	mov	a,sp
   00DB 24 F4              1390 	add	a,#0xf4
   00DD F8                 1391 	mov	r0,a
   00DE 86 82              1392 	mov	dpl,@r0
   00E0 08                 1393 	inc	r0
   00E1 86 83              1394 	mov	dph,@r0
   00E3 08                 1395 	inc	r0
   00E4 86 F0              1396 	mov	b,@r0
   00E6 78r00              1397 	mov	r0,#_rtimer_set
   00E8 79s00              1398 	mov	r1,#(_rtimer_set >> 8)
   00EA 7As00              1399 	mov	r2,#(_rtimer_set >> 16)
   00EC 12s00r00           1400 	lcall	__sdcc_banked_call
   00EF E5 81              1401 	mov	a,sp
   00F1 24 F6              1402 	add	a,#0xf6
   00F3 F5 81              1403 	mov	sp,a
                           1404 ;	../../../contiki-sensinode//core/net/mac/xmac.c:261: if(r) {
   00F5                    1405 00103$:
   00F5 15 81              1406 	dec	sp
   00F7 15 81              1407 	dec	sp
   00F9 15 81              1408 	dec	sp
   00FB 02s00r00           1409 	ljmp	__sdcc_banked_ret
                           1410 ;------------------------------------------------------------
                           1411 ;Allocation info for local variables in function 'powercycle_turn_radio_off'
                           1412 ;------------------------------------------------------------
                           1413 ;	../../../contiki-sensinode//core/net/mac/xmac.c:267: powercycle_turn_radio_off(void)
                           1414 ;	-----------------------------------------
                           1415 ;	 function powercycle_turn_radio_off
                           1416 ;	-----------------------------------------
   00FE                    1417 _powercycle_turn_radio_off:
                           1418 ;	../../../contiki-sensinode//core/net/mac/xmac.c:269: if(we_are_sending == 0 &&
   00FE 90s00r0B           1419 	mov	dptr,#_we_are_sending
   0101 E0                 1420 	movx	a,@dptr
   0102 FF                 1421 	mov	r7,a
   0103 70 10              1422 	jnz	00104$
                           1423 ;	../../../contiki-sensinode//core/net/mac/xmac.c:270: waiting_for_packet == 0) {
   0105 90s00r09           1424 	mov	dptr,#_waiting_for_packet
   0108 E0                 1425 	movx	a,@dptr
   0109 FF                 1426 	mov	r7,a
   010A 70 09              1427 	jnz	00104$
                           1428 ;	../../../contiki-sensinode//core/net/mac/xmac.c:271: off();
   010C 78r40              1429 	mov	r0,#_off
   010E 79s00              1430 	mov	r1,#(_off >> 8)
   0110 7As00              1431 	mov	r2,#(_off >> 16)
   0112 12s00r00           1432 	lcall	__sdcc_banked_call
   0115                    1433 00104$:
   0115 02s00r00           1434 	ljmp	__sdcc_banked_ret
                           1435 ;------------------------------------------------------------
                           1436 ;Allocation info for local variables in function 'powercycle_turn_radio_on'
                           1437 ;------------------------------------------------------------
                           1438 ;	../../../contiki-sensinode//core/net/mac/xmac.c:278: powercycle_turn_radio_on(void)
                           1439 ;	-----------------------------------------
                           1440 ;	 function powercycle_turn_radio_on
                           1441 ;	-----------------------------------------
   0118                    1442 _powercycle_turn_radio_on:
                           1443 ;	../../../contiki-sensinode//core/net/mac/xmac.c:280: if(we_are_sending == 0 &&
   0118 90s00r0B           1444 	mov	dptr,#_we_are_sending
   011B E0                 1445 	movx	a,@dptr
   011C FF                 1446 	mov	r7,a
   011D 70 10              1447 	jnz	00104$
                           1448 ;	../../../contiki-sensinode//core/net/mac/xmac.c:281: waiting_for_packet == 0) {
   011F 90s00r09           1449 	mov	dptr,#_waiting_for_packet
   0122 E0                 1450 	movx	a,@dptr
   0123 FF                 1451 	mov	r7,a
   0124 70 09              1452 	jnz	00104$
                           1453 ;	../../../contiki-sensinode//core/net/mac/xmac.c:282: on();
   0126 78r00              1454 	mov	r0,#_on
   0128 79s00              1455 	mov	r1,#(_on >> 8)
   012A 7As00              1456 	mov	r2,#(_on >> 16)
   012C 12s00r00           1457 	lcall	__sdcc_banked_call
   012F                    1458 00104$:
   012F 02s00r00           1459 	ljmp	__sdcc_banked_ret
                           1460 ;------------------------------------------------------------
                           1461 ;Allocation info for local variables in function 'powercycle'
                           1462 ;------------------------------------------------------------
                           1463 ;ptr                       Allocated to stack - sp -5
                           1464 ;t                         Allocated to registers r5 r6 r7 
                           1465 ;PT_YIELD_FLAG             Allocated to registers r4 
                           1466 ;------------------------------------------------------------
                           1467 ;	../../../contiki-sensinode//core/net/mac/xmac.c:286: powercycle(struct rtimer *t, void *ptr)
                           1468 ;	-----------------------------------------
                           1469 ;	 function powercycle
                           1470 ;	-----------------------------------------
   0132                    1471 _powercycle:
   0132 AD 82              1472 	mov	r5,dpl
   0134 AE 83              1473 	mov	r6,dph
   0136 AF F0              1474 	mov	r7,b
                           1475 ;	../../../contiki-sensinode//core/net/mac/xmac.c:288: if(is_streaming) {
   0138 90s00r43           1476 	mov	dptr,#_is_streaming
   013B E0                 1477 	movx	a,@dptr
   013C FC                 1478 	mov	r4,a
   013D 70 03              1479 	jnz	00159$
   013F 02s01rC0           1480 	ljmp	00104$
   0142                    1481 00159$:
                           1482 ;	../../../contiki-sensinode//core/net/mac/xmac.c:289: if(!RTIMER_CLOCK_LT(RTIMER_NOW(), stream_until)) {
   0142 C0 05              1483 	push	ar5
   0144 C0 06              1484 	push	ar6
   0146 C0 07              1485 	push	ar7
   0148 AB E2              1486 	mov	r3,_T1CNTL
   014A 7C 00              1487 	mov	r4,#0x00
   014C AA E3              1488 	mov	r2,_T1CNTH
   014E 8A 07              1489 	mov	ar7,r2
   0150 E4                 1490 	clr	a
   0151 FA                 1491 	mov	r2,a
   0152 2B                 1492 	add	a,r3
   0153 FB                 1493 	mov	r3,a
   0154 EF                 1494 	mov	a,r7
   0155 3C                 1495 	addc	a,r4
   0156 FC                 1496 	mov	r4,a
   0157 90s00r54           1497 	mov	dptr,#_stream_until
   015A E0                 1498 	movx	a,@dptr
   015B FE                 1499 	mov	r6,a
   015C A3                 1500 	inc	dptr
   015D E0                 1501 	movx	a,@dptr
   015E FF                 1502 	mov	r7,a
   015F EB                 1503 	mov	a,r3
   0160 C3                 1504 	clr	c
   0161 9E                 1505 	subb	a,r6
   0162 EC                 1506 	mov	a,r4
   0163 9F                 1507 	subb	a,r7
   0164 D0 07              1508 	pop	ar7
   0166 D0 06              1509 	pop	ar6
   0168 D0 05              1510 	pop	ar5
   016A 20 E7 53           1511 	jb	acc.7,00104$
                           1512 ;	../../../contiki-sensinode//core/net/mac/xmac.c:290: is_streaming = 0;
   016D 90s00r43           1513 	mov	dptr,#_is_streaming
   0170 E4                 1514 	clr	a
   0171 F0                 1515 	movx	@dptr,a
                           1516 ;	../../../contiki-sensinode//core/net/mac/xmac.c:291: rimeaddr_copy(&is_streaming_to, &rimeaddr_null);
   0172 C0 07              1517 	push	ar7
   0174 C0 06              1518 	push	ar6
   0176 C0 05              1519 	push	ar5
   0178 74r00              1520 	mov	a,#_rimeaddr_null
   017A C0 E0              1521 	push	acc
   017C 74s00              1522 	mov	a,#(_rimeaddr_null >> 8)
   017E C0 E0              1523 	push	acc
   0180 74 80              1524 	mov	a,#0x80
   0182 C0 E0              1525 	push	acc
   0184 90s00r44           1526 	mov	dptr,#_is_streaming_to
   0187 75 F0 00           1527 	mov	b,#0x00
   018A 78r00              1528 	mov	r0,#_rimeaddr_copy
   018C 79s00              1529 	mov	r1,#(_rimeaddr_copy >> 8)
   018E 7As00              1530 	mov	r2,#(_rimeaddr_copy >> 16)
   0190 12s00r00           1531 	lcall	__sdcc_banked_call
   0193 15 81              1532 	dec	sp
   0195 15 81              1533 	dec	sp
   0197 15 81              1534 	dec	sp
                           1535 ;	../../../contiki-sensinode//core/net/mac/xmac.c:292: rimeaddr_copy(&is_streaming_to_too, &rimeaddr_null);
   0199 74r00              1536 	mov	a,#_rimeaddr_null
   019B C0 E0              1537 	push	acc
   019D 74s00              1538 	mov	a,#(_rimeaddr_null >> 8)
   019F C0 E0              1539 	push	acc
   01A1 74 80              1540 	mov	a,#0x80
   01A3 C0 E0              1541 	push	acc
   01A5 90s00r4C           1542 	mov	dptr,#_is_streaming_to_too
   01A8 75 F0 00           1543 	mov	b,#0x00
   01AB 78r00              1544 	mov	r0,#_rimeaddr_copy
   01AD 79s00              1545 	mov	r1,#(_rimeaddr_copy >> 8)
   01AF 7As00              1546 	mov	r2,#(_rimeaddr_copy >> 16)
   01B1 12s00r00           1547 	lcall	__sdcc_banked_call
   01B4 15 81              1548 	dec	sp
   01B6 15 81              1549 	dec	sp
   01B8 15 81              1550 	dec	sp
   01BA D0 05              1551 	pop	ar5
   01BC D0 06              1552 	pop	ar6
   01BE D0 07              1553 	pop	ar7
   01C0                    1554 00104$:
                           1555 ;	../../../contiki-sensinode//core/net/mac/xmac.c:296: PT_BEGIN(&pt);
   01C0 7C 01              1556 	mov	r4,#0x01
   01C2 90s00r08           1557 	mov	dptr,#_pt
   01C5 E0                 1558 	movx	a,@dptr
   01C6 FA                 1559 	mov	r2,a
   01C7 A3                 1560 	inc	dptr
   01C8 E0                 1561 	movx	a,@dptr
   01C9 FB                 1562 	mov	r3,a
   01CA BA 00 05           1563 	cjne	r2,#0x00,00161$
   01CD BB 00 02           1564 	cjne	r3,#0x00,00161$
   01D0 80 14              1565 	sjmp	00128$
   01D2                    1566 00161$:
   01D2 BA 33 05           1567 	cjne	r2,#0x33,00162$
   01D5 BB 01 02           1568 	cjne	r3,#0x01,00162$
   01D8 80 68              1569 	sjmp	00108$
   01DA                    1570 00162$:
   01DA BA 42 06           1571 	cjne	r2,#0x42,00163$
   01DD BB 01 03           1572 	cjne	r3,#0x01,00163$
   01E0 02s03r13           1573 	ljmp	00118$
   01E3                    1574 00163$:
   01E3 02s03r1E           1575 	ljmp	00130$
                           1576 ;	../../../contiki-sensinode//core/net/mac/xmac.c:298: while(1) {
   01E6                    1577 00128$:
                           1578 ;	../../../contiki-sensinode//core/net/mac/xmac.c:300: if(someone_is_sending > 0) {
   01E6 90s00r0A           1579 	mov	dptr,#_someone_is_sending
   01E9 E0                 1580 	movx	a,@dptr
   01EA FB                 1581 	mov	r3,a
   01EB 60 09              1582 	jz	00107$
                           1583 ;	../../../contiki-sensinode//core/net/mac/xmac.c:301: someone_is_sending--;
   01ED 90s00r0A           1584 	mov	dptr,#_someone_is_sending
   01F0 E0                 1585 	movx	a,@dptr
   01F1 14                 1586 	dec	a
   01F2 90s00r0A           1587 	mov	dptr,#_someone_is_sending
   01F5 F0                 1588 	movx	@dptr,a
   01F6                    1589 00107$:
                           1590 ;	../../../contiki-sensinode//core/net/mac/xmac.c:305: powercycle_turn_radio_on();
   01F6 C0 07              1591 	push	ar7
   01F8 C0 06              1592 	push	ar6
   01FA C0 05              1593 	push	ar5
   01FC 78r18              1594 	mov	r0,#_powercycle_turn_radio_on
   01FE 79s01              1595 	mov	r1,#(_powercycle_turn_radio_on >> 8)
   0200 7As00              1596 	mov	r2,#(_powercycle_turn_radio_on >> 16)
   0202 12s00r00           1597 	lcall	__sdcc_banked_call
   0205 D0 05              1598 	pop	ar5
   0207 D0 06              1599 	pop	ar6
   0209 D0 07              1600 	pop	ar7
                           1601 ;	../../../contiki-sensinode//core/net/mac/xmac.c:306: schedule_powercycle(t, xmac_config.on_time);
   020B 90s00r00           1602 	mov	dptr,#_xmac_config
   020E E0                 1603 	movx	a,@dptr
   020F FA                 1604 	mov	r2,a
   0210 A3                 1605 	inc	dptr
   0211 E0                 1606 	movx	a,@dptr
   0212 FB                 1607 	mov	r3,a
   0213 C0 07              1608 	push	ar7
   0215 C0 06              1609 	push	ar6
   0217 C0 05              1610 	push	ar5
   0219 C0 02              1611 	push	ar2
   021B C0 03              1612 	push	ar3
   021D 8D 82              1613 	mov	dpl,r5
   021F 8E 83              1614 	mov	dph,r6
   0221 8F F0              1615 	mov	b,r7
   0223 78r8D              1616 	mov	r0,#_schedule_powercycle
   0225 79s00              1617 	mov	r1,#(_schedule_powercycle >> 8)
   0227 7As00              1618 	mov	r2,#(_schedule_powercycle >> 16)
   0229 12s00r00           1619 	lcall	__sdcc_banked_call
   022C 15 81              1620 	dec	sp
   022E 15 81              1621 	dec	sp
   0230 D0 05              1622 	pop	ar5
   0232 D0 06              1623 	pop	ar6
   0234 D0 07              1624 	pop	ar7
                           1625 ;	../../../contiki-sensinode//core/net/mac/xmac.c:307: PT_YIELD(&pt);
   0236 7C 00              1626 	mov	r4,#0x00
   0238 90s00r08           1627 	mov	dptr,#_pt
   023B 74 33              1628 	mov	a,#0x33
   023D F0                 1629 	movx	@dptr,a
   023E A3                 1630 	inc	dptr
   023F 74 01              1631 	mov	a,#0x01
   0241 F0                 1632 	movx	@dptr,a
   0242                    1633 00108$:
   0242 EC                 1634 	mov	a,r4
   0243 70 06              1635 	jnz	00112$
   0245 75 82 01           1636 	mov	dpl,#0x01
   0248 02s03r28           1637 	ljmp	00131$
   024B                    1638 00112$:
                           1639 ;	../../../contiki-sensinode//core/net/mac/xmac.c:309: if(xmac_config.off_time > 0 && !NETSTACK_RADIO.receiving_packet()) {
   024B 90s00r02           1640 	mov	dptr,#(_xmac_config + 0x0002)
   024E E0                 1641 	movx	a,@dptr
   024F FA                 1642 	mov	r2,a
   0250 A3                 1643 	inc	dptr
   0251 E0                 1644 	movx	a,@dptr
   0252 FB                 1645 	mov	r3,a
   0253 4A                 1646 	orl	a,r2
   0254 60 90              1647 	jz	00128$
   0256 C0 05              1648 	push	ar5
   0258 C0 06              1649 	push	ar6
   025A C0 07              1650 	push	ar7
   025C 90s00r12           1651 	mov	dptr,#(_cc2530_rf_driver + 0x0012)
   025F E4                 1652 	clr	a
   0260 93                 1653 	movc	a,@a+dptr
   0261 FA                 1654 	mov	r2,a
   0262 A3                 1655 	inc	dptr
   0263 E4                 1656 	clr	a
   0264 93                 1657 	movc	a,@a+dptr
   0265 FB                 1658 	mov	r3,a
   0266 A3                 1659 	inc	dptr
   0267 E4                 1660 	clr	a
   0268 93                 1661 	movc	a,@a+dptr
   0269 FF                 1662 	mov	r7,a
   026A C0 07              1663 	push	ar7
   026C C0 06              1664 	push	ar6
   026E C0 05              1665 	push	ar5
   0270 C0 02              1666 	push	ar2
   0272 C0 03              1667 	push	ar3
   0274 C0 07              1668 	push	ar7
   0276 D0 02              1669 	pop	ar2
   0278 D0 01              1670 	pop	ar1
   027A D0 00              1671 	pop	ar0
   027C 12s00r00           1672 	lcall	__sdcc_banked_call
   027F AA 82              1673 	mov	r2,dpl
   0281 AB 83              1674 	mov	r3,dph
   0283 D0 05              1675 	pop	ar5
   0285 D0 06              1676 	pop	ar6
   0287 D0 07              1677 	pop	ar7
   0289 D0 07              1678 	pop	ar7
   028B D0 06              1679 	pop	ar6
   028D D0 05              1680 	pop	ar5
   028F EA                 1681 	mov	a,r2
   0290 4B                 1682 	orl	a,r3
   0291 60 03              1683 	jz	00168$
   0293 02s01rE6           1684 	ljmp	00128$
   0296                    1685 00168$:
                           1686 ;	../../../contiki-sensinode//core/net/mac/xmac.c:310: powercycle_turn_radio_off();
   0296 C0 07              1687 	push	ar7
   0298 C0 06              1688 	push	ar6
   029A C0 05              1689 	push	ar5
   029C 78rFE              1690 	mov	r0,#_powercycle_turn_radio_off
   029E 79s00              1691 	mov	r1,#(_powercycle_turn_radio_off >> 8)
   02A0 7As00              1692 	mov	r2,#(_powercycle_turn_radio_off >> 16)
   02A2 12s00r00           1693 	lcall	__sdcc_banked_call
   02A5 D0 05              1694 	pop	ar5
   02A7 D0 06              1695 	pop	ar6
   02A9 D0 07              1696 	pop	ar7
                           1697 ;	../../../contiki-sensinode//core/net/mac/xmac.c:311: if(waiting_for_packet != 0) {
   02AB 90s00r09           1698 	mov	dptr,#_waiting_for_packet
   02AE E0                 1699 	movx	a,@dptr
   02AF FB                 1700 	mov	r3,a
   02B0 60 2A              1701 	jz	00117$
                           1702 ;	../../../contiki-sensinode//core/net/mac/xmac.c:312: waiting_for_packet++;
   02B2 90s00r09           1703 	mov	dptr,#_waiting_for_packet
   02B5 E0                 1704 	movx	a,@dptr
   02B6 24 01              1705 	add	a,#0x01
   02B8 F0                 1706 	movx	@dptr,a
                           1707 ;	../../../contiki-sensinode//core/net/mac/xmac.c:313: if(waiting_for_packet > 2) {
   02B9 90s00r09           1708 	mov	dptr,#_waiting_for_packet
   02BC E0                 1709 	movx	a,@dptr
   02BD FB                 1710 	mov  r3,a
   02BE 24 FD              1711 	add	a,#0xff - 0x02
   02C0 50 1A              1712 	jnc	00117$
                           1713 ;	../../../contiki-sensinode//core/net/mac/xmac.c:317: waiting_for_packet = 0;
   02C2 90s00r09           1714 	mov	dptr,#_waiting_for_packet
   02C5 E4                 1715 	clr	a
   02C6 F0                 1716 	movx	@dptr,a
                           1717 ;	../../../contiki-sensinode//core/net/mac/xmac.c:318: powercycle_turn_radio_off();
   02C7 C0 07              1718 	push	ar7
   02C9 C0 06              1719 	push	ar6
   02CB C0 05              1720 	push	ar5
   02CD 78rFE              1721 	mov	r0,#_powercycle_turn_radio_off
   02CF 79s00              1722 	mov	r1,#(_powercycle_turn_radio_off >> 8)
   02D1 7As00              1723 	mov	r2,#(_powercycle_turn_radio_off >> 16)
   02D3 12s00r00           1724 	lcall	__sdcc_banked_call
   02D6 D0 05              1725 	pop	ar5
   02D8 D0 06              1726 	pop	ar6
   02DA D0 07              1727 	pop	ar7
   02DC                    1728 00117$:
                           1729 ;	../../../contiki-sensinode//core/net/mac/xmac.c:321: schedule_powercycle(t, xmac_config.off_time);
   02DC 90s00r02           1730 	mov	dptr,#(_xmac_config + 0x0002)
   02DF E0                 1731 	movx	a,@dptr
   02E0 FA                 1732 	mov	r2,a
   02E1 A3                 1733 	inc	dptr
   02E2 E0                 1734 	movx	a,@dptr
   02E3 FB                 1735 	mov	r3,a
   02E4 C0 07              1736 	push	ar7
   02E6 C0 06              1737 	push	ar6
   02E8 C0 05              1738 	push	ar5
   02EA C0 02              1739 	push	ar2
   02EC C0 03              1740 	push	ar3
   02EE 8D 82              1741 	mov	dpl,r5
   02F0 8E 83              1742 	mov	dph,r6
   02F2 8F F0              1743 	mov	b,r7
   02F4 78r8D              1744 	mov	r0,#_schedule_powercycle
   02F6 79s00              1745 	mov	r1,#(_schedule_powercycle >> 8)
   02F8 7As00              1746 	mov	r2,#(_schedule_powercycle >> 16)
   02FA 12s00r00           1747 	lcall	__sdcc_banked_call
   02FD 15 81              1748 	dec	sp
   02FF 15 81              1749 	dec	sp
   0301 D0 05              1750 	pop	ar5
   0303 D0 06              1751 	pop	ar6
   0305 D0 07              1752 	pop	ar7
                           1753 ;	../../../contiki-sensinode//core/net/mac/xmac.c:322: PT_YIELD(&pt);
   0307 7C 00              1754 	mov	r4,#0x00
   0309 90s00r08           1755 	mov	dptr,#_pt
   030C 74 42              1756 	mov	a,#0x42
   030E F0                 1757 	movx	@dptr,a
   030F A3                 1758 	inc	dptr
   0310 74 01              1759 	mov	a,#0x01
   0312 F0                 1760 	movx	@dptr,a
   0313                    1761 00118$:
   0313 EC                 1762 	mov	a,r4
   0314 60 03              1763 	jz	00171$
   0316 02s01rE6           1764 	ljmp	00128$
   0319                    1765 00171$:
   0319 75 82 01           1766 	mov	dpl,#0x01
                           1767 ;	../../../contiki-sensinode//core/net/mac/xmac.c:326: PT_END(&pt);
   031C 80 0A              1768 	sjmp	00131$
   031E                    1769 00130$:
   031E 90s00r08           1770 	mov	dptr,#_pt
   0321 E4                 1771 	clr	a
   0322 F0                 1772 	movx	@dptr,a
   0323 A3                 1773 	inc	dptr
   0324 F0                 1774 	movx	@dptr,a
   0325 75 82 03           1775 	mov	dpl,#0x03
   0328                    1776 00131$:
   0328 02s00r00           1777 	ljmp	__sdcc_banked_ret
                           1778 ;------------------------------------------------------------
                           1779 ;Allocation info for local variables in function 'register_encounter'
                           1780 ;------------------------------------------------------------
                           1781 ;time                      Allocated to stack - sp -7
                           1782 ;neighbor                  Allocated to stack - sp -2
                           1783 ;e                         Allocated to registers r2 r3 r4 
                           1784 ;------------------------------------------------------------
                           1785 ;	../../../contiki-sensinode//core/net/mac/xmac.c:391: register_encounter(const rimeaddr_t *neighbor, rtimer_clock_t time)
                           1786 ;	-----------------------------------------
                           1787 ;	 function register_encounter
                           1788 ;	-----------------------------------------
   032B                    1789 _register_encounter:
   032B C0 82              1790 	push	dpl
   032D C0 83              1791 	push	dph
   032F C0 F0              1792 	push	b
                           1793 ;	../../../contiki-sensinode//core/net/mac/xmac.c:396: for(e = list_head(encounter_list); e != NULL; e = list_item_next(e)) {
   0331 90s00r10           1794 	mov	dptr,#_encounter_list
   0334 E0                 1795 	movx	a,@dptr
   0335 FA                 1796 	mov	r2,a
   0336 A3                 1797 	inc	dptr
   0337 E0                 1798 	movx	a,@dptr
   0338 FB                 1799 	mov	r3,a
   0339 A3                 1800 	inc	dptr
   033A E0                 1801 	movx	a,@dptr
   033B FC                 1802 	mov	r4,a
   033C 8A 82              1803 	mov	dpl,r2
   033E 8B 83              1804 	mov	dph,r3
   0340 8C F0              1805 	mov	b,r4
   0342 78r00              1806 	mov	r0,#_list_head
   0344 79s00              1807 	mov	r1,#(_list_head >> 8)
   0346 7As00              1808 	mov	r2,#(_list_head >> 16)
   0348 12s00r00           1809 	lcall	__sdcc_banked_call
   034B AA 82              1810 	mov	r2,dpl
   034D AB 83              1811 	mov	r3,dph
   034F AC F0              1812 	mov	r4,b
   0351                    1813 00103$:
   0351 EA                 1814 	mov	a,r2
   0352 4B                 1815 	orl	a,r3
   0353 70 03              1816 	jnz	00123$
   0355 02s03rDB           1817 	ljmp	00106$
   0358                    1818 00123$:
                           1819 ;	../../../contiki-sensinode//core/net/mac/xmac.c:397: if(rimeaddr_cmp(neighbor, &e->neighbor)) {
   0358 74 03              1820 	mov	a,#0x03
   035A 2A                 1821 	add	a,r2
   035B FD                 1822 	mov	r5,a
   035C E4                 1823 	clr	a
   035D 3B                 1824 	addc	a,r3
   035E FE                 1825 	mov	r6,a
   035F 8C 07              1826 	mov	ar7,r4
   0361 C0 04              1827 	push	ar4
   0363 C0 03              1828 	push	ar3
   0365 C0 02              1829 	push	ar2
   0367 C0 05              1830 	push	ar5
   0369 C0 06              1831 	push	ar6
   036B C0 07              1832 	push	ar7
   036D E5 81              1833 	mov	a,sp
   036F 24 F8              1834 	add	a,#0xf8
   0371 F8                 1835 	mov	r0,a
   0372 86 82              1836 	mov	dpl,@r0
   0374 08                 1837 	inc	r0
   0375 86 83              1838 	mov	dph,@r0
   0377 08                 1839 	inc	r0
   0378 86 F0              1840 	mov	b,@r0
   037A 78r00              1841 	mov	r0,#_rimeaddr_cmp
   037C 79s00              1842 	mov	r1,#(_rimeaddr_cmp >> 8)
   037E 7As00              1843 	mov	r2,#(_rimeaddr_cmp >> 16)
   0380 12s00r00           1844 	lcall	__sdcc_banked_call
   0383 AE 82              1845 	mov	r6,dpl
   0385 AF 83              1846 	mov	r7,dph
   0387 15 81              1847 	dec	sp
   0389 15 81              1848 	dec	sp
   038B 15 81              1849 	dec	sp
   038D D0 02              1850 	pop	ar2
   038F D0 03              1851 	pop	ar3
   0391 D0 04              1852 	pop	ar4
   0393 EE                 1853 	mov	a,r6
   0394 4F                 1854 	orl	a,r7
   0395 60 20              1855 	jz	00105$
                           1856 ;	../../../contiki-sensinode//core/net/mac/xmac.c:398: e->time = time;
   0397 74 0B              1857 	mov	a,#0x0B
   0399 2A                 1858 	add	a,r2
   039A FD                 1859 	mov	r5,a
   039B E4                 1860 	clr	a
   039C 3B                 1861 	addc	a,r3
   039D FE                 1862 	mov	r6,a
   039E 8C 07              1863 	mov	ar7,r4
   03A0 8D 82              1864 	mov	dpl,r5
   03A2 8E 83              1865 	mov	dph,r6
   03A4 8F F0              1866 	mov	b,r7
   03A6 E5 81              1867 	mov	a,sp
   03A8 24 F9              1868 	add	a,#0xf9
   03AA F8                 1869 	mov	r0,a
   03AB E6                 1870 	mov	a,@r0
   03AC 12s00r00           1871 	lcall	__gptrput
   03AF A3                 1872 	inc	dptr
   03B0 08                 1873 	inc	r0
   03B1 E6                 1874 	mov	a,@r0
   03B2 12s00r00           1875 	lcall	__gptrput
                           1876 ;	../../../contiki-sensinode//core/net/mac/xmac.c:399: break;
   03B5 80 24              1877 	sjmp	00106$
   03B7                    1878 00105$:
                           1879 ;	../../../contiki-sensinode//core/net/mac/xmac.c:396: for(e = list_head(encounter_list); e != NULL; e = list_item_next(e)) {
   03B7 8A 05              1880 	mov	ar5,r2
   03B9 8B 06              1881 	mov	ar6,r3
   03BB 8C 07              1882 	mov	ar7,r4
   03BD 8D 82              1883 	mov	dpl,r5
   03BF 8E 83              1884 	mov	dph,r6
   03C1 8F F0              1885 	mov	b,r7
   03C3 78r00              1886 	mov	r0,#_list_item_next
   03C5 79s00              1887 	mov	r1,#(_list_item_next >> 8)
   03C7 7As00              1888 	mov	r2,#(_list_item_next >> 16)
   03C9 12s00r00           1889 	lcall	__sdcc_banked_call
   03CC AD 82              1890 	mov	r5,dpl
   03CE AE 83              1891 	mov	r6,dph
   03D0 AF F0              1892 	mov	r7,b
   03D2 8D 02              1893 	mov	ar2,r5
   03D4 8E 03              1894 	mov	ar3,r6
   03D6 8F 04              1895 	mov	ar4,r7
   03D8 02s03r51           1896 	ljmp	00103$
   03DB                    1897 00106$:
                           1898 ;	../../../contiki-sensinode//core/net/mac/xmac.c:403: if(e == NULL) {
   03DB EA                 1899 	mov	a,r2
   03DC 4B                 1900 	orl	a,r3
   03DD 60 03              1901 	jz	00125$
   03DF 02s04r82           1902 	ljmp	00111$
   03E2                    1903 00125$:
                           1904 ;	../../../contiki-sensinode//core/net/mac/xmac.c:404: e = memb_alloc(&encounter_memb);
   03E2 90s00r13           1905 	mov	dptr,#_encounter_memb
   03E5 75 F0 00           1906 	mov	b,#0x00
   03E8 78r00              1907 	mov	r0,#_memb_alloc
   03EA 79s00              1908 	mov	r1,#(_memb_alloc >> 8)
   03EC 7As00              1909 	mov	r2,#(_memb_alloc >> 16)
   03EE 12s00r00           1910 	lcall	__sdcc_banked_call
   03F1 AD 82              1911 	mov	r5,dpl
   03F3 AE 83              1912 	mov	r6,dph
   03F5 AF F0              1913 	mov	r7,b
   03F7 8D 02              1914 	mov	ar2,r5
   03F9 8E 03              1915 	mov	ar3,r6
   03FB 8F 04              1916 	mov	ar4,r7
                           1917 ;	../../../contiki-sensinode//core/net/mac/xmac.c:405: if(e == NULL) {
   03FD EA                 1918 	mov	a,r2
   03FE 4B                 1919 	orl	a,r3
   03FF 70 03              1920 	jnz	00108$
                           1921 ;	../../../contiki-sensinode//core/net/mac/xmac.c:407: return;
   0401 02s04r82           1922 	ljmp	00111$
   0404                    1923 00108$:
                           1924 ;	../../../contiki-sensinode//core/net/mac/xmac.c:409: rimeaddr_copy(&e->neighbor, neighbor);
   0404 74 03              1925 	mov	a,#0x03
   0406 2A                 1926 	add	a,r2
   0407 FD                 1927 	mov	r5,a
   0408 E4                 1928 	clr	a
   0409 3B                 1929 	addc	a,r3
   040A FE                 1930 	mov	r6,a
   040B 8C 07              1931 	mov	ar7,r4
   040D C0 04              1932 	push	ar4
   040F C0 03              1933 	push	ar3
   0411 C0 02              1934 	push	ar2
   0413 E5 81              1935 	mov	a,sp
   0415 24 FB              1936 	add	a,#0xfb
   0417 F8                 1937 	mov	r0,a
   0418 E6                 1938 	mov	a,@r0
   0419 C0 E0              1939 	push	acc
   041B 08                 1940 	inc	r0
   041C E6                 1941 	mov	a,@r0
   041D C0 E0              1942 	push	acc
   041F 08                 1943 	inc	r0
   0420 E6                 1944 	mov	a,@r0
   0421 C0 E0              1945 	push	acc
   0423 8D 82              1946 	mov	dpl,r5
   0425 8E 83              1947 	mov	dph,r6
   0427 8F F0              1948 	mov	b,r7
   0429 78r00              1949 	mov	r0,#_rimeaddr_copy
   042B 79s00              1950 	mov	r1,#(_rimeaddr_copy >> 8)
   042D 7As00              1951 	mov	r2,#(_rimeaddr_copy >> 16)
   042F 12s00r00           1952 	lcall	__sdcc_banked_call
   0432 15 81              1953 	dec	sp
   0434 15 81              1954 	dec	sp
   0436 15 81              1955 	dec	sp
   0438 D0 02              1956 	pop	ar2
   043A D0 03              1957 	pop	ar3
   043C D0 04              1958 	pop	ar4
                           1959 ;	../../../contiki-sensinode//core/net/mac/xmac.c:410: e->time = time;
   043E 74 0B              1960 	mov	a,#0x0B
   0440 2A                 1961 	add	a,r2
   0441 FD                 1962 	mov	r5,a
   0442 E4                 1963 	clr	a
   0443 3B                 1964 	addc	a,r3
   0444 FE                 1965 	mov	r6,a
   0445 8C 07              1966 	mov	ar7,r4
   0447 8D 82              1967 	mov	dpl,r5
   0449 8E 83              1968 	mov	dph,r6
   044B 8F F0              1969 	mov	b,r7
   044D E5 81              1970 	mov	a,sp
   044F 24 F9              1971 	add	a,#0xf9
   0451 F8                 1972 	mov	r0,a
   0452 E6                 1973 	mov	a,@r0
   0453 12s00r00           1974 	lcall	__gptrput
   0456 A3                 1975 	inc	dptr
   0457 08                 1976 	inc	r0
   0458 E6                 1977 	mov	a,@r0
   0459 12s00r00           1978 	lcall	__gptrput
                           1979 ;	../../../contiki-sensinode//core/net/mac/xmac.c:411: list_add(encounter_list, e);
   045C 90s00r10           1980 	mov	dptr,#_encounter_list
   045F E0                 1981 	movx	a,@dptr
   0460 FD                 1982 	mov	r5,a
   0461 A3                 1983 	inc	dptr
   0462 E0                 1984 	movx	a,@dptr
   0463 FE                 1985 	mov	r6,a
   0464 A3                 1986 	inc	dptr
   0465 E0                 1987 	movx	a,@dptr
   0466 FF                 1988 	mov	r7,a
   0467 C0 02              1989 	push	ar2
   0469 C0 03              1990 	push	ar3
   046B C0 04              1991 	push	ar4
   046D 8D 82              1992 	mov	dpl,r5
   046F 8E 83              1993 	mov	dph,r6
   0471 8F F0              1994 	mov	b,r7
   0473 78r00              1995 	mov	r0,#_list_add
   0475 79s00              1996 	mov	r1,#(_list_add >> 8)
   0477 7As00              1997 	mov	r2,#(_list_add >> 16)
   0479 12s00r00           1998 	lcall	__sdcc_banked_call
   047C 15 81              1999 	dec	sp
   047E 15 81              2000 	dec	sp
   0480 15 81              2001 	dec	sp
   0482                    2002 00111$:
   0482 15 81              2003 	dec	sp
   0484 15 81              2004 	dec	sp
   0486 15 81              2005 	dec	sp
   0488 02s00r00           2006 	ljmp	__sdcc_banked_ret
                           2007 ;------------------------------------------------------------
                           2008 ;Allocation info for local variables in function 'detect_ack'
                           2009 ;------------------------------------------------------------
                           2010 ;wt                        Allocated to registers r5 r6 
                           2011 ;ack_received              Allocated to registers r7 
                           2012 ;len                       Allocated to registers r4 r5 
                           2013 ;ackbuf                    Allocated to stack - sp -6
                           2014 ;sloc0                     Allocated to stack - sp -1
                           2015 ;------------------------------------------------------------
                           2016 ;	../../../contiki-sensinode//core/net/mac/xmac.c:417: detect_ack(void)
                           2017 ;	-----------------------------------------
                           2018 ;	 function detect_ack
                           2019 ;	-----------------------------------------
   048B                    2020 _detect_ack:
   048B E5 81              2021 	mov	a,sp
   048D 24 07              2022 	add	a,#0x07
   048F F5 81              2023 	mov	sp,a
                           2024 ;	../../../contiki-sensinode//core/net/mac/xmac.c:423: uint8_t ack_received = 0;
   0491 7F 00              2025 	mov	r7,#0x00
                           2026 ;	../../../contiki-sensinode//core/net/mac/xmac.c:425: wt = RTIMER_NOW();
   0493 AD E2              2027 	mov	r5,_T1CNTL
   0495 7E 00              2028 	mov	r6,#0x00
   0497 AB E3              2029 	mov	r3,_T1CNTH
   0499 8B 04              2030 	mov	ar4,r3
   049B E4                 2031 	clr	a
   049C 2D                 2032 	add	a,r5
   049D FD                 2033 	mov	r5,a
   049E EC                 2034 	mov	a,r4
   049F 3E                 2035 	addc	a,r6
   04A0 FE                 2036 	mov	r6,a
                           2037 ;	../../../contiki-sensinode//core/net/mac/xmac.c:426: leds_on(LEDS_GREEN);
   04A1 75 82 01           2038 	mov	dpl,#0x01
   04A4 C0 07              2039 	push	ar7
   04A6 C0 06              2040 	push	ar6
   04A8 C0 05              2041 	push	ar5
   04AA 78r00              2042 	mov	r0,#_leds_on
   04AC 79s00              2043 	mov	r1,#(_leds_on >> 8)
   04AE 7As00              2044 	mov	r2,#(_leds_on >> 16)
   04B0 12s00r00           2045 	lcall	__sdcc_banked_call
   04B3 D0 05              2046 	pop	ar5
   04B5 D0 06              2047 	pop	ar6
   04B7 D0 07              2048 	pop	ar7
                           2049 ;	../../../contiki-sensinode//core/net/mac/xmac.c:427: while(RTIMER_CLOCK_LT(RTIMER_NOW(), wt + INTER_PACKET_INTERVAL)) { }
   04B9 A8 81              2050 	mov	r0,sp
   04BB 18                 2051 	dec	r0
   04BC 74 03              2052 	mov	a,#0x03
   04BE 2D                 2053 	add	a,r5
   04BF F6                 2054 	mov	@r0,a
   04C0 E4                 2055 	clr	a
   04C1 3E                 2056 	addc	a,r6
   04C2 08                 2057 	inc	r0
   04C3 F6                 2058 	mov	@r0,a
   04C4                    2059 00101$:
   04C4 C0 07              2060 	push	ar7
   04C6 AA E2              2061 	mov	r2,_T1CNTL
   04C8 7F 00              2062 	mov	r7,#0x00
   04CA AB E3              2063 	mov	r3,_T1CNTH
   04CC 8B 04              2064 	mov	ar4,r3
   04CE E4                 2065 	clr	a
   04CF FB                 2066 	mov	r3,a
   04D0 2A                 2067 	add	a,r2
   04D1 FA                 2068 	mov	r2,a
   04D2 EC                 2069 	mov	a,r4
   04D3 3F                 2070 	addc	a,r7
   04D4 FF                 2071 	mov	r7,a
   04D5 A8 81              2072 	mov	r0,sp
   04D7 18                 2073 	dec	r0
   04D8 18                 2074 	dec	r0
   04D9 EA                 2075 	mov	a,r2
   04DA C3                 2076 	clr	c
   04DB 96                 2077 	subb	a,@r0
   04DC FA                 2078 	mov	r2,a
   04DD EF                 2079 	mov	a,r7
   04DE 08                 2080 	inc	r0
   04DF 96                 2081 	subb	a,@r0
   04E0 D0 07              2082 	pop	ar7
   04E2 20 E7 DF           2083 	jb	acc.7,00101$
                           2084 ;	../../../contiki-sensinode//core/net/mac/xmac.c:428: leds_off(LEDS_GREEN);
   04E5 75 82 01           2085 	mov	dpl,#0x01
   04E8 C0 07              2086 	push	ar7
   04EA 78r00              2087 	mov	r0,#_leds_off
   04EC 79s00              2088 	mov	r1,#(_leds_off >> 8)
   04EE 7As00              2089 	mov	r2,#(_leds_off >> 16)
   04F0 12s00r00           2090 	lcall	__sdcc_banked_call
                           2091 ;	../../../contiki-sensinode//core/net/mac/xmac.c:430: if((NETSTACK_RADIO.receiving_packet() ||
   04F3 90s00r12           2092 	mov	dptr,#(_cc2530_rf_driver + 0x0012)
   04F6 E4                 2093 	clr	a
   04F7 93                 2094 	movc	a,@a+dptr
   04F8 FA                 2095 	mov	r2,a
   04F9 A3                 2096 	inc	dptr
   04FA E4                 2097 	clr	a
   04FB 93                 2098 	movc	a,@a+dptr
   04FC FB                 2099 	mov	r3,a
   04FD A3                 2100 	inc	dptr
   04FE E4                 2101 	clr	a
   04FF 93                 2102 	movc	a,@a+dptr
   0500 FC                 2103 	mov	r4,a
   0501 C0 04              2104 	push	ar4
   0503 C0 02              2105 	push	ar2
   0505 C0 03              2106 	push	ar3
   0507 C0 04              2107 	push	ar4
   0509 D0 02              2108 	pop	ar2
   050B D0 01              2109 	pop	ar1
   050D D0 00              2110 	pop	ar0
   050F 12s00r00           2111 	lcall	__sdcc_banked_call
   0512 AA 82              2112 	mov	r2,dpl
   0514 AB 83              2113 	mov	r3,dph
   0516 D0 04              2114 	pop	ar4
   0518 D0 07              2115 	pop	ar7
   051A EA                 2116 	mov	a,r2
   051B 4B                 2117 	orl	a,r3
   051C 70 5D              2118 	jnz	00109$
                           2119 ;	../../../contiki-sensinode//core/net/mac/xmac.c:431: NETSTACK_RADIO.pending_packet() ||
   051E 90s00r15           2120 	mov	dptr,#(_cc2530_rf_driver + 0x0015)
   0521 E4                 2121 	clr	a
   0522 93                 2122 	movc	a,@a+dptr
   0523 FA                 2123 	mov	r2,a
   0524 A3                 2124 	inc	dptr
   0525 E4                 2125 	clr	a
   0526 93                 2126 	movc	a,@a+dptr
   0527 FB                 2127 	mov	r3,a
   0528 A3                 2128 	inc	dptr
   0529 E4                 2129 	clr	a
   052A 93                 2130 	movc	a,@a+dptr
   052B FC                 2131 	mov	r4,a
   052C C0 07              2132 	push	ar7
   052E C0 04              2133 	push	ar4
   0530 C0 02              2134 	push	ar2
   0532 C0 03              2135 	push	ar3
   0534 C0 04              2136 	push	ar4
   0536 D0 02              2137 	pop	ar2
   0538 D0 01              2138 	pop	ar1
   053A D0 00              2139 	pop	ar0
   053C 12s00r00           2140 	lcall	__sdcc_banked_call
   053F AA 82              2141 	mov	r2,dpl
   0541 AB 83              2142 	mov	r3,dph
   0543 D0 04              2143 	pop	ar4
   0545 D0 07              2144 	pop	ar7
   0547 EA                 2145 	mov	a,r2
   0548 4B                 2146 	orl	a,r3
   0549 70 30              2147 	jnz	00109$
                           2148 ;	../../../contiki-sensinode//core/net/mac/xmac.c:432: NETSTACK_RADIO.channel_clear() == 0)) {
   054B 90s00r0F           2149 	mov	dptr,#(_cc2530_rf_driver + 0x000f)
   054E E4                 2150 	clr	a
   054F 93                 2151 	movc	a,@a+dptr
   0550 FA                 2152 	mov	r2,a
   0551 A3                 2153 	inc	dptr
   0552 E4                 2154 	clr	a
   0553 93                 2155 	movc	a,@a+dptr
   0554 FB                 2156 	mov	r3,a
   0555 A3                 2157 	inc	dptr
   0556 E4                 2158 	clr	a
   0557 93                 2159 	movc	a,@a+dptr
   0558 FC                 2160 	mov	r4,a
   0559 C0 07              2161 	push	ar7
   055B C0 04              2162 	push	ar4
   055D C0 02              2163 	push	ar2
   055F C0 03              2164 	push	ar3
   0561 C0 04              2165 	push	ar4
   0563 D0 02              2166 	pop	ar2
   0565 D0 01              2167 	pop	ar1
   0567 D0 00              2168 	pop	ar0
   0569 12s00r00           2169 	lcall	__sdcc_banked_call
   056C AA 82              2170 	mov	r2,dpl
   056E AB 83              2171 	mov	r3,dph
   0570 D0 04              2172 	pop	ar4
   0572 D0 07              2173 	pop	ar7
   0574 EA                 2174 	mov	a,r2
   0575 4B                 2175 	orl	a,r3
   0576 60 03              2176 	jz	00139$
   0578 02s06r10           2177 	ljmp	00110$
   057B                    2178 00139$:
   057B                    2179 00109$:
                           2180 ;	../../../contiki-sensinode//core/net/mac/xmac.c:436: wt = RTIMER_NOW();
   057B C0 07              2181 	push	ar7
   057D AB E2              2182 	mov	r3,_T1CNTL
   057F 7C 00              2183 	mov	r4,#0x00
   0581 AA E3              2184 	mov	r2,_T1CNTH
   0583 8A 07              2185 	mov	ar7,r2
   0585 E4                 2186 	clr	a
   0586 FA                 2187 	mov	r2,a
   0587 2B                 2188 	add	a,r3
   0588 FB                 2189 	mov	r3,a
   0589 EF                 2190 	mov	a,r7
   058A 3C                 2191 	addc	a,r4
   058B FC                 2192 	mov	r4,a
   058C 8B 05              2193 	mov	ar5,r3
   058E 8C 06              2194 	mov	ar6,r4
                           2195 ;	../../../contiki-sensinode//core/net/mac/xmac.c:437: while(RTIMER_CLOCK_LT(RTIMER_NOW(), wt + AFTER_ACK_DETECTECT_WAIT_TIME)) { }
   0590 A8 81              2196 	mov	r0,sp
   0592 18                 2197 	dec	r0
   0593 18                 2198 	dec	r0
   0594 74 0F              2199 	mov	a,#0x0F
   0596 2D                 2200 	add	a,r5
   0597 F6                 2201 	mov	@r0,a
   0598 E4                 2202 	clr	a
   0599 3E                 2203 	addc	a,r6
   059A 08                 2204 	inc	r0
   059B F6                 2205 	mov	@r0,a
                           2206 ;	../../../contiki-sensinode//core/net/mac/xmac.c:447: return ack_received;
   059C D0 07              2207 	pop	ar7
                           2208 ;	../../../contiki-sensinode//core/net/mac/xmac.c:437: while(RTIMER_CLOCK_LT(RTIMER_NOW(), wt + AFTER_ACK_DETECTECT_WAIT_TIME)) { }
   059E                    2209 00104$:
   059E AD E2              2210 	mov	r5,_T1CNTL
   05A0 7E 00              2211 	mov	r6,#0x00
   05A2 AB E3              2212 	mov	r3,_T1CNTH
   05A4 8B 04              2213 	mov	ar4,r3
   05A6 E4                 2214 	clr	a
   05A7 FB                 2215 	mov	r3,a
   05A8 2D                 2216 	add	a,r5
   05A9 FD                 2217 	mov	r5,a
   05AA EC                 2218 	mov	a,r4
   05AB 3E                 2219 	addc	a,r6
   05AC FE                 2220 	mov	r6,a
   05AD A8 81              2221 	mov	r0,sp
   05AF 18                 2222 	dec	r0
   05B0 ED                 2223 	mov	a,r5
   05B1 C3                 2224 	clr	c
   05B2 96                 2225 	subb	a,@r0
   05B3 FD                 2226 	mov	r5,a
   05B4 EE                 2227 	mov	a,r6
   05B5 08                 2228 	inc	r0
   05B6 96                 2229 	subb	a,@r0
   05B7 FE                 2230 	mov	r6,a
   05B8 20 E7 E3           2231 	jb	acc.7,00104$
                           2232 ;	../../../contiki-sensinode//core/net/mac/xmac.c:439: len = NETSTACK_RADIO.read(ackbuf, ACK_LEN);
   05BB C0 07              2233 	push	ar7
   05BD 90s00r0C           2234 	mov	dptr,#(_cc2530_rf_driver + 0x000c)
   05C0 E4                 2235 	clr	a
   05C1 93                 2236 	movc	a,@a+dptr
   05C2 FC                 2237 	mov	r4,a
   05C3 A3                 2238 	inc	dptr
   05C4 E4                 2239 	clr	a
   05C5 93                 2240 	movc	a,@a+dptr
   05C6 FD                 2241 	mov	r5,a
   05C7 A3                 2242 	inc	dptr
   05C8 E4                 2243 	clr	a
   05C9 93                 2244 	movc	a,@a+dptr
   05CA FE                 2245 	mov	r6,a
   05CB E5 81              2246 	mov	a,sp
   05CD 24 F9              2247 	add	a,#0xF9
   05CF FA                 2248 	mov	r2,a
   05D0 7B 00              2249 	mov	r3,#0x00
   05D2 7F 40              2250 	mov	r7,#0x40
   05D4 C0 07              2251 	push	ar7
   05D6 C0 06              2252 	push	ar6
   05D8 74 03              2253 	mov	a,#0x03
   05DA C0 E0              2254 	push	acc
   05DC E4                 2255 	clr	a
   05DD C0 E0              2256 	push	acc
   05DF C0 04              2257 	push	ar4
   05E1 C0 05              2258 	push	ar5
   05E3 C0 06              2259 	push	ar6
   05E5 8A 82              2260 	mov	dpl,r2
   05E7 8B 83              2261 	mov	dph,r3
   05E9 8F F0              2262 	mov	b,r7
   05EB D0 02              2263 	pop	ar2
   05ED D0 01              2264 	pop	ar1
   05EF D0 00              2265 	pop	ar0
   05F1 12s00r00           2266 	lcall	__sdcc_banked_call
   05F4 AC 82              2267 	mov	r4,dpl
   05F6 AD 83              2268 	mov	r5,dph
   05F8 15 81              2269 	dec	sp
   05FA 15 81              2270 	dec	sp
   05FC D0 06              2271 	pop	ar6
   05FE D0 07              2272 	pop	ar7
                           2273 ;	../../../contiki-sensinode//core/net/mac/xmac.c:440: if(len == ACK_LEN) {
   0600 BC 03 05           2274 	cjne	r4,#0x03,00142$
   0603 BD 00 02           2275 	cjne	r5,#0x00,00142$
   0606 80 04              2276 	sjmp	00143$
   0608                    2277 00142$:
   0608 D0 07              2278 	pop	ar7
   060A 80 04              2279 	sjmp	00110$
   060C                    2280 00143$:
   060C D0 07              2281 	pop	ar7
                           2282 ;	../../../contiki-sensinode//core/net/mac/xmac.c:441: ack_received = 1;
   060E 7F 01              2283 	mov	r7,#0x01
   0610                    2284 00110$:
                           2285 ;	../../../contiki-sensinode//core/net/mac/xmac.c:444: if(ack_received) {
   0610 EF                 2286 	mov	a,r7
   0611 60 10              2287 	jz	00114$
                           2288 ;	../../../contiki-sensinode//core/net/mac/xmac.c:445: leds_toggle(LEDS_RED);
   0613 75 82 02           2289 	mov	dpl,#0x02
   0616 C0 07              2290 	push	ar7
   0618 78r00              2291 	mov	r0,#_leds_toggle
   061A 79s00              2292 	mov	r1,#(_leds_toggle >> 8)
   061C 7As00              2293 	mov	r2,#(_leds_toggle >> 16)
   061E 12s00r00           2294 	lcall	__sdcc_banked_call
   0621 D0 07              2295 	pop	ar7
   0623                    2296 00114$:
                           2297 ;	../../../contiki-sensinode//core/net/mac/xmac.c:447: return ack_received;
   0623 7E 00              2298 	mov	r6,#0x00
   0625 8F 82              2299 	mov	dpl,r7
   0627 8E 83              2300 	mov	dph,r6
   0629 E5 81              2301 	mov	a,sp
   062B 24 F9              2302 	add	a,#0xF9
   062D F5 81              2303 	mov	sp,a
   062F 02s00r00           2304 	ljmp	__sdcc_banked_ret
                           2305 ;------------------------------------------------------------
                           2306 ;Allocation info for local variables in function 'send_packet'
                           2307 ;------------------------------------------------------------
                           2308 ;t0                        Allocated to stack - sp -76
                           2309 ;t                         Allocated to stack - sp -74
                           2310 ;encounter_time            Allocated to registers 
                           2311 ;strobes                   Allocated to stack - sp -72
                           2312 ;ret                       Allocated to registers 
                           2313 ;got_strobe_ack            Allocated to stack - sp -70
                           2314 ;got_ack                   Allocated to stack - sp -69
                           2315 ;strobe                    Allocated to stack - sp -68
                           2316 ;strobe_len                Allocated to stack - sp -18
                           2317 ;len                       Allocated to stack - sp -16
                           2318 ;is_broadcast              Allocated to stack - sp -14
                           2319 ;e                         Allocated to stack - sp -12
                           2320 ;packet                    Allocated to stack - sp -9
                           2321 ;is_already_streaming      Allocated to stack - sp -6
                           2322 ;collisions                Allocated to registers r3 
                           2323 ;neighbor                  Allocated to registers r7 r6 r3 
                           2324 ;wait                      Allocated to registers r6 r7 
                           2325 ;now                       Allocated to registers r2 r4 
                           2326 ;expected                  Allocated to registers r6 r7 
                           2327 ;sloc0                     Allocated to stack - sp -4
                           2328 ;sloc1                     Allocated to stack - sp -3
                           2329 ;sloc2                     Allocated to stack - sp -1
                           2330 ;------------------------------------------------------------
                           2331 ;	../../../contiki-sensinode//core/net/mac/xmac.c:451: send_packet(void)
                           2332 ;	-----------------------------------------
                           2333 ;	 function send_packet
                           2334 ;	-----------------------------------------
   0632                    2335 _send_packet:
   0632 E5 81              2336 	mov	a,sp
   0634 24 4D              2337 	add	a,#0x4D
                           2338 ;	../../../contiki-sensinode//core/net/mac/xmac.c:461: uint8_t got_strobe_ack = 0;
   0636 F5 81              2339 	mov	sp,a
   0638 24 BA              2340 	add	a,#0xba
   063A F8                 2341 	mov	r0,a
   063B 76 00              2342 	mov	@r0,#0x00
                           2343 ;	../../../contiki-sensinode//core/net/mac/xmac.c:462: uint8_t got_ack = 0;
   063D E5 81              2344 	mov	a,sp
   063F 24 BB              2345 	add	a,#0xbb
   0641 F8                 2346 	mov	r0,a
   0642 76 00              2347 	mov	@r0,#0x00
                           2348 ;	../../../contiki-sensinode//core/net/mac/xmac.c:465: int is_broadcast = 0;
   0644 E5 81              2349 	mov	a,sp
   0646 24 F2              2350 	add	a,#0xf2
   0648 F8                 2351 	mov	r0,a
   0649 E4                 2352 	clr	a
   064A F6                 2353 	mov	@r0,a
   064B 08                 2354 	inc	r0
   064C F6                 2355 	mov	@r0,a
                           2356 ;	../../../contiki-sensinode//core/net/mac/xmac.c:469: int is_already_streaming = 0;
   064D E5 81              2357 	mov	a,sp
   064F 24 FA              2358 	add	a,#0xfa
   0651 F8                 2359 	mov	r0,a
   0652 E4                 2360 	clr	a
   0653 F6                 2361 	mov	@r0,a
   0654 08                 2362 	inc	r0
   0655 F6                 2363 	mov	@r0,a
                           2364 ;	../../../contiki-sensinode//core/net/mac/xmac.c:473: packetbuf_set_addr(PACKETBUF_ADDR_SENDER, &rimeaddr_node_addr);
   0656 74r00              2365 	mov	a,#_rimeaddr_node_addr
   0658 C0 E0              2366 	push	acc
   065A 74s00              2367 	mov	a,#(_rimeaddr_node_addr >> 8)
   065C C0 E0              2368 	push	acc
   065E E4                 2369 	clr	a
   065F C0 E0              2370 	push	acc
   0661 75 82 18           2371 	mov	dpl,#0x18
   0664 78r00              2372 	mov	r0,#_packetbuf_set_addr
   0666 79s00              2373 	mov	r1,#(_packetbuf_set_addr >> 8)
   0668 7As00              2374 	mov	r2,#(_packetbuf_set_addr >> 16)
   066A 12s00r00           2375 	lcall	__sdcc_banked_call
   066D 15 81              2376 	dec	sp
   066F 15 81              2377 	dec	sp
   0671 15 81              2378 	dec	sp
                           2379 ;	../../../contiki-sensinode//core/net/mac/xmac.c:474: if(rimeaddr_cmp(packetbuf_addr(PACKETBUF_ADDR_RECEIVER), &rimeaddr_null)) {
   0673 75 82 19           2380 	mov	dpl,#0x19
   0676 78r00              2381 	mov	r0,#_packetbuf_addr
   0678 79s00              2382 	mov	r1,#(_packetbuf_addr >> 8)
   067A 7As00              2383 	mov	r2,#(_packetbuf_addr >> 16)
   067C 12s00r00           2384 	lcall	__sdcc_banked_call
   067F AA 82              2385 	mov	r2,dpl
   0681 AB 83              2386 	mov	r3,dph
   0683 AE F0              2387 	mov	r6,b
   0685 74r00              2388 	mov	a,#_rimeaddr_null
   0687 C0 E0              2389 	push	acc
   0689 74s00              2390 	mov	a,#(_rimeaddr_null >> 8)
   068B C0 E0              2391 	push	acc
   068D 74 80              2392 	mov	a,#0x80
   068F C0 E0              2393 	push	acc
   0691 8A 82              2394 	mov	dpl,r2
   0693 8B 83              2395 	mov	dph,r3
   0695 8E F0              2396 	mov	b,r6
   0697 78r00              2397 	mov	r0,#_rimeaddr_cmp
   0699 79s00              2398 	mov	r1,#(_rimeaddr_cmp >> 8)
   069B 7As00              2399 	mov	r2,#(_rimeaddr_cmp >> 16)
   069D 12s00r00           2400 	lcall	__sdcc_banked_call
   06A0 AB 82              2401 	mov	r3,dpl
   06A2 AE 83              2402 	mov	r6,dph
   06A4 15 81              2403 	dec	sp
   06A6 15 81              2404 	dec	sp
   06A8 15 81              2405 	dec	sp
   06AA EB                 2406 	mov	a,r3
   06AB 4E                 2407 	orl	a,r6
   06AC 60 0A              2408 	jz	00102$
                           2409 ;	../../../contiki-sensinode//core/net/mac/xmac.c:475: is_broadcast = 1;
   06AE E5 81              2410 	mov	a,sp
   06B0 24 F2              2411 	add	a,#0xf2
   06B2 F8                 2412 	mov	r0,a
   06B3 76 01              2413 	mov	@r0,#0x01
   06B5 08                 2414 	inc	r0
   06B6 76 00              2415 	mov	@r0,#0x00
   06B8                    2416 00102$:
                           2417 ;	../../../contiki-sensinode//core/net/mac/xmac.c:497: packetbuf_set_attr(PACKETBUF_ATTR_MAC_ACK, 1);
   06B8 74 01              2418 	mov	a,#0x01
   06BA C0 E0              2419 	push	acc
   06BC E4                 2420 	clr	a
   06BD C0 E0              2421 	push	acc
   06BF 75 82 0B           2422 	mov	dpl,#0x0B
   06C2 78r00              2423 	mov	r0,#_packetbuf_set_attr
   06C4 79s00              2424 	mov	r1,#(_packetbuf_set_attr >> 8)
   06C6 7As00              2425 	mov	r2,#(_packetbuf_set_attr >> 16)
   06C8 12s00r00           2426 	lcall	__sdcc_banked_call
   06CB 15 81              2427 	dec	sp
   06CD 15 81              2428 	dec	sp
                           2429 ;	../../../contiki-sensinode//core/net/mac/xmac.c:498: len = NETSTACK_FRAMER.create();
   06CF 90s00r00           2430 	mov	dptr,#_framer_802154
   06D2 E4                 2431 	clr	a
   06D3 93                 2432 	movc	a,@a+dptr
   06D4 FA                 2433 	mov	r2,a
   06D5 A3                 2434 	inc	dptr
   06D6 E4                 2435 	clr	a
   06D7 93                 2436 	movc	a,@a+dptr
   06D8 FB                 2437 	mov	r3,a
   06D9 A3                 2438 	inc	dptr
   06DA E4                 2439 	clr	a
   06DB 93                 2440 	movc	a,@a+dptr
   06DC FE                 2441 	mov	r6,a
   06DD C0 06              2442 	push	ar6
   06DF C0 02              2443 	push	ar2
   06E1 C0 03              2444 	push	ar3
   06E3 C0 06              2445 	push	ar6
   06E5 D0 02              2446 	pop	ar2
   06E7 D0 01              2447 	pop	ar1
   06E9 D0 00              2448 	pop	ar0
   06EB 12s00r00           2449 	lcall	__sdcc_banked_call
   06EE AA 82              2450 	mov	r2,dpl
   06F0 AB 83              2451 	mov	r3,dph
   06F2 D0 06              2452 	pop	ar6
   06F4 E5 81              2453 	mov	a,sp
   06F6 24 F0              2454 	add	a,#0xf0
   06F8 F8                 2455 	mov	r0,a
   06F9 A6 02              2456 	mov	@r0,ar2
   06FB 08                 2457 	inc	r0
   06FC A6 03              2458 	mov	@r0,ar3
                           2459 ;	../../../contiki-sensinode//core/net/mac/xmac.c:499: strobe_len = len + sizeof(struct xmac_hdr);
   06FE E5 81              2460 	mov	a,sp
   0700 24 F0              2461 	add	a,#0xf0
   0702 F8                 2462 	mov	r0,a
   0703 E5 81              2463 	mov	a,sp
   0705 24 EE              2464 	add	a,#0xee
   0707 F9                 2465 	mov	r1,a
   0708 74 02              2466 	mov	a,#0x02
   070A 26                 2467 	add	a,@r0
   070B F7                 2468 	mov	@r1,a
   070C E4                 2469 	clr	a
   070D 08                 2470 	inc	r0
   070E 36                 2471 	addc	a,@r0
   070F 09                 2472 	inc	r1
   0710 F7                 2473 	mov	@r1,a
                           2474 ;	../../../contiki-sensinode//core/net/mac/xmac.c:500: if(len < 0 || strobe_len > (int)sizeof(strobe)) {
   0711 E5 81              2475 	mov	a,sp
   0713 24 F0              2476 	add	a,#0xf0
   0715 F8                 2477 	mov	r0,a
   0716 08                 2478 	inc	r0
   0717 E6                 2479 	mov	a,@r0
   0718 20 E7 16           2480 	jb	acc.7,00103$
   071B E5 81              2481 	mov	a,sp
   071D 24 EE              2482 	add	a,#0xee
   071F F8                 2483 	mov	r0,a
   0720 C3                 2484 	clr	c
   0721 74 32              2485 	mov	a,#0x32
   0723 96                 2486 	subb	a,@r0
   0724 E4                 2487 	clr	a
   0725 64 80              2488 	xrl	a,#0x80
   0727 08                 2489 	inc	r0
   0728 86 F0              2490 	mov	b,@r0
   072A 63 F0 80           2491 	xrl	b,#0x80
   072D 95 F0              2492 	subb	a,b
   072F 50 06              2493 	jnc	00104$
   0731                    2494 00103$:
                           2495 ;	../../../contiki-sensinode//core/net/mac/xmac.c:503: return MAC_TX_ERR_FATAL;
   0731 90 00 05           2496 	mov	dptr,#0x0005
   0734 02s0ErA8           2497 	ljmp	00170$
   0737                    2498 00104$:
                           2499 ;	../../../contiki-sensinode//core/net/mac/xmac.c:505: memcpy(strobe, packetbuf_hdrptr(), len);
   0737 E5 81              2500 	mov	a,sp
   0739 24 F0              2501 	add	a,#0xf0
   073B F8                 2502 	mov	r0,a
   073C E5 81              2503 	mov	a,sp
   073E 24 FD              2504 	add	a,#0xfd
   0740 F9                 2505 	mov	r1,a
   0741 E6                 2506 	mov	a,@r0
   0742 F7                 2507 	mov	@r1,a
   0743 08                 2508 	inc	r0
   0744 09                 2509 	inc	r1
   0745 E6                 2510 	mov	a,@r0
   0746 F7                 2511 	mov	@r1,a
   0747 78r00              2512 	mov	r0,#_packetbuf_hdrptr
   0749 79s00              2513 	mov	r1,#(_packetbuf_hdrptr >> 8)
   074B 7As00              2514 	mov	r2,#(_packetbuf_hdrptr >> 16)
   074D 12s00r00           2515 	lcall	__sdcc_banked_call
   0750 AB 82              2516 	mov	r3,dpl
   0752 AC 83              2517 	mov	r4,dph
   0754 AE F0              2518 	mov	r6,b
   0756 E5 81              2519 	mov	a,sp
   0758 24 FC              2520 	add	a,#0xfc
   075A F8                 2521 	mov	r0,a
   075B E5 81              2522 	mov	a,sp
   075D 24 BC              2523 	add	a,#0xBC
   075F F6                 2524 	mov	@r0,a
   0760 E5 81              2525 	mov	a,sp
   0762 24 FC              2526 	add	a,#0xfc
   0764 F8                 2527 	mov	r0,a
   0765 86 02              2528 	mov	ar2,@r0
   0767 7D 00              2529 	mov	r5,#0x00
   0769 7F 40              2530 	mov	r7,#0x40
   076B E5 81              2531 	mov	a,sp
   076D 24 FD              2532 	add	a,#0xfd
   076F F8                 2533 	mov	r0,a
   0770 E6                 2534 	mov	a,@r0
   0771 C0 E0              2535 	push	acc
   0773 08                 2536 	inc	r0
   0774 E6                 2537 	mov	a,@r0
   0775 C0 E0              2538 	push	acc
   0777 C0 03              2539 	push	ar3
   0779 C0 04              2540 	push	ar4
   077B C0 06              2541 	push	ar6
   077D 8A 82              2542 	mov	dpl,r2
   077F 8D 83              2543 	mov	dph,r5
   0781 8F F0              2544 	mov	b,r7
   0783 78r00              2545 	mov	r0,#_memcpy
   0785 79s00              2546 	mov	r1,#(_memcpy >> 8)
   0787 7As00              2547 	mov	r2,#(_memcpy >> 16)
   0789 12s00r00           2548 	lcall	__sdcc_banked_call
   078C E5 81              2549 	mov	a,sp
   078E 24 FB              2550 	add	a,#0xfb
                           2551 ;	../../../contiki-sensinode//core/net/mac/xmac.c:506: strobe[len] = DISPATCH; /* dispatch */
   0790 F5 81              2552 	mov	sp,a
   0792 24 FC              2553 	add	a,#0xfc
   0794 F8                 2554 	mov	r0,a
   0795 E5 81              2555 	mov	a,sp
   0797 24 F0              2556 	add	a,#0xf0
   0799 F9                 2557 	mov	r1,a
   079A E7                 2558 	mov	a,@r1
   079B 26                 2559 	add	a,@r0
   079C F8                 2560 	mov	r0,a
   079D 76 00              2561 	mov	@r0,#0x00
                           2562 ;	../../../contiki-sensinode//core/net/mac/xmac.c:507: strobe[len + 1] = TYPE_STROBE; /* type */
   079F E5 81              2563 	mov	a,sp
   07A1 24 F0              2564 	add	a,#0xf0
   07A3 F8                 2565 	mov	r0,a
   07A4 E6                 2566 	mov	a,@r0
   07A5 04                 2567 	inc	a
   07A6 C8                 2568 	xch	a,r0
   07A7 E5 81              2569 	mov	a,sp
   07A9 24 FC              2570 	add	a,#0xfc
   07AB C8                 2571 	xch	a,r0
   07AC 26                 2572 	add	a,@r0
   07AD F8                 2573 	mov	r0,a
   07AE 76 10              2574 	mov	@r0,#0x10
                           2575 ;	../../../contiki-sensinode//core/net/mac/xmac.c:509: packetbuf_compact();
   07B0 78r00              2576 	mov	r0,#_packetbuf_compact
   07B2 79s00              2577 	mov	r1,#(_packetbuf_compact >> 8)
   07B4 7As00              2578 	mov	r2,#(_packetbuf_compact >> 16)
   07B6 12s00r00           2579 	lcall	__sdcc_banked_call
                           2580 ;	../../../contiki-sensinode//core/net/mac/xmac.c:510: packet = queuebuf_new_from_packetbuf();
   07B9 78r00              2581 	mov	r0,#_queuebuf_new_from_packetbuf
   07BB 79s00              2582 	mov	r1,#(_queuebuf_new_from_packetbuf >> 8)
   07BD 7As00              2583 	mov	r2,#(_queuebuf_new_from_packetbuf >> 16)
   07BF 12s00r00           2584 	lcall	__sdcc_banked_call
   07C2 AD 82              2585 	mov	r5,dpl
   07C4 AE 83              2586 	mov	r6,dph
   07C6 AF F0              2587 	mov	r7,b
   07C8 E5 81              2588 	mov	a,sp
   07CA 24 F7              2589 	add	a,#0xf7
   07CC F8                 2590 	mov	r0,a
   07CD A6 05              2591 	mov	@r0,ar5
   07CF 08                 2592 	inc	r0
   07D0 A6 06              2593 	mov	@r0,ar6
   07D2 08                 2594 	inc	r0
   07D3 A6 07              2595 	mov	@r0,ar7
                           2596 ;	../../../contiki-sensinode//core/net/mac/xmac.c:511: if(packet == NULL) {
   07D5 E5 81              2597 	mov	a,sp
   07D7 24 F7              2598 	add	a,#0xf7
   07D9 F8                 2599 	mov	r0,a
   07DA E6                 2600 	mov	a,@r0
   07DB 08                 2601 	inc	r0
   07DC 46                 2602 	orl	a,@r0
   07DD 70 06              2603 	jnz	00107$
                           2604 ;	../../../contiki-sensinode//core/net/mac/xmac.c:515: return MAC_TX_ERR;
   07DF 90 00 04           2605 	mov	dptr,#0x0004
   07E2 02s0ErA8           2606 	ljmp	00170$
   07E5                    2607 00107$:
                           2608 ;	../../../contiki-sensinode//core/net/mac/xmac.c:519: if(is_streaming == 1 &&
   07E5 90s00r43           2609 	mov	dptr,#_is_streaming
   07E8 E0                 2610 	movx	a,@dptr
   07E9 FF                 2611 	mov	r7,a
   07EA BF 01 02           2612 	cjne	r7,#0x01,00241$
   07ED 80 03              2613 	sjmp	00242$
   07EF                    2614 00241$:
   07EF 02s08r70           2615 	ljmp	00109$
   07F2                    2616 00242$:
                           2617 ;	../../../contiki-sensinode//core/net/mac/xmac.c:521: &is_streaming_to) ||
                           2618 ;	../../../contiki-sensinode//core/net/mac/xmac.c:520: (rimeaddr_cmp(packetbuf_addr(PACKETBUF_ADDR_RECEIVER),
   07F2 75 82 19           2619 	mov	dpl,#0x19
   07F5 78r00              2620 	mov	r0,#_packetbuf_addr
   07F7 79s00              2621 	mov	r1,#(_packetbuf_addr >> 8)
   07F9 7As00              2622 	mov	r2,#(_packetbuf_addr >> 16)
   07FB 12s00r00           2623 	lcall	__sdcc_banked_call
   07FE AB 82              2624 	mov	r3,dpl
   0800 AE 83              2625 	mov	r6,dph
   0802 AF F0              2626 	mov	r7,b
   0804 74r44              2627 	mov	a,#_is_streaming_to
   0806 C0 E0              2628 	push	acc
   0808 74s00              2629 	mov	a,#(_is_streaming_to >> 8)
   080A C0 E0              2630 	push	acc
   080C E4                 2631 	clr	a
   080D C0 E0              2632 	push	acc
   080F 8B 82              2633 	mov	dpl,r3
   0811 8E 83              2634 	mov	dph,r6
   0813 8F F0              2635 	mov	b,r7
   0815 78r00              2636 	mov	r0,#_rimeaddr_cmp
   0817 79s00              2637 	mov	r1,#(_rimeaddr_cmp >> 8)
   0819 7As00              2638 	mov	r2,#(_rimeaddr_cmp >> 16)
   081B 12s00r00           2639 	lcall	__sdcc_banked_call
   081E AE 82              2640 	mov	r6,dpl
   0820 AF 83              2641 	mov	r7,dph
   0822 15 81              2642 	dec	sp
   0824 15 81              2643 	dec	sp
   0826 15 81              2644 	dec	sp
   0828 EE                 2645 	mov	a,r6
   0829 4F                 2646 	orl	a,r7
   082A 70 3A              2647 	jnz	00108$
                           2648 ;	../../../contiki-sensinode//core/net/mac/xmac.c:523: &is_streaming_to_too))) {
                           2649 ;	../../../contiki-sensinode//core/net/mac/xmac.c:522: rimeaddr_cmp(packetbuf_addr(PACKETBUF_ADDR_RECEIVER),
   082C 75 82 19           2650 	mov	dpl,#0x19
   082F 78r00              2651 	mov	r0,#_packetbuf_addr
   0831 79s00              2652 	mov	r1,#(_packetbuf_addr >> 8)
   0833 7As00              2653 	mov	r2,#(_packetbuf_addr >> 16)
   0835 12s00r00           2654 	lcall	__sdcc_banked_call
   0838 AB 82              2655 	mov	r3,dpl
   083A AE 83              2656 	mov	r6,dph
   083C AF F0              2657 	mov	r7,b
   083E 74r4C              2658 	mov	a,#_is_streaming_to_too
   0840 C0 E0              2659 	push	acc
   0842 74s00              2660 	mov	a,#(_is_streaming_to_too >> 8)
   0844 C0 E0              2661 	push	acc
   0846 E4                 2662 	clr	a
   0847 C0 E0              2663 	push	acc
   0849 8B 82              2664 	mov	dpl,r3
   084B 8E 83              2665 	mov	dph,r6
   084D 8F F0              2666 	mov	b,r7
   084F 78r00              2667 	mov	r0,#_rimeaddr_cmp
   0851 79s00              2668 	mov	r1,#(_rimeaddr_cmp >> 8)
   0853 7As00              2669 	mov	r2,#(_rimeaddr_cmp >> 16)
   0855 12s00r00           2670 	lcall	__sdcc_banked_call
   0858 AE 82              2671 	mov	r6,dpl
   085A AF 83              2672 	mov	r7,dph
   085C 15 81              2673 	dec	sp
   085E 15 81              2674 	dec	sp
   0860 15 81              2675 	dec	sp
   0862 EE                 2676 	mov	a,r6
   0863 4F                 2677 	orl	a,r7
   0864 60 0A              2678 	jz	00109$
   0866                    2679 00108$:
                           2680 ;	../../../contiki-sensinode//core/net/mac/xmac.c:524: is_already_streaming = 1;
   0866 E5 81              2681 	mov	a,sp
   0868 24 FA              2682 	add	a,#0xfa
   086A F8                 2683 	mov	r0,a
   086B 76 01              2684 	mov	@r0,#0x01
   086D 08                 2685 	inc	r0
   086E 76 00              2686 	mov	@r0,#0x00
   0870                    2687 00109$:
                           2688 ;	../../../contiki-sensinode//core/net/mac/xmac.c:526: if(packetbuf_attr(PACKETBUF_ATTR_PACKET_TYPE) ==
   0870 75 82 0E           2689 	mov	dpl,#0x0E
   0873 78r00              2690 	mov	r0,#_packetbuf_attr
   0875 79s00              2691 	mov	r1,#(_packetbuf_attr >> 8)
   0877 7As00              2692 	mov	r2,#(_packetbuf_attr >> 16)
   0879 12s00r00           2693 	lcall	__sdcc_banked_call
   087C AE 82              2694 	mov	r6,dpl
   087E AF 83              2695 	mov	r7,dph
   0880 BE 02 05           2696 	cjne	r6,#0x02,00245$
   0883 BF 00 02           2697 	cjne	r7,#0x00,00245$
   0886 80 03              2698 	sjmp	00246$
   0888                    2699 00245$:
   0888 02s09r66           2700 	ljmp	00118$
   088B                    2701 00246$:
                           2702 ;	../../../contiki-sensinode//core/net/mac/xmac.c:528: is_streaming = 1;
   088B 90s00r43           2703 	mov	dptr,#_is_streaming
   088E 74 01              2704 	mov	a,#0x01
   0890 F0                 2705 	movx	@dptr,a
                           2706 ;	../../../contiki-sensinode//core/net/mac/xmac.c:529: if(rimeaddr_cmp(&is_streaming_to, &rimeaddr_null)) {
   0891 74r00              2707 	mov	a,#_rimeaddr_null
   0893 C0 E0              2708 	push	acc
   0895 74s00              2709 	mov	a,#(_rimeaddr_null >> 8)
   0897 C0 E0              2710 	push	acc
   0899 74 80              2711 	mov	a,#0x80
   089B C0 E0              2712 	push	acc
   089D 90s00r44           2713 	mov	dptr,#_is_streaming_to
   08A0 75 F0 00           2714 	mov	b,#0x00
   08A3 78r00              2715 	mov	r0,#_rimeaddr_cmp
   08A5 79s00              2716 	mov	r1,#(_rimeaddr_cmp >> 8)
   08A7 7As00              2717 	mov	r2,#(_rimeaddr_cmp >> 16)
   08A9 12s00r00           2718 	lcall	__sdcc_banked_call
   08AC AE 82              2719 	mov	r6,dpl
   08AE AF 83              2720 	mov	r7,dph
   08B0 15 81              2721 	dec	sp
   08B2 15 81              2722 	dec	sp
   08B4 15 81              2723 	dec	sp
   08B6 EE                 2724 	mov	a,r6
   08B7 4F                 2725 	orl	a,r7
   08B8 60 2F              2726 	jz	00115$
                           2727 ;	../../../contiki-sensinode//core/net/mac/xmac.c:530: rimeaddr_copy(&is_streaming_to, packetbuf_addr(PACKETBUF_ADDR_RECEIVER));
   08BA 75 82 19           2728 	mov	dpl,#0x19
   08BD 78r00              2729 	mov	r0,#_packetbuf_addr
   08BF 79s00              2730 	mov	r1,#(_packetbuf_addr >> 8)
   08C1 7As00              2731 	mov	r2,#(_packetbuf_addr >> 16)
   08C3 12s00r00           2732 	lcall	__sdcc_banked_call
   08C6 AB 82              2733 	mov	r3,dpl
   08C8 AE 83              2734 	mov	r6,dph
   08CA AF F0              2735 	mov	r7,b
   08CC C0 03              2736 	push	ar3
   08CE C0 06              2737 	push	ar6
   08D0 C0 07              2738 	push	ar7
   08D2 90s00r44           2739 	mov	dptr,#_is_streaming_to
   08D5 75 F0 00           2740 	mov	b,#0x00
   08D8 78r00              2741 	mov	r0,#_rimeaddr_copy
   08DA 79s00              2742 	mov	r1,#(_rimeaddr_copy >> 8)
   08DC 7As00              2743 	mov	r2,#(_rimeaddr_copy >> 16)
   08DE 12s00r00           2744 	lcall	__sdcc_banked_call
   08E1 15 81              2745 	dec	sp
   08E3 15 81              2746 	dec	sp
   08E5 15 81              2747 	dec	sp
   08E7 80 62              2748 	sjmp	00116$
   08E9                    2749 00115$:
                           2750 ;	../../../contiki-sensinode//core/net/mac/xmac.c:531: } else if(!rimeaddr_cmp(&is_streaming_to, packetbuf_addr(PACKETBUF_ADDR_RECEIVER))) {
   08E9 75 82 19           2751 	mov	dpl,#0x19
   08EC 78r00              2752 	mov	r0,#_packetbuf_addr
   08EE 79s00              2753 	mov	r1,#(_packetbuf_addr >> 8)
   08F0 7As00              2754 	mov	r2,#(_packetbuf_addr >> 16)
   08F2 12s00r00           2755 	lcall	__sdcc_banked_call
   08F5 AB 82              2756 	mov	r3,dpl
   08F7 AE 83              2757 	mov	r6,dph
   08F9 AF F0              2758 	mov	r7,b
   08FB C0 03              2759 	push	ar3
   08FD C0 06              2760 	push	ar6
   08FF C0 07              2761 	push	ar7
   0901 90s00r44           2762 	mov	dptr,#_is_streaming_to
   0904 75 F0 00           2763 	mov	b,#0x00
   0907 78r00              2764 	mov	r0,#_rimeaddr_cmp
   0909 79s00              2765 	mov	r1,#(_rimeaddr_cmp >> 8)
   090B 7As00              2766 	mov	r2,#(_rimeaddr_cmp >> 16)
   090D 12s00r00           2767 	lcall	__sdcc_banked_call
   0910 AE 82              2768 	mov	r6,dpl
   0912 AF 83              2769 	mov	r7,dph
   0914 15 81              2770 	dec	sp
   0916 15 81              2771 	dec	sp
   0918 15 81              2772 	dec	sp
   091A EE                 2773 	mov	a,r6
   091B 4F                 2774 	orl	a,r7
   091C 70 2D              2775 	jnz	00116$
                           2776 ;	../../../contiki-sensinode//core/net/mac/xmac.c:532: rimeaddr_copy(&is_streaming_to_too, packetbuf_addr(PACKETBUF_ADDR_RECEIVER));
   091E 75 82 19           2777 	mov	dpl,#0x19
   0921 78r00              2778 	mov	r0,#_packetbuf_addr
   0923 79s00              2779 	mov	r1,#(_packetbuf_addr >> 8)
   0925 7As00              2780 	mov	r2,#(_packetbuf_addr >> 16)
   0927 12s00r00           2781 	lcall	__sdcc_banked_call
   092A AB 82              2782 	mov	r3,dpl
   092C AE 83              2783 	mov	r6,dph
   092E AF F0              2784 	mov	r7,b
   0930 C0 03              2785 	push	ar3
   0932 C0 06              2786 	push	ar6
   0934 C0 07              2787 	push	ar7
   0936 90s00r4C           2788 	mov	dptr,#_is_streaming_to_too
   0939 75 F0 00           2789 	mov	b,#0x00
   093C 78r00              2790 	mov	r0,#_rimeaddr_copy
   093E 79s00              2791 	mov	r1,#(_rimeaddr_copy >> 8)
   0940 7As00              2792 	mov	r2,#(_rimeaddr_copy >> 16)
   0942 12s00r00           2793 	lcall	__sdcc_banked_call
   0945 15 81              2794 	dec	sp
   0947 15 81              2795 	dec	sp
   0949 15 81              2796 	dec	sp
   094B                    2797 00116$:
                           2798 ;	../../../contiki-sensinode//core/net/mac/xmac.c:534: stream_until = RTIMER_NOW() + DEFAULT_STREAM_TIME;
   094B AE E2              2799 	mov	r6,_T1CNTL
   094D 7F 00              2800 	mov	r7,#0x00
   094F AA E3              2801 	mov	r2,_T1CNTH
   0951 8A 03              2802 	mov	ar3,r2
   0953 E4                 2803 	clr	a
   0954 FA                 2804 	mov	r2,a
   0955 2E                 2805 	add	a,r6
   0956 FE                 2806 	mov	r6,a
   0957 EB                 2807 	mov	a,r3
   0958 3F                 2808 	addc	a,r7
   0959 FF                 2809 	mov	r7,a
   095A 90s00r54           2810 	mov	dptr,#_stream_until
   095D 74 09              2811 	mov	a,#0x09
   095F 2E                 2812 	add	a,r6
   0960 F0                 2813 	movx	@dptr,a
   0961 74 3D              2814 	mov	a,#0x3D
   0963 3F                 2815 	addc	a,r7
   0964 A3                 2816 	inc	dptr
   0965 F0                 2817 	movx	@dptr,a
   0966                    2818 00118$:
                           2819 ;	../../../contiki-sensinode//core/net/mac/xmac.c:538: off();
   0966 78r40              2820 	mov	r0,#_off
   0968 79s00              2821 	mov	r1,#(_off >> 8)
   096A 7As00              2822 	mov	r2,#(_off >> 16)
   096C 12s00r00           2823 	lcall	__sdcc_banked_call
                           2824 ;	../../../contiki-sensinode//core/net/mac/xmac.c:545: for(e = list_head(encounter_list); e != NULL; e = list_item_next(e)) {
   096F 90s00r10           2825 	mov	dptr,#_encounter_list
   0972 E0                 2826 	movx	a,@dptr
   0973 FB                 2827 	mov	r3,a
   0974 A3                 2828 	inc	dptr
   0975 E0                 2829 	movx	a,@dptr
   0976 FE                 2830 	mov	r6,a
   0977 A3                 2831 	inc	dptr
   0978 E0                 2832 	movx	a,@dptr
   0979 FF                 2833 	mov	r7,a
   097A 8B 82              2834 	mov	dpl,r3
   097C 8E 83              2835 	mov	dph,r6
   097E 8F F0              2836 	mov	b,r7
   0980 78r00              2837 	mov	r0,#_list_head
   0982 79s00              2838 	mov	r1,#(_list_head >> 8)
   0984 7As00              2839 	mov	r2,#(_list_head >> 16)
   0986 12s00r00           2840 	lcall	__sdcc_banked_call
   0989 AB 82              2841 	mov	r3,dpl
   098B AE 83              2842 	mov	r6,dph
   098D AF F0              2843 	mov	r7,b
   098F E5 81              2844 	mov	a,sp
   0991 24 F4              2845 	add	a,#0xf4
   0993 F8                 2846 	mov	r0,a
   0994 A6 03              2847 	mov	@r0,ar3
   0996 08                 2848 	inc	r0
   0997 A6 06              2849 	mov	@r0,ar6
   0999 08                 2850 	inc	r0
   099A A6 07              2851 	mov	@r0,ar7
   099C                    2852 00160$:
   099C E5 81              2853 	mov	a,sp
   099E 24 F4              2854 	add	a,#0xf4
   09A0 F8                 2855 	mov	r0,a
   09A1 E4                 2856 	clr	a
   09A2 C0 E0              2857 	push	acc
   09A4 E4                 2858 	clr	a
   09A5 C0 E0              2859 	push	acc
   09A7 E4                 2860 	clr	a
   09A8 C0 E0              2861 	push	acc
   09AA 86 82              2862 	mov	dpl,@r0
   09AC 08                 2863 	inc	r0
   09AD 86 83              2864 	mov	dph,@r0
   09AF 08                 2865 	inc	r0
   09B0 86 F0              2866 	mov	b,@r0
   09B2 12s00r00           2867 	lcall	___gptr_cmp
   09B5 15 81              2868 	dec	sp
   09B7 15 81              2869 	dec	sp
   09B9 15 81              2870 	dec	sp
   09BB 70 03              2871 	jnz	00249$
   09BD 02s0ArC3           2872 	ljmp	00163$
   09C0                    2873 00249$:
                           2874 ;	../../../contiki-sensinode//core/net/mac/xmac.c:546: const rimeaddr_t *neighbor = packetbuf_addr(PACKETBUF_ADDR_RECEIVER);
   09C0 75 82 19           2875 	mov	dpl,#0x19
   09C3 78r00              2876 	mov	r0,#_packetbuf_addr
   09C5 79s00              2877 	mov	r1,#(_packetbuf_addr >> 8)
   09C7 7As00              2878 	mov	r2,#(_packetbuf_addr >> 16)
   09C9 12s00r00           2879 	lcall	__sdcc_banked_call
   09CC AF 82              2880 	mov	r7,dpl
   09CE AE 83              2881 	mov	r6,dph
   09D0 AD F0              2882 	mov	r5,b
   09D2 8D 03              2883 	mov	ar3,r5
                           2884 ;	../../../contiki-sensinode//core/net/mac/xmac.c:548: if(rimeaddr_cmp(neighbor, &e->neighbor)) {
   09D4 E5 81              2885 	mov	a,sp
   09D6 24 F4              2886 	add	a,#0xf4
   09D8 F8                 2887 	mov	r0,a
   09D9 74 03              2888 	mov	a,#0x03
   09DB 26                 2889 	add	a,@r0
   09DC FA                 2890 	mov	r2,a
   09DD E4                 2891 	clr	a
   09DE 08                 2892 	inc	r0
   09DF 36                 2893 	addc	a,@r0
   09E0 FC                 2894 	mov	r4,a
   09E1 08                 2895 	inc	r0
   09E2 86 05              2896 	mov	ar5,@r0
   09E4 C0 02              2897 	push	ar2
   09E6 C0 04              2898 	push	ar4
   09E8 C0 05              2899 	push	ar5
   09EA 8F 82              2900 	mov	dpl,r7
   09EC 8E 83              2901 	mov	dph,r6
   09EE 8B F0              2902 	mov	b,r3
   09F0 78r00              2903 	mov	r0,#_rimeaddr_cmp
   09F2 79s00              2904 	mov	r1,#(_rimeaddr_cmp >> 8)
   09F4 7As00              2905 	mov	r2,#(_rimeaddr_cmp >> 16)
   09F6 12s00r00           2906 	lcall	__sdcc_banked_call
   09F9 AC 82              2907 	mov	r4,dpl
   09FB AD 83              2908 	mov	r5,dph
   09FD 15 81              2909 	dec	sp
   09FF 15 81              2910 	dec	sp
   0A01 15 81              2911 	dec	sp
   0A03 EC                 2912 	mov	a,r4
   0A04 4D                 2913 	orl	a,r5
   0A05 70 03              2914 	jnz	00250$
   0A07 02s0Ar91           2915 	ljmp	00162$
   0A0A                    2916 00250$:
                           2917 ;	../../../contiki-sensinode//core/net/mac/xmac.c:558: now = RTIMER_NOW();
   0A0A AA E2              2918 	mov	r2,_T1CNTL
   0A0C 7D 00              2919 	mov	r5,#0x00
   0A0E AC E3              2920 	mov	r4,_T1CNTH
   0A10 8C 07              2921 	mov	ar7,r4
   0A12 E4                 2922 	clr	a
   0A13 2A                 2923 	add	a,r2
   0A14 FA                 2924 	mov	r2,a
   0A15 EF                 2925 	mov	a,r7
   0A16 3D                 2926 	addc	a,r5
   0A17 FC                 2927 	mov	r4,a
                           2928 ;	../../../contiki-sensinode//core/net/mac/xmac.c:559: wait = ((rtimer_clock_t)(e->time - now)) % (DEFAULT_PERIOD);
   0A18 E5 81              2929 	mov	a,sp
   0A1A 24 F4              2930 	add	a,#0xf4
   0A1C F8                 2931 	mov	r0,a
   0A1D 74 0B              2932 	mov	a,#0x0B
   0A1F 26                 2933 	add	a,@r0
   0A20 FD                 2934 	mov	r5,a
   0A21 E4                 2935 	clr	a
   0A22 08                 2936 	inc	r0
   0A23 36                 2937 	addc	a,@r0
   0A24 FE                 2938 	mov	r6,a
   0A25 08                 2939 	inc	r0
   0A26 86 07              2940 	mov	ar7,@r0
   0A28 8D 82              2941 	mov	dpl,r5
   0A2A 8E 83              2942 	mov	dph,r6
   0A2C 8F F0              2943 	mov	b,r7
   0A2E 12s00r00           2944 	lcall	__gptrget
   0A31 FD                 2945 	mov	r5,a
   0A32 A3                 2946 	inc	dptr
   0A33 12s00r00           2947 	lcall	__gptrget
   0A36 FE                 2948 	mov	r6,a
   0A37 ED                 2949 	mov	a,r5
   0A38 C3                 2950 	clr	c
   0A39 9A                 2951 	subb	a,r2
   0A3A FD                 2952 	mov	r5,a
   0A3B EE                 2953 	mov	a,r6
   0A3C 9C                 2954 	subb	a,r4
   0A3D FE                 2955 	mov	r6,a
   0A3E C0 04              2956 	push	ar4
   0A40 C0 02              2957 	push	ar2
   0A42 74 A1              2958 	mov	a,#0xA1
   0A44 C0 E0              2959 	push	acc
   0A46 74 07              2960 	mov	a,#0x07
   0A48 C0 E0              2961 	push	acc
   0A4A 8D 82              2962 	mov	dpl,r5
   0A4C 8E 83              2963 	mov	dph,r6
   0A4E 12s00r00           2964 	lcall	__moduint
   0A51 AE 82              2965 	mov	r6,dpl
   0A53 AF 83              2966 	mov	r7,dph
   0A55 15 81              2967 	dec	sp
   0A57 15 81              2968 	dec	sp
   0A59 D0 02              2969 	pop	ar2
   0A5B D0 04              2970 	pop	ar4
                           2971 ;	../../../contiki-sensinode//core/net/mac/xmac.c:560: if(wait < 2 * DEFAULT_ON_TIME) {
   0A5D C3                 2972 	clr	c
   0A5E EE                 2973 	mov	a,r6
   0A5F 94 C2              2974 	subb	a,#0xC2
   0A61 EF                 2975 	mov	a,r7
   0A62 94 00              2976 	subb	a,#0x00
   0A64 50 04              2977 	jnc	00120$
                           2978 ;	../../../contiki-sensinode//core/net/mac/xmac.c:561: wait = DEFAULT_PERIOD;
   0A66 7E A1              2979 	mov	r6,#0xA1
   0A68 7F 07              2980 	mov	r7,#0x07
   0A6A                    2981 00120$:
                           2982 ;	../../../contiki-sensinode//core/net/mac/xmac.c:563: expected = now + wait - 2 * DEFAULT_ON_TIME;
   0A6A EE                 2983 	mov	a,r6
   0A6B 2A                 2984 	add	a,r2
   0A6C FE                 2985 	mov	r6,a
   0A6D EF                 2986 	mov	a,r7
   0A6E 3C                 2987 	addc	a,r4
   0A6F FF                 2988 	mov	r7,a
   0A70 EE                 2989 	mov	a,r6
   0A71 24 3E              2990 	add	a,#0x3E
   0A73 FE                 2991 	mov	r6,a
   0A74 EF                 2992 	mov	a,r7
   0A75 34 FF              2993 	addc	a,#0xFF
   0A77 FF                 2994 	mov	r7,a
                           2995 ;	../../../contiki-sensinode//core/net/mac/xmac.c:576: while(RTIMER_CLOCK_LT(RTIMER_NOW(), expected));
   0A78                    2996 00121$:
   0A78 AA E2              2997 	mov	r2,_T1CNTL
   0A7A 7B 00              2998 	mov	r3,#0x00
   0A7C AC E3              2999 	mov	r4,_T1CNTH
   0A7E 8C 05              3000 	mov	ar5,r4
   0A80 E4                 3001 	clr	a
   0A81 FC                 3002 	mov	r4,a
   0A82 2A                 3003 	add	a,r2
   0A83 FA                 3004 	mov	r2,a
   0A84 ED                 3005 	mov	a,r5
   0A85 3B                 3006 	addc	a,r3
   0A86 FB                 3007 	mov	r3,a
   0A87 EA                 3008 	mov	a,r2
   0A88 C3                 3009 	clr	c
   0A89 9E                 3010 	subb	a,r6
   0A8A FA                 3011 	mov	r2,a
   0A8B EB                 3012 	mov	a,r3
   0A8C 9F                 3013 	subb	a,r7
   0A8D FB                 3014 	mov	r3,a
   0A8E 20 E7 E7           3015 	jb	acc.7,00121$
   0A91                    3016 00162$:
                           3017 ;	../../../contiki-sensinode//core/net/mac/xmac.c:545: for(e = list_head(encounter_list); e != NULL; e = list_item_next(e)) {
   0A91 E5 81              3018 	mov	a,sp
   0A93 24 F4              3019 	add	a,#0xf4
   0A95 F8                 3020 	mov	r0,a
   0A96 86 03              3021 	mov	ar3,@r0
   0A98 08                 3022 	inc	r0
   0A99 86 06              3023 	mov	ar6,@r0
   0A9B 08                 3024 	inc	r0
   0A9C 86 07              3025 	mov	ar7,@r0
   0A9E 8B 82              3026 	mov	dpl,r3
   0AA0 8E 83              3027 	mov	dph,r6
   0AA2 8F F0              3028 	mov	b,r7
   0AA4 78r00              3029 	mov	r0,#_list_item_next
   0AA6 79s00              3030 	mov	r1,#(_list_item_next >> 8)
   0AA8 7As00              3031 	mov	r2,#(_list_item_next >> 16)
   0AAA 12s00r00           3032 	lcall	__sdcc_banked_call
   0AAD AB 82              3033 	mov	r3,dpl
   0AAF AE 83              3034 	mov	r6,dph
   0AB1 AF F0              3035 	mov	r7,b
   0AB3 E5 81              3036 	mov	a,sp
   0AB5 24 F4              3037 	add	a,#0xf4
   0AB7 F8                 3038 	mov	r0,a
   0AB8 A6 03              3039 	mov	@r0,ar3
   0ABA 08                 3040 	inc	r0
   0ABB A6 06              3041 	mov	@r0,ar6
   0ABD 08                 3042 	inc	r0
   0ABE A6 07              3043 	mov	@r0,ar7
   0AC0 02s09r9C           3044 	ljmp	00160$
   0AC3                    3045 00163$:
                           3046 ;	../../../contiki-sensinode//core/net/mac/xmac.c:584: we_are_sending = 1;
   0AC3 90s00r0B           3047 	mov	dptr,#_we_are_sending
   0AC6 74 01              3048 	mov	a,#0x01
   0AC8 F0                 3049 	movx	@dptr,a
                           3050 ;	../../../contiki-sensinode//core/net/mac/xmac.c:586: t0 = RTIMER_NOW();
   0AC9 AE E2              3051 	mov	r6,_T1CNTL
   0ACB 7F 00              3052 	mov	r7,#0x00
   0ACD AA E3              3053 	mov	r2,_T1CNTH
   0ACF 8A 03              3054 	mov	ar3,r2
   0AD1 E4                 3055 	clr	a
   0AD2 FA                 3056 	mov	r2,a
   0AD3 2E                 3057 	add	a,r6
   0AD4 FE                 3058 	mov	r6,a
   0AD5 EB                 3059 	mov	a,r3
   0AD6 3F                 3060 	addc	a,r7
   0AD7 FF                 3061 	mov	r7,a
   0AD8 E5 81              3062 	mov	a,sp
   0ADA 24 B4              3063 	add	a,#0xb4
   0ADC F8                 3064 	mov	r0,a
   0ADD A6 06              3065 	mov	@r0,ar6
   0ADF 08                 3066 	inc	r0
   0AE0 A6 07              3067 	mov	@r0,ar7
                           3068 ;	../../../contiki-sensinode//core/net/mac/xmac.c:595: collisions = 0;
   0AE2 7B 00              3069 	mov	r3,#0x00
                           3070 ;	../../../contiki-sensinode//core/net/mac/xmac.c:596: if(!is_already_streaming) {
   0AE4 E5 81              3071 	mov	a,sp
   0AE6 24 FA              3072 	add	a,#0xfa
   0AE8 F8                 3073 	mov	r0,a
   0AE9 E6                 3074 	mov	a,@r0
   0AEA 08                 3075 	inc	r0
   0AEB 46                 3076 	orl	a,@r0
   0AEC 60 03              3077 	jz	00253$
   0AEE 02s0Dr2C           3078 	ljmp	00140$
   0AF1                    3079 00253$:
                           3080 ;	../../../contiki-sensinode//core/net/mac/xmac.c:597: watchdog_stop();
   0AF1 78r00              3081 	mov	r0,#_watchdog_periodic
   0AF3 79s00              3082 	mov	r1,#(_watchdog_periodic >> 8)
   0AF5 7As00              3083 	mov	r2,#(_watchdog_periodic >> 16)
   0AF7 12s00r00           3084 	lcall	__sdcc_banked_call
                           3085 ;	../../../contiki-sensinode//core/net/mac/xmac.c:598: got_strobe_ack = 0;
   0AFA E5 81              3086 	mov	a,sp
   0AFC 24 BA              3087 	add	a,#0xba
   0AFE F8                 3088 	mov	r0,a
   0AFF 76 00              3089 	mov	@r0,#0x00
                           3090 ;	../../../contiki-sensinode//core/net/mac/xmac.c:599: t = RTIMER_NOW();
   0B01 AA E2              3091 	mov	r2,_T1CNTL
   0B03 7F 00              3092 	mov	r7,#0x00
   0B05 AD E3              3093 	mov	r5,_T1CNTH
   0B07 8D 06              3094 	mov	ar6,r5
   0B09 E4                 3095 	clr	a
   0B0A FD                 3096 	mov	r5,a
   0B0B 2A                 3097 	add	a,r2
   0B0C FA                 3098 	mov	r2,a
   0B0D EE                 3099 	mov	a,r6
   0B0E 3F                 3100 	addc	a,r7
   0B0F FF                 3101 	mov	r7,a
   0B10 E5 81              3102 	mov	a,sp
   0B12 24 B6              3103 	add	a,#0xb6
   0B14 F8                 3104 	mov	r0,a
   0B15 A6 02              3105 	mov	@r0,ar2
   0B17 08                 3106 	inc	r0
   0B18 A6 07              3107 	mov	@r0,ar7
                           3108 ;	../../../contiki-sensinode//core/net/mac/xmac.c:600: for(strobes = 0, collisions = 0;
   0B1A 7B 00              3109 	mov	r3,#0x00
   0B1C E5 81              3110 	mov	a,sp
   0B1E 24 FC              3111 	add	a,#0xfc
   0B20 F8                 3112 	mov	r0,a
   0B21 E5 81              3113 	mov	a,sp
   0B23 24 FD              3114 	add	a,#0xfd
   0B25 F9                 3115 	mov	r1,a
   0B26 E6                 3116 	mov	a,@r0
   0B27 F7                 3117 	mov	@r1,a
   0B28 E5 81              3118 	mov	a,sp
   0B2A 24 B8              3119 	add	a,#0xb8
   0B2C F8                 3120 	mov	r0,a
   0B2D E4                 3121 	clr	a
   0B2E F6                 3122 	mov	@r0,a
   0B2F 08                 3123 	inc	r0
   0B30 F6                 3124 	mov	@r0,a
                           3125 ;	../../../contiki-sensinode//core/net/mac/xmac.c:757: return MAC_TX_COLLISION;
                           3126 ;	../../../contiki-sensinode//core/net/mac/xmac.c:600: for(strobes = 0, collisions = 0;
   0B31                    3127 00166$:
                           3128 ;	../../../contiki-sensinode//core/net/mac/xmac.c:601: got_strobe_ack == 0 && collisions == 0 &&
   0B31 E5 81              3129 	mov	a,sp
   0B33 24 BA              3130 	add	a,#0xba
   0B35 F8                 3131 	mov	r0,a
   0B36 B6 00 02           3132 	cjne	@r0,#0x00,00254$
   0B39 80 03              3133 	sjmp	00255$
   0B3B                    3134 00254$:
   0B3B 02s0Dr2C           3135 	ljmp	00140$
   0B3E                    3136 00255$:
                           3137 ;	../../../contiki-sensinode//core/net/mac/xmac.c:602: RTIMER_CLOCK_LT(RTIMER_NOW(), t0 + xmac_config.strobe_time);
   0B3E C0 03              3138 	push	ar3
   0B40 AC E2              3139 	mov	r4,_T1CNTL
   0B42 7D 00              3140 	mov	r5,#0x00
   0B44 AA E3              3141 	mov	r2,_T1CNTH
   0B46 8A 03              3142 	mov	ar3,r2
   0B48 E4                 3143 	clr	a
   0B49 2C                 3144 	add	a,r4
   0B4A FC                 3145 	mov	r4,a
   0B4B EB                 3146 	mov	a,r3
   0B4C 3D                 3147 	addc	a,r5
   0B4D FD                 3148 	mov	r5,a
   0B4E 90s00r04           3149 	mov	dptr,#(_xmac_config + 0x0004)
   0B51 E0                 3150 	movx	a,@dptr
   0B52 FA                 3151 	mov	r2,a
   0B53 A3                 3152 	inc	dptr
   0B54 E0                 3153 	movx	a,@dptr
   0B55 FB                 3154 	mov	r3,a
   0B56 E5 81              3155 	mov	a,sp
   0B58 24 B3              3156 	add	a,#0xb3
   0B5A F8                 3157 	mov	r0,a
   0B5B EA                 3158 	mov	a,r2
   0B5C 26                 3159 	add	a,@r0
   0B5D FA                 3160 	mov	r2,a
   0B5E EB                 3161 	mov	a,r3
   0B5F 08                 3162 	inc	r0
   0B60 36                 3163 	addc	a,@r0
   0B61 FB                 3164 	mov	r3,a
   0B62 EC                 3165 	mov	a,r4
   0B63 C3                 3166 	clr	c
   0B64 9A                 3167 	subb	a,r2
   0B65 FA                 3168 	mov	r2,a
   0B66 ED                 3169 	mov	a,r5
   0B67 9B                 3170 	subb	a,r3
   0B68 D0 03              3171 	pop	ar3
   0B6A 20 E7 03           3172 	jb	acc.7,00256$
   0B6D 02s0Dr2C           3173 	ljmp	00140$
   0B70                    3174 00256$:
                           3175 ;	../../../contiki-sensinode//core/net/mac/xmac.c:605: while(got_strobe_ack == 0 &&
   0B70                    3176 00127$:
   0B70 E5 81              3177 	mov	a,sp
   0B72 24 BA              3178 	add	a,#0xba
   0B74 F8                 3179 	mov	r0,a
   0B75 E6                 3180 	mov	a,@r0
   0B76 70 2F              3181 	jnz	00129$
                           3182 ;	../../../contiki-sensinode//core/net/mac/xmac.c:606: RTIMER_CLOCK_LT(RTIMER_NOW(), t + xmac_config.strobe_wait_time)) {
   0B78 C0 03              3183 	push	ar3
   0B7A AC E2              3184 	mov	r4,_T1CNTL
   0B7C 7D 00              3185 	mov	r5,#0x00
   0B7E AA E3              3186 	mov	r2,_T1CNTH
   0B80 8A 03              3187 	mov	ar3,r2
   0B82 E4                 3188 	clr	a
   0B83 2C                 3189 	add	a,r4
   0B84 FC                 3190 	mov	r4,a
   0B85 EB                 3191 	mov	a,r3
   0B86 3D                 3192 	addc	a,r5
   0B87 FD                 3193 	mov	r5,a
   0B88 90s00r06           3194 	mov	dptr,#(_xmac_config + 0x0006)
   0B8B E0                 3195 	movx	a,@dptr
   0B8C FA                 3196 	mov	r2,a
   0B8D A3                 3197 	inc	dptr
   0B8E E0                 3198 	movx	a,@dptr
   0B8F FB                 3199 	mov	r3,a
   0B90 E5 81              3200 	mov	a,sp
   0B92 24 B5              3201 	add	a,#0xb5
   0B94 F8                 3202 	mov	r0,a
   0B95 EA                 3203 	mov	a,r2
   0B96 26                 3204 	add	a,@r0
   0B97 FA                 3205 	mov	r2,a
   0B98 EB                 3206 	mov	a,r3
   0B99 08                 3207 	inc	r0
   0B9A 36                 3208 	addc	a,@r0
   0B9B FB                 3209 	mov	r3,a
   0B9C EC                 3210 	mov	a,r4
   0B9D C3                 3211 	clr	c
   0B9E 9A                 3212 	subb	a,r2
   0B9F FA                 3213 	mov	r2,a
   0BA0 ED                 3214 	mov	a,r5
   0BA1 9B                 3215 	subb	a,r3
   0BA2 D0 03              3216 	pop	ar3
   0BA4 20 E7 C9           3217 	jb	acc.7,00127$
   0BA7                    3218 00129$:
                           3219 ;	../../../contiki-sensinode//core/net/mac/xmac.c:638: t = RTIMER_NOW();
   0BA7 C0 03              3220 	push	ar3
   0BA9 AC E2              3221 	mov	r4,_T1CNTL
   0BAB 7D 00              3222 	mov	r5,#0x00
   0BAD AA E3              3223 	mov	r2,_T1CNTH
   0BAF 8A 03              3224 	mov	ar3,r2
   0BB1 E4                 3225 	clr	a
   0BB2 FA                 3226 	mov	r2,a
   0BB3 2C                 3227 	add	a,r4
   0BB4 FC                 3228 	mov	r4,a
   0BB5 EB                 3229 	mov	a,r3
   0BB6 3D                 3230 	addc	a,r5
   0BB7 FD                 3231 	mov	r5,a
   0BB8 E5 81              3232 	mov	a,sp
   0BBA 24 B5              3233 	add	a,#0xb5
   0BBC F8                 3234 	mov	r0,a
   0BBD A6 04              3235 	mov	@r0,ar4
   0BBF 08                 3236 	inc	r0
   0BC0 A6 05              3237 	mov	@r0,ar5
                           3238 ;	../../../contiki-sensinode//core/net/mac/xmac.c:640: if(got_strobe_ack == 0 && collisions == 0) {
   0BC2 D0 03              3239 	pop	ar3
   0BC4 E5 81              3240 	mov	a,sp
   0BC6 24 BA              3241 	add	a,#0xba
   0BC8 F8                 3242 	mov	r0,a
   0BC9 E6                 3243 	mov	a,@r0
   0BCA 60 03              3244 	jz	00259$
   0BCC 02s0Dr1E           3245 	ljmp	00168$
   0BCF                    3246 00259$:
                           3247 ;	../../../contiki-sensinode//core/net/mac/xmac.c:642: if(is_broadcast) {
   0BCF E5 81              3248 	mov	a,sp
   0BD1 24 F2              3249 	add	a,#0xf2
   0BD3 F8                 3250 	mov	r0,a
   0BD4 E6                 3251 	mov	a,@r0
   0BD5 08                 3252 	inc	r0
   0BD6 46                 3253 	orl	a,@r0
   0BD7 70 03              3254 	jnz	00260$
   0BD9 02s0Cr84           3255 	ljmp	00134$
   0BDC                    3256 00260$:
                           3257 ;	../../../contiki-sensinode//core/net/mac/xmac.c:647: queuebuf_to_packetbuf(packet);
   0BDC C0 03              3258 	push	ar3
   0BDE E5 81              3259 	mov	a,sp
   0BE0 24 F6              3260 	add	a,#0xf6
   0BE2 F8                 3261 	mov	r0,a
   0BE3 86 82              3262 	mov	dpl,@r0
   0BE5 08                 3263 	inc	r0
   0BE6 86 83              3264 	mov	dph,@r0
   0BE8 08                 3265 	inc	r0
   0BE9 86 F0              3266 	mov	b,@r0
   0BEB C0 03              3267 	push	ar3
   0BED 78r00              3268 	mov	r0,#_queuebuf_to_packetbuf
   0BEF 79s00              3269 	mov	r1,#(_queuebuf_to_packetbuf >> 8)
   0BF1 7As00              3270 	mov	r2,#(_queuebuf_to_packetbuf >> 16)
   0BF3 12s00r00           3271 	lcall	__sdcc_banked_call
   0BF6 D0 03              3272 	pop	ar3
                           3273 ;	../../../contiki-sensinode//core/net/mac/xmac.c:648: ret = NETSTACK_RADIO.send(packetbuf_hdrptr(), packetbuf_totlen());
   0BF8 90s00r09           3274 	mov	dptr,#(_cc2530_rf_driver + 0x0009)
   0BFB E4                 3275 	clr	a
   0BFC 93                 3276 	movc	a,@a+dptr
   0BFD FA                 3277 	mov	r2,a
   0BFE A3                 3278 	inc	dptr
   0BFF E4                 3279 	clr	a
   0C00 93                 3280 	movc	a,@a+dptr
   0C01 FC                 3281 	mov	r4,a
   0C02 A3                 3282 	inc	dptr
   0C03 E4                 3283 	clr	a
   0C04 93                 3284 	movc	a,@a+dptr
   0C05 FD                 3285 	mov	r5,a
   0C06 C0 05              3286 	push	ar5
   0C08 C0 04              3287 	push	ar4
   0C0A C0 03              3288 	push	ar3
   0C0C C0 02              3289 	push	ar2
   0C0E 78r00              3290 	mov	r0,#_packetbuf_totlen
   0C10 79s00              3291 	mov	r1,#(_packetbuf_totlen >> 8)
   0C12 7As00              3292 	mov	r2,#(_packetbuf_totlen >> 16)
   0C14 12s00r00           3293 	lcall	__sdcc_banked_call
   0C17 C8                 3294 	xch	a,r0
   0C18 E5 81              3295 	mov	a,sp
   0C1A 24 FA              3296 	add	a,#0xfa
   0C1C C8                 3297 	xch	a,r0
   0C1D A6 82              3298 	mov	@r0,dpl
   0C1F 08                 3299 	inc	r0
   0C20 A6 83              3300 	mov	@r0,dph
   0C22 D0 02              3301 	pop	ar2
   0C24 D0 03              3302 	pop	ar3
   0C26 C0 02              3303 	push	ar2
   0C28 78r00              3304 	mov	r0,#_packetbuf_hdrptr
   0C2A 79s00              3305 	mov	r1,#(_packetbuf_hdrptr >> 8)
   0C2C 7As00              3306 	mov	r2,#(_packetbuf_hdrptr >> 16)
   0C2E 12s00r00           3307 	lcall	__sdcc_banked_call
   0C31 AB 82              3308 	mov	r3,dpl
   0C33 AE 83              3309 	mov	r6,dph
   0C35 AF F0              3310 	mov	r7,b
   0C37 D0 02              3311 	pop	ar2
   0C39 D0 04              3312 	pop	ar4
   0C3B D0 05              3313 	pop	ar5
   0C3D C0 05              3314 	push	ar5
   0C3F C0 04              3315 	push	ar4
   0C41 C0 03              3316 	push	ar3
   0C43 C0 02              3317 	push	ar2
   0C45 E5 81              3318 	mov	a,sp
   0C47 24 FA              3319 	add	a,#0xfa
   0C49 F8                 3320 	mov	r0,a
   0C4A E6                 3321 	mov	a,@r0
   0C4B C0 E0              3322 	push	acc
   0C4D 08                 3323 	inc	r0
   0C4E E6                 3324 	mov	a,@r0
   0C4F C0 E0              3325 	push	acc
   0C51 C0 02              3326 	push	ar2
   0C53 C0 04              3327 	push	ar4
   0C55 C0 05              3328 	push	ar5
   0C57 8B 82              3329 	mov	dpl,r3
   0C59 8E 83              3330 	mov	dph,r6
   0C5B 8F F0              3331 	mov	b,r7
   0C5D D0 02              3332 	pop	ar2
   0C5F D0 01              3333 	pop	ar1
   0C61 D0 00              3334 	pop	ar0
   0C63 12s00r00           3335 	lcall	__sdcc_banked_call
   0C66 15 81              3336 	dec	sp
   0C68 15 81              3337 	dec	sp
   0C6A D0 02              3338 	pop	ar2
   0C6C D0 03              3339 	pop	ar3
   0C6E D0 04              3340 	pop	ar4
   0C70 D0 05              3341 	pop	ar5
                           3342 ;	../../../contiki-sensinode//core/net/mac/xmac.c:650: off();
   0C72 C0 03              3343 	push	ar3
   0C74 78r40              3344 	mov	r0,#_off
   0C76 79s00              3345 	mov	r1,#(_off >> 8)
   0C78 7As00              3346 	mov	r2,#(_off >> 16)
   0C7A 12s00r00           3347 	lcall	__sdcc_banked_call
   0C7D D0 03              3348 	pop	ar3
   0C7F D0 03              3349 	pop	ar3
   0C81 02s0Dr1E           3350 	ljmp	00168$
   0C84                    3351 00134$:
                           3352 ;	../../../contiki-sensinode//core/net/mac/xmac.c:655: on();
   0C84 C0 03              3353 	push	ar3
   0C86 C0 03              3354 	push	ar3
   0C88 78r00              3355 	mov	r0,#_on
   0C8A 79s00              3356 	mov	r1,#(_on >> 8)
   0C8C 7As00              3357 	mov	r2,#(_on >> 16)
   0C8E 12s00r00           3358 	lcall	__sdcc_banked_call
   0C91 D0 03              3359 	pop	ar3
                           3360 ;	../../../contiki-sensinode//core/net/mac/xmac.c:656: ret = NETSTACK_RADIO.send(strobe, strobe_len);
   0C93 90s00r09           3361 	mov	dptr,#(_cc2530_rf_driver + 0x0009)
   0C96 E4                 3362 	clr	a
   0C97 93                 3363 	movc	a,@a+dptr
   0C98 FD                 3364 	mov	r5,a
   0C99 A3                 3365 	inc	dptr
   0C9A E4                 3366 	clr	a
   0C9B 93                 3367 	movc	a,@a+dptr
   0C9C FE                 3368 	mov	r6,a
   0C9D A3                 3369 	inc	dptr
   0C9E E4                 3370 	clr	a
   0C9F 93                 3371 	movc	a,@a+dptr
   0CA0 FF                 3372 	mov	r7,a
   0CA1 E5 81              3373 	mov	a,sp
   0CA3 24 ED              3374 	add	a,#0xed
   0CA5 F8                 3375 	mov	r0,a
   0CA6 A9 81              3376 	mov	r1,sp
   0CA8 19                 3377 	dec	r1
   0CA9 19                 3378 	dec	r1
   0CAA E6                 3379 	mov	a,@r0
   0CAB F7                 3380 	mov	@r1,a
   0CAC 08                 3381 	inc	r0
   0CAD 09                 3382 	inc	r1
   0CAE E6                 3383 	mov	a,@r0
   0CAF F7                 3384 	mov	@r1,a
   0CB0 E5 81              3385 	mov	a,sp
   0CB2 24 FC              3386 	add	a,#0xfc
   0CB4 F8                 3387 	mov	r0,a
   0CB5 86 02              3388 	mov	ar2,@r0
   0CB7 7B 00              3389 	mov	r3,#0x00
   0CB9 7C 40              3390 	mov	r4,#0x40
   0CBB C0 07              3391 	push	ar7
   0CBD C0 06              3392 	push	ar6
   0CBF C0 05              3393 	push	ar5
   0CC1 C0 03              3394 	push	ar3
   0CC3 E5 81              3395 	mov	a,sp
   0CC5 24 FA              3396 	add	a,#0xfa
   0CC7 F8                 3397 	mov	r0,a
   0CC8 E6                 3398 	mov	a,@r0
   0CC9 C0 E0              3399 	push	acc
   0CCB 08                 3400 	inc	r0
   0CCC E6                 3401 	mov	a,@r0
   0CCD C0 E0              3402 	push	acc
   0CCF C0 05              3403 	push	ar5
   0CD1 C0 06              3404 	push	ar6
   0CD3 C0 07              3405 	push	ar7
   0CD5 8A 82              3406 	mov	dpl,r2
   0CD7 8B 83              3407 	mov	dph,r3
   0CD9 8C F0              3408 	mov	b,r4
   0CDB D0 02              3409 	pop	ar2
   0CDD D0 01              3410 	pop	ar1
   0CDF D0 00              3411 	pop	ar0
   0CE1 12s00r00           3412 	lcall	__sdcc_banked_call
   0CE4 15 81              3413 	dec	sp
   0CE6 15 81              3414 	dec	sp
   0CE8 D0 03              3415 	pop	ar3
   0CEA D0 05              3416 	pop	ar5
   0CEC D0 06              3417 	pop	ar6
   0CEE D0 07              3418 	pop	ar7
                           3419 ;	../../../contiki-sensinode//core/net/mac/xmac.c:672: if(detect_ack()) {
   0CF0 C0 03              3420 	push	ar3
   0CF2 78r8B              3421 	mov	r0,#_detect_ack
   0CF4 79s04              3422 	mov	r1,#(_detect_ack >> 8)
   0CF6 7As00              3423 	mov	r2,#(_detect_ack >> 16)
   0CF8 12s00r00           3424 	lcall	__sdcc_banked_call
   0CFB E5 82              3425 	mov	a,dpl
   0CFD 85 83 F0           3426 	mov	b,dph
   0D00 D0 03              3427 	pop	ar3
   0D02 D0 03              3428 	pop	ar3
   0D04 45 F0              3429 	orl	a,b
   0D06 60 09              3430 	jz	00131$
                           3431 ;	../../../contiki-sensinode//core/net/mac/xmac.c:673: got_strobe_ack = 1;
   0D08 E5 81              3432 	mov	a,sp
   0D0A 24 BA              3433 	add	a,#0xba
   0D0C F8                 3434 	mov	r0,a
   0D0D 76 01              3435 	mov	@r0,#0x01
   0D0F 80 0D              3436 	sjmp	00168$
   0D11                    3437 00131$:
                           3438 ;	../../../contiki-sensinode//core/net/mac/xmac.c:675: off();
   0D11 C0 03              3439 	push	ar3
   0D13 78r40              3440 	mov	r0,#_off
   0D15 79s00              3441 	mov	r1,#(_off >> 8)
   0D17 7As00              3442 	mov	r2,#(_off >> 16)
   0D19 12s00r00           3443 	lcall	__sdcc_banked_call
   0D1C D0 03              3444 	pop	ar3
   0D1E                    3445 00168$:
                           3446 ;	../../../contiki-sensinode//core/net/mac/xmac.c:603: strobes++) {
   0D1E E5 81              3447 	mov	a,sp
   0D20 24 B8              3448 	add	a,#0xb8
   0D22 F8                 3449 	mov	r0,a
   0D23 06                 3450 	inc	@r0
   0D24 B6 00 02           3451 	cjne	@r0,#0x00,00264$
   0D27 08                 3452 	inc	r0
   0D28 06                 3453 	inc	@r0
   0D29                    3454 00264$:
   0D29 02s0Br31           3455 	ljmp	00166$
   0D2C                    3456 00140$:
                           3457 ;	../../../contiki-sensinode//core/net/mac/xmac.c:700: queuebuf_to_packetbuf(packet);
   0D2C E5 81              3458 	mov	a,sp
   0D2E 24 F7              3459 	add	a,#0xf7
   0D30 F8                 3460 	mov	r0,a
   0D31 86 82              3461 	mov	dpl,@r0
   0D33 08                 3462 	inc	r0
   0D34 86 83              3463 	mov	dph,@r0
   0D36 08                 3464 	inc	r0
   0D37 86 F0              3465 	mov	b,@r0
   0D39 C0 03              3466 	push	ar3
   0D3B 78r00              3467 	mov	r0,#_queuebuf_to_packetbuf
   0D3D 79s00              3468 	mov	r1,#(_queuebuf_to_packetbuf >> 8)
   0D3F 7As00              3469 	mov	r2,#(_queuebuf_to_packetbuf >> 16)
   0D41 12s00r00           3470 	lcall	__sdcc_banked_call
   0D44 D0 03              3471 	pop	ar3
                           3472 ;	../../../contiki-sensinode//core/net/mac/xmac.c:701: queuebuf_free(packet);
   0D46 E5 81              3473 	mov	a,sp
   0D48 24 F7              3474 	add	a,#0xf7
   0D4A F8                 3475 	mov	r0,a
   0D4B 86 82              3476 	mov	dpl,@r0
   0D4D 08                 3477 	inc	r0
   0D4E 86 83              3478 	mov	dph,@r0
   0D50 08                 3479 	inc	r0
   0D51 86 F0              3480 	mov	b,@r0
   0D53 C0 03              3481 	push	ar3
   0D55 78r00              3482 	mov	r0,#_queuebuf_free
   0D57 79s00              3483 	mov	r1,#(_queuebuf_free >> 8)
   0D59 7As00              3484 	mov	r2,#(_queuebuf_free >> 16)
   0D5B 12s00r00           3485 	lcall	__sdcc_banked_call
   0D5E D0 03              3486 	pop	ar3
                           3487 ;	../../../contiki-sensinode//core/net/mac/xmac.c:704: if((is_broadcast || got_strobe_ack || is_streaming) && collisions == 0) {
   0D60 E5 81              3488 	mov	a,sp
   0D62 24 F2              3489 	add	a,#0xf2
   0D64 F8                 3490 	mov	r0,a
   0D65 E6                 3491 	mov	a,@r0
   0D66 08                 3492 	inc	r0
   0D67 46                 3493 	orl	a,@r0
   0D68 70 12              3494 	jnz	00149$
   0D6A E5 81              3495 	mov	a,sp
   0D6C 24 BA              3496 	add	a,#0xba
   0D6E F8                 3497 	mov	r0,a
   0D6F E6                 3498 	mov	a,@r0
   0D70 70 0A              3499 	jnz	00149$
   0D72 90s00r43           3500 	mov	dptr,#_is_streaming
   0D75 E0                 3501 	movx	a,@dptr
   0D76 FF                 3502 	mov	r7,a
   0D77 70 03              3503 	jnz	00267$
   0D79 02s0Er23           3504 	ljmp	00146$
   0D7C                    3505 00267$:
   0D7C                    3506 00149$:
   0D7C EB                 3507 	mov	a,r3
   0D7D 60 03              3508 	jz	00268$
   0D7F 02s0Er23           3509 	ljmp	00146$
   0D82                    3510 00268$:
                           3511 ;	../../../contiki-sensinode//core/net/mac/xmac.c:705: ret = NETSTACK_RADIO.send(packetbuf_hdrptr(), packetbuf_totlen());
   0D82 C0 03              3512 	push	ar3
   0D84 90s00r09           3513 	mov	dptr,#(_cc2530_rf_driver + 0x0009)
   0D87 E4                 3514 	clr	a
   0D88 93                 3515 	movc	a,@a+dptr
   0D89 FD                 3516 	mov	r5,a
   0D8A A3                 3517 	inc	dptr
   0D8B E4                 3518 	clr	a
   0D8C 93                 3519 	movc	a,@a+dptr
   0D8D FE                 3520 	mov	r6,a
   0D8E A3                 3521 	inc	dptr
   0D8F E4                 3522 	clr	a
   0D90 93                 3523 	movc	a,@a+dptr
   0D91 FF                 3524 	mov	r7,a
   0D92 C0 07              3525 	push	ar7
   0D94 C0 06              3526 	push	ar6
   0D96 C0 05              3527 	push	ar5
   0D98 C0 03              3528 	push	ar3
   0D9A 78r00              3529 	mov	r0,#_packetbuf_totlen
   0D9C 79s00              3530 	mov	r1,#(_packetbuf_totlen >> 8)
   0D9E 7As00              3531 	mov	r2,#(_packetbuf_totlen >> 16)
   0DA0 12s00r00           3532 	lcall	__sdcc_banked_call
   0DA3 C8                 3533 	xch	a,r0
   0DA4 E5 81              3534 	mov	a,sp
   0DA6 24 FA              3535 	add	a,#0xfa
   0DA8 C8                 3536 	xch	a,r0
   0DA9 A6 82              3537 	mov	@r0,dpl
   0DAB 08                 3538 	inc	r0
   0DAC A6 83              3539 	mov	@r0,dph
   0DAE D0 03              3540 	pop	ar3
   0DB0 78r00              3541 	mov	r0,#_packetbuf_hdrptr
   0DB2 79s00              3542 	mov	r1,#(_packetbuf_hdrptr >> 8)
   0DB4 7As00              3543 	mov	r2,#(_packetbuf_hdrptr >> 16)
   0DB6 12s00r00           3544 	lcall	__sdcc_banked_call
   0DB9 AA 82              3545 	mov	r2,dpl
   0DBB AB 83              3546 	mov	r3,dph
   0DBD AC F0              3547 	mov	r4,b
   0DBF D0 05              3548 	pop	ar5
   0DC1 D0 06              3549 	pop	ar6
   0DC3 D0 07              3550 	pop	ar7
   0DC5 C0 07              3551 	push	ar7
   0DC7 C0 06              3552 	push	ar6
   0DC9 C0 05              3553 	push	ar5
   0DCB C0 03              3554 	push	ar3
   0DCD E5 81              3555 	mov	a,sp
   0DCF 24 FA              3556 	add	a,#0xfa
   0DD1 F8                 3557 	mov	r0,a
   0DD2 E6                 3558 	mov	a,@r0
   0DD3 C0 E0              3559 	push	acc
   0DD5 08                 3560 	inc	r0
   0DD6 E6                 3561 	mov	a,@r0
   0DD7 C0 E0              3562 	push	acc
   0DD9 C0 05              3563 	push	ar5
   0DDB C0 06              3564 	push	ar6
   0DDD C0 07              3565 	push	ar7
   0DDF 8A 82              3566 	mov	dpl,r2
   0DE1 8B 83              3567 	mov	dph,r3
   0DE3 8C F0              3568 	mov	b,r4
   0DE5 D0 02              3569 	pop	ar2
   0DE7 D0 01              3570 	pop	ar1
   0DE9 D0 00              3571 	pop	ar0
   0DEB 12s00r00           3572 	lcall	__sdcc_banked_call
   0DEE 15 81              3573 	dec	sp
   0DF0 15 81              3574 	dec	sp
   0DF2 D0 03              3575 	pop	ar3
   0DF4 D0 05              3576 	pop	ar5
   0DF6 D0 06              3577 	pop	ar6
   0DF8 D0 07              3578 	pop	ar7
                           3579 ;	../../../contiki-sensinode//core/net/mac/xmac.c:707: if(!is_broadcast) {
   0DFA D0 03              3580 	pop	ar3
   0DFC E5 81              3581 	mov	a,sp
   0DFE 24 F2              3582 	add	a,#0xf2
   0E00 F8                 3583 	mov	r0,a
   0E01 E6                 3584 	mov	a,@r0
   0E02 08                 3585 	inc	r0
   0E03 46                 3586 	orl	a,@r0
   0E04 70 1D              3587 	jnz	00146$
                           3588 ;	../../../contiki-sensinode//core/net/mac/xmac.c:713: if(detect_ack()) {
   0E06 C0 03              3589 	push	ar3
   0E08 78r8B              3590 	mov	r0,#_detect_ack
   0E0A 79s04              3591 	mov	r1,#(_detect_ack >> 8)
   0E0C 7As00              3592 	mov	r2,#(_detect_ack >> 16)
   0E0E 12s00r00           3593 	lcall	__sdcc_banked_call
   0E11 E5 82              3594 	mov	a,dpl
   0E13 85 83 F0           3595 	mov	b,dph
   0E16 D0 03              3596 	pop	ar3
   0E18 45 F0              3597 	orl	a,b
   0E1A 60 07              3598 	jz	00146$
                           3599 ;	../../../contiki-sensinode//core/net/mac/xmac.c:714: got_ack = 1;
   0E1C E5 81              3600 	mov	a,sp
   0E1E 24 BB              3601 	add	a,#0xbb
   0E20 F8                 3602 	mov	r0,a
   0E21 76 01              3603 	mov	@r0,#0x01
   0E23                    3604 00146$:
                           3605 ;	../../../contiki-sensinode//core/net/mac/xmac.c:719: off();
   0E23 C0 03              3606 	push	ar3
   0E25 78r40              3607 	mov	r0,#_off
   0E27 79s00              3608 	mov	r1,#(_off >> 8)
   0E29 7As00              3609 	mov	r2,#(_off >> 16)
   0E2B 12s00r00           3610 	lcall	__sdcc_banked_call
   0E2E D0 03              3611 	pop	ar3
                           3612 ;	../../../contiki-sensinode//core/net/mac/xmac.c:722: if(got_strobe_ack && !is_streaming) {
   0E30 E5 81              3613 	mov	a,sp
   0E32 24 BA              3614 	add	a,#0xba
   0E34 F8                 3615 	mov	r0,a
   0E35 E6                 3616 	mov	a,@r0
   0E36 60 35              3617 	jz	00151$
   0E38 90s00r43           3618 	mov	dptr,#_is_streaming
   0E3B E0                 3619 	movx	a,@dptr
   0E3C FF                 3620 	mov	r7,a
   0E3D 70 2E              3621 	jnz	00151$
                           3622 ;	../../../contiki-sensinode//core/net/mac/xmac.c:723: register_encounter(packetbuf_addr(PACKETBUF_ADDR_RECEIVER), encounter_time);
   0E3F 75 82 19           3623 	mov	dpl,#0x19
   0E42 C0 03              3624 	push	ar3
   0E44 78r00              3625 	mov	r0,#_packetbuf_addr
   0E46 79s00              3626 	mov	r1,#(_packetbuf_addr >> 8)
   0E48 7As00              3627 	mov	r2,#(_packetbuf_addr >> 16)
   0E4A 12s00r00           3628 	lcall	__sdcc_banked_call
   0E4D AD 82              3629 	mov	r5,dpl
   0E4F AE 83              3630 	mov	r6,dph
   0E51 AF F0              3631 	mov	r7,b
   0E53 E4                 3632 	clr	a
   0E54 C0 E0              3633 	push	acc
   0E56 C0 E0              3634 	push	acc
   0E58 8D 82              3635 	mov	dpl,r5
   0E5A 8E 83              3636 	mov	dph,r6
   0E5C 8F F0              3637 	mov	b,r7
   0E5E 78r2B              3638 	mov	r0,#_register_encounter
   0E60 79s03              3639 	mov	r1,#(_register_encounter >> 8)
   0E62 7As00              3640 	mov	r2,#(_register_encounter >> 16)
   0E64 12s00r00           3641 	lcall	__sdcc_banked_call
   0E67 15 81              3642 	dec	sp
   0E69 15 81              3643 	dec	sp
   0E6B D0 03              3644 	pop	ar3
   0E6D                    3645 00151$:
                           3646 ;	../../../contiki-sensinode//core/net/mac/xmac.c:726: watchdog_start();
   0E6D C0 03              3647 	push	ar3
   0E6F 78r00              3648 	mov	r0,#_watchdog_start
   0E71 79s00              3649 	mov	r1,#(_watchdog_start >> 8)
   0E73 7As00              3650 	mov	r2,#(_watchdog_start >> 16)
   0E75 12s00r00           3651 	lcall	__sdcc_banked_call
   0E78 D0 03              3652 	pop	ar3
                           3653 ;	../../../contiki-sensinode//core/net/mac/xmac.c:746: we_are_sending = 0;
   0E7A 90s00r0B           3654 	mov	dptr,#_we_are_sending
   0E7D E4                 3655 	clr	a
   0E7E F0                 3656 	movx	@dptr,a
                           3657 ;	../../../contiki-sensinode//core/net/mac/xmac.c:749: if(collisions == 0) {
   0E7F EB                 3658 	mov	a,r3
   0E80 70 1C              3659 	jnz	00158$
                           3660 ;	../../../contiki-sensinode//core/net/mac/xmac.c:750: if(is_broadcast == 0 && got_ack == 0) {
   0E82 E5 81              3661 	mov	a,sp
   0E84 24 F2              3662 	add	a,#0xf2
   0E86 F8                 3663 	mov	r0,a
   0E87 E6                 3664 	mov	a,@r0
   0E88 08                 3665 	inc	r0
   0E89 46                 3666 	orl	a,@r0
   0E8A 70 0D              3667 	jnz	00154$
   0E8C E5 81              3668 	mov	a,sp
   0E8E 24 BB              3669 	add	a,#0xbb
   0E90 F8                 3670 	mov	r0,a
   0E91 E6                 3671 	mov	a,@r0
   0E92 70 05              3672 	jnz	00154$
                           3673 ;	../../../contiki-sensinode//core/net/mac/xmac.c:751: return MAC_TX_NOACK;
   0E94 90 00 02           3674 	mov	dptr,#0x0002
   0E97 80 0F              3675 	sjmp	00170$
   0E99                    3676 00154$:
                           3677 ;	../../../contiki-sensinode//core/net/mac/xmac.c:753: return MAC_TX_OK;
   0E99 90 00 00           3678 	mov	dptr,#0x0000
   0E9C 80 0A              3679 	sjmp	00170$
   0E9E                    3680 00158$:
                           3681 ;	../../../contiki-sensinode//core/net/mac/xmac.c:756: someone_is_sending++;
   0E9E 90s00r0A           3682 	mov	dptr,#_someone_is_sending
   0EA1 E0                 3683 	movx	a,@dptr
   0EA2 24 01              3684 	add	a,#0x01
   0EA4 F0                 3685 	movx	@dptr,a
                           3686 ;	../../../contiki-sensinode//core/net/mac/xmac.c:757: return MAC_TX_COLLISION;
   0EA5 90 00 01           3687 	mov	dptr,#0x0001
   0EA8                    3688 00170$:
   0EA8 E5 81              3689 	mov	a,sp
   0EAA 24 B3              3690 	add	a,#0xB3
   0EAC F5 81              3691 	mov	sp,a
   0EAE 02s00r00           3692 	ljmp	__sdcc_banked_ret
                           3693 ;------------------------------------------------------------
                           3694 ;Allocation info for local variables in function 'qsend_packet'
                           3695 ;------------------------------------------------------------
                           3696 ;ptr                       Allocated to stack - sp -7
                           3697 ;sent                      Allocated to registers r5 r6 r7 
                           3698 ;ret                       Allocated to stack - sp -1
                           3699 ;sloc0                     Allocated to stack - sp -1
                           3700 ;------------------------------------------------------------
                           3701 ;	../../../contiki-sensinode//core/net/mac/xmac.c:763: qsend_packet(mac_callback_t sent, void *ptr)
                           3702 ;	-----------------------------------------
                           3703 ;	 function qsend_packet
                           3704 ;	-----------------------------------------
   0EB1                    3705 _qsend_packet:
   0EB1 05 81              3706 	inc	sp
   0EB3 05 81              3707 	inc	sp
   0EB5 AD 82              3708 	mov	r5,dpl
   0EB7 AE 83              3709 	mov	r6,dph
   0EB9 AF F0              3710 	mov	r7,b
                           3711 ;	../../../contiki-sensinode//core/net/mac/xmac.c:767: if(someone_is_sending) {
   0EBB 90s00r0A           3712 	mov	dptr,#_someone_is_sending
   0EBE E0                 3713 	movx	a,@dptr
   0EBF FC                 3714 	mov	r4,a
   0EC0 60 41              3715 	jz	00102$
                           3716 ;	../../../contiki-sensinode//core/net/mac/xmac.c:770: RIMESTATS_ADD(sendingdrop);
   0EC2 C0 05              3717 	push	ar5
   0EC4 C0 06              3718 	push	ar6
   0EC6 C0 07              3719 	push	ar7
   0EC8 90s00r3C           3720 	mov	dptr,#(_rimestats + 0x003c)
   0ECB E0                 3721 	movx	a,@dptr
   0ECC FA                 3722 	mov	r2,a
   0ECD A3                 3723 	inc	dptr
   0ECE E0                 3724 	movx	a,@dptr
   0ECF FB                 3725 	mov	r3,a
   0ED0 A3                 3726 	inc	dptr
   0ED1 E0                 3727 	movx	a,@dptr
   0ED2 FC                 3728 	mov	r4,a
   0ED3 A3                 3729 	inc	dptr
   0ED4 E0                 3730 	movx	a,@dptr
   0ED5 FF                 3731 	mov	r7,a
   0ED6 0A                 3732 	inc	r2
   0ED7 BA 00 09           3733 	cjne	r2,#0x00,00116$
   0EDA 0B                 3734 	inc	r3
   0EDB BB 00 05           3735 	cjne	r3,#0x00,00116$
   0EDE 0C                 3736 	inc	r4
   0EDF BC 00 01           3737 	cjne	r4,#0x00,00116$
   0EE2 0F                 3738 	inc	r7
   0EE3                    3739 00116$:
   0EE3 90s00r3C           3740 	mov	dptr,#(_rimestats + 0x003c)
   0EE6 EA                 3741 	mov	a,r2
   0EE7 F0                 3742 	movx	@dptr,a
   0EE8 A3                 3743 	inc	dptr
   0EE9 EB                 3744 	mov	a,r3
   0EEA F0                 3745 	movx	@dptr,a
   0EEB A3                 3746 	inc	dptr
   0EEC EC                 3747 	mov	a,r4
   0EED F0                 3748 	movx	@dptr,a
   0EEE A3                 3749 	inc	dptr
   0EEF EF                 3750 	mov	a,r7
   0EF0 F0                 3751 	movx	@dptr,a
                           3752 ;	../../../contiki-sensinode//core/net/mac/xmac.c:771: ret = MAC_TX_COLLISION;
   0EF1 E5 81              3753 	mov	a,sp
   0EF3 24 FC              3754 	add	a,#0xfc
   0EF5 F8                 3755 	mov	r0,a
   0EF6 76 01              3756 	mov	@r0,#0x01
   0EF8 08                 3757 	inc	r0
   0EF9 76 00              3758 	mov	@r0,#0x00
   0EFB D0 07              3759 	pop	ar7
   0EFD D0 06              3760 	pop	ar6
   0EFF D0 05              3761 	pop	ar5
   0F01 80 21              3762 	sjmp	00106$
   0F03                    3763 00102$:
                           3764 ;	../../../contiki-sensinode//core/net/mac/xmac.c:774: ret = send_packet();
   0F03 C0 07              3765 	push	ar7
   0F05 C0 06              3766 	push	ar6
   0F07 C0 05              3767 	push	ar5
   0F09 78r32              3768 	mov	r0,#_send_packet
   0F0B 79s06              3769 	mov	r1,#(_send_packet >> 8)
   0F0D 7As00              3770 	mov	r2,#(_send_packet >> 16)
   0F0F 12s00r00           3771 	lcall	__sdcc_banked_call
   0F12 AB 82              3772 	mov	r3,dpl
   0F14 AC 83              3773 	mov	r4,dph
   0F16 D0 05              3774 	pop	ar5
   0F18 D0 06              3775 	pop	ar6
   0F1A D0 07              3776 	pop	ar7
   0F1C A8 81              3777 	mov	r0,sp
   0F1E 18                 3778 	dec	r0
   0F1F A6 03              3779 	mov	@r0,ar3
   0F21 08                 3780 	inc	r0
   0F22 A6 04              3781 	mov	@r0,ar4
                           3782 ;	../../../contiki-sensinode//core/net/mac/xmac.c:777: mac_call_sent_callback(sent, ptr, ret, 1);
   0F24                    3783 00106$:
   0F24 ED                 3784 	mov	a,r5
   0F25 4E                 3785 	orl	a,r6
   0F26 60 41              3786 	jz	00109$
   0F28 C0 07              3787 	push	ar7
   0F2A C0 06              3788 	push	ar6
   0F2C C0 05              3789 	push	ar5
   0F2E 74 01              3790 	mov	a,#0x01
   0F30 C0 E0              3791 	push	acc
   0F32 E4                 3792 	clr	a
   0F33 C0 E0              3793 	push	acc
   0F35 E5 81              3794 	mov	a,sp
   0F37 24 FA              3795 	add	a,#0xfa
   0F39 F8                 3796 	mov	r0,a
   0F3A E6                 3797 	mov	a,@r0
   0F3B C0 E0              3798 	push	acc
   0F3D 08                 3799 	inc	r0
   0F3E E6                 3800 	mov	a,@r0
   0F3F C0 E0              3801 	push	acc
   0F41 C0 05              3802 	push	ar5
   0F43 C0 06              3803 	push	ar6
   0F45 C0 07              3804 	push	ar7
   0F47 E5 81              3805 	mov	a,sp
   0F49 24 EF              3806 	add	a,#0xef
   0F4B F8                 3807 	mov	r0,a
   0F4C 86 82              3808 	mov	dpl,@r0
   0F4E 08                 3809 	inc	r0
   0F4F 86 83              3810 	mov	dph,@r0
   0F51 08                 3811 	inc	r0
   0F52 86 F0              3812 	mov	b,@r0
   0F54 D0 02              3813 	pop	ar2
   0F56 D0 01              3814 	pop	ar1
   0F58 D0 00              3815 	pop	ar0
   0F5A 12s00r00           3816 	lcall	__sdcc_banked_call
   0F5D E5 81              3817 	mov	a,sp
   0F5F 24 FC              3818 	add	a,#0xfc
   0F61 F5 81              3819 	mov	sp,a
   0F63 D0 05              3820 	pop	ar5
   0F65 D0 06              3821 	pop	ar6
   0F67 D0 07              3822 	pop	ar7
   0F69                    3823 00109$:
   0F69 15 81              3824 	dec	sp
   0F6B 15 81              3825 	dec	sp
   0F6D 02s00r00           3826 	ljmp	__sdcc_banked_ret
                           3827 ;------------------------------------------------------------
                           3828 ;Allocation info for local variables in function 'qsend_list'
                           3829 ;------------------------------------------------------------
                           3830 ;ptr                       Allocated to stack - sp -5
                           3831 ;buf_list                  Allocated to stack - sp -8
                           3832 ;sent                      Allocated to registers r5 r6 r7 
                           3833 ;------------------------------------------------------------
                           3834 ;	../../../contiki-sensinode//core/net/mac/xmac.c:781: qsend_list(mac_callback_t sent, void *ptr, struct rdc_buf_list *buf_list)
                           3835 ;	-----------------------------------------
                           3836 ;	 function qsend_list
                           3837 ;	-----------------------------------------
   0F70                    3838 _qsend_list:
   0F70 AD 82              3839 	mov	r5,dpl
   0F72 AE 83              3840 	mov	r6,dph
   0F74 AF F0              3841 	mov	r7,b
                           3842 ;	../../../contiki-sensinode//core/net/mac/xmac.c:783: if(buf_list != NULL) {
   0F76 E5 81              3843 	mov	a,sp
   0F78 24 F8              3844 	add	a,#0xf8
   0F7A F8                 3845 	mov	r0,a
   0F7B E6                 3846 	mov	a,@r0
   0F7C 08                 3847 	inc	r0
   0F7D 46                 3848 	orl	a,@r0
   0F7E 60 68              3849 	jz	00103$
                           3850 ;	../../../contiki-sensinode//core/net/mac/xmac.c:784: queuebuf_to_packetbuf(buf_list->buf);
   0F80 E5 81              3851 	mov	a,sp
   0F82 24 F8              3852 	add	a,#0xf8
   0F84 F8                 3853 	mov	r0,a
   0F85 86 02              3854 	mov	ar2,@r0
   0F87 08                 3855 	inc	r0
   0F88 86 03              3856 	mov	ar3,@r0
   0F8A 08                 3857 	inc	r0
   0F8B 86 04              3858 	mov	ar4,@r0
   0F8D 74 03              3859 	mov	a,#0x03
   0F8F 2A                 3860 	add	a,r2
   0F90 FA                 3861 	mov	r2,a
   0F91 E4                 3862 	clr	a
   0F92 3B                 3863 	addc	a,r3
   0F93 FB                 3864 	mov	r3,a
   0F94 8A 82              3865 	mov	dpl,r2
   0F96 8B 83              3866 	mov	dph,r3
   0F98 8C F0              3867 	mov	b,r4
   0F9A 12s00r00           3868 	lcall	__gptrget
   0F9D FA                 3869 	mov	r2,a
   0F9E A3                 3870 	inc	dptr
   0F9F 12s00r00           3871 	lcall	__gptrget
   0FA2 FB                 3872 	mov	r3,a
   0FA3 A3                 3873 	inc	dptr
   0FA4 12s00r00           3874 	lcall	__gptrget
   0FA7 FC                 3875 	mov	r4,a
   0FA8 8A 82              3876 	mov	dpl,r2
   0FAA 8B 83              3877 	mov	dph,r3
   0FAC 8C F0              3878 	mov	b,r4
   0FAE C0 07              3879 	push	ar7
   0FB0 C0 06              3880 	push	ar6
   0FB2 C0 05              3881 	push	ar5
   0FB4 78r00              3882 	mov	r0,#_queuebuf_to_packetbuf
   0FB6 79s00              3883 	mov	r1,#(_queuebuf_to_packetbuf >> 8)
   0FB8 7As00              3884 	mov	r2,#(_queuebuf_to_packetbuf >> 16)
   0FBA 12s00r00           3885 	lcall	__sdcc_banked_call
   0FBD D0 05              3886 	pop	ar5
   0FBF D0 06              3887 	pop	ar6
   0FC1 D0 07              3888 	pop	ar7
                           3889 ;	../../../contiki-sensinode//core/net/mac/xmac.c:785: qsend_packet(sent, ptr);
   0FC3 E5 81              3890 	mov	a,sp
   0FC5 24 FB              3891 	add	a,#0xfb
   0FC7 F8                 3892 	mov	r0,a
   0FC8 E6                 3893 	mov	a,@r0
   0FC9 C0 E0              3894 	push	acc
   0FCB 08                 3895 	inc	r0
   0FCC E6                 3896 	mov	a,@r0
   0FCD C0 E0              3897 	push	acc
   0FCF 08                 3898 	inc	r0
   0FD0 E6                 3899 	mov	a,@r0
   0FD1 C0 E0              3900 	push	acc
   0FD3 8D 82              3901 	mov	dpl,r5
   0FD5 8E 83              3902 	mov	dph,r6
   0FD7 8F F0              3903 	mov	b,r7
   0FD9 78rB1              3904 	mov	r0,#_qsend_packet
   0FDB 79s0E              3905 	mov	r1,#(_qsend_packet >> 8)
   0FDD 7As00              3906 	mov	r2,#(_qsend_packet >> 16)
   0FDF 12s00r00           3907 	lcall	__sdcc_banked_call
   0FE2 15 81              3908 	dec	sp
   0FE4 15 81              3909 	dec	sp
   0FE6 15 81              3910 	dec	sp
   0FE8                    3911 00103$:
   0FE8 02s00r00           3912 	ljmp	__sdcc_banked_ret
                           3913 ;------------------------------------------------------------
                           3914 ;Allocation info for local variables in function 'input_packet'
                           3915 ;------------------------------------------------------------
                           3916 ;hdr                       Allocated to registers r5 r6 r7 
                           3917 ;i                         Allocated to stack - sp -6
                           3918 ;sloc0                     Allocated to stack - sp -4
                           3919 ;sloc1                     Allocated to stack - sp +1
                           3920 ;sloc2                     Allocated to stack - sp +3
                           3921 ;sloc3                     Allocated to stack - sp -2
                           3922 ;sloc4                     Allocated to stack - sp +8
                           3923 ;------------------------------------------------------------
                           3924 ;	../../../contiki-sensinode//core/net/mac/xmac.c:790: input_packet(void)
                           3925 ;	-----------------------------------------
                           3926 ;	 function input_packet
                           3927 ;	-----------------------------------------
   0FEB                    3928 _input_packet:
   0FEB E5 81              3929 	mov	a,sp
   0FED 24 07              3930 	add	a,#0x07
   0FEF F5 81              3931 	mov	sp,a
                           3932 ;	../../../contiki-sensinode//core/net/mac/xmac.c:794: if(NETSTACK_FRAMER.parse() >= 0) {
   0FF1 90s00r03           3933 	mov	dptr,#(_framer_802154 + 0x0003)
   0FF4 E4                 3934 	clr	a
   0FF5 93                 3935 	movc	a,@a+dptr
   0FF6 FD                 3936 	mov	r5,a
   0FF7 A3                 3937 	inc	dptr
   0FF8 E4                 3938 	clr	a
   0FF9 93                 3939 	movc	a,@a+dptr
   0FFA FE                 3940 	mov	r6,a
   0FFB A3                 3941 	inc	dptr
   0FFC E4                 3942 	clr	a
   0FFD 93                 3943 	movc	a,@a+dptr
   0FFE FF                 3944 	mov	r7,a
   0FFF C0 07              3945 	push	ar7
   1001 C0 05              3946 	push	ar5
   1003 C0 06              3947 	push	ar6
   1005 C0 07              3948 	push	ar7
   1007 D0 02              3949 	pop	ar2
   1009 D0 01              3950 	pop	ar1
   100B D0 00              3951 	pop	ar0
   100D 12s00r00           3952 	lcall	__sdcc_banked_call
   1010 AD 82              3953 	mov	r5,dpl
   1012 AE 83              3954 	mov	r6,dph
   1014 D0 07              3955 	pop	ar7
   1016 EE                 3956 	mov	a,r6
   1017 30 E7 03           3957 	jnb	acc.7,00156$
   101A 02s13r07           3958 	ljmp	00128$
   101D                    3959 00156$:
                           3960 ;	../../../contiki-sensinode//core/net/mac/xmac.c:795: hdr = packetbuf_dataptr();
   101D 78r00              3961 	mov	r0,#_packetbuf_dataptr
   101F 79s00              3962 	mov	r1,#(_packetbuf_dataptr >> 8)
   1021 7As00              3963 	mov	r2,#(_packetbuf_dataptr >> 16)
   1023 12s00r00           3964 	lcall	__sdcc_banked_call
                           3965 ;	../../../contiki-sensinode//core/net/mac/xmac.c:797: if(hdr->dispatch != DISPATCH) {
   1026 AD 82              3966 	mov	r5,dpl
   1028 AE 83              3967 	mov	r6,dph
   102A AF F0              3968 	mov	r7,b
   102C 12s00r00           3969 	lcall	__gptrget
   102F 70 03              3970 	jnz	00157$
   1031 02s12r5E           3971 	ljmp	00116$
   1034                    3972 00157$:
                           3973 ;	../../../contiki-sensinode//core/net/mac/xmac.c:798: someone_is_sending = 0;
   1034 90s00r0A           3974 	mov	dptr,#_someone_is_sending
   1037 E4                 3975 	clr	a
   1038 F0                 3976 	movx	@dptr,a
                           3977 ;	../../../contiki-sensinode//core/net/mac/xmac.c:800: &rimeaddr_node_addr) ||
                           3978 ;	../../../contiki-sensinode//core/net/mac/xmac.c:799: if(rimeaddr_cmp(packetbuf_addr(PACKETBUF_ADDR_RECEIVER),
   1039 75 82 19           3979 	mov	dpl,#0x19
   103C 78r00              3980 	mov	r0,#_packetbuf_addr
   103E 79s00              3981 	mov	r1,#(_packetbuf_addr >> 8)
   1040 7As00              3982 	mov	r2,#(_packetbuf_addr >> 16)
   1042 12s00r00           3983 	lcall	__sdcc_banked_call
   1045 AA 82              3984 	mov	r2,dpl
   1047 AB 83              3985 	mov	r3,dph
   1049 AC F0              3986 	mov	r4,b
   104B 74r00              3987 	mov	a,#_rimeaddr_node_addr
   104D C0 E0              3988 	push	acc
   104F 74s00              3989 	mov	a,#(_rimeaddr_node_addr >> 8)
   1051 C0 E0              3990 	push	acc
   1053 E4                 3991 	clr	a
   1054 C0 E0              3992 	push	acc
   1056 8A 82              3993 	mov	dpl,r2
   1058 8B 83              3994 	mov	dph,r3
   105A 8C F0              3995 	mov	b,r4
   105C 78r00              3996 	mov	r0,#_rimeaddr_cmp
   105E 79s00              3997 	mov	r1,#(_rimeaddr_cmp >> 8)
   1060 7As00              3998 	mov	r2,#(_rimeaddr_cmp >> 16)
   1062 12s00r00           3999 	lcall	__sdcc_banked_call
   1065 AB 82              4000 	mov	r3,dpl
   1067 AC 83              4001 	mov	r4,dph
   1069 15 81              4002 	dec	sp
   106B 15 81              4003 	dec	sp
   106D 15 81              4004 	dec	sp
   106F EB                 4005 	mov	a,r3
   1070 4C                 4006 	orl	a,r4
   1071 70 3E              4007 	jnz	00104$
                           4008 ;	../../../contiki-sensinode//core/net/mac/xmac.c:802: &rimeaddr_null)) {
                           4009 ;	../../../contiki-sensinode//core/net/mac/xmac.c:801: rimeaddr_cmp(packetbuf_addr(PACKETBUF_ADDR_RECEIVER),
   1073 75 82 19           4010 	mov	dpl,#0x19
   1076 78r00              4011 	mov	r0,#_packetbuf_addr
   1078 79s00              4012 	mov	r1,#(_packetbuf_addr >> 8)
   107A 7As00              4013 	mov	r2,#(_packetbuf_addr >> 16)
   107C 12s00r00           4014 	lcall	__sdcc_banked_call
   107F AA 82              4015 	mov	r2,dpl
   1081 AB 83              4016 	mov	r3,dph
   1083 AC F0              4017 	mov	r4,b
   1085 74r00              4018 	mov	a,#_rimeaddr_null
   1087 C0 E0              4019 	push	acc
   1089 74s00              4020 	mov	a,#(_rimeaddr_null >> 8)
   108B C0 E0              4021 	push	acc
   108D 74 80              4022 	mov	a,#0x80
   108F C0 E0              4023 	push	acc
   1091 8A 82              4024 	mov	dpl,r2
   1093 8B 83              4025 	mov	dph,r3
   1095 8C F0              4026 	mov	b,r4
   1097 78r00              4027 	mov	r0,#_rimeaddr_cmp
   1099 79s00              4028 	mov	r1,#(_rimeaddr_cmp >> 8)
   109B 7As00              4029 	mov	r2,#(_rimeaddr_cmp >> 16)
   109D 12s00r00           4030 	lcall	__sdcc_banked_call
   10A0 AB 82              4031 	mov	r3,dpl
   10A2 AC 83              4032 	mov	r4,dph
   10A4 15 81              4033 	dec	sp
   10A6 15 81              4034 	dec	sp
   10A8 15 81              4035 	dec	sp
   10AA EB                 4036 	mov	a,r3
   10AB 4C                 4037 	orl	a,r4
   10AC 70 03              4038 	jnz	00159$
   10AE 02s13r07           4039 	ljmp	00128$
   10B1                    4040 00159$:
   10B1                    4041 00104$:
                           4042 ;	../../../contiki-sensinode//core/net/mac/xmac.c:808: off();
   10B1 78r40              4043 	mov	r0,#_off
   10B3 79s00              4044 	mov	r1,#(_off >> 8)
   10B5 7As00              4045 	mov	r2,#(_off >> 16)
   10B7 12s00r00           4046 	lcall	__sdcc_banked_call
                           4047 ;	../../../contiki-sensinode//core/net/mac/xmac.c:814: for(i = 0; i < MAX_SEQNOS; ++i) {
   10BA E5 81              4048 	mov	a,sp
   10BC 24 FA              4049 	add	a,#0xfa
   10BE F8                 4050 	mov	r0,a
   10BF E4                 4051 	clr	a
   10C0 F6                 4052 	mov	@r0,a
   10C1 08                 4053 	inc	r0
   10C2 F6                 4054 	mov	@r0,a
   10C3 E5 81              4055 	mov	a,sp
   10C5 24 FC              4056 	add	a,#0xfc
   10C7 F8                 4057 	mov	r0,a
   10C8 E4                 4058 	clr	a
   10C9 F6                 4059 	mov	@r0,a
   10CA 08                 4060 	inc	r0
   10CB F6                 4061 	mov	@r0,a
   10CC                    4062 00120$:
   10CC E5 81              4063 	mov	a,sp
   10CE 24 FA              4064 	add	a,#0xfa
   10D0 F8                 4065 	mov	r0,a
   10D1 C3                 4066 	clr	c
   10D2 E6                 4067 	mov	a,@r0
   10D3 94 08              4068 	subb	a,#0x08
   10D5 08                 4069 	inc	r0
   10D6 E6                 4070 	mov	a,@r0
   10D7 64 80              4071 	xrl	a,#0x80
   10D9 94 80              4072 	subb	a,#0x80
   10DB 40 03              4073 	jc	00160$
   10DD 02s11r62           4074 	ljmp	00138$
   10E0                    4075 00160$:
                           4076 ;	../../../contiki-sensinode//core/net/mac/xmac.c:815: if(packetbuf_attr(PACKETBUF_ATTR_PACKET_ID) == received_seqnos[i].seqno &&
   10E0 75 82 0D           4077 	mov	dpl,#0x0D
   10E3 78r00              4078 	mov	r0,#_packetbuf_attr
   10E5 79s00              4079 	mov	r1,#(_packetbuf_attr >> 8)
   10E7 7As00              4080 	mov	r2,#(_packetbuf_attr >> 16)
   10E9 12s00r00           4081 	lcall	__sdcc_banked_call
   10EC AF 82              4082 	mov	r7,dpl
   10EE AE 83              4083 	mov	r6,dph
   10F0 E5 81              4084 	mov	a,sp
   10F2 24 FC              4085 	add	a,#0xfc
   10F4 F8                 4086 	mov	r0,a
   10F5 E6                 4087 	mov	a,@r0
   10F6 24r56              4088 	add	a,#_received_seqnos
   10F8 FB                 4089 	mov	r3,a
   10F9 08                 4090 	inc	r0
   10FA E6                 4091 	mov	a,@r0
   10FB 34s00              4092 	addc	a,#(_received_seqnos >> 8)
   10FD FD                 4093 	mov	r5,a
   10FE 74 08              4094 	mov	a,#0x08
   1100 2B                 4095 	add	a,r3
   1101 F5 82              4096 	mov	dpl,a
   1103 E4                 4097 	clr	a
   1104 3D                 4098 	addc	a,r5
   1105 F5 83              4099 	mov	dph,a
   1107 E0                 4100 	movx	a,@dptr
   1108 FA                 4101 	mov	r2,a
   1109 7C 00              4102 	mov	r4,#0x00
   110B EF                 4103 	mov	a,r7
   110C B5 02 38           4104 	cjne	a,ar2,00122$
   110F EE                 4105 	mov	a,r6
   1110 B5 04 34           4106 	cjne	a,ar4,00122$
                           4107 ;	../../../contiki-sensinode//core/net/mac/xmac.c:817: &received_seqnos[i].sender)) {
   1113 8D 04              4108 	mov	ar4,r5
   1115 8B 07              4109 	mov	ar7,r3
   1117 8C 06              4110 	mov	ar6,r4
   1119 7D 00              4111 	mov	r5,#0x00
                           4112 ;	../../../contiki-sensinode//core/net/mac/xmac.c:816: rimeaddr_cmp(packetbuf_addr(PACKETBUF_ADDR_SENDER),
   111B 75 82 18           4113 	mov	dpl,#0x18
   111E C0 07              4114 	push	ar7
   1120 C0 06              4115 	push	ar6
   1122 C0 05              4116 	push	ar5
   1124 78r00              4117 	mov	r0,#_packetbuf_addr
   1126 79s00              4118 	mov	r1,#(_packetbuf_addr >> 8)
   1128 7As00              4119 	mov	r2,#(_packetbuf_addr >> 16)
   112A 12s00r00           4120 	lcall	__sdcc_banked_call
   112D 78r00              4121 	mov	r0,#_rimeaddr_cmp
   112F 79s00              4122 	mov	r1,#(_rimeaddr_cmp >> 8)
   1131 7As00              4123 	mov	r2,#(_rimeaddr_cmp >> 16)
   1133 12s00r00           4124 	lcall	__sdcc_banked_call
   1136 AB 82              4125 	mov	r3,dpl
   1138 AC 83              4126 	mov	r4,dph
   113A 15 81              4127 	dec	sp
   113C 15 81              4128 	dec	sp
   113E 15 81              4129 	dec	sp
   1140 EB                 4130 	mov	a,r3
   1141 4C                 4131 	orl	a,r4
   1142 60 03              4132 	jz	00122$
                           4133 ;	../../../contiki-sensinode//core/net/mac/xmac.c:819: return;
   1144 02s13r07           4134 	ljmp	00128$
   1147                    4135 00122$:
                           4136 ;	../../../contiki-sensinode//core/net/mac/xmac.c:814: for(i = 0; i < MAX_SEQNOS; ++i) {
   1147 E5 81              4137 	mov	a,sp
   1149 24 FC              4138 	add	a,#0xfc
   114B F8                 4139 	mov	r0,a
   114C 74 09              4140 	mov	a,#0x09
   114E 26                 4141 	add	a,@r0
   114F F6                 4142 	mov	@r0,a
   1150 E4                 4143 	clr	a
   1151 08                 4144 	inc	r0
   1152 36                 4145 	addc	a,@r0
   1153 F6                 4146 	mov	@r0,a
   1154 E5 81              4147 	mov	a,sp
   1156 24 FA              4148 	add	a,#0xfa
   1158 F8                 4149 	mov	r0,a
   1159 06                 4150 	inc	@r0
   115A B6 00 02           4151 	cjne	@r0,#0x00,00164$
   115D 08                 4152 	inc	r0
   115E 06                 4153 	inc	@r0
   115F                    4154 00164$:
   115F 02s10rCC           4155 	ljmp	00120$
                           4156 ;	../../../contiki-sensinode//core/net/mac/xmac.c:822: for(i = MAX_SEQNOS - 1; i > 0; --i) {
   1162                    4157 00138$:
   1162 E5 81              4158 	mov	a,sp
   1164 24 FA              4159 	add	a,#0xfa
   1166 F8                 4160 	mov	r0,a
   1167 76 07              4161 	mov	@r0,#0x07
   1169 08                 4162 	inc	r0
   116A 76 00              4163 	mov	@r0,#0x00
   116C A8 81              4164 	mov	r0,sp
   116E 18                 4165 	dec	r0
   116F 18                 4166 	dec	r0
   1170 76 3F              4167 	mov	@r0,#0x3F
   1172 08                 4168 	inc	r0
   1173 76 00              4169 	mov	@r0,#0x00
   1175                    4170 00124$:
   1175 E5 81              4171 	mov	a,sp
   1177 24 FA              4172 	add	a,#0xfa
   1179 F8                 4173 	mov	r0,a
   117A C3                 4174 	clr	c
   117B E4                 4175 	clr	a
   117C 96                 4176 	subb	a,@r0
   117D E4                 4177 	clr	a
   117E 64 80              4178 	xrl	a,#0x80
   1180 08                 4179 	inc	r0
   1181 86 F0              4180 	mov	b,@r0
   1183 63 F0 80           4181 	xrl	b,#0x80
   1186 95 F0              4182 	subb	a,b
   1188 50 63              4183 	jnc	00127$
                           4184 ;	../../../contiki-sensinode//core/net/mac/xmac.c:823: memcpy(&received_seqnos[i], &received_seqnos[i - 1],
   118A E5 81              4185 	mov	a,sp
   118C 24 FA              4186 	add	a,#0xfa
   118E F8                 4187 	mov	r0,a
   118F E6                 4188 	mov	a,@r0
   1190 14                 4189 	dec	a
   1191 75 F0 09           4190 	mov	b,#0x09
   1194 A4                 4191 	mul	ab
   1195 24r56              4192 	add	a,#_received_seqnos
   1197 FB                 4193 	mov	r3,a
   1198 E4                 4194 	clr	a
   1199 34s00              4195 	addc	a,#(_received_seqnos >> 8)
   119B FC                 4196 	mov	r4,a
   119C 8B 07              4197 	mov	ar7,r3
   119E 8C 06              4198 	mov	ar6,r4
   11A0 7D 00              4199 	mov	r5,#0x00
   11A2 A8 81              4200 	mov	r0,sp
   11A4 18                 4201 	dec	r0
   11A5 18                 4202 	dec	r0
   11A6 E6                 4203 	mov	a,@r0
   11A7 24r56              4204 	add	a,#_received_seqnos
   11A9 FB                 4205 	mov	r3,a
   11AA 08                 4206 	inc	r0
   11AB E6                 4207 	mov	a,@r0
   11AC 34s00              4208 	addc	a,#(_received_seqnos >> 8)
   11AE FC                 4209 	mov	r4,a
   11AF 7A 00              4210 	mov	r2,#0x00
   11B1 74 09              4211 	mov	a,#0x09
   11B3 C0 E0              4212 	push	acc
   11B5 E4                 4213 	clr	a
   11B6 C0 E0              4214 	push	acc
   11B8 C0 07              4215 	push	ar7
   11BA C0 06              4216 	push	ar6
   11BC C0 05              4217 	push	ar5
   11BE 8B 82              4218 	mov	dpl,r3
   11C0 8C 83              4219 	mov	dph,r4
   11C2 8A F0              4220 	mov	b,r2
   11C4 78r00              4221 	mov	r0,#_memcpy
   11C6 79s00              4222 	mov	r1,#(_memcpy >> 8)
   11C8 7As00              4223 	mov	r2,#(_memcpy >> 16)
   11CA 12s00r00           4224 	lcall	__sdcc_banked_call
   11CD E5 81              4225 	mov	a,sp
   11CF 24 FB              4226 	add	a,#0xfb
   11D1 F5 81              4227 	mov	sp,a
                           4228 ;	../../../contiki-sensinode//core/net/mac/xmac.c:822: for(i = MAX_SEQNOS - 1; i > 0; --i) {
   11D3 A8 81              4229 	mov	r0,sp
   11D5 18                 4230 	dec	r0
   11D6 18                 4231 	dec	r0
   11D7 E6                 4232 	mov	a,@r0
   11D8 24 F7              4233 	add	a,#0xF7
   11DA F6                 4234 	mov	@r0,a
   11DB 08                 4235 	inc	r0
   11DC E6                 4236 	mov	a,@r0
   11DD 34 FF              4237 	addc	a,#0xFF
   11DF F6                 4238 	mov	@r0,a
   11E0 E5 81              4239 	mov	a,sp
   11E2 24 FA              4240 	add	a,#0xfa
   11E4 F8                 4241 	mov	r0,a
   11E5 16                 4242 	dec	@r0
   11E6 B6 FF 02           4243 	cjne	@r0,#0xFF,00166$
   11E9 08                 4244 	inc	r0
   11EA 16                 4245 	dec	@r0
   11EB                    4246 00166$:
   11EB 80 88              4247 	sjmp	00124$
   11ED                    4248 00127$:
                           4249 ;	../../../contiki-sensinode//core/net/mac/xmac.c:826: received_seqnos[0].seqno = packetbuf_attr(PACKETBUF_ATTR_PACKET_ID);
   11ED 75 82 0D           4250 	mov	dpl,#0x0D
   11F0 78r00              4251 	mov	r0,#_packetbuf_attr
   11F2 79s00              4252 	mov	r1,#(_packetbuf_attr >> 8)
   11F4 7As00              4253 	mov	r2,#(_packetbuf_attr >> 16)
   11F6 12s00r00           4254 	lcall	__sdcc_banked_call
   11F9 AB 82              4255 	mov	r3,dpl
   11FB 90s00r5E           4256 	mov	dptr,#(_received_seqnos + 0x0008)
   11FE EB                 4257 	mov	a,r3
   11FF F0                 4258 	movx	@dptr,a
                           4259 ;	../../../contiki-sensinode//core/net/mac/xmac.c:828: packetbuf_addr(PACKETBUF_ADDR_SENDER));
   1200 75 82 18           4260 	mov	dpl,#0x18
   1203 78r00              4261 	mov	r0,#_packetbuf_addr
   1205 79s00              4262 	mov	r1,#(_packetbuf_addr >> 8)
   1207 7As00              4263 	mov	r2,#(_packetbuf_addr >> 16)
   1209 12s00r00           4264 	lcall	__sdcc_banked_call
   120C AA 82              4265 	mov	r2,dpl
   120E AB 83              4266 	mov	r3,dph
   1210 AC F0              4267 	mov	r4,b
                           4268 ;	../../../contiki-sensinode//core/net/mac/xmac.c:827: rimeaddr_copy(&received_seqnos[0].sender,
   1212 C0 02              4269 	push	ar2
   1214 C0 03              4270 	push	ar3
   1216 C0 04              4271 	push	ar4
   1218 90s00r56           4272 	mov	dptr,#_received_seqnos
   121B 75 F0 00           4273 	mov	b,#0x00
   121E 78r00              4274 	mov	r0,#_rimeaddr_copy
   1220 79s00              4275 	mov	r1,#(_rimeaddr_copy >> 8)
   1222 7As00              4276 	mov	r2,#(_rimeaddr_copy >> 16)
   1224 12s00r00           4277 	lcall	__sdcc_banked_call
   1227 15 81              4278 	dec	sp
   1229 15 81              4279 	dec	sp
   122B 15 81              4280 	dec	sp
                           4281 ;	../../../contiki-sensinode//core/net/mac/xmac.c:845: waiting_for_packet = 0;
   122D 90s00r09           4282 	mov	dptr,#_waiting_for_packet
   1230 E4                 4283 	clr	a
   1231 F0                 4284 	movx	@dptr,a
                           4285 ;	../../../contiki-sensinode//core/net/mac/xmac.c:848: NETSTACK_MAC.input();
   1232 90s00r09           4286 	mov	dptr,#(_csma_driver + 0x0009)
   1235 E4                 4287 	clr	a
   1236 93                 4288 	movc	a,@a+dptr
   1237 FA                 4289 	mov	r2,a
   1238 A3                 4290 	inc	dptr
   1239 E4                 4291 	clr	a
   123A 93                 4292 	movc	a,@a+dptr
   123B FB                 4293 	mov	r3,a
   123C A3                 4294 	inc	dptr
   123D E4                 4295 	clr	a
   123E 93                 4296 	movc	a,@a+dptr
   123F FC                 4297 	mov	r4,a
   1240 C0 04              4298 	push	ar4
   1242 C0 03              4299 	push	ar3
   1244 C0 02              4300 	push	ar2
   1246 C0 02              4301 	push	ar2
   1248 C0 03              4302 	push	ar3
   124A C0 04              4303 	push	ar4
   124C D0 02              4304 	pop	ar2
   124E D0 01              4305 	pop	ar1
   1250 D0 00              4306 	pop	ar0
   1252 12s00r00           4307 	lcall	__sdcc_banked_call
   1255 D0 02              4308 	pop	ar2
   1257 D0 03              4309 	pop	ar3
   1259 D0 04              4310 	pop	ar4
                           4311 ;	../../../contiki-sensinode//core/net/mac/xmac.c:849: return;
   125B 02s13r07           4312 	ljmp	00128$
   125E                    4313 00116$:
                           4314 ;	../../../contiki-sensinode//core/net/mac/xmac.c:854: } else if(hdr->type == TYPE_STROBE) {
   125E 0D                 4315 	inc	r5
   125F BD 00 01           4316 	cjne	r5,#0x00,00168$
   1262 0E                 4317 	inc	r6
   1263                    4318 00168$:
   1263 8D 82              4319 	mov	dpl,r5
   1265 8E 83              4320 	mov	dph,r6
   1267 8F F0              4321 	mov	b,r7
   1269 12s00r00           4322 	lcall	__gptrget
   126C FD                 4323 	mov	r5,a
   126D BD 10 02           4324 	cjne	r5,#0x10,00169$
   1270 80 03              4325 	sjmp	00170$
   1272                    4326 00169$:
   1272 02s13r07           4327 	ljmp	00128$
   1275                    4328 00170$:
                           4329 ;	../../../contiki-sensinode//core/net/mac/xmac.c:855: someone_is_sending = 2;
   1275 90s00r0A           4330 	mov	dptr,#_someone_is_sending
   1278 74 02              4331 	mov	a,#0x02
   127A F0                 4332 	movx	@dptr,a
                           4333 ;	../../../contiki-sensinode//core/net/mac/xmac.c:858: &rimeaddr_node_addr)) {
                           4334 ;	../../../contiki-sensinode//core/net/mac/xmac.c:857: if(rimeaddr_cmp(packetbuf_addr(PACKETBUF_ADDR_RECEIVER),
   127B 75 82 19           4335 	mov	dpl,#0x19
   127E 78r00              4336 	mov	r0,#_packetbuf_addr
   1280 79s00              4337 	mov	r1,#(_packetbuf_addr >> 8)
   1282 7As00              4338 	mov	r2,#(_packetbuf_addr >> 16)
   1284 12s00r00           4339 	lcall	__sdcc_banked_call
   1287 AD 82              4340 	mov	r5,dpl
   1289 AE 83              4341 	mov	r6,dph
   128B AF F0              4342 	mov	r7,b
   128D 74r00              4343 	mov	a,#_rimeaddr_node_addr
   128F C0 E0              4344 	push	acc
   1291 74s00              4345 	mov	a,#(_rimeaddr_node_addr >> 8)
   1293 C0 E0              4346 	push	acc
   1295 E4                 4347 	clr	a
   1296 C0 E0              4348 	push	acc
   1298 8D 82              4349 	mov	dpl,r5
   129A 8E 83              4350 	mov	dph,r6
   129C 8F F0              4351 	mov	b,r7
   129E 78r00              4352 	mov	r0,#_rimeaddr_cmp
   12A0 79s00              4353 	mov	r1,#(_rimeaddr_cmp >> 8)
   12A2 7As00              4354 	mov	r2,#(_rimeaddr_cmp >> 16)
   12A4 12s00r00           4355 	lcall	__sdcc_banked_call
   12A7 AE 82              4356 	mov	r6,dpl
   12A9 AF 83              4357 	mov	r7,dph
   12AB 15 81              4358 	dec	sp
   12AD 15 81              4359 	dec	sp
   12AF 15 81              4360 	dec	sp
   12B1 EE                 4361 	mov	a,r6
   12B2 4F                 4362 	orl	a,r7
   12B3 60 08              4363 	jz	00110$
                           4364 ;	../../../contiki-sensinode//core/net/mac/xmac.c:865: waiting_for_packet = 1;
   12B5 90s00r09           4365 	mov	dptr,#_waiting_for_packet
   12B8 74 01              4366 	mov	a,#0x01
   12BA F0                 4367 	movx	@dptr,a
   12BB 80 4A              4368 	sjmp	00111$
   12BD                    4369 00110$:
                           4370 ;	../../../contiki-sensinode//core/net/mac/xmac.c:885: &rimeaddr_null)) {
                           4371 ;	../../../contiki-sensinode//core/net/mac/xmac.c:884: } else if(rimeaddr_cmp(packetbuf_addr(PACKETBUF_ADDR_RECEIVER),
   12BD 75 82 19           4372 	mov	dpl,#0x19
   12C0 78r00              4373 	mov	r0,#_packetbuf_addr
   12C2 79s00              4374 	mov	r1,#(_packetbuf_addr >> 8)
   12C4 7As00              4375 	mov	r2,#(_packetbuf_addr >> 16)
   12C6 12s00r00           4376 	lcall	__sdcc_banked_call
   12C9 AD 82              4377 	mov	r5,dpl
   12CB AE 83              4378 	mov	r6,dph
   12CD AF F0              4379 	mov	r7,b
   12CF 74r00              4380 	mov	a,#_rimeaddr_null
   12D1 C0 E0              4381 	push	acc
   12D3 74s00              4382 	mov	a,#(_rimeaddr_null >> 8)
   12D5 C0 E0              4383 	push	acc
   12D7 74 80              4384 	mov	a,#0x80
   12D9 C0 E0              4385 	push	acc
   12DB 8D 82              4386 	mov	dpl,r5
   12DD 8E 83              4387 	mov	dph,r6
   12DF 8F F0              4388 	mov	b,r7
   12E1 78r00              4389 	mov	r0,#_rimeaddr_cmp
   12E3 79s00              4390 	mov	r1,#(_rimeaddr_cmp >> 8)
   12E5 7As00              4391 	mov	r2,#(_rimeaddr_cmp >> 16)
   12E7 12s00r00           4392 	lcall	__sdcc_banked_call
   12EA AE 82              4393 	mov	r6,dpl
   12EC AF 83              4394 	mov	r7,dph
   12EE 15 81              4395 	dec	sp
   12F0 15 81              4396 	dec	sp
   12F2 15 81              4397 	dec	sp
   12F4 EE                 4398 	mov	a,r6
   12F5 4F                 4399 	orl	a,r7
   12F6 60 0F              4400 	jz	00111$
                           4401 ;	../../../contiki-sensinode//core/net/mac/xmac.c:890: waiting_for_packet = 1;
   12F8 90s00r09           4402 	mov	dptr,#_waiting_for_packet
   12FB 74 01              4403 	mov	a,#0x01
   12FD F0                 4404 	movx	@dptr,a
                           4405 ;	../../../contiki-sensinode//core/net/mac/xmac.c:891: on();
   12FE 78r00              4406 	mov	r0,#_on
   1300 79s00              4407 	mov	r1,#(_on >> 8)
   1302 7As00              4408 	mov	r2,#(_on >> 16)
   1304 12s00r00           4409 	lcall	__sdcc_banked_call
   1307                    4410 00111$:
                           4411 ;	../../../contiki-sensinode//core/net/mac/xmac.c:898: return;
                           4412 ;	../../../contiki-sensinode//core/net/mac/xmac.c:904: } else if(hdr->type == TYPE_STROBE_ACK) {
   1307                    4413 00128$:
   1307 E5 81              4414 	mov	a,sp
   1309 24 F9              4415 	add	a,#0xF9
   130B F5 81              4416 	mov	sp,a
   130D 02s00r00           4417 	ljmp	__sdcc_banked_ret
                           4418 ;------------------------------------------------------------
                           4419 ;Allocation info for local variables in function 'xmac_set_announcement_radio_txpower'
                           4420 ;------------------------------------------------------------
                           4421 ;txpower                   Allocated to registers 
                           4422 ;------------------------------------------------------------
                           4423 ;	../../../contiki-sensinode//core/net/mac/xmac.c:964: xmac_set_announcement_radio_txpower(int txpower)
                           4424 ;	-----------------------------------------
                           4425 ;	 function xmac_set_announcement_radio_txpower
                           4426 ;	-----------------------------------------
   1310                    4427 _xmac_set_announcement_radio_txpower:
                           4428 ;	../../../contiki-sensinode//core/net/mac/xmac.c:969: }
   1310 02s00r00           4429 	ljmp	__sdcc_banked_ret
                           4430 ;------------------------------------------------------------
                           4431 ;Allocation info for local variables in function 'init'
                           4432 ;------------------------------------------------------------
                           4433 ;	../../../contiki-sensinode//core/net/mac/xmac.c:972: init(void)
                           4434 ;	-----------------------------------------
                           4435 ;	 function init
                           4436 ;	-----------------------------------------
   1313                    4437 _init:
                           4438 ;	../../../contiki-sensinode//core/net/mac/xmac.c:974: radio_is_on = 0;
   1313 90s00r0C           4439 	mov	dptr,#_radio_is_on
                           4440 ;	../../../contiki-sensinode//core/net/mac/xmac.c:975: waiting_for_packet = 0;
                           4441 ;	../../../contiki-sensinode//core/net/mac/xmac.c:976: PT_INIT(&pt);
   1316 E4                 4442 	clr	a
   1317 F0                 4443 	movx	@dptr,a
   1318 90s00r09           4444 	mov	dptr,#_waiting_for_packet
   131B F0                 4445 	movx	@dptr,a
   131C 90s00r08           4446 	mov	dptr,#_pt
   131F F0                 4447 	movx	@dptr,a
   1320 A3                 4448 	inc	dptr
   1321 E4                 4449 	clr	a
   1322 F0                 4450 	movx	@dptr,a
                           4451 ;	../../../contiki-sensinode//core/net/mac/xmac.c:978: (void (*)(struct rtimer *, void *))powercycle, NULL);
   1323 7Dr32              4452 	mov	r5,#_powercycle
   1325 7Es01              4453 	mov	r6,#(_powercycle >> 8)
   1327 7Fs00              4454 	mov	r7,#(_powercycle >> 16)
                           4455 ;	../../../contiki-sensinode//core/net/mac/xmac.c:977: rtimer_set(&rt, RTIMER_NOW() + xmac_config.off_time, 1,
   1329 AB E2              4456 	mov	r3,_T1CNTL
   132B 7C 00              4457 	mov	r4,#0x00
   132D A9 E3              4458 	mov	r1,_T1CNTH
   132F 89 02              4459 	mov	ar2,r1
   1331 E4                 4460 	clr	a
   1332 2B                 4461 	add	a,r3
   1333 FB                 4462 	mov	r3,a
   1334 EA                 4463 	mov	a,r2
   1335 3C                 4464 	addc	a,r4
   1336 FC                 4465 	mov	r4,a
   1337 90s00r02           4466 	mov	dptr,#(_xmac_config + 0x0002)
   133A E0                 4467 	movx	a,@dptr
   133B F9                 4468 	mov	r1,a
   133C A3                 4469 	inc	dptr
   133D E0                 4470 	movx	a,@dptr
   133E FA                 4471 	mov	r2,a
   133F E9                 4472 	mov	a,r1
   1340 2B                 4473 	add	a,r3
   1341 F9                 4474 	mov	r1,a
   1342 EA                 4475 	mov	a,r2
   1343 3C                 4476 	addc	a,r4
   1344 FA                 4477 	mov	r2,a
   1345 E4                 4478 	clr	a
   1346 C0 E0              4479 	push	acc
   1348 C0 E0              4480 	push	acc
   134A C0 E0              4481 	push	acc
   134C C0 05              4482 	push	ar5
   134E C0 06              4483 	push	ar6
   1350 C0 07              4484 	push	ar7
   1352 74 01              4485 	mov	a,#0x01
   1354 C0 E0              4486 	push	acc
   1356 E4                 4487 	clr	a
   1357 C0 E0              4488 	push	acc
   1359 C0 01              4489 	push	ar1
   135B C0 02              4490 	push	ar2
   135D 90s00r00           4491 	mov	dptr,#_rt
   1360 75 F0 00           4492 	mov	b,#0x00
   1363 78r00              4493 	mov	r0,#_rtimer_set
   1365 79s00              4494 	mov	r1,#(_rtimer_set >> 8)
   1367 7As00              4495 	mov	r2,#(_rtimer_set >> 16)
   1369 12s00r00           4496 	lcall	__sdcc_banked_call
   136C E5 81              4497 	mov	a,sp
   136E 24 F6              4498 	add	a,#0xf6
   1370 F5 81              4499 	mov	sp,a
                           4500 ;	../../../contiki-sensinode//core/net/mac/xmac.c:980: xmac_is_on = 1;
   1372 90s00r08           4501 	mov	dptr,#_xmac_is_on
   1375 74 01              4502 	mov	a,#0x01
   1377 F0                 4503 	movx	@dptr,a
                           4504 ;	../../../contiki-sensinode//core/net/mac/xmac.c:983: list_init(encounter_list);
   1378 90s00r10           4505 	mov	dptr,#_encounter_list
   137B E0                 4506 	movx	a,@dptr
   137C FD                 4507 	mov	r5,a
   137D A3                 4508 	inc	dptr
   137E E0                 4509 	movx	a,@dptr
   137F FE                 4510 	mov	r6,a
   1380 A3                 4511 	inc	dptr
   1381 E0                 4512 	movx	a,@dptr
   1382 FF                 4513 	mov	r7,a
   1383 8D 82              4514 	mov	dpl,r5
   1385 8E 83              4515 	mov	dph,r6
   1387 8F F0              4516 	mov	b,r7
   1389 78r00              4517 	mov	r0,#_list_init
   138B 79s00              4518 	mov	r1,#(_list_init >> 8)
   138D 7As00              4519 	mov	r2,#(_list_init >> 16)
   138F 12s00r00           4520 	lcall	__sdcc_banked_call
                           4521 ;	../../../contiki-sensinode//core/net/mac/xmac.c:984: memb_init(&encounter_memb);
   1392 90s00r13           4522 	mov	dptr,#_encounter_memb
   1395 75 F0 00           4523 	mov	b,#0x00
   1398 78r00              4524 	mov	r0,#_memb_init
   139A 79s00              4525 	mov	r1,#(_memb_init >> 8)
   139C 7As00              4526 	mov	r2,#(_memb_init >> 16)
   139E 12s00r00           4527 	lcall	__sdcc_banked_call
   13A1 02s00r00           4528 	ljmp	__sdcc_banked_ret
                           4529 ;------------------------------------------------------------
                           4530 ;Allocation info for local variables in function 'turn_on'
                           4531 ;------------------------------------------------------------
                           4532 ;	../../../contiki-sensinode//core/net/mac/xmac.c:995: turn_on(void)
                           4533 ;	-----------------------------------------
                           4534 ;	 function turn_on
                           4535 ;	-----------------------------------------
   13A4                    4536 _turn_on:
                           4537 ;	../../../contiki-sensinode//core/net/mac/xmac.c:997: xmac_is_on = 1;
   13A4 90s00r08           4538 	mov	dptr,#_xmac_is_on
   13A7 74 01              4539 	mov	a,#0x01
   13A9 F0                 4540 	movx	@dptr,a
                           4541 ;	../../../contiki-sensinode//core/net/mac/xmac.c:999: (void (*)(struct rtimer *, void *))powercycle, NULL);
   13AA 7Dr32              4542 	mov	r5,#_powercycle
   13AC 7Es01              4543 	mov	r6,#(_powercycle >> 8)
   13AE 7Fs00              4544 	mov	r7,#(_powercycle >> 16)
                           4545 ;	../../../contiki-sensinode//core/net/mac/xmac.c:998: rtimer_set(&rt, RTIMER_NOW() + xmac_config.off_time, 1,
   13B0 AB E2              4546 	mov	r3,_T1CNTL
   13B2 7C 00              4547 	mov	r4,#0x00
   13B4 A9 E3              4548 	mov	r1,_T1CNTH
   13B6 89 02              4549 	mov	ar2,r1
   13B8 E4                 4550 	clr	a
   13B9 2B                 4551 	add	a,r3
   13BA FB                 4552 	mov	r3,a
   13BB EA                 4553 	mov	a,r2
   13BC 3C                 4554 	addc	a,r4
   13BD FC                 4555 	mov	r4,a
   13BE 90s00r02           4556 	mov	dptr,#(_xmac_config + 0x0002)
   13C1 E0                 4557 	movx	a,@dptr
   13C2 F9                 4558 	mov	r1,a
   13C3 A3                 4559 	inc	dptr
   13C4 E0                 4560 	movx	a,@dptr
   13C5 FA                 4561 	mov	r2,a
   13C6 E9                 4562 	mov	a,r1
   13C7 2B                 4563 	add	a,r3
   13C8 F9                 4564 	mov	r1,a
   13C9 EA                 4565 	mov	a,r2
   13CA 3C                 4566 	addc	a,r4
   13CB FA                 4567 	mov	r2,a
   13CC E4                 4568 	clr	a
   13CD C0 E0              4569 	push	acc
   13CF C0 E0              4570 	push	acc
   13D1 C0 E0              4571 	push	acc
   13D3 C0 05              4572 	push	ar5
   13D5 C0 06              4573 	push	ar6
   13D7 C0 07              4574 	push	ar7
   13D9 74 01              4575 	mov	a,#0x01
   13DB C0 E0              4576 	push	acc
   13DD E4                 4577 	clr	a
   13DE C0 E0              4578 	push	acc
   13E0 C0 01              4579 	push	ar1
   13E2 C0 02              4580 	push	ar2
   13E4 90s00r00           4581 	mov	dptr,#_rt
   13E7 75 F0 00           4582 	mov	b,#0x00
   13EA 78r00              4583 	mov	r0,#_rtimer_set
   13EC 79s00              4584 	mov	r1,#(_rtimer_set >> 8)
   13EE 7As00              4585 	mov	r2,#(_rtimer_set >> 16)
   13F0 12s00r00           4586 	lcall	__sdcc_banked_call
   13F3 E5 81              4587 	mov	a,sp
   13F5 24 F6              4588 	add	a,#0xf6
   13F7 F5 81              4589 	mov	sp,a
                           4590 ;	../../../contiki-sensinode//core/net/mac/xmac.c:1000: return 1;
   13F9 90 00 01           4591 	mov	dptr,#0x0001
   13FC 02s00r00           4592 	ljmp	__sdcc_banked_ret
                           4593 ;------------------------------------------------------------
                           4594 ;Allocation info for local variables in function 'turn_off'
                           4595 ;------------------------------------------------------------
                           4596 ;keep_radio_on             Allocated to registers r6 r7 
                           4597 ;------------------------------------------------------------
                           4598 ;	../../../contiki-sensinode//core/net/mac/xmac.c:1004: turn_off(int keep_radio_on)
                           4599 ;	-----------------------------------------
                           4600 ;	 function turn_off
                           4601 ;	-----------------------------------------
   13FF                    4602 _turn_off:
   13FF AE 82              4603 	mov	r6,dpl
   1401 AF 83              4604 	mov	r7,dph
                           4605 ;	../../../contiki-sensinode//core/net/mac/xmac.c:1006: xmac_is_on = 0;
   1403 90s00r08           4606 	mov	dptr,#_xmac_is_on
   1406 E4                 4607 	clr	a
   1407 F0                 4608 	movx	@dptr,a
                           4609 ;	../../../contiki-sensinode//core/net/mac/xmac.c:1007: if(keep_radio_on) {
   1408 EE                 4610 	mov	a,r6
   1409 4F                 4611 	orl	a,r7
   140A 60 2B              4612 	jz	00102$
                           4613 ;	../../../contiki-sensinode//core/net/mac/xmac.c:1008: return NETSTACK_RADIO.on();
   140C 90s00r18           4614 	mov	dptr,#(_cc2530_rf_driver + 0x0018)
   140F E4                 4615 	clr	a
   1410 93                 4616 	movc	a,@a+dptr
   1411 FD                 4617 	mov	r5,a
   1412 A3                 4618 	inc	dptr
   1413 E4                 4619 	clr	a
   1414 93                 4620 	movc	a,@a+dptr
   1415 FE                 4621 	mov	r6,a
   1416 A3                 4622 	inc	dptr
   1417 E4                 4623 	clr	a
   1418 93                 4624 	movc	a,@a+dptr
   1419 FF                 4625 	mov	r7,a
   141A C0 07              4626 	push	ar7
   141C C0 05              4627 	push	ar5
   141E C0 06              4628 	push	ar6
   1420 C0 07              4629 	push	ar7
   1422 D0 02              4630 	pop	ar2
   1424 D0 01              4631 	pop	ar1
   1426 D0 00              4632 	pop	ar0
   1428 12s00r00           4633 	lcall	__sdcc_banked_call
   142B AD 82              4634 	mov	r5,dpl
   142D AE 83              4635 	mov	r6,dph
   142F D0 07              4636 	pop	ar7
   1431 8D 82              4637 	mov	dpl,r5
   1433 8E 83              4638 	mov	dph,r6
   1435 80 29              4639 	sjmp	00104$
   1437                    4640 00102$:
                           4641 ;	../../../contiki-sensinode//core/net/mac/xmac.c:1010: return NETSTACK_RADIO.off();
   1437 90s00r1B           4642 	mov	dptr,#(_cc2530_rf_driver + 0x001b)
   143A E4                 4643 	clr	a
   143B 93                 4644 	movc	a,@a+dptr
   143C FD                 4645 	mov	r5,a
   143D A3                 4646 	inc	dptr
   143E E4                 4647 	clr	a
   143F 93                 4648 	movc	a,@a+dptr
   1440 FE                 4649 	mov	r6,a
   1441 A3                 4650 	inc	dptr
   1442 E4                 4651 	clr	a
   1443 93                 4652 	movc	a,@a+dptr
   1444 FF                 4653 	mov	r7,a
   1445 C0 07              4654 	push	ar7
   1447 C0 05              4655 	push	ar5
   1449 C0 06              4656 	push	ar6
   144B C0 07              4657 	push	ar7
   144D D0 02              4658 	pop	ar2
   144F D0 01              4659 	pop	ar1
   1451 D0 00              4660 	pop	ar0
   1453 12s00r00           4661 	lcall	__sdcc_banked_call
   1456 AD 82              4662 	mov	r5,dpl
   1458 AE 83              4663 	mov	r6,dph
   145A D0 07              4664 	pop	ar7
   145C 8D 82              4665 	mov	dpl,r5
   145E 8E 83              4666 	mov	dph,r6
   1460                    4667 00104$:
   1460 02s00r00           4668 	ljmp	__sdcc_banked_ret
                           4669 ;------------------------------------------------------------
                           4670 ;Allocation info for local variables in function 'channel_check_interval'
                           4671 ;------------------------------------------------------------
                           4672 ;	../../../contiki-sensinode//core/net/mac/xmac.c:1015: channel_check_interval(void)
                           4673 ;	-----------------------------------------
                           4674 ;	 function channel_check_interval
                           4675 ;	-----------------------------------------
   1463                    4676 _channel_check_interval:
                           4677 ;	../../../contiki-sensinode//core/net/mac/xmac.c:1017: return (1ul * CLOCK_SECOND * DEFAULT_PERIOD) / RTIMER_ARCH_SECOND;
   1463 90 00 0F           4678 	mov	dptr,#0x000F
   1466 02s00r00           4679 	ljmp	__sdcc_banked_ret
                           4680 	.area CSEG    (CODE)
                           4681 	.area CONST   (CODE)
   0000                    4682 _xmac_driver:
   0000r18s00 80           4683 	.byte _str_0,(_str_0 >> 8),#0x80
   0003r13s13s00           4684 	.byte _init,(_init >> 8),(_init >> 16)
   0006rB1s0Es00           4685 	.byte _qsend_packet,(_qsend_packet >> 8),(_qsend_packet >> 16)
   0009r70s0Fs00           4686 	.byte _qsend_list,(_qsend_list >> 8),(_qsend_list >> 16)
   000CrEBs0Fs00           4687 	.byte _input_packet,(_input_packet >> 8),(_input_packet >> 16)
   000FrA4s13s00           4688 	.byte _turn_on,(_turn_on >> 8),(_turn_on >> 16)
   0012rFFs13s00           4689 	.byte _turn_off,(_turn_off >> 8),(_turn_off >> 16)
   0015r63s14s00           4690 	.byte _channel_check_interval,(_channel_check_interval >> 8),(_channel_check_interval >> 16)
   0018                    4691 _str_0:
   0018 58 2D 4D 41 43     4692 	.ascii "X-MAC"
   001D 00                 4693 	.db 0x00
                           4694 	.area XINIT   (CODE)
   0000                    4695 __xinit__xmac_config:
   0000 61 00              4696 	.byte #0x61,#0x00	; 97
   0002 40 07              4697 	.byte #0x40,#0x07	; 1856
   0004 C4 08              4698 	.byte #0xC4,#0x08	; 2244
   0006 3C 00              4699 	.byte #0x3C,#0x00	; 60
   0008                    4700 __xinit__xmac_is_on:
   0008 00                 4701 	.db #0x00	; 0
   0009                    4702 __xinit__waiting_for_packet:
   0009 00                 4703 	.db #0x00	; 0
   000A                    4704 __xinit__someone_is_sending:
   000A 00                 4705 	.db #0x00	; 0
   000B                    4706 __xinit__we_are_sending:
   000B 00                 4707 	.db #0x00	; 0
   000C                    4708 __xinit__radio_is_on:
   000C 00                 4709 	.db #0x00	; 0
   000D                    4710 __xinit__encounter_list_list:
                           4711 ; generic printIvalPtr
   000D 00 00 00           4712 	.byte #0x00,#0x00,#0x00
   0010                    4713 __xinit__encounter_list:
   0010r0Ds00 00           4714 	.byte _encounter_list_list,(_encounter_list_list >> 8),#0x00
   0013                    4715 __xinit__encounter_memb:
   0013 0D 00              4716 	.byte #0x0D,#0x00	; 13
   0015 04 00              4717 	.byte #0x04,#0x00	; 4
   0017r0Bs00 00           4718 	.byte _encounter_memb_memb_count,(_encounter_memb_memb_count >> 8),#0x00
   001Ar0Fs00 00           4719 	.byte _encounter_memb_memb_mem,(_encounter_memb_memb_mem >> 8),#0x00
                           4720 	.area CABS    (ABS,CODE)
